
cfe47622rom:     file format elf32-littlearm


Disassembly of section .text:

8520c000 <_ftext>:
8520c000:	ea000027 	b	8520c0a4 <tr_rst>
8520c004:	e59ff014 	ldr	pc, [pc, #20]	; 8520c020 <_tr_und>
8520c008:	e59ff014 	ldr	pc, [pc, #20]	; 8520c024 <_tr_swi>
8520c00c:	e59ff014 	ldr	pc, [pc, #20]	; 8520c028 <_tr_iab>
8520c010:	e59ff014 	ldr	pc, [pc, #20]	; 8520c02c <_tr_dab>
8520c014:	e59ff014 	ldr	pc, [pc, #20]	; 8520c030 <_tr_bad>
8520c018:	e59ff014 	ldr	pc, [pc, #20]	; 8520c034 <_tr_irq>
8520c01c:	e59ff014 	ldr	pc, [pc, #20]	; 8520c038 <_tr_fiq>

8520c020 <_tr_und>:
8520c020:	8520cf84 	.word	0x8520cf84

8520c024 <_tr_swi>:
8520c024:	8520cfa8 	.word	0x8520cfa8

8520c028 <_tr_iab>:
8520c028:	8520cfcc 	.word	0x8520cfcc

8520c02c <_tr_dab>:
8520c02c:	8520cffc 	.word	0x8520cffc

8520c030 <_tr_bad>:
8520c030:	8520d02c 	.word	0x8520d02c

8520c034 <_tr_irq>:
8520c034:	8520d05c 	.word	0x8520d05c

8520c038 <_tr_fiq>:
8520c038:	8520d08c 	.word	0x8520d08c

8520c03c <_pad>:
8520c03c:	12345678 	.word	0x12345678

8520c040 <mem_textreloc>:
8520c040:	00000000 	.word	0x00000000

8520c044 <mem_textbase>:
8520c044:	00000000 	.word	0x00000000

8520c048 <mem_textsize>:
8520c048:	00000000 	.word	0x00000000

8520c04c <mem_totalsize>:
8520c04c:	00000000 	.word	0x00000000

8520c050 <mem_usablesize>:
8520c050:	00000000 	.word	0x00000000

8520c054 <mem_topofmem>:
8520c054:	00000000 	.word	0x00000000

8520c058 <mem_heapstart>:
8520c058:	00000000 	.word	0x00000000

8520c05c <mem_bottomofmem>:
8520c05c:	00000000 	.word	0x00000000

8520c060 <mem_datareloc>:
8520c060:	00000000 	.word	0x00000000

8520c064 <mem_stacktop>:
8520c064:	00000000 	.word	0x00000000

8520c068 <mem_stackbottom>:
8520c068:	00000000 	.word	0x00000000

8520c06c <cpu_prid>:
8520c06c:	00000000 	.word	0x00000000

8520c070 <rom_option>:
8520c070:	00000000 	.word	0x00000000

8520c074 <fmw_arg0>:
8520c074:	00000000 	.word	0x00000000

8520c078 <segment_table>:
8520c078:	8521a494 	.word	0x8521a494
8520c07c:	8521c340 	.word	0x8521c340
8520c080:	8521fa18 	.word	0x8521fa18
8520c084:	85220e64 	.word	0x85220e64
8520c088:	8520c000 	.word	0x8520c000
8520c08c:	8521fa18 	.word	0x8521fa18
	...

8520c0a0 <save_stack>:
8520c0a0:	00000000 	.word	0x00000000

8520c0a4 <tr_rst>:
8520c0a4:	e10f0000 	mrs	r0, CPSR
8520c0a8:	e3a0101f 	mov	r1, #31
8520c0ac:	e1c00001 	bic	r0, r0, r1
8520c0b0:	e3a010d3 	mov	r1, #211	; 0xd3
8520c0b4:	e1800001 	orr	r0, r0, r1
8520c0b8:	e129f000 	msr	CPSR_fc, r0
8520c0bc:	ebffffff 	bl	8520c0c0 <tr_rst+0x1c>
8520c0c0:	e320f000 	nop	{0}
8520c0c4:	e59fd9d0 	ldr	sp, [pc, #2512]	; 8520ca9c <core1_wait+0x44>
8520c0c8:	e04ee00d 	sub	lr, lr, sp
8520c0cc:	e59fd9cc 	ldr	sp, [pc, #2508]	; 8520caa0 <core1_wait+0x48>
8520c0d0:	e08dd00e 	add	sp, sp, lr
8520c0d4:	e12fff3d 	blx	sp
8520c0d8:	e24f00e0 	sub	r0, pc, #224	; 0xe0
8520c0dc:	e1a00000 	nop			; (mov r0, r0)
8520c0e0:	e59f19bc 	ldr	r1, [pc, #2492]	; 8520caa4 <core1_wait+0x4c>
8520c0e4:	e040b001 	sub	fp, r0, r1
8520c0e8:	ebffffff 	bl	8520c0ec <tr_rst+0x48>
8520c0ec:	e320f000 	nop	{0}
8520c0f0:	e59fd9b0 	ldr	sp, [pc, #2480]	; 8520caa8 <core1_wait+0x50>
8520c0f4:	e04ee00d 	sub	lr, lr, sp
8520c0f8:	e59fd9ac 	ldr	sp, [pc, #2476]	; 8520caac <core1_wait+0x54>
8520c0fc:	e08dd00e 	add	sp, sp, lr
8520c100:	e12fff3d 	blx	sp
8520c104:	ebffffff 	bl	8520c108 <tr_rst+0x64>
8520c108:	e320f000 	nop	{0}
8520c10c:	e59fd99c 	ldr	sp, [pc, #2460]	; 8520cab0 <core1_wait+0x58>
8520c110:	e04ee00d 	sub	lr, lr, sp
8520c114:	e59fd998 	ldr	sp, [pc, #2456]	; 8520cab4 <core1_wait+0x5c>
8520c118:	e08dd00e 	add	sp, sp, lr
8520c11c:	e12fff3d 	blx	sp
8520c120:	ee100fb0 	mrc	15, 0, r0, cr0, cr0, {5}
8520c124:	e200000f 	and	r0, r0, #15
8520c128:	e3500000 	cmp	r0, #0
8520c12c:	1a000249 	bne	8520ca58 <core1_wait>
8520c130:	e59f0980 	ldr	r0, [pc, #2432]	; 8520cab8 <core1_wait+0x60>
8520c134:	ebffffff 	bl	8520c138 <tr_rst+0x94>
8520c138:	e320f000 	nop	{0}
8520c13c:	e59fd978 	ldr	sp, [pc, #2424]	; 8520cabc <core1_wait+0x64>
8520c140:	e04ee00d 	sub	lr, lr, sp
8520c144:	e59fd974 	ldr	sp, [pc, #2420]	; 8520cac0 <core1_wait+0x68>
8520c148:	e08dd00e 	add	sp, sp, lr
8520c14c:	e12fff3d 	blx	sp
8520c150:	e59f096c 	ldr	r0, [pc, #2412]	; 8520cac4 <core1_wait+0x6c>
8520c154:	ebffffff 	bl	8520c158 <tr_rst+0xb4>
8520c158:	e320f000 	nop	{0}
8520c15c:	e59fd964 	ldr	sp, [pc, #2404]	; 8520cac8 <core1_wait+0x70>
8520c160:	e04ee00d 	sub	lr, lr, sp
8520c164:	e59fd954 	ldr	sp, [pc, #2388]	; 8520cac0 <core1_wait+0x68>
8520c168:	e08dd00e 	add	sp, sp, lr
8520c16c:	e12fff3d 	blx	sp
8520c170:	e35b0000 	cmp	fp, #0
8520c174:	0affffff 	beq	8520c178 <skip_pmc>

8520c178 <skip_pmc>:
8520c178:	ebffffff 	bl	8520c17c <skip_pmc+0x4>
8520c17c:	e320f000 	nop	{0}
8520c180:	e59fd944 	ldr	sp, [pc, #2372]	; 8520cacc <core1_wait+0x74>
8520c184:	e04ee00d 	sub	lr, lr, sp
8520c188:	e59fd940 	ldr	sp, [pc, #2368]	; 8520cad0 <core1_wait+0x78>
8520c18c:	e08dd00e 	add	sp, sp, lr
8520c190:	e12fff3d 	blx	sp
8520c194:	e35b0000 	cmp	fp, #0
8520c198:	0a000015 	beq	8520c1f4 <enable_mmu>
8520c19c:	e59f0930 	ldr	r0, [pc, #2352]	; 8520cad4 <core1_wait+0x7c>
8520c1a0:	ebffffff 	bl	8520c1a4 <skip_pmc+0x2c>
8520c1a4:	e320f000 	nop	{0}
8520c1a8:	e59fd928 	ldr	sp, [pc, #2344]	; 8520cad8 <core1_wait+0x80>
8520c1ac:	e04ee00d 	sub	lr, lr, sp
8520c1b0:	e59fd908 	ldr	sp, [pc, #2312]	; 8520cac0 <core1_wait+0x68>
8520c1b4:	e08dd00e 	add	sp, sp, lr
8520c1b8:	e12fff3d 	blx	sp

8520c1bc <copy2ram>:
8520c1bc:	ebffffff 	bl	8520c1c0 <copy2ram+0x4>
8520c1c0:	e320f000 	nop	{0}
8520c1c4:	e59f4910 	ldr	r4, [pc, #2320]	; 8520cadc <core1_wait+0x84>
8520c1c8:	e04ee004 	sub	lr, lr, r4
8520c1cc:	e59f490c 	ldr	r4, [pc, #2316]	; 8520cae0 <core1_wait+0x88>
8520c1d0:	e084400e 	add	r4, r4, lr
8520c1d4:	e5941010 	ldr	r1, [r4, #16]
8520c1d8:	e081000b 	add	r0, r1, fp
8520c1dc:	e5942008 	ldr	r2, [r4, #8]
8520c1e0:	e082200b 	add	r2, r2, fp

8520c1e4 <copy_loop>:
8520c1e4:	e8b00600 	ldm	r0!, {r9, sl}
8520c1e8:	e8a10600 	stmia	r1!, {r9, sl}
8520c1ec:	e1500002 	cmp	r0, r2
8520c1f0:	3afffffb 	bcc	8520c1e4 <copy_loop>

8520c1f4 <enable_mmu>:
8520c1f4:	e59f08e8 	ldr	r0, [pc, #2280]	; 8520cae4 <core1_wait+0x8c>
8520c1f8:	ebffffff 	bl	8520c1fc <enable_mmu+0x8>
8520c1fc:	e320f000 	nop	{0}
8520c200:	e59fd8e0 	ldr	sp, [pc, #2272]	; 8520cae8 <core1_wait+0x90>
8520c204:	e04ee00d 	sub	lr, lr, sp
8520c208:	e59fd8b0 	ldr	sp, [pc, #2224]	; 8520cac0 <core1_wait+0x68>
8520c20c:	e08dd00e 	add	sp, sp, lr
8520c210:	e12fff3d 	blx	sp
8520c214:	ebffffff 	bl	8520c218 <enable_mmu+0x24>
8520c218:	e320f000 	nop	{0}
8520c21c:	e59fd8c8 	ldr	sp, [pc, #2248]	; 8520caec <core1_wait+0x94>
8520c220:	e04ee00d 	sub	lr, lr, sp
8520c224:	e59fd8c4 	ldr	sp, [pc, #2244]	; 8520caf0 <core1_wait+0x98>
8520c228:	e08dd00e 	add	sp, sp, lr
8520c22c:	e12fff3d 	blx	sp
8520c230:	e59f08bc 	ldr	r0, [pc, #2236]	; 8520caf4 <core1_wait+0x9c>
8520c234:	ebffffff 	bl	8520c238 <enable_mmu+0x44>
8520c238:	e320f000 	nop	{0}
8520c23c:	e59fd8b4 	ldr	sp, [pc, #2228]	; 8520caf8 <core1_wait+0xa0>
8520c240:	e04ee00d 	sub	lr, lr, sp
8520c244:	e59fd874 	ldr	sp, [pc, #2164]	; 8520cac0 <core1_wait+0x68>
8520c248:	e08dd00e 	add	sp, sp, lr
8520c24c:	e12fff3d 	blx	sp
8520c250:	ebffffff 	bl	8520c254 <enable_mmu+0x60>
8520c254:	e320f000 	nop	{0}
8520c258:	e59fd89c 	ldr	sp, [pc, #2204]	; 8520cafc <core1_wait+0xa4>
8520c25c:	e04ee00d 	sub	lr, lr, sp
8520c260:	e59fd898 	ldr	sp, [pc, #2200]	; 8520cb00 <core1_wait+0xa8>
8520c264:	e08dd00e 	add	sp, sp, lr
8520c268:	e12fff3d 	blx	sp
8520c26c:	ebffffff 	bl	8520c270 <enable_mmu+0x7c>
8520c270:	e320f000 	nop	{0}
8520c274:	e59fd888 	ldr	sp, [pc, #2184]	; 8520cb04 <core1_wait+0xac>
8520c278:	e04ee00d 	sub	lr, lr, sp
8520c27c:	e59fd884 	ldr	sp, [pc, #2180]	; 8520cb08 <core1_wait+0xb0>
8520c280:	e08dd00e 	add	sp, sp, lr
8520c284:	e12fff3d 	blx	sp
8520c288:	ebffffff 	bl	8520c28c <enable_mmu+0x98>
8520c28c:	e320f000 	nop	{0}
8520c290:	e59fd874 	ldr	sp, [pc, #2164]	; 8520cb0c <core1_wait+0xb4>
8520c294:	e04ee00d 	sub	lr, lr, sp
8520c298:	e59fd870 	ldr	sp, [pc, #2160]	; 8520cb10 <core1_wait+0xb8>
8520c29c:	e08dd00e 	add	sp, sp, lr
8520c2a0:	e12fff3d 	blx	sp

8520c2a4 <clear_bss>:
8520c2a4:	e59f0868 	ldr	r0, [pc, #2152]	; 8520cb14 <core1_wait+0xbc>
8520c2a8:	ebffffff 	bl	8520c2ac <clear_bss+0x8>
8520c2ac:	e320f000 	nop	{0}
8520c2b0:	e59fd860 	ldr	sp, [pc, #2144]	; 8520cb18 <core1_wait+0xc0>
8520c2b4:	e04ee00d 	sub	lr, lr, sp
8520c2b8:	e59fd800 	ldr	sp, [pc, #2048]	; 8520cac0 <core1_wait+0x68>
8520c2bc:	e08dd00e 	add	sp, sp, lr
8520c2c0:	e12fff3d 	blx	sp
8520c2c4:	ebffffff 	bl	8520c2c8 <clear_bss+0x24>
8520c2c8:	e320f000 	nop	{0}
8520c2cc:	e59f4848 	ldr	r4, [pc, #2120]	; 8520cb1c <core1_wait+0xc4>
8520c2d0:	e04ee004 	sub	lr, lr, r4
8520c2d4:	e59f4804 	ldr	r4, [pc, #2052]	; 8520cae0 <core1_wait+0x88>
8520c2d8:	e084400e 	add	r4, r4, lr
8520c2dc:	e5940014 	ldr	r0, [r4, #20]
8520c2e0:	e594100c 	ldr	r1, [r4, #12]
8520c2e4:	e3a02000 	mov	r2, #0
8520c2e8:	e1500001 	cmp	r0, r1
8520c2ec:	0a000003 	beq	8520c300 <call_c_main>

8520c2f0 <clbss_l>:
8520c2f0:	e5802000 	str	r2, [r0]
8520c2f4:	e2800004 	add	r0, r0, #4
8520c2f8:	e1500001 	cmp	r0, r1
8520c2fc:	1afffffb 	bne	8520c2f0 <clbss_l>

8520c300 <call_c_main>:
8520c300:	e59f0818 	ldr	r0, [pc, #2072]	; 8520cb20 <core1_wait+0xc8>
8520c304:	ebffffff 	bl	8520c308 <call_c_main+0x8>
8520c308:	e320f000 	nop	{0}
8520c30c:	e59fd810 	ldr	sp, [pc, #2064]	; 8520cb24 <core1_wait+0xcc>
8520c310:	e04ee00d 	sub	lr, lr, sp
8520c314:	e59fd7a4 	ldr	sp, [pc, #1956]	; 8520cac0 <core1_wait+0x68>
8520c318:	e08dd00e 	add	sp, sp, lr
8520c31c:	e12fff3d 	blx	sp
8520c320:	e3a00c02 	mov	r0, #512	; 0x200
8520c324:	e59f17fc 	ldr	r1, [pc, #2044]	; 8520cb28 <core1_wait+0xd0>
8520c328:	e5810000 	str	r0, [r1]
8520c32c:	ebffffff 	bl	8520c330 <call_c_main+0x30>
8520c330:	e320f000 	nop	{0}
8520c334:	e59fd7f0 	ldr	sp, [pc, #2032]	; 8520cb2c <core1_wait+0xd4>
8520c338:	e04ee00d 	sub	lr, lr, sp
8520c33c:	e59fd7ec 	ldr	sp, [pc, #2028]	; 8520cb30 <core1_wait+0xd8>
8520c340:	e08dd00e 	add	sp, sp, lr
8520c344:	e12fff3d 	blx	sp
8520c348:	e1a0c000 	mov	ip, r0
8520c34c:	e59f17e0 	ldr	r1, [pc, #2016]	; 8520cb34 <core1_wait+0xdc>
8520c350:	e581c000 	str	ip, [r1]
8520c354:	e3a00000 	mov	r0, #0
8520c358:	e59f17d8 	ldr	r1, [pc, #2008]	; 8520cb38 <core1_wait+0xe0>
8520c35c:	e5810000 	str	r0, [r1]
8520c360:	e59f17d4 	ldr	r1, [pc, #2004]	; 8520cb3c <core1_wait+0xe4>
8520c364:	e5810000 	str	r0, [r1]
8520c368:	ebffffff 	bl	8520c36c <call_c_main+0x6c>
8520c36c:	e320f000 	nop	{0}
8520c370:	e59f47c8 	ldr	r4, [pc, #1992]	; 8520cb40 <core1_wait+0xe8>
8520c374:	e04ee004 	sub	lr, lr, r4
8520c378:	e59f4760 	ldr	r4, [pc, #1888]	; 8520cae0 <core1_wait+0x88>
8520c37c:	e084400e 	add	r4, r4, lr
8520c380:	e5940010 	ldr	r0, [r4, #16]
8520c384:	e59f17b8 	ldr	r1, [pc, #1976]	; 8520cb44 <core1_wait+0xec>
8520c388:	e5810000 	str	r0, [r1]
8520c38c:	e5942000 	ldr	r2, [r4]
8520c390:	e0422000 	sub	r2, r2, r0
8520c394:	e59f17ac 	ldr	r1, [pc, #1964]	; 8520cb48 <core1_wait+0xf0>
8520c398:	e5812000 	str	r2, [r1]
8520c39c:	e59f17a8 	ldr	r1, [pc, #1960]	; 8520cb4c <core1_wait+0xf4>
8520c3a0:	e5810000 	str	r0, [r1]
8520c3a4:	e594000c 	ldr	r0, [r4, #12]
8520c3a8:	e59f17a0 	ldr	r1, [pc, #1952]	; 8520cb50 <core1_wait+0xf8>
8520c3ac:	e5810000 	str	r0, [r1]
8520c3b0:	e2800a06 	add	r0, r0, #24576	; 0x6000
8520c3b4:	e59f1798 	ldr	r1, [pc, #1944]	; 8520cb54 <core1_wait+0xfc>
8520c3b8:	e5810000 	str	r0, [r1]
8520c3bc:	e59f1794 	ldr	r1, [pc, #1940]	; 8520cb58 <core1_wait+0x100>
8520c3c0:	e5810000 	str	r0, [r1]
8520c3c4:	e2800801 	add	r0, r0, #65536	; 0x10000
8520c3c8:	e59f178c 	ldr	r1, [pc, #1932]	; 8520cb5c <core1_wait+0x104>
8520c3cc:	e5810000 	str	r0, [r1]
8520c3d0:	e3a00000 	mov	r0, #0
8520c3d4:	e59f1784 	ldr	r1, [pc, #1924]	; 8520cb60 <core1_wait+0x108>
8520c3d8:	e5810000 	str	r0, [r1]
8520c3dc:	ea000168 	b	8520c984 <main>

8520c3e0 <theend>:
8520c3e0:	e320f002 	wfe
8520c3e4:	eafffffd 	b	8520c3e0 <theend>
	...

8520c56c <_cferom_size>:
8520c56c:	00013a18 	.word	0x00013a18
8520c570:	2d656663 	.word	0x2d656663
8520c574:	26000176 	.word	0x26000176
8520c578:	0000e7a3 	.word	0x0000e7a3
8520c57c:	00000000 	.word	0x00000000

8520c580 <nvram_data_storage>:
8520c580:	0f1e2d3c 	.word	0x0f1e2d3c
	...

8520c984 <main>:
8520c984:	ebffffff 	bl	8520c988 <main+0x4>
8520c988:	e320f000 	nop	{0}
8520c98c:	e59fd1d0 	ldr	sp, [pc, #464]	; 8520cb64 <core1_wait+0x10c>
8520c990:	e04ee00d 	sub	lr, lr, sp
8520c994:	e59fd1cc 	ldr	sp, [pc, #460]	; 8520cb68 <core1_wait+0x110>
8520c998:	e08dd00e 	add	sp, sp, lr
8520c99c:	e12fff3d 	blx	sp
8520c9a0:	ebffffff 	bl	8520c9a4 <main+0x20>
8520c9a4:	e320f000 	nop	{0}
8520c9a8:	e59fd1bc 	ldr	sp, [pc, #444]	; 8520cb6c <core1_wait+0x114>
8520c9ac:	e04ee00d 	sub	lr, lr, sp
8520c9b0:	e59fd1b8 	ldr	sp, [pc, #440]	; 8520cb70 <core1_wait+0x118>
8520c9b4:	e08dd00e 	add	sp, sp, lr
8520c9b8:	e12fff3d 	blx	sp
8520c9bc:	e59f11b0 	ldr	r1, [pc, #432]	; 8520cb74 <core1_wait+0x11c>
8520c9c0:	e12fff11 	bx	r1

8520c9c4 <gorelo>:
8520c9c4:	e320f000 	nop	{0}
8520c9c8:	e3a0b000 	mov	fp, #0
8520c9cc:	ebffffff 	bl	8520c9d0 <gorelo+0xc>
8520c9d0:	e320f000 	nop	{0}
8520c9d4:	e59fd19c 	ldr	sp, [pc, #412]	; 8520cb78 <core1_wait+0x120>
8520c9d8:	e04ee00d 	sub	lr, lr, sp
8520c9dc:	e59fd198 	ldr	sp, [pc, #408]	; 8520cb7c <core1_wait+0x124>
8520c9e0:	e08dd00e 	add	sp, sp, lr
8520c9e4:	e12fff3d 	blx	sp
8520c9e8:	ebffffff 	bl	8520c9ec <gorelo+0x28>
8520c9ec:	e320f000 	nop	{0}
8520c9f0:	e59f0188 	ldr	r0, [pc, #392]	; 8520cb80 <core1_wait+0x128>
8520c9f4:	e04ee000 	sub	lr, lr, r0
8520c9f8:	e59f0184 	ldr	r0, [pc, #388]	; 8520cb84 <core1_wait+0x12c>
8520c9fc:	e080000e 	add	r0, r0, lr
8520ca00:	ebffffff 	bl	8520ca04 <gorelo+0x40>
8520ca04:	e320f000 	nop	{0}
8520ca08:	e59fd178 	ldr	sp, [pc, #376]	; 8520cb88 <core1_wait+0x130>
8520ca0c:	e04ee00d 	sub	lr, lr, sp
8520ca10:	e59fd174 	ldr	sp, [pc, #372]	; 8520cb8c <core1_wait+0x134>
8520ca14:	e08dd00e 	add	sp, sp, lr
8520ca18:	e12fff3d 	blx	sp
8520ca1c:	ebffffff 	bl	8520ca20 <gorelo+0x5c>
8520ca20:	e320f000 	nop	{0}
8520ca24:	e59fd164 	ldr	sp, [pc, #356]	; 8520cb90 <core1_wait+0x138>
8520ca28:	e04ee00d 	sub	lr, lr, sp
8520ca2c:	e59fd160 	ldr	sp, [pc, #352]	; 8520cb94 <core1_wait+0x13c>
8520ca30:	e08dd00e 	add	sp, sp, lr
8520ca34:	e12fff3d 	blx	sp
8520ca38:	e59f1118 	ldr	r1, [pc, #280]	; 8520cb58 <core1_wait+0x100>
8520ca3c:	e5910000 	ldr	r0, [r1]
8520ca40:	e2400008 	sub	r0, r0, #8
8520ca44:	e1a0d000 	mov	sp, r0
8520ca48:	e3cdd007 	bic	sp, sp, #7
8520ca4c:	e3a00000 	mov	r0, #0
8520ca50:	e3a01000 	mov	r1, #0
8520ca54:	eb000ec0 	bl	8521055c <cfe_main>

8520ca58 <core1_wait>:
8520ca58:	e59f0138 	ldr	r0, [pc, #312]	; 8520cb98 <core1_wait+0x140>
8520ca5c:	ebffffff 	bl	8520ca60 <core1_wait+0x8>
8520ca60:	e320f000 	nop	{0}
8520ca64:	e59fd130 	ldr	sp, [pc, #304]	; 8520cb9c <core1_wait+0x144>
8520ca68:	e04ee00d 	sub	lr, lr, sp
8520ca6c:	e59fd04c 	ldr	sp, [pc, #76]	; 8520cac0 <core1_wait+0x68>
8520ca70:	e08dd00e 	add	sp, sp, lr
8520ca74:	e12fff3d 	blx	sp
8520ca78:	e59f0120 	ldr	r0, [pc, #288]	; 8520cba0 <core1_wait+0x148>
8520ca7c:	ebffffff 	bl	8520ca80 <core1_wait+0x28>
8520ca80:	e320f000 	nop	{0}
8520ca84:	e59fd118 	ldr	sp, [pc, #280]	; 8520cba4 <core1_wait+0x14c>
8520ca88:	e04ee00d 	sub	lr, lr, sp
8520ca8c:	e59fd02c 	ldr	sp, [pc, #44]	; 8520cac0 <core1_wait+0x68>
8520ca90:	e08dd00e 	add	sp, sp, lr
8520ca94:	e12fff3d 	blx	sp
8520ca98:	e320f002 	wfe
8520ca9c:	8520c0c0 	.word	0x8520c0c0
8520caa0:	85214484 	.word	0x85214484
8520caa4:	8520c000 	.word	0x8520c000
8520caa8:	8520c0ec 	.word	0x8520c0ec
8520caac:	85211df4 	.word	0x85211df4
8520cab0:	8520c108 	.word	0x8520c108
8520cab4:	85210a2c 	.word	0x85210a2c
8520cab8:	48454c4f 	.word	0x48454c4f
8520cabc:	8520c138 	.word	0x8520c138
8520cac0:	85211e70 	.word	0x85211e70
8520cac4:	43505530 	.word	0x43505530
8520cac8:	8520c158 	.word	0x8520c158
8520cacc:	8520c17c 	.word	0x8520c17c
8520cad0:	852144f4 	.word	0x852144f4
8520cad4:	434f4445 	.word	0x434f4445
8520cad8:	8520c1a4 	.word	0x8520c1a4
8520cadc:	8520c1c0 	.word	0x8520c1c0
8520cae0:	8520c078 	.word	0x8520c078
8520cae4:	4c314344 	.word	0x4c314344
8520cae8:	8520c1fc 	.word	0x8520c1fc
8520caec:	8520c218 	.word	0x8520c218
8520caf0:	85214260 	.word	0x85214260
8520caf4:	4d4d5549 	.word	0x4d4d5549
8520caf8:	8520c238 	.word	0x8520c238
8520cafc:	8520c254 	.word	0x8520c254
8520cb00:	85211fac 	.word	0x85211fac
8520cb04:	8520c270 	.word	0x8520c270
8520cb08:	852144cc 	.word	0x852144cc
8520cb0c:	8520c28c 	.word	0x8520c28c
8520cb10:	85214210 	.word	0x85214210
8520cb14:	5a424253 	.word	0x5a424253
8520cb18:	8520c2ac 	.word	0x8520c2ac
8520cb1c:	8520c2c8 	.word	0x8520c2c8
8520cb20:	4d41494e 	.word	0x4d41494e
8520cb24:	8520c308 	.word	0x8520c308
8520cb28:	8520c04c 	.word	0x8520c04c
8520cb2c:	8520c330 	.word	0x8520c330
8520cb30:	85210a90 	.word	0x85210a90
8520cb34:	8520c070 	.word	0x8520c070
8520cb38:	8520c060 	.word	0x8520c060
8520cb3c:	8520c040 	.word	0x8520c040
8520cb40:	8520c36c 	.word	0x8520c36c
8520cb44:	8520c05c 	.word	0x8520c05c
8520cb48:	8520c048 	.word	0x8520c048
8520cb4c:	8520c044 	.word	0x8520c044
8520cb50:	8520c068 	.word	0x8520c068
8520cb54:	8520c058 	.word	0x8520c058
8520cb58:	8520c064 	.word	0x8520c064
8520cb5c:	8520c054 	.word	0x8520c054
8520cb60:	8520c06c 	.word	0x8520c06c
8520cb64:	8520c988 	.word	0x8520c988
8520cb68:	852142f4 	.word	0x852142f4
8520cb6c:	8520c9a4 	.word	0x8520c9a4
8520cb70:	85214250 	.word	0x85214250
8520cb74:	8520c9c4 	.word	0x8520c9c4
8520cb78:	8520c9d0 	.word	0x8520c9d0
8520cb7c:	852120b8 	.word	0x852120b8
8520cb80:	8520c9ec 	.word	0x8520c9ec
8520cb84:	8520cf68 	.word	0x8520cf68
8520cb88:	8520ca04 	.word	0x8520ca04
8520cb8c:	85211f14 	.word	0x85211f14
8520cb90:	8520ca20 	.word	0x8520ca20
8520cb94:	8520d160 	.word	0x8520d160
8520cb98:	43505531 	.word	0x43505531
8520cb9c:	8520ca60 	.word	0x8520ca60
8520cba0:	57414954 	.word	0x57414954
8520cba4:	8520ca80 	.word	0x8520ca80

8520cba8 <__udivsi3>:
8520cba8:	e2512001 	subs	r2, r1, #1
8520cbac:	012fff1e 	bxeq	lr
8520cbb0:	3a000023 	bcc	8520cc44 <__udivsi3+0x9c>
8520cbb4:	e1500001 	cmp	r0, r1
8520cbb8:	9a00001a 	bls	8520cc28 <__udivsi3+0x80>
8520cbbc:	e1110002 	tst	r1, r2
8520cbc0:	0a00001b 	beq	8520cc34 <__udivsi3+0x8c>
8520cbc4:	e16f3f11 	clz	r3, r1
8520cbc8:	e16f2f10 	clz	r2, r0
8520cbcc:	e0432002 	sub	r2, r3, r2
8520cbd0:	e3a03001 	mov	r3, #1
8520cbd4:	e1a01211 	lsl	r1, r1, r2
8520cbd8:	e1a03213 	lsl	r3, r3, r2
8520cbdc:	e3a02000 	mov	r2, #0
8520cbe0:	e1500001 	cmp	r0, r1
8520cbe4:	20400001 	subcs	r0, r0, r1
8520cbe8:	21822003 	orrcs	r2, r2, r3
8520cbec:	e15000a1 	cmp	r0, r1, lsr #1
8520cbf0:	204000a1 	subcs	r0, r0, r1, lsr #1
8520cbf4:	218220a3 	orrcs	r2, r2, r3, lsr #1
8520cbf8:	e1500121 	cmp	r0, r1, lsr #2
8520cbfc:	20400121 	subcs	r0, r0, r1, lsr #2
8520cc00:	21822123 	orrcs	r2, r2, r3, lsr #2
8520cc04:	e15001a1 	cmp	r0, r1, lsr #3
8520cc08:	204001a1 	subcs	r0, r0, r1, lsr #3
8520cc0c:	218221a3 	orrcs	r2, r2, r3, lsr #3
8520cc10:	e3500000 	cmp	r0, #0
8520cc14:	11b03223 	lsrsne	r3, r3, #4
8520cc18:	11a01221 	lsrne	r1, r1, #4
8520cc1c:	1affffef 	bne	8520cbe0 <__udivsi3+0x38>
8520cc20:	e1a00002 	mov	r0, r2
8520cc24:	e12fff1e 	bx	lr
8520cc28:	03a00001 	moveq	r0, #1
8520cc2c:	13a00000 	movne	r0, #0
8520cc30:	e12fff1e 	bx	lr
8520cc34:	e16f2f11 	clz	r2, r1
8520cc38:	e262201f 	rsb	r2, r2, #31
8520cc3c:	e1a00230 	lsr	r0, r0, r2
8520cc40:	e12fff1e 	bx	lr
8520cc44:	e3500000 	cmp	r0, #0
8520cc48:	13e00000 	mvnne	r0, #0
8520cc4c:	ea000055 	b	8520cda8 <__aeabi_idiv0>

8520cc50 <__aeabi_uidivmod>:
8520cc50:	e3510000 	cmp	r1, #0
8520cc54:	0afffffa 	beq	8520cc44 <__udivsi3+0x9c>
8520cc58:	e92d4003 	push	{r0, r1, lr}
8520cc5c:	ebffffd1 	bl	8520cba8 <__udivsi3>
8520cc60:	e8bd4006 	pop	{r1, r2, lr}
8520cc64:	e0030092 	mul	r3, r2, r0
8520cc68:	e0411003 	sub	r1, r1, r3
8520cc6c:	e12fff1e 	bx	lr

8520cc70 <__divsi3>:
8520cc70:	e3510000 	cmp	r1, #0
8520cc74:	0a000030 	beq	8520cd3c <.divsi3_skip_div0_test+0xc4>

8520cc78 <.divsi3_skip_div0_test>:
8520cc78:	e020c001 	eor	ip, r0, r1
8520cc7c:	42611000 	rsbmi	r1, r1, #0
8520cc80:	e2512001 	subs	r2, r1, #1
8520cc84:	0a00001f 	beq	8520cd08 <.divsi3_skip_div0_test+0x90>
8520cc88:	e1b03000 	movs	r3, r0
8520cc8c:	42603000 	rsbmi	r3, r0, #0
8520cc90:	e1530001 	cmp	r3, r1
8520cc94:	9a00001e 	bls	8520cd14 <.divsi3_skip_div0_test+0x9c>
8520cc98:	e1110002 	tst	r1, r2
8520cc9c:	0a000020 	beq	8520cd24 <.divsi3_skip_div0_test+0xac>
8520cca0:	e16f2f11 	clz	r2, r1
8520cca4:	e16f0f13 	clz	r0, r3
8520cca8:	e0420000 	sub	r0, r2, r0
8520ccac:	e3a02001 	mov	r2, #1
8520ccb0:	e1a01011 	lsl	r1, r1, r0
8520ccb4:	e1a02012 	lsl	r2, r2, r0
8520ccb8:	e3a00000 	mov	r0, #0
8520ccbc:	e1530001 	cmp	r3, r1
8520ccc0:	20433001 	subcs	r3, r3, r1
8520ccc4:	21800002 	orrcs	r0, r0, r2
8520ccc8:	e15300a1 	cmp	r3, r1, lsr #1
8520cccc:	204330a1 	subcs	r3, r3, r1, lsr #1
8520ccd0:	218000a2 	orrcs	r0, r0, r2, lsr #1
8520ccd4:	e1530121 	cmp	r3, r1, lsr #2
8520ccd8:	20433121 	subcs	r3, r3, r1, lsr #2
8520ccdc:	21800122 	orrcs	r0, r0, r2, lsr #2
8520cce0:	e15301a1 	cmp	r3, r1, lsr #3
8520cce4:	204331a1 	subcs	r3, r3, r1, lsr #3
8520cce8:	218001a2 	orrcs	r0, r0, r2, lsr #3
8520ccec:	e3530000 	cmp	r3, #0
8520ccf0:	11b02222 	lsrsne	r2, r2, #4
8520ccf4:	11a01221 	lsrne	r1, r1, #4
8520ccf8:	1affffef 	bne	8520ccbc <.divsi3_skip_div0_test+0x44>
8520ccfc:	e35c0000 	cmp	ip, #0
8520cd00:	42600000 	rsbmi	r0, r0, #0
8520cd04:	e12fff1e 	bx	lr
8520cd08:	e13c0000 	teq	ip, r0
8520cd0c:	42600000 	rsbmi	r0, r0, #0
8520cd10:	e12fff1e 	bx	lr
8520cd14:	33a00000 	movcc	r0, #0
8520cd18:	01a00fcc 	asreq	r0, ip, #31
8520cd1c:	03800001 	orreq	r0, r0, #1
8520cd20:	e12fff1e 	bx	lr
8520cd24:	e16f2f11 	clz	r2, r1
8520cd28:	e262201f 	rsb	r2, r2, #31
8520cd2c:	e35c0000 	cmp	ip, #0
8520cd30:	e1a00233 	lsr	r0, r3, r2
8520cd34:	42600000 	rsbmi	r0, r0, #0
8520cd38:	e12fff1e 	bx	lr
8520cd3c:	e3500000 	cmp	r0, #0
8520cd40:	c3e00102 	mvngt	r0, #-2147483648	; 0x80000000
8520cd44:	b3a00102 	movlt	r0, #-2147483648	; 0x80000000
8520cd48:	ea000016 	b	8520cda8 <__aeabi_idiv0>

8520cd4c <__aeabi_idivmod>:
8520cd4c:	e3510000 	cmp	r1, #0
8520cd50:	0afffff9 	beq	8520cd3c <.divsi3_skip_div0_test+0xc4>
8520cd54:	e92d4003 	push	{r0, r1, lr}
8520cd58:	ebffffc6 	bl	8520cc78 <.divsi3_skip_div0_test>
8520cd5c:	e8bd4006 	pop	{r1, r2, lr}
8520cd60:	e0030092 	mul	r3, r2, r0
8520cd64:	e0411003 	sub	r1, r1, r3
8520cd68:	e12fff1e 	bx	lr

8520cd6c <__aeabi_uldivmod>:
8520cd6c:	e3530000 	cmp	r3, #0
8520cd70:	03520000 	cmpeq	r2, #0
8520cd74:	1a000004 	bne	8520cd8c <__aeabi_uldivmod+0x20>
8520cd78:	e3510000 	cmp	r1, #0
8520cd7c:	03500000 	cmpeq	r0, #0
8520cd80:	13e01000 	mvnne	r1, #0
8520cd84:	13e00000 	mvnne	r0, #0
8520cd88:	ea000006 	b	8520cda8 <__aeabi_idiv0>
8520cd8c:	e24dd008 	sub	sp, sp, #8
8520cd90:	e92d6000 	push	{sp, lr}
8520cd94:	eb000007 	bl	8520cdb8 <__udivmoddi4>
8520cd98:	e59de004 	ldr	lr, [sp, #4]
8520cd9c:	e28dd008 	add	sp, sp, #8
8520cda0:	e8bd000c 	pop	{r2, r3}
8520cda4:	e12fff1e 	bx	lr

8520cda8 <__aeabi_idiv0>:
8520cda8:	e92d4002 	push	{r1, lr}
8520cdac:	e3a00008 	mov	r0, #8
8520cdb0:	eb0000e8 	bl	8520d158 <raise>
8520cdb4:	e8bd8002 	pop	{r1, pc}

8520cdb8 <__udivmoddi4>:
8520cdb8:	e1510003 	cmp	r1, r3
8520cdbc:	e92d4ff8 	push	{r3, r4, r5, r6, r7, r8, r9, sl, fp, lr}
8520cdc0:	01500002 	cmpeq	r0, r2
8520cdc4:	e1a04000 	mov	r4, r0
8520cdc8:	e1a05001 	mov	r5, r1
8520cdcc:	33a00000 	movcc	r0, #0
8520cdd0:	e59d7028 	ldr	r7, [sp, #40]	; 0x28
8520cdd4:	33a01000 	movcc	r1, #0
8520cdd8:	3a000038 	bcc	8520cec0 <__udivmoddi4+0x108>
8520cddc:	e3530000 	cmp	r3, #0
8520cde0:	e1a01003 	mov	r1, r3
8520cde4:	016f6f12 	clzeq	r6, r2
8520cde8:	116f6f13 	clzne	r6, r3
8520cdec:	02866020 	addeq	r6, r6, #32
8520cdf0:	e3550000 	cmp	r5, #0
8520cdf4:	016f3f14 	clzeq	r3, r4
8520cdf8:	116f3f15 	clzne	r3, r5
8520cdfc:	02833020 	addeq	r3, r3, #32
8520ce00:	e1a00002 	mov	r0, r2
8520ce04:	e0636006 	rsb	r6, r3, r6
8520ce08:	e1a02006 	mov	r2, r6
8520ce0c:	eb000036 	bl	8520ceec <__aeabi_llsl>
8520ce10:	e1550001 	cmp	r5, r1
8520ce14:	e1a0a000 	mov	sl, r0
8520ce18:	01540000 	cmpeq	r4, r0
8520ce1c:	e1a0b001 	mov	fp, r1
8520ce20:	33a00000 	movcc	r0, #0
8520ce24:	33a01000 	movcc	r1, #0
8520ce28:	3a000005 	bcc	8520ce44 <__udivmoddi4+0x8c>
8520ce2c:	e054400a 	subs	r4, r4, sl
8520ce30:	e1a02006 	mov	r2, r6
8520ce34:	e3a00001 	mov	r0, #1
8520ce38:	e3a01000 	mov	r1, #0
8520ce3c:	e0c5500b 	sbc	r5, r5, fp
8520ce40:	eb000029 	bl	8520ceec <__aeabi_llsl>
8520ce44:	e3560000 	cmp	r6, #0
8520ce48:	0a00001c 	beq	8520cec0 <__udivmoddi4+0x108>
8520ce4c:	e1b0b0ab 	lsrs	fp, fp, #1
8520ce50:	e1a0a06a 	rrx	sl, sl
8520ce54:	e1a03006 	mov	r3, r6
8520ce58:	e155000b 	cmp	r5, fp
8520ce5c:	0154000a 	cmpeq	r4, sl
8520ce60:	3a000006 	bcc	8520ce80 <__udivmoddi4+0xc8>
8520ce64:	e054400a 	subs	r4, r4, sl
8520ce68:	e0c5500b 	sbc	r5, r5, fp
8520ce6c:	e0944004 	adds	r4, r4, r4
8520ce70:	e0a55005 	adc	r5, r5, r5
8520ce74:	e2944001 	adds	r4, r4, #1
8520ce78:	e2a55000 	adc	r5, r5, #0
8520ce7c:	ea000001 	b	8520ce88 <__udivmoddi4+0xd0>
8520ce80:	e0944004 	adds	r4, r4, r4
8520ce84:	e0a55005 	adc	r5, r5, r5
8520ce88:	e2533001 	subs	r3, r3, #1
8520ce8c:	1afffff1 	bne	8520ce58 <__udivmoddi4+0xa0>
8520ce90:	e0908004 	adds	r8, r0, r4
8520ce94:	e1a02006 	mov	r2, r6
8520ce98:	e0a19005 	adc	r9, r1, r5
8520ce9c:	e1a00004 	mov	r0, r4
8520cea0:	e1a01005 	mov	r1, r5
8520cea4:	eb000009 	bl	8520ced0 <__aeabi_llsr>
8520cea8:	e1a02006 	mov	r2, r6
8520ceac:	e1a04000 	mov	r4, r0
8520ceb0:	e1a05001 	mov	r5, r1
8520ceb4:	eb00000c 	bl	8520ceec <__aeabi_llsl>
8520ceb8:	e0580000 	subs	r0, r8, r0
8520cebc:	e0c91001 	sbc	r1, r9, r1
8520cec0:	e3570000 	cmp	r7, #0
8520cec4:	08bd8ff8 	popeq	{r3, r4, r5, r6, r7, r8, r9, sl, fp, pc}
8520cec8:	e1c740f0 	strd	r4, [r7]
8520cecc:	e8bd8ff8 	pop	{r3, r4, r5, r6, r7, r8, r9, sl, fp, pc}

8520ced0 <__aeabi_llsr>:
8520ced0:	e2523020 	subs	r3, r2, #32
8520ced4:	e262c020 	rsb	ip, r2, #32
8520ced8:	41a00230 	lsrmi	r0, r0, r2
8520cedc:	51a00331 	lsrpl	r0, r1, r3
8520cee0:	41800c11 	orrmi	r0, r0, r1, lsl ip
8520cee4:	e1a01231 	lsr	r1, r1, r2
8520cee8:	e12fff1e 	bx	lr

8520ceec <__aeabi_llsl>:
8520ceec:	e2523020 	subs	r3, r2, #32
8520cef0:	e262c020 	rsb	ip, r2, #32
8520cef4:	41a01211 	lslmi	r1, r1, r2
8520cef8:	51a01310 	lslpl	r1, r0, r3
8520cefc:	41811c30 	orrmi	r1, r1, r0, lsr ip
8520cf00:	e1a00210 	lsl	r0, r0, r2
8520cf04:	e12fff1e 	bx	lr

8520cf08 <_cfe_flushcache>:
8520cf08:	e92d4eff 	push	{r0, r1, r2, r3, r4, r5, r6, r7, r9, sl, fp, lr}
8520cf0c:	eb001d3c 	bl	85214404 <armv7_cacheops>
8520cf10:	e8bd4eff 	pop	{r0, r1, r2, r3, r4, r5, r6, r7, r9, sl, fp, lr}
8520cf14:	e1a0f00e 	mov	pc, lr

8520cf18 <cfe_launch>:
8520cf18:	e24dd008 	sub	sp, sp, #8
8520cf1c:	e52d0004 	push	{r0}		; (str r0, [sp, #-4]!)
8520cf20:	e10f0000 	mrs	r0, CPSR
8520cf24:	e3a010c0 	mov	r1, #192	; 0xc0
8520cf28:	e1800001 	orr	r0, r0, r1
8520cf2c:	e129f000 	msr	CPSR_fc, r0

8520cf30 <noshrd>:
8520cf30:	e3a00000 	mov	r0, #0
8520cf34:	ebfffff3 	bl	8520cf08 <_cfe_flushcache>

8520cf38 <__skipShred>:
8520cf38:	eb001cbf 	bl	8521423c <armv7_l1cache_disable_d>
8520cf3c:	eb001d67 	bl	852144e0 <armv7_disable_mmu>
8520cf40:	eb001cb7 	bl	85214224 <armv7_l1cache_disable_i>
8520cf44:	eb000ecb 	bl	85210a78 <board_deinit>
8520cf48:	eaffffff 	b	8520cf4c <RunProgram>

8520cf4c <RunProgram>:
8520cf4c:	e49d4004 	pop	{r4}		; (ldr r4, [sp], #4)
8520cf50:	e1a0f004 	mov	pc, r4

8520cf54 <cfe_restore_context>:
8520cf54:	e59f0008 	ldr	r0, [pc, #8]	; 8520cf64 <cfe_restore_context+0x10>
8520cf58:	e590d000 	ldr	sp, [r0]
8520cf5c:	e8bd1fff 	pop	{r0, r1, r2, r3, r4, r5, r6, r7, r8, r9, sl, fp, ip}
8520cf60:	e12fff1e 	bx	lr
8520cf64:	8520c0a0 	.word	0x8520c0a0

8520cf68 <rel_version>:
8520cf68:	32302e35 	.word	0x32302e35
8520cf6c:	63723730 	.word	0x63723730
8520cf70:	2e312d31 	.word	0x2e312d31
8520cf74:	38332e30 	.word	0x38332e30
8520cf78:	3336312d 	.word	0x3336312d
8520cf7c:	3133322e 	.word	0x3133322e
8520cf80:	0a0d      	.short	0x0a0d
	...

8520cf84 <__traps>:
8520cf84:	f96d051f 	srsdb	sp!, #31
8520cf88:	f102001f 	cps	#31
8520cf8c:	e52d0004 	push	{r0}		; (str r0, [sp, #-4]!)
8520cf90:	e52de004 	push	{lr}		; (str lr, [sp, #-4]!)
8520cf94:	e24dd018 	sub	sp, sp, #24
8520cf98:	e92d00ff 	push	{r0, r1, r2, r3, r4, r5, r6, r7}
8520cf9c:	e0200000 	eor	r0, r0, r0
8520cfa0:	e2800001 	add	r0, r0, #1
8520cfa4:	ea000044 	b	8520d0bc <trap>

8520cfa8 <tr_swi>:
8520cfa8:	f96d051f 	srsdb	sp!, #31
8520cfac:	f102001f 	cps	#31
8520cfb0:	e52d0004 	push	{r0}		; (str r0, [sp, #-4]!)
8520cfb4:	e52de004 	push	{lr}		; (str lr, [sp, #-4]!)
8520cfb8:	e24dd018 	sub	sp, sp, #24
8520cfbc:	e92d00ff 	push	{r0, r1, r2, r3, r4, r5, r6, r7}
8520cfc0:	e0200000 	eor	r0, r0, r0
8520cfc4:	e2800002 	add	r0, r0, #2
8520cfc8:	ea00003b 	b	8520d0bc <trap>

8520cfcc <tr_iab>:
8520cfcc:	e1a0d00e 	mov	sp, lr
8520cfd0:	e24dd004 	sub	sp, sp, #4
8520cfd4:	e1a0e00d 	mov	lr, sp
8520cfd8:	f96d051f 	srsdb	sp!, #31
8520cfdc:	f102001f 	cps	#31
8520cfe0:	e52d0004 	push	{r0}		; (str r0, [sp, #-4]!)
8520cfe4:	e52de004 	push	{lr}		; (str lr, [sp, #-4]!)
8520cfe8:	e24dd018 	sub	sp, sp, #24
8520cfec:	e92d00ff 	push	{r0, r1, r2, r3, r4, r5, r6, r7}
8520cff0:	e0200000 	eor	r0, r0, r0
8520cff4:	e2800003 	add	r0, r0, #3
8520cff8:	ea00002f 	b	8520d0bc <trap>

8520cffc <tr_dab>:
8520cffc:	e1a0d00e 	mov	sp, lr
8520d000:	e24dd008 	sub	sp, sp, #8
8520d004:	e1a0e00d 	mov	lr, sp
8520d008:	f96d051f 	srsdb	sp!, #31
8520d00c:	f102001f 	cps	#31
8520d010:	e52d0004 	push	{r0}		; (str r0, [sp, #-4]!)
8520d014:	e52de004 	push	{lr}		; (str lr, [sp, #-4]!)
8520d018:	e24dd018 	sub	sp, sp, #24
8520d01c:	e92d00ff 	push	{r0, r1, r2, r3, r4, r5, r6, r7}
8520d020:	e0200000 	eor	r0, r0, r0
8520d024:	e2800004 	add	r0, r0, #4
8520d028:	ea000023 	b	8520d0bc <trap>

8520d02c <tr_bad>:
8520d02c:	e1a0d00e 	mov	sp, lr
8520d030:	e24dd004 	sub	sp, sp, #4
8520d034:	e1a0e00d 	mov	lr, sp
8520d038:	f96d051f 	srsdb	sp!, #31
8520d03c:	f102001f 	cps	#31
8520d040:	e52d0004 	push	{r0}		; (str r0, [sp, #-4]!)
8520d044:	e52de004 	push	{lr}		; (str lr, [sp, #-4]!)
8520d048:	e24dd018 	sub	sp, sp, #24
8520d04c:	e92d00ff 	push	{r0, r1, r2, r3, r4, r5, r6, r7}
8520d050:	e0200000 	eor	r0, r0, r0
8520d054:	e2800005 	add	r0, r0, #5
8520d058:	ea000017 	b	8520d0bc <trap>

8520d05c <tr_irq>:
8520d05c:	e1a0d00e 	mov	sp, lr
8520d060:	e24dd004 	sub	sp, sp, #4
8520d064:	e1a0e00d 	mov	lr, sp
8520d068:	f96d051f 	srsdb	sp!, #31
8520d06c:	f102001f 	cps	#31
8520d070:	e52d0004 	push	{r0}		; (str r0, [sp, #-4]!)
8520d074:	e52de004 	push	{lr}		; (str lr, [sp, #-4]!)
8520d078:	e24dd018 	sub	sp, sp, #24
8520d07c:	e92d00ff 	push	{r0, r1, r2, r3, r4, r5, r6, r7}
8520d080:	e0200000 	eor	r0, r0, r0
8520d084:	e2800006 	add	r0, r0, #6
8520d088:	ea00000b 	b	8520d0bc <trap>

8520d08c <tr_fiq>:
8520d08c:	e1a0d00e 	mov	sp, lr
8520d090:	e24dd004 	sub	sp, sp, #4
8520d094:	e1a0e00d 	mov	lr, sp
8520d098:	f96d051f 	srsdb	sp!, #31
8520d09c:	f102001f 	cps	#31
8520d0a0:	e52d0004 	push	{r0}		; (str r0, [sp, #-4]!)
8520d0a4:	e52de004 	push	{lr}		; (str lr, [sp, #-4]!)
8520d0a8:	e24dd018 	sub	sp, sp, #24
8520d0ac:	e92d00ff 	push	{r0, r1, r2, r3, r4, r5, r6, r7}
8520d0b0:	e0200000 	eor	r0, r0, r0
8520d0b4:	e2800007 	add	r0, r0, #7
8520d0b8:	eaffffff 	b	8520d0bc <trap>

8520d0bc <trap>:
8520d0bc:	e1a0400d 	mov	r4, sp
8520d0c0:	e2844040 	add	r4, r4, #64	; 0x40
8520d0c4:	e8b4000a 	ldm	r4!, {r1, r3}
8520d0c8:	e10f2000 	mrs	r2, CPSR
8520d0cc:	e92d000f 	push	{r0, r1, r2, r3}
8520d0d0:	e244400c 	sub	r4, r4, #12
8520d0d4:	e5841000 	str	r1, [r4]
8520d0d8:	e129f003 	msr	CPSR_fc, r3
8520d0dc:	e2444004 	sub	r4, r4, #4
8520d0e0:	e584e000 	str	lr, [r4]
8520d0e4:	e1a0700d 	mov	r7, sp
8520d0e8:	e129f002 	msr	CPSR_fc, r2
8520d0ec:	e1a0600c 	mov	r6, ip
8520d0f0:	e1a0500b 	mov	r5, fp
8520d0f4:	e1a0400a 	mov	r4, sl
8520d0f8:	e1a03009 	mov	r3, r9
8520d0fc:	e1a02008 	mov	r2, r8
8520d100:	e28dd048 	add	sp, sp, #72	; 0x48
8520d104:	e92d00fc 	push	{r2, r3, r4, r5, r6, r7}
8520d108:	e24dd030 	sub	sp, sp, #48	; 0x30
8520d10c:	e59f4040 	ldr	r4, [pc, #64]	; 8520d154 <rfe+0x30>
8520d110:	e5944000 	ldr	r4, [r4]
8520d114:	e3540000 	cmp	r4, #0
8520d118:	0afffffe 	beq	8520d118 <trap+0x5c>
8520d11c:	e1a0000d 	mov	r0, sp
8520d120:	e12fff34 	blx	r4

8520d124 <rfe>:
8520d124:	e28dd030 	add	sp, sp, #48	; 0x30
8520d128:	e8bd007f 	pop	{r0, r1, r2, r3, r4, r5, r6}
8520d12c:	e1a08000 	mov	r8, r0
8520d130:	e1a09001 	mov	r9, r1
8520d134:	e1a0a002 	mov	sl, r2
8520d138:	e1a0b003 	mov	fp, r3
8520d13c:	e1a0c004 	mov	ip, r4
8520d140:	e1a0e006 	mov	lr, r6
8520d144:	e24dd03c 	sub	sp, sp, #60	; 0x3c
8520d148:	e8bd00ff 	pop	{r0, r1, r2, r3, r4, r5, r6, r7}
8520d14c:	e28dd020 	add	sp, sp, #32
8520d150:	f8bd0a00 	rfeia	sp!
8520d154:	8521c340 	.word	0x8521c340

8520d158 <raise>:
8520d158:	e3a00000 	mov	r0, #0
8520d15c:	e1a0f00e 	mov	pc, lr

8520d160 <armv7_exception_init>:
8520d160:	e59f0040 	ldr	r0, [pc, #64]	; 8520d1a8 <armv7_exception_init+0x48>
8520d164:	ee0c0f10 	mcr	15, 0, r0, cr12, cr0, {0}
8520d168:	ee110f10 	mrc	15, 0, r0, cr1, cr0, {0}
8520d16c:	e3c00a02 	bic	r0, r0, #8192	; 0x2000
8520d170:	ee010f10 	mcr	15, 0, r0, cr1, cr0, {0}
8520d174:	e10f0000 	mrs	r0, CPSR
8520d178:	e3a0101f 	mov	r1, #31
8520d17c:	e1c11000 	bic	r1, r1, r0
8520d180:	e3a0201f 	mov	r2, #31
8520d184:	e1811002 	orr	r1, r1, r2
8520d188:	e129f001 	msr	CPSR_fc, r1
8520d18c:	e59f1018 	ldr	r1, [pc, #24]	; 8520d1ac <armv7_exception_init+0x4c>
8520d190:	e2811a01 	add	r1, r1, #4096	; 0x1000
8520d194:	e2411008 	sub	r1, r1, #8
8520d198:	e1a0d001 	mov	sp, r1
8520d19c:	e3cdd007 	bic	sp, sp, #7
8520d1a0:	e129f000 	msr	CPSR_fc, r0
8520d1a4:	e1a0f00e 	mov	pc, lr
8520d1a8:	8520c000 	.word	0x8520c000
8520d1ac:	8521c344 	.word	0x8521c344

8520d1b0 <cfe_sec_get_bootrom_args>:
8520d1b0:	e59f0010 	ldr	r0, [pc, #16]	; 8520d1c8 <cfe_sec_get_bootrom_args+0x18>
8520d1b4:	e590300c 	ldr	r3, [r0, #12]
8520d1b8:	e3530002 	cmp	r3, #2
8520d1bc:	02800010 	addeq	r0, r0, #16
8520d1c0:	13a00000 	movne	r0, #0
8520d1c4:	e12fff1e 	bx	lr
8520d1c8:	8521fa18 	.word	0x8521fa18

8520d1cc <cfe_sec_reset_keys>:
8520d1cc:	e59f0024 	ldr	r0, [pc, #36]	; 8520d1f8 <cfe_sec_reset_keys+0x2c>
8520d1d0:	e590300c 	ldr	r3, [r0, #12]
8520d1d4:	e3530002 	cmp	r3, #2
8520d1d8:	1a000004 	bne	8520d1f0 <cfe_sec_reset_keys+0x24>
8520d1dc:	e92d4010 	push	{r4, lr}
8520d1e0:	e2800e21 	add	r0, r0, #528	; 0x210
8520d1e4:	eb0014b0 	bl	852124ac <ek_iv_cleanup>
8520d1e8:	e3a00000 	mov	r0, #0
8520d1ec:	e8bd8010 	pop	{r4, pc}
8520d1f0:	e3a00001 	mov	r0, #1
8520d1f4:	e12fff1e 	bx	lr
8520d1f8:	8521fa18 	.word	0x8521fa18

8520d1fc <cfe_sec_abort>:
8520d1fc:	e92d4010 	push	{r4, lr}
8520d200:	ebfffff1 	bl	8520d1cc <cfe_sec_reset_keys>
8520d204:	e8bd4010 	pop	{r4, lr}
8520d208:	ea001bf1 	b	852141d4 <die>

8520d20c <cfe_sec_init>:
8520d20c:	e92d4030 	push	{r4, r5, lr}
8520d210:	e24dd014 	sub	sp, sp, #20
8520d214:	e59f40dc 	ldr	r4, [pc, #220]	; 8520d2f8 <cfe_sec_init+0xec>
8520d218:	e594300c 	ldr	r3, [r4, #12]
8520d21c:	e3530000 	cmp	r3, #0
8520d220:	1a00002f 	bne	8520d2e4 <cfe_sec_init+0xd8>
8520d224:	e28d1004 	add	r1, sp, #4
8520d228:	e3a00011 	mov	r0, #17
8520d22c:	e5843000 	str	r3, [r4]
8520d230:	eb000c63 	bl	852103c4 <bcm_otp_get_row>
8520d234:	e28d1008 	add	r1, sp, #8
8520d238:	e1a05000 	mov	r5, r0
8520d23c:	e3a00012 	mov	r0, #18
8520d240:	eb000c5f 	bl	852103c4 <bcm_otp_get_row>
8520d244:	e28d100c 	add	r1, sp, #12
8520d248:	e1855000 	orr	r5, r5, r0
8520d24c:	e3a00017 	mov	r0, #23
8520d250:	eb000c5b 	bl	852103c4 <bcm_otp_get_row>
8520d254:	e1953000 	orrs	r3, r5, r0
8520d258:	1a000021 	bne	8520d2e4 <cfe_sec_init+0xd8>
8520d25c:	e59d3004 	ldr	r3, [sp, #4]
8520d260:	e3130008 	tst	r3, #8
8520d264:	0a00000b 	beq	8520d298 <cfe_sec_init+0x8c>
8520d268:	e59d3008 	ldr	r3, [sp, #8]
8520d26c:	e313090e 	tst	r3, #229376	; 0x38000
8520d270:	0a000008 	beq	8520d298 <cfe_sec_init+0x8c>
8520d274:	e3a03004 	mov	r3, #4
8520d278:	e5843000 	str	r3, [r4]
8520d27c:	e1dd30bc 	ldrh	r3, [sp, #12]
8520d280:	e3530000 	cmp	r3, #0
8520d284:	0a000003 	beq	8520d298 <cfe_sec_init+0x8c>
8520d288:	eb000c5b 	bl	852103fc <bcm_otp_fld_secure_rows>
8520d28c:	e3500000 	cmp	r0, #0
8520d290:	03a03005 	moveq	r3, #5
8520d294:	05843000 	streq	r3, [r4]
8520d298:	e3a03001 	mov	r3, #1
8520d29c:	e3a02003 	mov	r2, #3
8520d2a0:	e984000c 	stmib	r4, {r2, r3}
8520d2a4:	e5943000 	ldr	r3, [r4]
8520d2a8:	e3530000 	cmp	r3, #0
8520d2ac:	0a000006 	beq	8520d2cc <cfe_sec_init+0xc0>
8520d2b0:	e2433004 	sub	r3, r3, #4
8520d2b4:	e3530001 	cmp	r3, #1
8520d2b8:	8a000009 	bhi	8520d2e4 <cfe_sec_init+0xd8>
8520d2bc:	e3a02f91 	mov	r2, #580	; 0x244
8520d2c0:	e59f1034 	ldr	r1, [pc, #52]	; 8520d2fc <cfe_sec_init+0xf0>
8520d2c4:	e59f0034 	ldr	r0, [pc, #52]	; 8520d300 <cfe_sec_init+0xf4>
8520d2c8:	eb001cd9 	bl	85214634 <lib_memcpy>
8520d2cc:	e59f0030 	ldr	r0, [pc, #48]	; 8520d304 <cfe_sec_init+0xf8>
8520d2d0:	e3a03002 	mov	r3, #2
8520d2d4:	e584300c 	str	r3, [r4, #12]
8520d2d8:	eb0012e4 	bl	85211e70 <board_setleds>
8520d2dc:	e3a00000 	mov	r0, #0
8520d2e0:	ea000002 	b	8520d2f0 <cfe_sec_init+0xe4>
8520d2e4:	e59f001c 	ldr	r0, [pc, #28]	; 8520d308 <cfe_sec_init+0xfc>
8520d2e8:	eb0012e0 	bl	85211e70 <board_setleds>
8520d2ec:	e3a00001 	mov	r0, #1
8520d2f0:	e28dd014 	add	sp, sp, #20
8520d2f4:	e8bd8030 	pop	{r4, r5, pc}
8520d2f8:	8521fa18 	.word	0x8521fa18
8520d2fc:	fff87000 	.word	0xfff87000
8520d300:	8521fa28 	.word	0x8521fa28
8520d304:	53454e44 	.word	0x53454e44
8520d308:	53455252 	.word	0x53455252

8520d30c <cfe_sec_load_sbi>:
8520d30c:	e92d42f3 	push	{r0, r1, r4, r5, r6, r7, r9, lr}
8520d310:	e1a04000 	mov	r4, r0
8520d314:	e1a09003 	mov	r9, r3
8520d318:	ebffffa4 	bl	8520d1b0 <cfe_sec_get_bootrom_args>
8520d31c:	e2507000 	subs	r7, r0, #0
8520d320:	1a000001 	bne	8520d32c <cfe_sec_load_sbi+0x20>
8520d324:	e3a04002 	mov	r4, #2
8520d328:	ea000048 	b	8520d450 <cfe_sec_load_sbi+0x144>
8520d32c:	e59f012c 	ldr	r0, [pc, #300]	; 8520d460 <cfe_sec_load_sbi+0x154>
8520d330:	e1a06002 	mov	r6, r2
8520d334:	e1a05001 	mov	r5, r1
8520d338:	eb0012cc 	bl	85211e70 <board_setleds>
8520d33c:	e3160001 	tst	r6, #1
8520d340:	03a0600e 	moveq	r6, #14
8520d344:	0a000007 	beq	8520d368 <cfe_sec_load_sbi+0x5c>
8520d348:	e59f0114 	ldr	r0, [pc, #276]	; 8520d464 <cfe_sec_load_sbi+0x158>
8520d34c:	eb0012c7 	bl	85211e70 <board_setleds>
8520d350:	e1a02009 	mov	r2, r9
8520d354:	e1a01005 	mov	r1, r5
8520d358:	e1a00004 	mov	r0, r4
8520d35c:	eb001b90 	bl	852141a4 <sec_verify_sha256>
8520d360:	e3500000 	cmp	r0, #0
8520d364:	1affffee 	bne	8520d324 <cfe_sec_load_sbi+0x18>
8520d368:	e3160008 	tst	r6, #8
8520d36c:	0a00000d 	beq	8520d3a8 <cfe_sec_load_sbi+0x9c>
8520d370:	e2455c01 	sub	r5, r5, #256	; 0x100
8520d374:	e2849c01 	add	r9, r4, #256	; 0x100
8520d378:	e59f00e8 	ldr	r0, [pc, #232]	; 8520d468 <cfe_sec_load_sbi+0x15c>
8520d37c:	eb0012bb 	bl	85211e70 <board_setleds>
8520d380:	e1a03007 	mov	r3, r7
8520d384:	e1a02004 	mov	r2, r4
8520d388:	e1a01005 	mov	r1, r5
8520d38c:	e1a00009 	mov	r0, r9
8520d390:	eb001b94 	bl	852141e8 <sec_verify_signature>
8520d394:	e3500000 	cmp	r0, #0
8520d398:	1affffe1 	bne	8520d324 <cfe_sec_load_sbi+0x18>
8520d39c:	e59f00c8 	ldr	r0, [pc, #200]	; 8520d46c <cfe_sec_load_sbi+0x160>
8520d3a0:	e1a04009 	mov	r4, r9
8520d3a4:	eb0012b1 	bl	85211e70 <board_setleds>
8520d3a8:	e3160004 	tst	r6, #4
8520d3ac:	0a000009 	beq	8520d3d8 <cfe_sec_load_sbi+0xcc>
8520d3b0:	e2873e22 	add	r3, r7, #544	; 0x220
8520d3b4:	e2872c02 	add	r2, r7, #512	; 0x200
8520d3b8:	e58d3000 	str	r3, [sp]
8520d3bc:	e1a01004 	mov	r1, r4
8520d3c0:	e1a03005 	mov	r3, r5
8520d3c4:	e3a00aff 	mov	r0, #1044480	; 0xff000
8520d3c8:	eb001496 	bl	85212628 <decryptWithEk>
8520d3cc:	e59f009c 	ldr	r0, [pc, #156]	; 8520d470 <cfe_sec_load_sbi+0x164>
8520d3d0:	eb0012a6 	bl	85211e70 <board_setleds>
8520d3d4:	ea000003 	b	8520d3e8 <cfe_sec_load_sbi+0xdc>
8520d3d8:	e1a02005 	mov	r2, r5
8520d3dc:	e1a01004 	mov	r1, r4
8520d3e0:	e3a00aff 	mov	r0, #1044480	; 0xff000
8520d3e4:	eb001c92 	bl	85214634 <lib_memcpy>
8520d3e8:	e3160002 	tst	r6, #2
8520d3ec:	e3a00aff 	mov	r0, #1044480	; 0xff000
8520d3f0:	0a000007 	beq	8520d414 <cfe_sec_load_sbi+0x108>
8520d3f4:	e5902000 	ldr	r2, [r0]
8520d3f8:	e3a03617 	mov	r3, #24117248	; 0x1700000
8520d3fc:	e5901008 	ldr	r1, [r0, #8]
8520d400:	e280000c 	add	r0, r0, #12
8520d404:	eb0016ef 	bl	85212fc8 <decompressLZMA>
8520d408:	e59f0064 	ldr	r0, [pc, #100]	; 8520d474 <cfe_sec_load_sbi+0x168>
8520d40c:	eb001297 	bl	85211e70 <board_setleds>
8520d410:	ea000003 	b	8520d424 <cfe_sec_load_sbi+0x118>
8520d414:	e5902008 	ldr	r2, [r0, #8]
8520d418:	e59f1058 	ldr	r1, [pc, #88]	; 8520d478 <cfe_sec_load_sbi+0x16c>
8520d41c:	e5900000 	ldr	r0, [r0]
8520d420:	eb001c83 	bl	85214634 <lib_memcpy>
8520d424:	e3a04aff 	mov	r4, #1044480	; 0xff000
8520d428:	e59f004c 	ldr	r0, [pc, #76]	; 8520d47c <cfe_sec_load_sbi+0x170>
8520d42c:	e5943000 	ldr	r3, [r4]
8520d430:	e3a02c02 	mov	r2, #512	; 0x200
8520d434:	e1a01007 	mov	r1, r7
8520d438:	e0830000 	add	r0, r3, r0
8520d43c:	eb001c7c 	bl	85214634 <lib_memcpy>
8520d440:	e5942000 	ldr	r2, [r4]
8520d444:	e59d3020 	ldr	r3, [sp, #32]
8520d448:	e3a04000 	mov	r4, #0
8520d44c:	e5832000 	str	r2, [r3]
8520d450:	ebffff5d 	bl	8520d1cc <cfe_sec_reset_keys>
8520d454:	e1a00004 	mov	r0, r4
8520d458:	e28dd008 	add	sp, sp, #8
8520d45c:	e8bd82f0 	pop	{r4, r5, r6, r7, r9, pc}
8520d460:	42544c52 	.word	0x42544c52
8520d464:	48415348 	.word	0x48415348
8520d468:	4154483f 	.word	0x4154483f
8520d46c:	50415353 	.word	0x50415353
8520d470:	44454350 	.word	0x44454350
8520d474:	4445464c 	.word	0x4445464c
8520d478:	000ff00c 	.word	0x000ff00c
8520d47c:	ffeffdef 	.word	0xffeffdef

8520d480 <nand_flash_get_sector_size>:
8520d480:	e59f3004 	ldr	r3, [pc, #4]	; 8520d48c <nand_flash_get_sector_size+0xc>
8520d484:	e5930010 	ldr	r0, [r3, #16]
8520d488:	e12fff1e 	bx	lr
8520d48c:	8521fc6c 	.word	0x8521fc6c

8520d490 <nand_flash_get_numsectors>:
8520d490:	e59f3010 	ldr	r3, [pc, #16]	; 8520d4a8 <nand_flash_get_numsectors+0x18>
8520d494:	e92d4010 	push	{r4, lr}
8520d498:	e5931010 	ldr	r1, [r3, #16]
8520d49c:	e593000c 	ldr	r0, [r3, #12]
8520d4a0:	ebfffdc0 	bl	8520cba8 <__udivsi3>
8520d4a4:	e8bd8010 	pop	{r4, pc}
8520d4a8:	8521fc6c 	.word	0x8521fc6c

8520d4ac <nandflash_copy_from_cache>:
8520d4ac:	e3100003 	tst	r0, #3
8520d4b0:	e92d4ef3 	push	{r0, r1, r4, r5, r6, r7, r9, sl, fp, lr}
8520d4b4:	1241187f 	subne	r1, r1, #8323072	; 0x7f0000
8520d4b8:	e1a0a002 	mov	sl, r2
8520d4bc:	e1a0e000 	mov	lr, r0
8520d4c0:	e1a02000 	mov	r2, r0
8520d4c4:	12411b39 	subne	r1, r1, #58368	; 0xe400
8520d4c8:	0a00000c 	beq	8520d500 <nandflash_copy_from_cache+0x54>
8520d4cc:	e062300e 	rsb	r3, r2, lr
8520d4d0:	e15a0003 	cmp	sl, r3
8520d4d4:	9a00001f 	bls	8520d558 <nandflash_copy_from_cache+0xac>
8520d4d8:	e4913004 	ldr	r3, [r1], #4
8520d4dc:	e28ee004 	add	lr, lr, #4
8520d4e0:	e54e3004 	strb	r3, [lr, #-4]
8520d4e4:	e1a00423 	lsr	r0, r3, #8
8520d4e8:	e54e0003 	strb	r0, [lr, #-3]
8520d4ec:	e1a00823 	lsr	r0, r3, #16
8520d4f0:	e54e0002 	strb	r0, [lr, #-2]
8520d4f4:	e1a03c23 	lsr	r3, r3, #24
8520d4f8:	e54e3001 	strb	r3, [lr, #-1]
8520d4fc:	eafffff2 	b	8520d4cc <nandflash_copy_from_cache+0x20>
8520d500:	e21a901f 	ands	r9, sl, #31
8520d504:	0241387f 	subeq	r3, r1, #8323072	; 0x7f0000
8520d508:	1241187f 	subne	r1, r1, #8323072	; 0x7f0000
8520d50c:	02433b39 	subeq	r3, r3, #58368	; 0xe400
8520d510:	12411b39 	subne	r1, r1, #58368	; 0xe400
8520d514:	058d3004 	streq	r3, [sp, #4]
8520d518:	1a000009 	bne	8520d544 <nandflash_copy_from_cache+0x98>
8520d51c:	e159000a 	cmp	r9, sl
8520d520:	e08e3009 	add	r3, lr, r9
8520d524:	2a00000b 	bcs	8520d558 <nandflash_copy_from_cache+0xac>
8520d528:	e59d2004 	ldr	r2, [sp, #4]
8520d52c:	e1a0c003 	mov	ip, r3
8520d530:	e082b009 	add	fp, r2, r9
8520d534:	e89b00ff 	ldm	fp, {r0, r1, r2, r3, r4, r5, r6, r7}
8520d538:	e88c00ff 	stm	ip, {r0, r1, r2, r3, r4, r5, r6, r7}
8520d53c:	e2899020 	add	r9, r9, #32
8520d540:	eafffff5 	b	8520d51c <nandflash_copy_from_cache+0x70>
8520d544:	e062300e 	rsb	r3, r2, lr
8520d548:	e15a0003 	cmp	sl, r3
8520d54c:	84913004 	ldrhi	r3, [r1], #4
8520d550:	848e3004 	strhi	r3, [lr], #4
8520d554:	8afffffa 	bhi	8520d544 <nandflash_copy_from_cache+0x98>
8520d558:	e28dd008 	add	sp, sp, #8
8520d55c:	e8bd8ef0 	pop	{r4, r5, r6, r7, r9, sl, fp, pc}

8520d560 <nandflash_copy_from_spare>:
8520d560:	e92d4010 	push	{r4, lr}
8520d564:	e2803004 	add	r3, r0, #4
8520d568:	e59fc0b8 	ldr	ip, [pc, #184]	; 8520d628 <nandflash_copy_from_spare+0xc8>
8520d56c:	e59fe0b8 	ldr	lr, [pc, #184]	; 8520d62c <nandflash_copy_from_spare+0xcc>
8520d570:	e49c2004 	ldr	r2, [ip], #4
8520d574:	e2833004 	add	r3, r3, #4
8520d578:	e15c000e 	cmp	ip, lr
8520d57c:	e1a04c22 	lsr	r4, r2, #24
8520d580:	e5432005 	strb	r2, [r3, #-5]
8520d584:	e5434008 	strb	r4, [r3, #-8]
8520d588:	e1a04822 	lsr	r4, r2, #16
8520d58c:	e5434007 	strb	r4, [r3, #-7]
8520d590:	e1a04422 	lsr	r4, r2, #8
8520d594:	e5434006 	strb	r4, [r3, #-6]
8520d598:	1afffff4 	bne	8520d570 <nandflash_copy_from_spare+0x10>
8520d59c:	e59f308c 	ldr	r3, [pc, #140]	; 8520d630 <nandflash_copy_from_spare+0xd0>
8520d5a0:	e3002202 	movw	r2, #514	; 0x202
8520d5a4:	e2800010 	add	r0, r0, #16
8520d5a8:	e5933000 	ldr	r3, [r3]
8520d5ac:	e1530002 	cmp	r3, r2
8520d5b0:	93a03000 	movls	r3, #0
8520d5b4:	83a03001 	movhi	r3, #1
8520d5b8:	e3510010 	cmp	r1, #16
8520d5bc:	d3a03000 	movle	r3, #0
8520d5c0:	e3530000 	cmp	r3, #0
8520d5c4:	13a02010 	movne	r2, #16
8520d5c8:	13a0c000 	movne	ip, #0
8520d5cc:	1a000001 	bne	8520d5d8 <nandflash_copy_from_spare+0x78>
8520d5d0:	e8bd8010 	pop	{r4, pc}
8520d5d4:	e28cc001 	add	ip, ip, #1
8520d5d8:	e35c0003 	cmp	ip, #3
8520d5dc:	91520001 	cmpls	r2, r1
8520d5e0:	2a00000f 	bcs	8520d624 <nandflash_copy_from_spare+0xc4>
8520d5e4:	e59f3048 	ldr	r3, [pc, #72]	; 8520d634 <nandflash_copy_from_spare+0xd4>
8520d5e8:	e1a0e000 	mov	lr, r0
8520d5ec:	e08c3003 	add	r3, ip, r3
8520d5f0:	e1a03103 	lsl	r3, r3, #2
8520d5f4:	e5934000 	ldr	r4, [r3]
8520d5f8:	e3a03000 	mov	r3, #0
8520d5fc:	e3530018 	cmp	r3, #24
8520d600:	91520001 	cmpls	r2, r1
8520d604:	e1a0000e 	mov	r0, lr
8520d608:	2afffff1 	bcs	8520d5d4 <nandflash_copy_from_spare+0x74>
8520d60c:	e2630018 	rsb	r0, r3, #24
8520d610:	e2822001 	add	r2, r2, #1
8520d614:	e1a00034 	lsr	r0, r4, r0
8520d618:	e2833008 	add	r3, r3, #8
8520d61c:	e4ce0001 	strb	r0, [lr], #1
8520d620:	eafffff5 	b	8520d5fc <nandflash_copy_from_spare+0x9c>
8520d624:	e8bd8010 	pop	{r4, pc}
8520d628:	ff801a00 	.word	0xff801a00
8520d62c:	ff801a10 	.word	0xff801a10
8520d630:	ff801800 	.word	0xff801800
8520d634:	3fe00684 	.word	0x3fe00684

8520d638 <nandflash_wait_status>:
8520d638:	e59f1054 	ldr	r1, [pc, #84]	; 8520d694 <nandflash_wait_status+0x5c>
8520d63c:	e3a03000 	mov	r3, #0
8520d640:	e59f2050 	ldr	r2, [pc, #80]	; 8520d698 <nandflash_wait_status+0x60>
8520d644:	e591c014 	ldr	ip, [r1, #20]
8520d648:	e11c0000 	tst	ip, r0
8520d64c:	1a000002 	bne	8520d65c <nandflash_wait_status+0x24>
8520d650:	e2833001 	add	r3, r3, #1
8520d654:	e1530002 	cmp	r3, r2
8520d658:	1afffff9 	bne	8520d644 <nandflash_wait_status+0xc>
8520d65c:	e59f2030 	ldr	r2, [pc, #48]	; 8520d694 <nandflash_wait_status+0x5c>
8520d660:	e5922014 	ldr	r2, [r2, #20]
8520d664:	e1100002 	tst	r0, r2
8520d668:	1a000007 	bne	8520d68c <nandflash_wait_status+0x54>
8520d66c:	e59f1020 	ldr	r1, [pc, #32]	; 8520d694 <nandflash_wait_status+0x5c>
8520d670:	e1a02000 	mov	r2, r0
8520d674:	e92d4010 	push	{r4, lr}
8520d678:	e5911014 	ldr	r1, [r1, #20]
8520d67c:	e59f0018 	ldr	r0, [pc, #24]	; 8520d69c <nandflash_wait_status+0x64>
8520d680:	eb001d9a 	bl	85214cf0 <xprintf>
8520d684:	e3e00000 	mvn	r0, #0
8520d688:	e8bd8010 	pop	{r4, pc}
8520d68c:	e3a00001 	mov	r0, #1
8520d690:	e12fff1e 	bx	lr
8520d694:	ff801800 	.word	0xff801800
8520d698:	001e8480 	.word	0x001e8480
8520d69c:	8521a4d8 	.word	0x8521a4d8

8520d6a0 <nandflash_wait_cmd>:
8520d6a0:	e3a00102 	mov	r0, #-2147483648	; 0x80000000
8520d6a4:	eaffffe3 	b	8520d638 <nandflash_wait_status>

8520d6a8 <nandflash_wait_device>:
8520d6a8:	e3a00101 	mov	r0, #1073741824	; 0x40000000
8520d6ac:	eaffffe1 	b	8520d638 <nandflash_wait_status>

8520d6b0 <nand_reset_device>:
8520d6b0:	e92d4010 	push	{r4, lr}
8520d6b4:	e3a03105 	mov	r3, #1073741825	; 0x40000001
8520d6b8:	e59f4010 	ldr	r4, [pc, #16]	; 8520d6d0 <nand_reset_device+0x20>
8520d6bc:	e5843018 	str	r3, [r4, #24]
8520d6c0:	ebfffff8 	bl	8520d6a8 <nandflash_wait_device>
8520d6c4:	e3a03000 	mov	r3, #0
8520d6c8:	e584301c 	str	r3, [r4, #28]
8520d6cc:	e8bd8010 	pop	{r4, pc}
8520d6d0:	ff801800 	.word	0xff801800

8520d6d4 <nandflash_wait_cache>:
8520d6d4:	e3a00202 	mov	r0, #536870912	; 0x20000000
8520d6d8:	eaffffd6 	b	8520d638 <nandflash_wait_status>

8520d6dc <nand_adjust_cfg>:
8520d6dc:	e5901004 	ldr	r1, [r0, #4]
8520d6e0:	e92d4030 	push	{r4, r5, lr}
8520d6e4:	e1a04000 	mov	r4, r0
8520d6e8:	e59f52b0 	ldr	r5, [pc, #688]	; 8520d9a0 <nand_adjust_cfg+0x2c4>
8520d6ec:	e1a02821 	lsr	r2, r1, #16
8520d6f0:	e30a0df1 	movw	r0, #44529	; 0xadf1
8520d6f4:	e1520000 	cmp	r2, r0
8520d6f8:	e24ddf41 	sub	sp, sp, #260	; 0x104
8520d6fc:	e5953058 	ldr	r3, [r5, #88]	; 0x58
8520d700:	0a00001d 	beq	8520d77c <nand_adjust_cfg+0xa0>
8520d704:	8a00000b 	bhi	8520d738 <nand_adjust_cfg+0x5c>
8520d708:	e30001f1 	movw	r0, #497	; 0x1f1
8520d70c:	e1520000 	cmp	r2, r0
8520d710:	0a000022 	beq	8520d7a0 <nand_adjust_cfg+0xc4>
8520d714:	e30a0d76 	movw	r0, #44406	; 0xad76
8520d718:	e1520000 	cmp	r2, r0
8520d71c:	0a00001b 	beq	8520d790 <nand_adjust_cfg+0xb4>
8520d720:	e30011da 	movw	r1, #474	; 0x1da
8520d724:	e1520001 	cmp	r2, r1
8520d728:	03c3340f 	biceq	r3, r3, #251658240	; 0xf000000
8520d72c:	03833406 	orreq	r3, r3, #100663296	; 0x6000000
8520d730:	0a00001c 	beq	8520d7a8 <nand_adjust_cfg+0xcc>
8520d734:	ea00001c 	b	8520d7ac <nand_adjust_cfg+0xd0>
8520d738:	e30e0c55 	movw	r0, #60501	; 0xec55
8520d73c:	e1520000 	cmp	r2, r0
8520d740:	0a000012 	beq	8520d790 <nand_adjust_cfg+0xb4>
8520d744:	8a000005 	bhi	8520d760 <nand_adjust_cfg+0x84>
8520d748:	e30c12f0 	movw	r1, #49904	; 0xc2f0
8520d74c:	e1520001 	cmp	r2, r1
8520d750:	03c3340f 	biceq	r3, r3, #251658240	; 0xf000000
8520d754:	03833301 	orreq	r3, r3, #67108864	; 0x4000000
8520d758:	0a000012 	beq	8520d7a8 <nand_adjust_cfg+0xcc>
8520d75c:	ea000012 	b	8520d7ac <nand_adjust_cfg+0xd0>
8520d760:	e30e0c76 	movw	r0, #60534	; 0xec76
8520d764:	e1520000 	cmp	r2, r0
8520d768:	0a000008 	beq	8520d790 <nand_adjust_cfg+0xb4>
8520d76c:	e30e0cf1 	movw	r0, #60657	; 0xecf1
8520d770:	e1520000 	cmp	r2, r0
8520d774:	0a000005 	beq	8520d790 <nand_adjust_cfg+0xb4>
8520d778:	ea00000b 	b	8520d7ac <nand_adjust_cfg+0xd0>
8520d77c:	e59f2220 	ldr	r2, [pc, #544]	; 8520d9a4 <nand_adjust_cfg+0x2c8>
8520d780:	e0022003 	and	r2, r2, r3
8520d784:	e59f321c 	ldr	r3, [pc, #540]	; 8520d9a8 <nand_adjust_cfg+0x2cc>
8520d788:	e1823003 	orr	r3, r2, r3
8520d78c:	ea000005 	b	8520d7a8 <nand_adjust_cfg+0xcc>
8520d790:	e3c12b03 	bic	r2, r1, #3072	; 0xc00
8520d794:	e5842004 	str	r2, [r4, #4]
8520d798:	e5852194 	str	r2, [r5, #404]	; 0x194
8520d79c:	ea000002 	b	8520d7ac <nand_adjust_cfg+0xd0>
8520d7a0:	e3c3340f 	bic	r3, r3, #251658240	; 0xf000000
8520d7a4:	e3833405 	orr	r3, r3, #83886080	; 0x5000000
8520d7a8:	e5853058 	str	r3, [r5, #88]	; 0x58
8520d7ac:	e3a02501 	mov	r2, #4194304	; 0x400000
8520d7b0:	e7e33c53 	ubfx	r3, r3, #24, #4
8520d7b4:	e1a03312 	lsl	r3, r2, r3
8520d7b8:	e5952054 	ldr	r2, [r5, #84]	; 0x54
8520d7bc:	e584300c 	str	r3, [r4, #12]
8520d7c0:	e2023eff 	and	r3, r2, #4080	; 0xff0
8520d7c4:	e3530050 	cmp	r3, #80	; 0x50
8520d7c8:	0a000014 	beq	8520d820 <nand_adjust_cfg+0x144>
8520d7cc:	8a000007 	bhi	8520d7f0 <nand_adjust_cfg+0x114>
8520d7d0:	e3530010 	cmp	r3, #16
8520d7d4:	0a000015 	beq	8520d830 <nand_adjust_cfg+0x154>
8520d7d8:	e3530040 	cmp	r3, #64	; 0x40
8520d7dc:	0a000011 	beq	8520d828 <nand_adjust_cfg+0x14c>
8520d7e0:	e3530000 	cmp	r3, #0
8520d7e4:	1a000013 	bne	8520d838 <nand_adjust_cfg+0x15c>
8520d7e8:	e3a03a02 	mov	r3, #8192	; 0x2000
8520d7ec:	ea000010 	b	8520d834 <nand_adjust_cfg+0x158>
8520d7f0:	e3530070 	cmp	r3, #112	; 0x70
8520d7f4:	0a000007 	beq	8520d818 <nand_adjust_cfg+0x13c>
8520d7f8:	e3530080 	cmp	r3, #128	; 0x80
8520d7fc:	0a000003 	beq	8520d810 <nand_adjust_cfg+0x134>
8520d800:	e3530060 	cmp	r3, #96	; 0x60
8520d804:	1a00000b 	bne	8520d838 <nand_adjust_cfg+0x15c>
8520d808:	e3a03702 	mov	r3, #524288	; 0x80000
8520d80c:	ea000008 	b	8520d834 <nand_adjust_cfg+0x158>
8520d810:	e3a03602 	mov	r3, #2097152	; 0x200000
8520d814:	ea000006 	b	8520d834 <nand_adjust_cfg+0x158>
8520d818:	e3a03601 	mov	r3, #1048576	; 0x100000
8520d81c:	ea000004 	b	8520d834 <nand_adjust_cfg+0x158>
8520d820:	e3a03701 	mov	r3, #262144	; 0x40000
8520d824:	ea000002 	b	8520d834 <nand_adjust_cfg+0x158>
8520d828:	e3a03802 	mov	r3, #131072	; 0x20000
8520d82c:	ea000000 	b	8520d834 <nand_adjust_cfg+0x158>
8520d830:	e3a03901 	mov	r3, #16384	; 0x4000
8520d834:	e5843010 	str	r3, [r4, #16]
8520d838:	e202300f 	and	r3, r2, #15
8520d83c:	e3530004 	cmp	r3, #4
8520d840:	979ff103 	ldrls	pc, [pc, r3, lsl #2]
8520d844:	ea00000c 	b	8520d87c <nand_adjust_cfg+0x1a0>
8520d848:	8520d874 	.word	0x8520d874
8520d84c:	8520d87c 	.word	0x8520d87c
8520d850:	8520d86c 	.word	0x8520d86c
8520d854:	8520d864 	.word	0x8520d864
8520d858:	8520d85c 	.word	0x8520d85c
8520d85c:	e3a03a02 	mov	r3, #8192	; 0x2000
8520d860:	ea000004 	b	8520d878 <nand_adjust_cfg+0x19c>
8520d864:	e3a03a01 	mov	r3, #4096	; 0x1000
8520d868:	ea000002 	b	8520d878 <nand_adjust_cfg+0x19c>
8520d86c:	e3a03b02 	mov	r3, #2048	; 0x800
8520d870:	ea000000 	b	8520d878 <nand_adjust_cfg+0x19c>
8520d874:	e3a03c02 	mov	r3, #512	; 0x200
8520d878:	e5843014 	str	r3, [r4, #20]
8520d87c:	e5943014 	ldr	r3, [r4, #20]
8520d880:	e5952050 	ldr	r2, [r5, #80]	; 0x50
8520d884:	e1a004a3 	lsr	r0, r3, #9
8520d888:	e7e41852 	ubfx	r1, r2, #16, #5
8520d88c:	e202207f 	and	r2, r2, #127	; 0x7f
8520d890:	e584201c 	str	r2, [r4, #28]
8520d894:	e351000f 	cmp	r1, #15
8520d898:	e0020092 	mul	r2, r2, r0
8520d89c:	e5842018 	str	r2, [r4, #24]
8520d8a0:	1a000008 	bne	8520d8c8 <nand_adjust_cfg+0x1ec>
8520d8a4:	e3530c02 	cmp	r3, #512	; 0x200
8520d8a8:	1a000001 	bne	8520d8b4 <nand_adjust_cfg+0x1d8>
8520d8ac:	e3a03005 	mov	r3, #5
8520d8b0:	ea000009 	b	8520d8dc <nand_adjust_cfg+0x200>
8520d8b4:	e3a03000 	mov	r3, #0
8520d8b8:	e5843024 	str	r3, [r4, #36]	; 0x24
8520d8bc:	e3a03001 	mov	r3, #1
8520d8c0:	e5843028 	str	r3, [r4, #40]	; 0x28
8520d8c4:	ea000006 	b	8520d8e4 <nand_adjust_cfg+0x208>
8520d8c8:	e3530c02 	cmp	r3, #512	; 0x200
8520d8cc:	03510004 	cmpeq	r1, #4
8520d8d0:	03a03001 	moveq	r3, #1
8520d8d4:	13a03000 	movne	r3, #0
8520d8d8:	0afffff3 	beq	8520d8ac <nand_adjust_cfg+0x1d0>
8520d8dc:	e5843028 	str	r3, [r4, #40]	; 0x28
8520d8e0:	e5843024 	str	r3, [r4, #36]	; 0x24
8520d8e4:	e3a0300e 	mov	r3, #14
8520d8e8:	e5853004 	str	r3, [r5, #4]
8520d8ec:	ebffff6b 	bl	8520d6a0 <nandflash_wait_cmd>
8520d8f0:	e3500001 	cmp	r0, #1
8520d8f4:	1a000026 	bne	8520d994 <nand_adjust_cfg+0x2b8>
8520d8f8:	ebffff75 	bl	8520d6d4 <nandflash_wait_cache>
8520d8fc:	e3500001 	cmp	r0, #1
8520d900:	1a000023 	bne	8520d994 <nand_adjust_cfg+0x2b8>
8520d904:	e3a02c01 	mov	r2, #256	; 0x100
8520d908:	e3a01000 	mov	r1, #0
8520d90c:	e1a0000d 	mov	r0, sp
8520d910:	ebfffee5 	bl	8520d4ac <nandflash_copy_from_cache>
8520d914:	e5dd3000 	ldrb	r3, [sp]
8520d918:	e353004f 	cmp	r3, #79	; 0x4f
8520d91c:	1a00001c 	bne	8520d994 <nand_adjust_cfg+0x2b8>
8520d920:	e5dd3001 	ldrb	r3, [sp, #1]
8520d924:	e353004e 	cmp	r3, #78	; 0x4e
8520d928:	1a000019 	bne	8520d994 <nand_adjust_cfg+0x2b8>
8520d92c:	e5dd3002 	ldrb	r3, [sp, #2]
8520d930:	e3530046 	cmp	r3, #70	; 0x46
8520d934:	1a000016 	bne	8520d994 <nand_adjust_cfg+0x2b8>
8520d938:	e5dd3003 	ldrb	r3, [sp, #3]
8520d93c:	e3530049 	cmp	r3, #73	; 0x49
8520d940:	1a000013 	bne	8520d994 <nand_adjust_cfg+0x2b8>
8520d944:	e5dd2064 	ldrb	r2, [sp, #100]	; 0x64
8520d948:	e3520001 	cmp	r2, #1
8520d94c:	0a000010 	beq	8520d994 <nand_adjust_cfg+0x2b8>
8520d950:	e59d1050 	ldr	r1, [sp, #80]	; 0x50
8520d954:	e59d305c 	ldr	r3, [sp, #92]	; 0x5c
8520d958:	e0030193 	mul	r3, r3, r1
8520d95c:	e59d1060 	ldr	r1, [sp, #96]	; 0x60
8520d960:	e0030391 	mul	r3, r1, r3
8520d964:	e0030392 	mul	r3, r2, r3
8520d968:	e3a02000 	mov	r2, #0
8520d96c:	e584300c 	str	r3, [r4, #12]
8520d970:	e1a03ba3 	lsr	r3, r3, #23
8520d974:	e3530000 	cmp	r3, #0
8520d978:	12822001 	addne	r2, r2, #1
8520d97c:	11a030a3 	lsrne	r3, r3, #1
8520d980:	1afffffb 	bne	8520d974 <nand_adjust_cfg+0x298>
8520d984:	e5953058 	ldr	r3, [r5, #88]	; 0x58
8520d988:	e3c3340f 	bic	r3, r3, #251658240	; 0xf000000
8520d98c:	e1833c02 	orr	r3, r3, r2, lsl #24
8520d990:	e5853058 	str	r3, [r5, #88]	; 0x58
8520d994:	e3a00001 	mov	r0, #1
8520d998:	e28ddf41 	add	sp, sp, #260	; 0x104
8520d99c:	e8bd8030 	pop	{r4, r5, pc}
8520d9a0:	ff801800 	.word	0xff801800
8520d9a4:	f0f800ff 	.word	0xf0f800ff
8520d9a8:	05042200 	.word	0x05042200

8520d9ac <rom_nand_flash_init>:
8520d9ac:	e92d4010 	push	{r4, lr}
8520d9b0:	ebffff3e 	bl	8520d6b0 <nand_reset_device>
8520d9b4:	e3a03000 	mov	r3, #0
8520d9b8:	e59f0018 	ldr	r0, [pc, #24]	; 8520d9d8 <rom_nand_flash_init+0x2c>
8520d9bc:	e8bd4010 	pop	{r4, lr}
8520d9c0:	e5803008 	str	r3, [r0, #8]
8520d9c4:	e243387f 	sub	r3, r3, #8323072	; 0x7f0000
8520d9c8:	e2433b3a 	sub	r3, r3, #59392	; 0xe800
8520d9cc:	e5933194 	ldr	r3, [r3, #404]	; 0x194
8520d9d0:	e5803004 	str	r3, [r0, #4]
8520d9d4:	eaffff40 	b	8520d6dc <nand_adjust_cfg>
8520d9d8:	8521fc6c 	.word	0x8521fc6c

8520d9dc <nandflash_wait_spare>:
8520d9dc:	e3a00201 	mov	r0, #268435456	; 0x10000000
8520d9e0:	eaffff14 	b	8520d638 <nandflash_wait_status>

8520d9e4 <nandflash_read_spare_area>:
8520d9e4:	e590c018 	ldr	ip, [r0, #24]
8520d9e8:	e92d4ef3 	push	{r0, r1, r4, r5, r6, r7, r9, sl, fp, lr}
8520d9ec:	e15c0003 	cmp	ip, r3
8520d9f0:	83e04000 	mvnhi	r4, #0
8520d9f4:	8a000021 	bhi	8520da80 <nandflash_read_spare_area+0x9c>
8520d9f8:	e58d1004 	str	r1, [sp, #4]
8520d9fc:	e1a05000 	mov	r5, r0
8520da00:	e590101c 	ldr	r1, [r0, #28]
8520da04:	e1a0000c 	mov	r0, ip
8520da08:	e1a09002 	mov	r9, r2
8520da0c:	ebfffc65 	bl	8520cba8 <__udivsi3>
8520da10:	e59f6074 	ldr	r6, [pc, #116]	; 8520da8c <nandflash_read_spare_area+0xa8>
8520da14:	e3a07000 	mov	r7, #0
8520da18:	e3e04000 	mvn	r4, #0
8520da1c:	e1a0b007 	mov	fp, r7
8520da20:	e1a0a000 	mov	sl, r0
8520da24:	e157000a 	cmp	r7, sl
8520da28:	0a000014 	beq	8520da80 <nandflash_read_spare_area+0x9c>
8520da2c:	e5952008 	ldr	r2, [r5, #8]
8520da30:	e59d3004 	ldr	r3, [sp, #4]
8520da34:	e0832002 	add	r2, r3, r2
8520da38:	e0822487 	add	r2, r2, r7, lsl #9
8520da3c:	e586200c 	str	r2, [r6, #12]
8520da40:	e586b008 	str	fp, [r6, #8]
8520da44:	e3a02002 	mov	r2, #2
8520da48:	e5862004 	str	r2, [r6, #4]
8520da4c:	ebffff13 	bl	8520d6a0 <nandflash_wait_cmd>
8520da50:	e3500001 	cmp	r0, #1
8520da54:	e1a04000 	mov	r4, r0
8520da58:	1a000008 	bne	8520da80 <nandflash_read_spare_area+0x9c>
8520da5c:	ebffffde 	bl	8520d9dc <nandflash_wait_spare>
8520da60:	e3500001 	cmp	r0, #1
8520da64:	e1a04000 	mov	r4, r0
8520da68:	1a000004 	bne	8520da80 <nandflash_read_spare_area+0x9c>
8520da6c:	e595101c 	ldr	r1, [r5, #28]
8520da70:	e0209791 	mla	r0, r1, r7, r9
8520da74:	ebfffeb9 	bl	8520d560 <nandflash_copy_from_spare>
8520da78:	e2877001 	add	r7, r7, #1
8520da7c:	eaffffe8 	b	8520da24 <nandflash_read_spare_area+0x40>
8520da80:	e1a00004 	mov	r0, r4
8520da84:	e28dd008 	add	sp, sp, #8
8520da88:	e8bd8ef0 	pop	{r4, r5, r6, r7, r9, sl, fp, pc}
8520da8c:	ff801800 	.word	0xff801800

8520da90 <nand_is_blk_bad>:
8520da90:	e3510000 	cmp	r1, #0
8520da94:	0a000023 	beq	8520db28 <nand_is_blk_bad+0x98>
8520da98:	e5903010 	ldr	r3, [r0, #16]
8520da9c:	e92d4070 	push	{r4, r5, r6, lr}
8520daa0:	e24dde1b 	sub	sp, sp, #432	; 0x1b0
8520daa4:	e0050193 	mul	r5, r3, r1
8520daa8:	e5903014 	ldr	r3, [r0, #20]
8520daac:	e1a04000 	mov	r4, r0
8520dab0:	e3a06002 	mov	r6, #2
8520dab4:	e2633000 	rsb	r3, r3, #0
8520dab8:	e0055003 	and	r5, r5, r3
8520dabc:	e5943018 	ldr	r3, [r4, #24]
8520dac0:	e1a0200d 	mov	r2, sp
8520dac4:	e1a01005 	mov	r1, r5
8520dac8:	e1a00004 	mov	r0, r4
8520dacc:	ebffffc4 	bl	8520d9e4 <nandflash_read_spare_area>
8520dad0:	e3500001 	cmp	r0, #1
8520dad4:	1a000010 	bne	8520db1c <nand_is_blk_bad+0x8c>
8520dad8:	e5943024 	ldr	r3, [r4, #36]	; 0x24
8520dadc:	e28d2e1b 	add	r2, sp, #432	; 0x1b0
8520dae0:	e0823003 	add	r3, r2, r3
8520dae4:	e55331b0 	ldrb	r3, [r3, #-432]	; 0xfffffe50
8520dae8:	e35300ff 	cmp	r3, #255	; 0xff
8520daec:	1a00000b 	bne	8520db20 <nand_is_blk_bad+0x90>
8520daf0:	e5943028 	ldr	r3, [r4, #40]	; 0x28
8520daf4:	e0823003 	add	r3, r2, r3
8520daf8:	e55331b0 	ldrb	r3, [r3, #-432]	; 0xfffffe50
8520dafc:	e35300ff 	cmp	r3, #255	; 0xff
8520db00:	1a000006 	bne	8520db20 <nand_is_blk_bad+0x90>
8520db04:	e5943014 	ldr	r3, [r4, #20]
8520db08:	e2566001 	subs	r6, r6, #1
8520db0c:	e0855003 	add	r5, r5, r3
8520db10:	1affffe9 	bne	8520dabc <nand_is_blk_bad+0x2c>
8520db14:	e3a00000 	mov	r0, #0
8520db18:	ea000000 	b	8520db20 <nand_is_blk_bad+0x90>
8520db1c:	e3a00001 	mov	r0, #1
8520db20:	e28dde1b 	add	sp, sp, #432	; 0x1b0
8520db24:	e8bd8070 	pop	{r4, r5, r6, pc}
8520db28:	e3a00000 	mov	r0, #0
8520db2c:	e12fff1e 	bx	lr

8520db30 <nandflash_read_page>:
8520db30:	e92d4ef0 	push	{r4, r5, r6, r7, r9, sl, fp, lr}
8520db34:	e24dd018 	sub	sp, sp, #24
8520db38:	e58d200c 	str	r2, [sp, #12]
8520db3c:	e5902010 	ldr	r2, [r0, #16]
8520db40:	e58d3008 	str	r3, [sp, #8]
8520db44:	e1520003 	cmp	r2, r3
8520db48:	33e06000 	mvncc	r6, #0
8520db4c:	3a000050 	bcc	8520dc94 <nandflash_read_page+0x164>
8520db50:	e5905014 	ldr	r5, [r0, #20]
8520db54:	e1a0b000 	mov	fp, r0
8520db58:	e1a0a001 	mov	sl, r1
8520db5c:	e3a02000 	mov	r2, #0
8520db60:	e2655000 	rsb	r5, r5, #0
8520db64:	e58d2004 	str	r2, [sp, #4]
8520db68:	e0055001 	and	r5, r5, r1
8520db6c:	e2857c02 	add	r7, r5, #512	; 0x200
8520db70:	e3a09000 	mov	r9, #0
8520db74:	e3a06001 	mov	r6, #1
8520db78:	e59b2014 	ldr	r2, [fp, #20]
8520db7c:	e1590002 	cmp	r9, r2
8520db80:	2a000025 	bcs	8520dc1c <nandflash_read_page+0xec>
8520db84:	e3560001 	cmp	r6, #1
8520db88:	1a000041 	bne	8520dc94 <nandflash_read_page+0x164>
8520db8c:	e58d3014 	str	r3, [sp, #20]
8520db90:	e3a01000 	mov	r1, #0
8520db94:	e59f3104 	ldr	r3, [pc, #260]	; 8520dca0 <nandflash_read_page+0x170>
8520db98:	e59b2008 	ldr	r2, [fp, #8]
8520db9c:	e2433b02 	sub	r3, r3, #2048	; 0x800
8520dba0:	e0852002 	add	r2, r5, r2
8520dba4:	e5831800 	str	r1, [r3, #2048]	; 0x800
8520dba8:	e0822009 	add	r2, r2, r9
8520dbac:	e583200c 	str	r2, [r3, #12]
8520dbb0:	e5831008 	str	r1, [r3, #8]
8520dbb4:	e58d1010 	str	r1, [sp, #16]
8520dbb8:	e5836004 	str	r6, [r3, #4]
8520dbbc:	ebfffeb7 	bl	8520d6a0 <nandflash_wait_cmd>
8520dbc0:	e59d1010 	ldr	r1, [sp, #16]
8520dbc4:	e59d3014 	ldr	r3, [sp, #20]
8520dbc8:	e3500001 	cmp	r0, #1
8520dbcc:	e1a06000 	mov	r6, r0
8520dbd0:	1a00000e 	bne	8520dc10 <nandflash_read_page+0xe0>
8520dbd4:	e58d1014 	str	r1, [sp, #20]
8520dbd8:	e58d3010 	str	r3, [sp, #16]
8520dbdc:	ebfffebc 	bl	8520d6d4 <nandflash_wait_cache>
8520dbe0:	e59d3010 	ldr	r3, [sp, #16]
8520dbe4:	e59d1014 	ldr	r1, [sp, #20]
8520dbe8:	e3500001 	cmp	r0, #1
8520dbec:	e1a06000 	mov	r6, r0
8520dbf0:	1a000006 	bne	8520dc10 <nandflash_read_page+0xe0>
8520dbf4:	e15a0007 	cmp	sl, r7
8520dbf8:	2a000004 	bcs	8520dc10 <nandflash_read_page+0xe0>
8520dbfc:	e59d2008 	ldr	r2, [sp, #8]
8520dc00:	e082400a 	add	r4, r2, sl
8520dc04:	e2472c02 	sub	r2, r7, #512	; 0x200
8520dc08:	e1540002 	cmp	r4, r2
8520dc0c:	8a000008 	bhi	8520dc34 <nandflash_read_page+0x104>
8520dc10:	e2899c02 	add	r9, r9, #512	; 0x200
8520dc14:	e2877c02 	add	r7, r7, #512	; 0x200
8520dc18:	eaffffd6 	b	8520db78 <nandflash_read_page+0x48>
8520dc1c:	e3560001 	cmp	r6, #1
8520dc20:	1a00001b 	bne	8520dc94 <nandflash_read_page+0x164>
8520dc24:	e3530000 	cmp	r3, #0
8520dc28:	e0855002 	add	r5, r5, r2
8520dc2c:	1affffce 	bne	8520db6c <nandflash_read_page+0x3c>
8520dc30:	ea000017 	b	8520dc94 <nandflash_read_page+0x164>
8520dc34:	e15a0002 	cmp	sl, r2
8520dc38:	8a000004 	bhi	8520dc50 <nandflash_read_page+0x120>
8520dc3c:	e1540007 	cmp	r4, r7
8520dc40:	30654004 	rsbcc	r4, r5, r4
8520dc44:	30694004 	rsbcc	r4, r9, r4
8520dc48:	23a04c02 	movcs	r4, #512	; 0x200
8520dc4c:	ea000004 	b	8520dc64 <nandflash_read_page+0x134>
8520dc50:	e1540007 	cmp	r4, r7
8520dc54:	e065100a 	rsb	r1, r5, sl
8520dc58:	e0691001 	rsb	r1, r9, r1
8520dc5c:	206a4007 	rsbcs	r4, sl, r7
8520dc60:	359d4008 	ldrcc	r4, [sp, #8]
8520dc64:	e58d3010 	str	r3, [sp, #16]
8520dc68:	e1a02004 	mov	r2, r4
8520dc6c:	e59d300c 	ldr	r3, [sp, #12]
8520dc70:	e59d0004 	ldr	r0, [sp, #4]
8520dc74:	e0830000 	add	r0, r3, r0
8520dc78:	ebfffe0b 	bl	8520d4ac <nandflash_copy_from_cache>
8520dc7c:	e59d3004 	ldr	r3, [sp, #4]
8520dc80:	e0833004 	add	r3, r3, r4
8520dc84:	e58d3004 	str	r3, [sp, #4]
8520dc88:	e59d3010 	ldr	r3, [sp, #16]
8520dc8c:	e0643003 	rsb	r3, r4, r3
8520dc90:	eaffffde 	b	8520dc10 <nandflash_read_page+0xe0>
8520dc94:	e1a00006 	mov	r0, r6
8520dc98:	e28dd018 	add	sp, sp, #24
8520dc9c:	e8bd8ef0 	pop	{r4, r5, r6, r7, r9, sl, fp, pc}
8520dca0:	ff802000 	.word	0xff802000

8520dca4 <nand_flash_read_buf>:
8520dca4:	e92d4ef0 	push	{r4, r5, r6, r7, r9, sl, fp, lr}
8520dca8:	e1a07000 	mov	r7, r0
8520dcac:	e59fa0d0 	ldr	sl, [pc, #208]	; 8520dd84 <nand_flash_read_buf+0xe0>
8520dcb0:	e1a04001 	mov	r4, r1
8520dcb4:	e1a09002 	mov	r9, r2
8520dcb8:	e1a06003 	mov	r6, r3
8520dcbc:	e59a5010 	ldr	r5, [sl, #16]
8520dcc0:	e59a000c 	ldr	r0, [sl, #12]
8520dcc4:	e1a01005 	mov	r1, r5
8520dcc8:	ebfffbb6 	bl	8520cba8 <__udivsi3>
8520dccc:	e1500007 	cmp	r0, r7
8520dcd0:	8a000004 	bhi	8520dce8 <nand_flash_read_buf+0x44>
8520dcd4:	e2402001 	sub	r2, r0, #1
8520dcd8:	e1a01007 	mov	r1, r7
8520dcdc:	e59f00a4 	ldr	r0, [pc, #164]	; 8520dd88 <nand_flash_read_buf+0xe4>
8520dce0:	eb001c02 	bl	85214cf0 <xprintf>
8520dce4:	ea000022 	b	8520dd74 <nand_flash_read_buf+0xd0>
8520dce8:	e3560000 	cmp	r6, #0
8520dcec:	0a000018 	beq	8520dd54 <nand_flash_read_buf+0xb0>
8520dcf0:	e0214597 	mla	r1, r7, r5, r4
8520dcf4:	e2654000 	rsb	r4, r5, #0
8520dcf8:	e1c14004 	bic	r4, r1, r4
8520dcfc:	e0644005 	rsb	r4, r4, r5
8520dd00:	e1a05006 	mov	r5, r6
8520dd04:	e1540006 	cmp	r4, r6
8520dd08:	21a04006 	movcs	r4, r6
8520dd0c:	e1a03004 	mov	r3, r4
8520dd10:	e1a02009 	mov	r2, r9
8520dd14:	e59f0068 	ldr	r0, [pc, #104]	; 8520dd84 <nand_flash_read_buf+0xe0>
8520dd18:	ebffff84 	bl	8520db30 <nandflash_read_page>
8520dd1c:	e3500001 	cmp	r0, #1
8520dd20:	1a00000a 	bne	8520dd50 <nand_flash_read_buf+0xac>
8520dd24:	e0555004 	subs	r5, r5, r4
8520dd28:	0a000009 	beq	8520dd54 <nand_flash_read_buf+0xb0>
8520dd2c:	e59a3010 	ldr	r3, [sl, #16]
8520dd30:	e2877001 	add	r7, r7, #1
8520dd34:	e0899004 	add	r9, r9, r4
8520dd38:	e1550003 	cmp	r5, r3
8520dd3c:	e6ff7077 	uxth	r7, r7
8520dd40:	31a04005 	movcc	r4, r5
8520dd44:	21a04003 	movcs	r4, r3
8520dd48:	e0010793 	mul	r1, r3, r7
8520dd4c:	eaffffee 	b	8520dd0c <nand_flash_read_buf+0x68>
8520dd50:	e3e06000 	mvn	r6, #0
8520dd54:	e1a01007 	mov	r1, r7
8520dd58:	e59f0024 	ldr	r0, [pc, #36]	; 8520dd84 <nand_flash_read_buf+0xe0>
8520dd5c:	ebffff4b 	bl	8520da90 <nand_is_blk_bad>
8520dd60:	e3500000 	cmp	r0, #0
8520dd64:	0a000004 	beq	8520dd7c <nand_flash_read_buf+0xd8>
8520dd68:	e1a01007 	mov	r1, r7
8520dd6c:	e59f0018 	ldr	r0, [pc, #24]	; 8520dd8c <nand_flash_read_buf+0xe8>
8520dd70:	eb001bde 	bl	85214cf0 <xprintf>
8520dd74:	e3e00000 	mvn	r0, #0
8520dd78:	e8bd8ef0 	pop	{r4, r5, r6, r7, r9, sl, fp, pc}
8520dd7c:	e1a00006 	mov	r0, r6
8520dd80:	e8bd8ef0 	pop	{r4, r5, r6, r7, r9, sl, fp, pc}
8520dd84:	8521fc6c 	.word	0x8521fc6c
8520dd88:	8521a518 	.word	0x8521a518
8520dd8c:	8521a557 	.word	0x8521a557

8520dd90 <parse_ubi>:
8520dd90:	e92d4ef0 	push	{r4, r5, r6, r7, r9, sl, fp, lr}
8520dd94:	e24dd038 	sub	sp, sp, #56	; 0x38
8520dd98:	e1a05001 	mov	r5, r1
8520dd9c:	e3a0b001 	mov	fp, #1
8520dda0:	e58d3034 	str	r3, [sp, #52]	; 0x34
8520dda4:	e3e03000 	mvn	r3, #0
8520dda8:	e58d3024 	str	r3, [sp, #36]	; 0x24
8520ddac:	e58d3010 	str	r3, [sp, #16]
8520ddb0:	e3a03000 	mov	r3, #0
8520ddb4:	e1a07003 	mov	r7, r3
8520ddb8:	e1a06003 	mov	r6, r3
8520ddbc:	e58d0028 	str	r0, [sp, #40]	; 0x28
8520ddc0:	e58d2030 	str	r2, [sp, #48]	; 0x30
8520ddc4:	e58d302c 	str	r3, [sp, #44]	; 0x2c
8520ddc8:	e58d301c 	str	r3, [sp, #28]
8520ddcc:	e58d3018 	str	r3, [sp, #24]
8520ddd0:	e58d3014 	str	r3, [sp, #20]
8520ddd4:	e59d3030 	ldr	r3, [sp, #48]	; 0x30
8520ddd8:	e3a09000 	mov	r9, #0
8520dddc:	e58d3020 	str	r3, [sp, #32]
8520dde0:	e59d3020 	ldr	r3, [sp, #32]
8520dde4:	e59d2034 	ldr	r2, [sp, #52]	; 0x34
8520dde8:	e1530002 	cmp	r3, r2
8520ddec:	2a000276 	bcs	8520e7cc <parse_ubi+0xa3c>
8520ddf0:	e59d3080 	ldr	r3, [sp, #128]	; 0x80
8520ddf4:	e3a04040 	mov	r4, #64	; 0x40
8520ddf8:	e58d5000 	str	r5, [sp]
8520ddfc:	e3a02000 	mov	r2, #0
8520de00:	e58d4004 	str	r4, [sp, #4]
8520de04:	e58d300c 	str	r3, [sp, #12]
8520de08:	e59d307c 	ldr	r3, [sp, #124]	; 0x7c
8520de0c:	e59d1020 	ldr	r1, [sp, #32]
8520de10:	e59d0028 	ldr	r0, [sp, #40]	; 0x28
8520de14:	e58d3008 	str	r3, [sp, #8]
8520de18:	e59dc070 	ldr	ip, [sp, #112]	; 0x70
8520de1c:	e59d3058 	ldr	r3, [sp, #88]	; 0x58
8520de20:	e12fff3c 	blx	ip
8520de24:	e3500000 	cmp	r0, #0
8520de28:	0a000263 	beq	8520e7bc <parse_ubi+0xa2c>
8520de2c:	e5d52001 	ldrb	r2, [r5, #1]
8520de30:	e5d53000 	ldrb	r3, [r5]
8520de34:	e1833402 	orr	r3, r3, r2, lsl #8
8520de38:	e5d52002 	ldrb	r2, [r5, #2]
8520de3c:	e1833802 	orr	r3, r3, r2, lsl #16
8520de40:	e5d52003 	ldrb	r2, [r5, #3]
8520de44:	e1833c02 	orr	r3, r3, r2, lsl #24
8520de48:	e2031cff 	and	r1, r3, #65280	; 0xff00
8520de4c:	e1a02c23 	lsr	r2, r3, #24
8520de50:	e1822c03 	orr	r2, r2, r3, lsl #24
8520de54:	e20338ff 	and	r3, r3, #16711680	; 0xff0000
8520de58:	e1822401 	orr	r2, r2, r1, lsl #8
8520de5c:	e1823423 	orr	r3, r2, r3, lsr #8
8520de60:	e59f297c 	ldr	r2, [pc, #2428]	; 8520e7e4 <parse_ubi+0xa54>
8520de64:	e1530002 	cmp	r3, r2
8520de68:	1a000253 	bne	8520e7bc <parse_ubi+0xa2c>
8520de6c:	e3e02000 	mvn	r2, #0
8520de70:	e3a0103c 	mov	r1, #60	; 0x3c
8520de74:	e1a00005 	mov	r0, r5
8520de78:	eb001a0e 	bl	852146b8 <lib_get_crc32>
8520de7c:	e5d5203d 	ldrb	r2, [r5, #61]	; 0x3d
8520de80:	e5d5303c 	ldrb	r3, [r5, #60]	; 0x3c
8520de84:	e1833402 	orr	r3, r3, r2, lsl #8
8520de88:	e5d5203e 	ldrb	r2, [r5, #62]	; 0x3e
8520de8c:	e1833802 	orr	r3, r3, r2, lsl #16
8520de90:	e5d5203f 	ldrb	r2, [r5, #63]	; 0x3f
8520de94:	e1833c02 	orr	r3, r3, r2, lsl #24
8520de98:	e2031cff 	and	r1, r3, #65280	; 0xff00
8520de9c:	e1a02c23 	lsr	r2, r3, #24
8520dea0:	e1822c03 	orr	r2, r2, r3, lsl #24
8520dea4:	e20338ff 	and	r3, r3, #16711680	; 0xff0000
8520dea8:	e1822401 	orr	r2, r2, r1, lsl #8
8520deac:	e1823423 	orr	r3, r2, r3, lsr #8
8520deb0:	e1500003 	cmp	r0, r3
8520deb4:	1a000240 	bne	8520e7bc <parse_ubi+0xa2c>
8520deb8:	e5d52011 	ldrb	r2, [r5, #17]
8520debc:	e5d53010 	ldrb	r3, [r5, #16]
8520dec0:	e58d5000 	str	r5, [sp]
8520dec4:	e1833402 	orr	r3, r3, r2, lsl #8
8520dec8:	e5d52012 	ldrb	r2, [r5, #18]
8520decc:	e59d0028 	ldr	r0, [sp, #40]	; 0x28
8520ded0:	e59dc070 	ldr	ip, [sp, #112]	; 0x70
8520ded4:	e1833802 	orr	r3, r3, r2, lsl #16
8520ded8:	e5d52013 	ldrb	r2, [r5, #19]
8520dedc:	e1833c02 	orr	r3, r3, r2, lsl #24
8520dee0:	e59d2080 	ldr	r2, [sp, #128]	; 0x80
8520dee4:	e2031cff 	and	r1, r3, #65280	; 0xff00
8520dee8:	e58d200c 	str	r2, [sp, #12]
8520deec:	e59d207c 	ldr	r2, [sp, #124]	; 0x7c
8520def0:	e58d2008 	str	r2, [sp, #8]
8520def4:	e1a02c23 	lsr	r2, r3, #24
8520def8:	e1822c03 	orr	r2, r2, r3, lsl #24
8520defc:	e20338ff 	and	r3, r3, #16711680	; 0xff0000
8520df00:	e1822401 	orr	r2, r2, r1, lsl #8
8520df04:	e59d1020 	ldr	r1, [sp, #32]
8520df08:	e1823423 	orr	r3, r2, r3, lsr #8
8520df0c:	e1a02004 	mov	r2, r4
8520df10:	e58d3004 	str	r3, [sp, #4]
8520df14:	e59d3058 	ldr	r3, [sp, #88]	; 0x58
8520df18:	e12fff3c 	blx	ip
8520df1c:	e3500000 	cmp	r0, #0
8520df20:	0a000225 	beq	8520e7bc <parse_ubi+0xa2c>
8520df24:	e5d52011 	ldrb	r2, [r5, #17]
8520df28:	e5d53010 	ldrb	r3, [r5, #16]
8520df2c:	e1833402 	orr	r3, r3, r2, lsl #8
8520df30:	e5d52012 	ldrb	r2, [r5, #18]
8520df34:	e1833802 	orr	r3, r3, r2, lsl #16
8520df38:	e5d52013 	ldrb	r2, [r5, #19]
8520df3c:	e1833c02 	orr	r3, r3, r2, lsl #24
8520df40:	e2031cff 	and	r1, r3, #65280	; 0xff00
8520df44:	e1a02c23 	lsr	r2, r3, #24
8520df48:	e1822c03 	orr	r2, r2, r3, lsl #24
8520df4c:	e20338ff 	and	r3, r3, #16711680	; 0xff0000
8520df50:	e1822401 	orr	r2, r2, r1, lsl #8
8520df54:	e1823423 	orr	r3, r2, r3, lsr #8
8520df58:	e0854003 	add	r4, r5, r3
8520df5c:	e7d53003 	ldrb	r3, [r5, r3]
8520df60:	e5d42001 	ldrb	r2, [r4, #1]
8520df64:	e1833402 	orr	r3, r3, r2, lsl #8
8520df68:	e5d42002 	ldrb	r2, [r4, #2]
8520df6c:	e1833802 	orr	r3, r3, r2, lsl #16
8520df70:	e5d42003 	ldrb	r2, [r4, #3]
8520df74:	e1833c02 	orr	r3, r3, r2, lsl #24
8520df78:	e2031cff 	and	r1, r3, #65280	; 0xff00
8520df7c:	e1a02c23 	lsr	r2, r3, #24
8520df80:	e1822c03 	orr	r2, r2, r3, lsl #24
8520df84:	e20338ff 	and	r3, r3, #16711680	; 0xff0000
8520df88:	e1822401 	orr	r2, r2, r1, lsl #8
8520df8c:	e1823423 	orr	r3, r2, r3, lsr #8
8520df90:	e59f2850 	ldr	r2, [pc, #2128]	; 8520e7e8 <parse_ubi+0xa58>
8520df94:	e1530002 	cmp	r3, r2
8520df98:	1a000207 	bne	8520e7bc <parse_ubi+0xa2c>
8520df9c:	e5d42009 	ldrb	r2, [r4, #9]
8520dfa0:	e5d43008 	ldrb	r3, [r4, #8]
8520dfa4:	e1833402 	orr	r3, r3, r2, lsl #8
8520dfa8:	e5d4200a 	ldrb	r2, [r4, #10]
8520dfac:	e1833802 	orr	r3, r3, r2, lsl #16
8520dfb0:	e5d4200b 	ldrb	r2, [r4, #11]
8520dfb4:	e1833c02 	orr	r3, r3, r2, lsl #24
8520dfb8:	e2031cff 	and	r1, r3, #65280	; 0xff00
8520dfbc:	e1a02c23 	lsr	r2, r3, #24
8520dfc0:	e1822c03 	orr	r2, r2, r3, lsl #24
8520dfc4:	e20338ff 	and	r3, r3, #16711680	; 0xff0000
8520dfc8:	e1822401 	orr	r2, r2, r1, lsl #8
8520dfcc:	e1823423 	orr	r3, r2, r3, lsr #8
8520dfd0:	e59d205c 	ldr	r2, [sp, #92]	; 0x5c
8520dfd4:	e1530002 	cmp	r3, r2
8520dfd8:	1a0001f7 	bne	8520e7bc <parse_ubi+0xa2c>
8520dfdc:	e5d4200d 	ldrb	r2, [r4, #13]
8520dfe0:	e5d4300c 	ldrb	r3, [r4, #12]
8520dfe4:	e1833402 	orr	r3, r3, r2, lsl #8
8520dfe8:	e5d4200e 	ldrb	r2, [r4, #14]
8520dfec:	e1833802 	orr	r3, r3, r2, lsl #16
8520dff0:	e5d4200f 	ldrb	r2, [r4, #15]
8520dff4:	e1833c02 	orr	r3, r3, r2, lsl #24
8520dff8:	e2031cff 	and	r1, r3, #65280	; 0xff00
8520dffc:	e1a02c23 	lsr	r2, r3, #24
8520e000:	e1822c03 	orr	r2, r2, r3, lsl #24
8520e004:	e20338ff 	and	r3, r3, #16711680	; 0xff0000
8520e008:	e1822401 	orr	r2, r2, r1, lsl #8
8520e00c:	e1823423 	orr	r3, r2, r3, lsr #8
8520e010:	e59d2014 	ldr	r2, [sp, #20]
8520e014:	e1520003 	cmp	r2, r3
8520e018:	1a0001e7 	bne	8520e7bc <parse_ubi+0xa2c>
8520e01c:	e3e02000 	mvn	r2, #0
8520e020:	e3a0103c 	mov	r1, #60	; 0x3c
8520e024:	e1a00004 	mov	r0, r4
8520e028:	eb0019a2 	bl	852146b8 <lib_get_crc32>
8520e02c:	e5d4203d 	ldrb	r2, [r4, #61]	; 0x3d
8520e030:	e5d4303c 	ldrb	r3, [r4, #60]	; 0x3c
8520e034:	e1833402 	orr	r3, r3, r2, lsl #8
8520e038:	e5d4203e 	ldrb	r2, [r4, #62]	; 0x3e
8520e03c:	e1833802 	orr	r3, r3, r2, lsl #16
8520e040:	e5d4203f 	ldrb	r2, [r4, #63]	; 0x3f
8520e044:	e1833c02 	orr	r3, r3, r2, lsl #24
8520e048:	e2031cff 	and	r1, r3, #65280	; 0xff00
8520e04c:	e1a02c23 	lsr	r2, r3, #24
8520e050:	e1822c03 	orr	r2, r2, r3, lsl #24
8520e054:	e20338ff 	and	r3, r3, #16711680	; 0xff0000
8520e058:	e1822401 	orr	r2, r2, r1, lsl #8
8520e05c:	e1823423 	orr	r3, r2, r3, lsr #8
8520e060:	e1500003 	cmp	r0, r3
8520e064:	1a0001d4 	bne	8520e7bc <parse_ubi+0xa2c>
8520e068:	e5d52011 	ldrb	r2, [r5, #17]
8520e06c:	e5d53010 	ldrb	r3, [r5, #16]
8520e070:	e58d5000 	str	r5, [sp]
8520e074:	e1833402 	orr	r3, r3, r2, lsl #8
8520e078:	e5d52012 	ldrb	r2, [r5, #18]
8520e07c:	e59d0028 	ldr	r0, [sp, #40]	; 0x28
8520e080:	e59dc070 	ldr	ip, [sp, #112]	; 0x70
8520e084:	e1833802 	orr	r3, r3, r2, lsl #16
8520e088:	e5d52013 	ldrb	r2, [r5, #19]
8520e08c:	e1833c02 	orr	r3, r3, r2, lsl #24
8520e090:	e2031cff 	and	r1, r3, #65280	; 0xff00
8520e094:	e1a02c23 	lsr	r2, r3, #24
8520e098:	e1822c03 	orr	r2, r2, r3, lsl #24
8520e09c:	e20338ff 	and	r3, r3, #16711680	; 0xff0000
8520e0a0:	e1822401 	orr	r2, r2, r1, lsl #8
8520e0a4:	e59d1058 	ldr	r1, [sp, #88]	; 0x58
8520e0a8:	e1822423 	orr	r2, r2, r3, lsr #8
8520e0ac:	e59d3080 	ldr	r3, [sp, #128]	; 0x80
8520e0b0:	e58d300c 	str	r3, [sp, #12]
8520e0b4:	e59d307c 	ldr	r3, [sp, #124]	; 0x7c
8520e0b8:	e58d3008 	str	r3, [sp, #8]
8520e0bc:	e3e0303f 	mvn	r3, #63	; 0x3f
8520e0c0:	e0623003 	rsb	r3, r2, r3
8520e0c4:	e2822040 	add	r2, r2, #64	; 0x40
8520e0c8:	e0833001 	add	r3, r3, r1
8520e0cc:	e58d3004 	str	r3, [sp, #4]
8520e0d0:	e1a03001 	mov	r3, r1
8520e0d4:	e59d1020 	ldr	r1, [sp, #32]
8520e0d8:	e12fff3c 	blx	ip
8520e0dc:	e3500000 	cmp	r0, #0
8520e0e0:	0a0001b5 	beq	8520e7bc <parse_ubi+0xa2c>
8520e0e4:	e5d42015 	ldrb	r2, [r4, #21]
8520e0e8:	e5d43014 	ldrb	r3, [r4, #20]
8520e0ec:	e1832402 	orr	r2, r3, r2, lsl #8
8520e0f0:	e5d43016 	ldrb	r3, [r4, #22]
8520e0f4:	e1823803 	orr	r3, r2, r3, lsl #16
8520e0f8:	e5d42017 	ldrb	r2, [r4, #23]
8520e0fc:	e1932c02 	orrs	r2, r3, r2, lsl #24
8520e100:	1a00001d 	bne	8520e17c <parse_ubi+0x3ec>
8520e104:	e5d42015 	ldrb	r2, [r4, #21]
8520e108:	e5d49016 	ldrb	r9, [r4, #22]
8520e10c:	e5d43014 	ldrb	r3, [r4, #20]
8520e110:	e1833402 	orr	r3, r3, r2, lsl #8
8520e114:	e1833809 	orr	r3, r3, r9, lsl #16
8520e118:	e5d49017 	ldrb	r9, [r4, #23]
8520e11c:	e1933c09 	orrs	r3, r3, r9, lsl #24
8520e120:	059d9058 	ldreq	r9, [sp, #88]	; 0x58
8520e124:	0a00003a 	beq	8520e214 <parse_ubi+0x484>
8520e128:	e5d51015 	ldrb	r1, [r5, #21]
8520e12c:	e5d59016 	ldrb	r9, [r5, #22]
8520e130:	e5d52014 	ldrb	r2, [r5, #20]
8520e134:	e1822401 	orr	r2, r2, r1, lsl #8
8520e138:	e2031cff 	and	r1, r3, #65280	; 0xff00
8520e13c:	e1822809 	orr	r2, r2, r9, lsl #16
8520e140:	e5d59017 	ldrb	r9, [r5, #23]
8520e144:	e1822c09 	orr	r2, r2, r9, lsl #24
8520e148:	e1a09c23 	lsr	r9, r3, #24
8520e14c:	e1899c03 	orr	r9, r9, r3, lsl #24
8520e150:	e20338ff 	and	r3, r3, #16711680	; 0xff0000
8520e154:	e1899401 	orr	r9, r9, r1, lsl #8
8520e158:	e1a01c22 	lsr	r1, r2, #24
8520e15c:	e1893423 	orr	r3, r9, r3, lsr #8
8520e160:	e2029cff 	and	r9, r2, #65280	; 0xff00
8520e164:	e1811c02 	orr	r1, r1, r2, lsl #24
8520e168:	e20228ff 	and	r2, r2, #16711680	; 0xff0000
8520e16c:	e1811409 	orr	r1, r1, r9, lsl #8
8520e170:	e1812422 	orr	r2, r1, r2, lsr #8
8520e174:	e0839002 	add	r9, r3, r2
8520e178:	ea000025 	b	8520e214 <parse_ubi+0x484>
8520e17c:	e5d51015 	ldrb	r1, [r5, #21]
8520e180:	e202ccff 	and	ip, r2, #65280	; 0xff00
8520e184:	e5d50016 	ldrb	r0, [r5, #22]
8520e188:	e5d53014 	ldrb	r3, [r5, #20]
8520e18c:	e1833401 	orr	r3, r3, r1, lsl #8
8520e190:	e1a01c22 	lsr	r1, r2, #24
8520e194:	e1833800 	orr	r3, r3, r0, lsl #16
8520e198:	e5d50017 	ldrb	r0, [r5, #23]
8520e19c:	e1811c02 	orr	r1, r1, r2, lsl #24
8520e1a0:	e181c40c 	orr	ip, r1, ip, lsl #8
8520e1a4:	e20218ff 	and	r1, r2, #16711680	; 0xff0000
8520e1a8:	e1833c00 	orr	r3, r3, r0, lsl #24
8520e1ac:	e2032cff 	and	r2, r3, #65280	; 0xff00
8520e1b0:	e18c1421 	orr	r1, ip, r1, lsr #8
8520e1b4:	e1a00c23 	lsr	r0, r3, #24
8520e1b8:	e1800c03 	orr	r0, r0, r3, lsl #24
8520e1bc:	e1802402 	orr	r2, r0, r2, lsl #8
8520e1c0:	e20308ff 	and	r0, r3, #16711680	; 0xff0000
8520e1c4:	e1820420 	orr	r0, r2, r0, lsr #8
8520e1c8:	e3e02000 	mvn	r2, #0
8520e1cc:	e0850000 	add	r0, r5, r0
8520e1d0:	eb001938 	bl	852146b8 <lib_get_crc32>
8520e1d4:	e5d42021 	ldrb	r2, [r4, #33]	; 0x21
8520e1d8:	e5d43020 	ldrb	r3, [r4, #32]
8520e1dc:	e1833402 	orr	r3, r3, r2, lsl #8
8520e1e0:	e5d42022 	ldrb	r2, [r4, #34]	; 0x22
8520e1e4:	e1833802 	orr	r3, r3, r2, lsl #16
8520e1e8:	e5d42023 	ldrb	r2, [r4, #35]	; 0x23
8520e1ec:	e1833c02 	orr	r3, r3, r2, lsl #24
8520e1f0:	e2031cff 	and	r1, r3, #65280	; 0xff00
8520e1f4:	e1a02c23 	lsr	r2, r3, #24
8520e1f8:	e1822c03 	orr	r2, r2, r3, lsl #24
8520e1fc:	e20338ff 	and	r3, r3, #16711680	; 0xff0000
8520e200:	e1822401 	orr	r2, r2, r1, lsl #8
8520e204:	e1823423 	orr	r3, r2, r3, lsr #8
8520e208:	e1500003 	cmp	r0, r3
8520e20c:	1a00016a 	bne	8520e7bc <parse_ubi+0xa2c>
8520e210:	eaffffbb 	b	8520e104 <parse_ubi+0x374>
8520e214:	e5d54015 	ldrb	r4, [r5, #21]
8520e218:	e5d53014 	ldrb	r3, [r5, #20]
8520e21c:	e1833404 	orr	r3, r3, r4, lsl #8
8520e220:	e5d54016 	ldrb	r4, [r5, #22]
8520e224:	e1833804 	orr	r3, r3, r4, lsl #16
8520e228:	e5d54017 	ldrb	r4, [r5, #23]
8520e22c:	e1833c04 	orr	r3, r3, r4, lsl #24
8520e230:	e2032cff 	and	r2, r3, #65280	; 0xff00
8520e234:	e1a04c23 	lsr	r4, r3, #24
8520e238:	e1844c03 	orr	r4, r4, r3, lsl #24
8520e23c:	e20338ff 	and	r3, r3, #16711680	; 0xff0000
8520e240:	e1844402 	orr	r4, r4, r2, lsl #8
8520e244:	e1844423 	orr	r4, r4, r3, lsr #8
8520e248:	e35b0009 	cmp	fp, #9
8520e24c:	979ff10b 	ldrls	pc, [pc, fp, lsl #2]
8520e250:	ea000009 	b	8520e27c <parse_ubi+0x4ec>
8520e254:	8520e2c8 	.word	0x8520e2c8
8520e258:	8520e2f4 	.word	0x8520e2f4
8520e25c:	8520e300 	.word	0x8520e300
8520e260:	8520e38c 	.word	0x8520e38c
8520e264:	8520e430 	.word	0x8520e430
8520e268:	8520e4e4 	.word	0x8520e4e4
8520e26c:	8520e550 	.word	0x8520e550
8520e270:	8520e624 	.word	0x8520e624
8520e274:	8520e6ac 	.word	0x8520e6ac
8520e278:	8520e728 	.word	0x8520e728
8520e27c:	e59d305c 	ldr	r3, [sp, #92]	; 0x5c
8520e280:	e3730001 	cmn	r3, #1
8520e284:	03a06000 	moveq	r6, #0
8520e288:	01a04006 	moveq	r4, r6
8520e28c:	0a00000d 	beq	8520e2c8 <parse_ubi+0x538>
8520e290:	e5d54015 	ldrb	r4, [r5, #21]
8520e294:	e3a06000 	mov	r6, #0
8520e298:	e5d53014 	ldrb	r3, [r5, #20]
8520e29c:	e1833404 	orr	r3, r3, r4, lsl #8
8520e2a0:	e5d54016 	ldrb	r4, [r5, #22]
8520e2a4:	e1833804 	orr	r3, r3, r4, lsl #16
8520e2a8:	e5d54017 	ldrb	r4, [r5, #23]
8520e2ac:	e1833c04 	orr	r3, r3, r4, lsl #24
8520e2b0:	e2032cff 	and	r2, r3, #65280	; 0xff00
8520e2b4:	e1a04c23 	lsr	r4, r3, #24
8520e2b8:	e1844c03 	orr	r4, r4, r3, lsl #24
8520e2bc:	e20338ff 	and	r3, r3, #16711680	; 0xff0000
8520e2c0:	e1844402 	orr	r4, r4, r2, lsl #8
8520e2c4:	e1844423 	orr	r4, r4, r3, lsr #8
8520e2c8:	e0643009 	rsb	r3, r4, r9
8520e2cc:	e0844007 	add	r4, r4, r7
8520e2d0:	e1570003 	cmp	r7, r3
8520e2d4:	3a000006 	bcc	8520e2f4 <parse_ubi+0x564>
8520e2d8:	e59d3014 	ldr	r3, [sp, #20]
8520e2dc:	e0697004 	rsb	r7, r9, r4
8520e2e0:	e3a0b000 	mov	fp, #0
8520e2e4:	e3a09001 	mov	r9, #1
8520e2e8:	e2833001 	add	r3, r3, #1
8520e2ec:	e58d3014 	str	r3, [sp, #20]
8520e2f0:	ea000131 	b	8520e7bc <parse_ubi+0xa2c>
8520e2f4:	e3a06000 	mov	r6, #0
8520e2f8:	e3e03000 	mvn	r3, #0
8520e2fc:	e58d3010 	str	r3, [sp, #16]
8520e300:	e085a004 	add	sl, r5, r4
8520e304:	e0646006 	rsb	r6, r4, r6
8520e308:	e1590004 	cmp	r9, r4
8520e30c:	e0840006 	add	r0, r4, r6
8520e310:	83a03001 	movhi	r3, #1
8520e314:	93a03000 	movls	r3, #0
8520e318:	e3500003 	cmp	r0, #3
8520e31c:	83a03000 	movhi	r3, #0
8520e320:	e3530000 	cmp	r3, #0
8520e324:	0a00000a 	beq	8520e354 <parse_ubi+0x5c4>
8520e328:	e1a0000a 	mov	r0, sl
8520e32c:	e59d2010 	ldr	r2, [sp, #16]
8520e330:	e3a01001 	mov	r1, #1
8520e334:	e1a0b00a 	mov	fp, sl
8520e338:	eb0018de 	bl	852146b8 <lib_get_crc32>
8520e33c:	e5da3000 	ldrb	r3, [sl]
8520e340:	e2844001 	add	r4, r4, #1
8520e344:	e28aa001 	add	sl, sl, #1
8520e348:	e1837407 	orr	r7, r3, r7, lsl #8
8520e34c:	e58d0010 	str	r0, [sp, #16]
8520e350:	eaffffec 	b	8520e308 <parse_ubi+0x578>
8520e354:	e1590004 	cmp	r9, r4
8520e358:	8a000006 	bhi	8520e378 <parse_ubi+0x5e8>
8520e35c:	e59d3014 	ldr	r3, [sp, #20]
8520e360:	e1a06000 	mov	r6, r0
8520e364:	e3a09001 	mov	r9, #1
8520e368:	e3a0b002 	mov	fp, #2
8520e36c:	e2833001 	add	r3, r3, #1
8520e370:	e58d3014 	str	r3, [sp, #20]
8520e374:	ea000110 	b	8520e7bc <parse_ubi+0xa2c>
8520e378:	e3570000 	cmp	r7, #0
8520e37c:	1a000001 	bne	8520e388 <parse_ubi+0x5f8>
8520e380:	e3a00000 	mov	r0, #0
8520e384:	ea000114 	b	8520e7dc <parse_ubi+0xa4c>
8520e388:	e1a06003 	mov	r6, r3
8520e38c:	e085a004 	add	sl, r5, r4
8520e390:	e0847007 	add	r7, r4, r7
8520e394:	e0646006 	rsb	r6, r4, r6
8520e398:	e1590004 	cmp	r9, r4
8520e39c:	e0840006 	add	r0, r4, r6
8520e3a0:	e0643007 	rsb	r3, r4, r7
8520e3a4:	83a0b001 	movhi	fp, #1
8520e3a8:	93a0b000 	movls	fp, #0
8520e3ac:	e3500003 	cmp	r0, #3
8520e3b0:	83a0b000 	movhi	fp, #0
8520e3b4:	e35b0000 	cmp	fp, #0
8520e3b8:	0a00000c 	beq	8520e3f0 <parse_ubi+0x660>
8520e3bc:	e59d2010 	ldr	r2, [sp, #16]
8520e3c0:	e1a0000a 	mov	r0, sl
8520e3c4:	e3a01001 	mov	r1, #1
8520e3c8:	e1a0b00a 	mov	fp, sl
8520e3cc:	eb0018b9 	bl	852146b8 <lib_get_crc32>
8520e3d0:	e59d2018 	ldr	r2, [sp, #24]
8520e3d4:	e5da3000 	ldrb	r3, [sl]
8520e3d8:	e2844001 	add	r4, r4, #1
8520e3dc:	e28aa001 	add	sl, sl, #1
8520e3e0:	e1833402 	orr	r3, r3, r2, lsl #8
8520e3e4:	e58d3018 	str	r3, [sp, #24]
8520e3e8:	e58d0010 	str	r0, [sp, #16]
8520e3ec:	eaffffe9 	b	8520e398 <parse_ubi+0x608>
8520e3f0:	e1590004 	cmp	r9, r4
8520e3f4:	8a000007 	bhi	8520e418 <parse_ubi+0x688>
8520e3f8:	e59d2014 	ldr	r2, [sp, #20]
8520e3fc:	e1a07003 	mov	r7, r3
8520e400:	e1a06000 	mov	r6, r0
8520e404:	e3a09001 	mov	r9, #1
8520e408:	e2822001 	add	r2, r2, #1
8520e40c:	e3a0b003 	mov	fp, #3
8520e410:	e58d2014 	str	r2, [sp, #20]
8520e414:	ea0000e8 	b	8520e7bc <parse_ubi+0xa2c>
8520e418:	e59d2018 	ldr	r2, [sp, #24]
8520e41c:	e1520003 	cmp	r2, r3
8520e420:	859f03c4 	ldrhi	r0, [pc, #964]	; 8520e7ec <parse_ubi+0xa5c>
8520e424:	8a00009d 	bhi	8520e6a0 <parse_ubi+0x910>
8520e428:	e1a07003 	mov	r7, r3
8520e42c:	e1a0600b 	mov	r6, fp
8520e430:	e59d3018 	ldr	r3, [sp, #24]
8520e434:	e085a004 	add	sl, r5, r4
8520e438:	e0646006 	rsb	r6, r4, r6
8520e43c:	e0673003 	rsb	r3, r7, r3
8520e440:	e1590004 	cmp	r9, r4
8520e444:	e0840006 	add	r0, r4, r6
8520e448:	e0872003 	add	r2, r7, r3
8520e44c:	83a0b001 	movhi	fp, #1
8520e450:	93a0b000 	movls	fp, #0
8520e454:	e3500003 	cmp	r0, #3
8520e458:	83a0b000 	movhi	fp, #0
8520e45c:	e35b0000 	cmp	fp, #0
8520e460:	0a00000f 	beq	8520e4a4 <parse_ubi+0x714>
8520e464:	e59d2010 	ldr	r2, [sp, #16]
8520e468:	e1a0000a 	mov	r0, sl
8520e46c:	e3a01001 	mov	r1, #1
8520e470:	e58d3018 	str	r3, [sp, #24]
8520e474:	eb00188f 	bl	852146b8 <lib_get_crc32>
8520e478:	e59d301c 	ldr	r3, [sp, #28]
8520e47c:	e5da2000 	ldrb	r2, [sl]
8520e480:	e1a0b00a 	mov	fp, sl
8520e484:	e2844001 	add	r4, r4, #1
8520e488:	e28aa001 	add	sl, sl, #1
8520e48c:	e1823403 	orr	r3, r2, r3, lsl #8
8520e490:	e2477001 	sub	r7, r7, #1
8520e494:	e58d301c 	str	r3, [sp, #28]
8520e498:	e59d3018 	ldr	r3, [sp, #24]
8520e49c:	e58d0010 	str	r0, [sp, #16]
8520e4a0:	eaffffe6 	b	8520e440 <parse_ubi+0x6b0>
8520e4a4:	e1590004 	cmp	r9, r4
8520e4a8:	8a000007 	bhi	8520e4cc <parse_ubi+0x73c>
8520e4ac:	e59d3014 	ldr	r3, [sp, #20]
8520e4b0:	e1a06000 	mov	r6, r0
8520e4b4:	e58d2018 	str	r2, [sp, #24]
8520e4b8:	e3a09001 	mov	r9, #1
8520e4bc:	e2833001 	add	r3, r3, #1
8520e4c0:	e3a0b004 	mov	fp, #4
8520e4c4:	e58d3014 	str	r3, [sp, #20]
8520e4c8:	ea0000bb 	b	8520e7bc <parse_ubi+0xa2c>
8520e4cc:	e59d301c 	ldr	r3, [sp, #28]
8520e4d0:	e1570003 	cmp	r7, r3
8520e4d4:	359f0314 	ldrcc	r0, [pc, #788]	; 8520e7f0 <parse_ubi+0xa60>
8520e4d8:	3a000070 	bcc	8520e6a0 <parse_ubi+0x910>
8520e4dc:	e1a0600b 	mov	r6, fp
8520e4e0:	e58d2018 	str	r2, [sp, #24]
8520e4e4:	e59d3018 	ldr	r3, [sp, #24]
8520e4e8:	e0852004 	add	r2, r5, r4
8520e4ec:	e0640006 	rsb	r0, r4, r6
8520e4f0:	e0673003 	rsb	r3, r7, r3
8520e4f4:	e0846000 	add	r6, r4, r0
8520e4f8:	e087a003 	add	sl, r7, r3
8520e4fc:	e3560003 	cmp	r6, #3
8520e500:	93a06001 	movls	r6, #1
8520e504:	83a06000 	movhi	r6, #0
8520e508:	e1590004 	cmp	r9, r4
8520e50c:	93a06000 	movls	r6, #0
8520e510:	e3560000 	cmp	r6, #0
8520e514:	0a000006 	beq	8520e534 <parse_ubi+0x7a4>
8520e518:	e59dc024 	ldr	ip, [sp, #36]	; 0x24
8520e51c:	e2844001 	add	r4, r4, #1
8520e520:	e4d21001 	ldrb	r1, [r2], #1
8520e524:	e2477001 	sub	r7, r7, #1
8520e528:	e181140c 	orr	r1, r1, ip, lsl #8
8520e52c:	e58d1024 	str	r1, [sp, #36]	; 0x24
8520e530:	eaffffef 	b	8520e4f4 <parse_ubi+0x764>
8520e534:	e59d3024 	ldr	r3, [sp, #36]	; 0x24
8520e538:	e59d2010 	ldr	r2, [sp, #16]
8520e53c:	e1530002 	cmp	r3, r2
8520e540:	1affff8e 	bne	8520e380 <parse_ubi+0x5f0>
8520e544:	e3e03000 	mvn	r3, #0
8520e548:	e58da018 	str	sl, [sp, #24]
8520e54c:	e58d3010 	str	r3, [sp, #16]
8520e550:	e59d3060 	ldr	r3, [sp, #96]	; 0x60
8520e554:	e59da018 	ldr	sl, [sp, #24]
8520e558:	e083b006 	add	fp, r3, r6
8520e55c:	e0646006 	rsb	r6, r4, r6
8520e560:	e06a3007 	rsb	r3, sl, r7
8520e564:	e1590004 	cmp	r9, r4
8520e568:	e08a7003 	add	r7, sl, r3
8520e56c:	e0842006 	add	r2, r4, r6
8520e570:	9a00001a 	bls	8520e5e0 <parse_ubi+0x850>
8520e574:	e7d51004 	ldrb	r1, [r5, r4]
8520e578:	e0850004 	add	r0, r5, r4
8520e57c:	e351001f 	cmp	r1, #31
8520e580:	9a00001e 	bls	8520e600 <parse_ubi+0x870>
8520e584:	e4dbc001 	ldrb	ip, [fp], #1
8520e588:	e06c1001 	rsb	r1, ip, r1
8520e58c:	e35c001f 	cmp	ip, #31
8520e590:	e16f1f11 	clz	r1, r1
8520e594:	e1a012a1 	lsr	r1, r1, #5
8520e598:	93a01000 	movls	r1, #0
8520e59c:	e3510000 	cmp	r1, #0
8520e5a0:	1a000003 	bne	8520e5b4 <parse_ubi+0x824>
8520e5a4:	e3a0b000 	mov	fp, #0
8520e5a8:	e58da018 	str	sl, [sp, #24]
8520e5ac:	e1a06002 	mov	r6, r2
8520e5b0:	eaffff24 	b	8520e248 <parse_ubi+0x4b8>
8520e5b4:	e35a0000 	cmp	sl, #0
8520e5b8:	0afffff9 	beq	8520e5a4 <parse_ubi+0x814>
8520e5bc:	e59d2010 	ldr	r2, [sp, #16]
8520e5c0:	e3a01001 	mov	r1, #1
8520e5c4:	e58d3018 	str	r3, [sp, #24]
8520e5c8:	eb00183a 	bl	852146b8 <lib_get_crc32>
8520e5cc:	e2844001 	add	r4, r4, #1
8520e5d0:	e24aa001 	sub	sl, sl, #1
8520e5d4:	e59d3018 	ldr	r3, [sp, #24]
8520e5d8:	e58d0010 	str	r0, [sp, #16]
8520e5dc:	eaffffe0 	b	8520e564 <parse_ubi+0x7d4>
8520e5e0:	e59d3014 	ldr	r3, [sp, #20]
8520e5e4:	e1a06002 	mov	r6, r2
8520e5e8:	e58da018 	str	sl, [sp, #24]
8520e5ec:	e3a09001 	mov	r9, #1
8520e5f0:	e2833001 	add	r3, r3, #1
8520e5f4:	e3a0b006 	mov	fp, #6
8520e5f8:	e58d3014 	str	r3, [sp, #20]
8520e5fc:	ea00006e 	b	8520e7bc <parse_ubi+0xa2c>
8520e600:	e59d3060 	ldr	r3, [sp, #96]	; 0x60
8520e604:	e7d33002 	ldrb	r3, [r3, r2]
8520e608:	e353001f 	cmp	r3, #31
8520e60c:	8affffe4 	bhi	8520e5a4 <parse_ubi+0x814>
8520e610:	e59d306c 	ldr	r3, [sp, #108]	; 0x6c
8520e614:	e3530000 	cmp	r3, #0
8520e618:	ba00006e 	blt	8520e7d8 <parse_ubi+0xa48>
8520e61c:	e1a06002 	mov	r6, r2
8520e620:	e58da018 	str	sl, [sp, #24]
8520e624:	e59d3018 	ldr	r3, [sp, #24]
8520e628:	e3530000 	cmp	r3, #0
8520e62c:	11590004 	cmpne	r9, r4
8520e630:	83a0a001 	movhi	sl, #1
8520e634:	93a0a000 	movls	sl, #0
8520e638:	9a000009 	bls	8520e664 <parse_ubi+0x8d4>
8520e63c:	e0850004 	add	r0, r5, r4
8520e640:	e59d2010 	ldr	r2, [sp, #16]
8520e644:	e3a01001 	mov	r1, #1
8520e648:	e2844001 	add	r4, r4, #1
8520e64c:	eb001819 	bl	852146b8 <lib_get_crc32>
8520e650:	e59d3018 	ldr	r3, [sp, #24]
8520e654:	e2433001 	sub	r3, r3, #1
8520e658:	e58d3018 	str	r3, [sp, #24]
8520e65c:	e58d0010 	str	r0, [sp, #16]
8520e660:	eaffffef 	b	8520e624 <parse_ubi+0x894>
8520e664:	e1590004 	cmp	r9, r4
8520e668:	8a000005 	bhi	8520e684 <parse_ubi+0x8f4>
8520e66c:	e59d3014 	ldr	r3, [sp, #20]
8520e670:	e3a09001 	mov	r9, #1
8520e674:	e3a0b007 	mov	fp, #7
8520e678:	e2833001 	add	r3, r3, #1
8520e67c:	e58d3014 	str	r3, [sp, #20]
8520e680:	ea00004d 	b	8520e7bc <parse_ubi+0xa2c>
8520e684:	e59d306c 	ldr	r3, [sp, #108]	; 0x6c
8520e688:	e3530000 	cmp	r3, #0
8520e68c:	da000005 	ble	8520e6a8 <parse_ubi+0x918>
8520e690:	e1570003 	cmp	r7, r3
8520e694:	e58d301c 	str	r3, [sp, #28]
8520e698:	2a000002 	bcs	8520e6a8 <parse_ubi+0x918>
8520e69c:	e59f0150 	ldr	r0, [pc, #336]	; 8520e7f4 <parse_ubi+0xa64>
8520e6a0:	eb001992 	bl	85214cf0 <xprintf>
8520e6a4:	eaffff35 	b	8520e380 <parse_ubi+0x5f0>
8520e6a8:	e3a06000 	mov	r6, #0
8520e6ac:	e59d3064 	ldr	r3, [sp, #100]	; 0x64
8520e6b0:	e064b006 	rsb	fp, r4, r6
8520e6b4:	e083a006 	add	sl, r3, r6
8520e6b8:	e59d301c 	ldr	r3, [sp, #28]
8520e6bc:	e084600b 	add	r6, r4, fp
8520e6c0:	e3530000 	cmp	r3, #0
8520e6c4:	11590004 	cmpne	r9, r4
8520e6c8:	9a00000b 	bls	8520e6fc <parse_ubi+0x96c>
8520e6cc:	e7d53004 	ldrb	r3, [r5, r4]
8520e6d0:	e0850004 	add	r0, r5, r4
8520e6d4:	e3a01001 	mov	r1, #1
8520e6d8:	e59d2010 	ldr	r2, [sp, #16]
8520e6dc:	e0844001 	add	r4, r4, r1
8520e6e0:	e4ca3001 	strb	r3, [sl], #1
8520e6e4:	eb0017f3 	bl	852146b8 <lib_get_crc32>
8520e6e8:	e59d301c 	ldr	r3, [sp, #28]
8520e6ec:	e2433001 	sub	r3, r3, #1
8520e6f0:	e58d301c 	str	r3, [sp, #28]
8520e6f4:	e58d0010 	str	r0, [sp, #16]
8520e6f8:	eaffffee 	b	8520e6b8 <parse_ubi+0x928>
8520e6fc:	e1590004 	cmp	r9, r4
8520e700:	8a000005 	bhi	8520e71c <parse_ubi+0x98c>
8520e704:	e59d3014 	ldr	r3, [sp, #20]
8520e708:	e3a09001 	mov	r9, #1
8520e70c:	e3a0b008 	mov	fp, #8
8520e710:	e2833001 	add	r3, r3, #1
8520e714:	e58d3014 	str	r3, [sp, #20]
8520e718:	ea000027 	b	8520e7bc <parse_ubi+0xa2c>
8520e71c:	e3a03004 	mov	r3, #4
8520e720:	e58d602c 	str	r6, [sp, #44]	; 0x2c
8520e724:	e58d301c 	str	r3, [sp, #28]
8520e728:	e0854004 	add	r4, r5, r4
8520e72c:	e59d201c 	ldr	r2, [sp, #28]
8520e730:	e0653004 	rsb	r3, r5, r4
8520e734:	e3520000 	cmp	r2, #0
8520e738:	11590003 	cmpne	r9, r3
8520e73c:	9a000010 	bls	8520e784 <parse_ubi+0x9f4>
8520e740:	e59d3074 	ldr	r3, [sp, #116]	; 0x74
8520e744:	e2844001 	add	r4, r4, #1
8520e748:	e3530000 	cmp	r3, #0
8520e74c:	159d3010 	ldrne	r3, [sp, #16]
8520e750:	05543001 	ldrbeq	r3, [r4, #-1]
8520e754:	059d2024 	ldreq	r2, [sp, #36]	; 0x24
8520e758:	11a03c23 	lsrne	r3, r3, #24
8520e75c:	15443001 	strbne	r3, [r4, #-1]
8520e760:	159d3010 	ldrne	r3, [sp, #16]
8520e764:	01833402 	orreq	r3, r3, r2, lsl #8
8520e768:	058d3024 	streq	r3, [sp, #36]	; 0x24
8520e76c:	11a03403 	lslne	r3, r3, #8
8520e770:	158d3010 	strne	r3, [sp, #16]
8520e774:	e59d301c 	ldr	r3, [sp, #28]
8520e778:	e2433001 	sub	r3, r3, #1
8520e77c:	e58d301c 	str	r3, [sp, #28]
8520e780:	eaffffe9 	b	8520e72c <parse_ubi+0x99c>
8520e784:	e3520000 	cmp	r2, #0
8520e788:	0a000005 	beq	8520e7a4 <parse_ubi+0xa14>
8520e78c:	e59d3014 	ldr	r3, [sp, #20]
8520e790:	e3a09001 	mov	r9, #1
8520e794:	e3a0b009 	mov	fp, #9
8520e798:	e2833001 	add	r3, r3, #1
8520e79c:	e58d3014 	str	r3, [sp, #20]
8520e7a0:	ea000005 	b	8520e7bc <parse_ubi+0xa2c>
8520e7a4:	e59d3010 	ldr	r3, [sp, #16]
8520e7a8:	e59d2024 	ldr	r2, [sp, #36]	; 0x24
8520e7ac:	e1530002 	cmp	r3, r2
8520e7b0:	1afffef2 	bne	8520e380 <parse_ubi+0x5f0>
8520e7b4:	e59d002c 	ldr	r0, [sp, #44]	; 0x2c
8520e7b8:	ea000007 	b	8520e7dc <parse_ubi+0xa4c>
8520e7bc:	e59d3020 	ldr	r3, [sp, #32]
8520e7c0:	e2833001 	add	r3, r3, #1
8520e7c4:	e58d3020 	str	r3, [sp, #32]
8520e7c8:	eafffd84 	b	8520dde0 <parse_ubi+0x50>
8520e7cc:	e3590000 	cmp	r9, #0
8520e7d0:	1afffd7f 	bne	8520ddd4 <parse_ubi+0x44>
8520e7d4:	eafffee9 	b	8520e380 <parse_ubi+0x5f0>
8520e7d8:	e59d001c 	ldr	r0, [sp, #28]
8520e7dc:	e28dd038 	add	sp, sp, #56	; 0x38
8520e7e0:	e8bd8ef0 	pop	{r4, r5, r6, r7, r9, sl, fp, pc}
8520e7e4:	55424923 	.word	0x55424923
8520e7e8:	55424921 	.word	0x55424921
8520e7ec:	8521a591 	.word	0x8521a591
8520e7f0:	8521a5c6 	.word	0x8521a5c6
8520e7f4:	8521a5fa 	.word	0x8521a5fa

8520e7f8 <strap_check_spinand>:
8520e7f8:	e59f3014 	ldr	r3, [pc, #20]	; 8520e814 <strap_check_spinand+0x1c>
8520e7fc:	e5930000 	ldr	r0, [r3]
8520e800:	e2000038 	and	r0, r0, #56	; 0x38
8520e804:	e2400028 	sub	r0, r0, #40	; 0x28
8520e808:	e16f0f10 	clz	r0, r0
8520e80c:	e1a002a0 	lsr	r0, r0, #5
8520e810:	e12fff1e 	bx	lr
8520e814:	ff802600 	.word	0xff802600

8520e818 <nand_read_buf>:
8520e818:	e92d4070 	push	{r4, r5, r6, lr}
8520e81c:	e1a04000 	mov	r4, r0
8520e820:	e1a05003 	mov	r5, r3
8520e824:	ebfffff3 	bl	8520e7f8 <strap_check_spinand>
8520e828:	e3500000 	cmp	r0, #0
8520e82c:	0a000003 	beq	8520e840 <nand_read_buf+0x28>
8520e830:	e1a03005 	mov	r3, r5
8520e834:	e1a00004 	mov	r0, r4
8520e838:	e8bd4070 	pop	{r4, r5, r6, lr}
8520e83c:	ea0005ee 	b	8520fffc <spi_nand_read_buf>
8520e840:	e59f3020 	ldr	r3, [pc, #32]	; 8520e868 <nand_read_buf+0x50>
8520e844:	e5933000 	ldr	r3, [r3]
8520e848:	e3130020 	tst	r3, #32
8520e84c:	1a000003 	bne	8520e860 <nand_read_buf+0x48>
8520e850:	e1a03005 	mov	r3, r5
8520e854:	e1a00004 	mov	r0, r4
8520e858:	e8bd4070 	pop	{r4, r5, r6, lr}
8520e85c:	eafffd10 	b	8520dca4 <nand_flash_read_buf>
8520e860:	e3e00000 	mvn	r0, #0
8520e864:	e8bd8070 	pop	{r4, r5, r6, pc}
8520e868:	ff802600 	.word	0xff802600

8520e86c <bootImageFromNand>:
8520e86c:	e281302c 	add	r3, r1, #44	; 0x2c
8520e870:	e92d4ef0 	push	{r4, r5, r6, r7, r9, sl, fp, lr}
8520e874:	e24ddc01 	sub	sp, sp, #256	; 0x100
8520e878:	e1a04000 	mov	r4, r0
8520e87c:	e1a00003 	mov	r0, r3
8520e880:	e58d1034 	str	r1, [sp, #52]	; 0x34
8520e884:	e58d303c 	str	r3, [sp, #60]	; 0x3c
8520e888:	eb001751 	bl	852145d4 <lib_strlen>
8520e88c:	e59f3dc0 	ldr	r3, [pc, #3520]	; 8520f654 <bootImageFromNand+0xde8>
8520e890:	e5830000 	str	r0, [r3]
8520e894:	e59d003c 	ldr	r0, [sp, #60]	; 0x3c
8520e898:	eb00174d 	bl	852145d4 <lib_strlen>
8520e89c:	e59f3db4 	ldr	r3, [pc, #3508]	; 8520f658 <bootImageFromNand+0xdec>
8520e8a0:	e2400003 	sub	r0, r0, #3
8520e8a4:	e5830000 	str	r0, [r3]
8520e8a8:	ebffffd2 	bl	8520e7f8 <strap_check_spinand>
8520e8ac:	e2505000 	subs	r5, r0, #0
8520e8b0:	0a000004 	beq	8520e8c8 <bootImageFromNand+0x5c>
8520e8b4:	eb000677 	bl	85210298 <spi_nand_get_numsectors>
8520e8b8:	e1a09000 	mov	r9, r0
8520e8bc:	e3a00000 	mov	r0, #0
8520e8c0:	eb000678 	bl	852102a8 <spi_nand_get_sector_size>
8520e8c4:	ea000003 	b	8520e8d8 <bootImageFromNand+0x6c>
8520e8c8:	ebfffaf0 	bl	8520d490 <nand_flash_get_numsectors>
8520e8cc:	e1a09000 	mov	r9, r0
8520e8d0:	e1a00005 	mov	r0, r5
8520e8d4:	ebfffae9 	bl	8520d480 <nand_flash_get_sector_size>
8520e8d8:	e2803a01 	add	r3, r0, #4096	; 0x1000
8520e8dc:	e1a0b000 	mov	fp, r0
8520e8e0:	e58d3040 	str	r3, [sp, #64]	; 0x40
8520e8e4:	e1a00003 	mov	r0, r3
8520e8e8:	eb0007f3 	bl	852108bc <nvram_read>
8520e8ec:	e59f0d68 	ldr	r0, [pc, #3432]	; 8520f65c <bootImageFromNand+0xdf0>
8520e8f0:	eb000d5e 	bl	85211e70 <board_setleds>
8520e8f4:	e7e03ed4 	ubfx	r3, r4, #29, #1
8520e8f8:	e58d3044 	str	r3, [sp, #68]	; 0x44
8520e8fc:	e28d4068 	add	r4, sp, #104	; 0x68
8520e900:	e0030b99 	mul	r3, r9, fp
8520e904:	e58d9054 	str	r9, [sp, #84]	; 0x54
8520e908:	e2832fff 	add	r2, r3, #1020	; 0x3fc
8520e90c:	e3530000 	cmp	r3, #0
8520e910:	e2822003 	add	r2, r2, #3
8520e914:	b1a03002 	movlt	r3, r2
8520e918:	e35b0000 	cmp	fp, #0
8520e91c:	e1a03543 	asr	r3, r3, #10
8520e920:	e58d305c 	str	r3, [sp, #92]	; 0x5c
8520e924:	e28b3fff 	add	r3, fp, #1020	; 0x3fc
8520e928:	e2833003 	add	r3, r3, #3
8520e92c:	a1a0300b 	movge	r3, fp
8520e930:	e1a03543 	asr	r3, r3, #10
8520e934:	e58d3048 	str	r3, [sp, #72]	; 0x48
8520e938:	e28b3a01 	add	r3, fp, #4096	; 0x1000
8520e93c:	e2833e25 	add	r3, r3, #592	; 0x250
8520e940:	e58d304c 	str	r3, [sp, #76]	; 0x4c
8520e944:	e3a03000 	mov	r3, #0
8520e948:	e58d3038 	str	r3, [sp, #56]	; 0x38
8520e94c:	e59f0d0c 	ldr	r0, [pc, #3340]	; 8520f660 <bootImageFromNand+0xdf4>
8520e950:	eb000d46 	bl	85211e70 <board_setleds>
8520e954:	e59d3038 	ldr	r3, [sp, #56]	; 0x38
8520e958:	e59f0d04 	ldr	r0, [pc, #3332]	; 8520f664 <bootImageFromNand+0xdf8>
8520e95c:	e0830000 	add	r0, r3, r0
8520e960:	eb000d42 	bl	85211e70 <board_setleds>
8520e964:	e59d204c 	ldr	r2, [sp, #76]	; 0x4c
8520e968:	e59d3038 	ldr	r3, [sp, #56]	; 0x38
8520e96c:	e5b20004 	ldr	r0, [r2, #4]!
8520e970:	e2833001 	add	r3, r3, #1
8520e974:	e58d3038 	str	r3, [sp, #56]	; 0x38
8520e978:	e5843000 	str	r3, [r4]
8520e97c:	e3e03000 	mvn	r3, #0
8520e980:	e5843014 	str	r3, [r4, #20]
8520e984:	e3a03000 	mov	r3, #0
8520e988:	e1500003 	cmp	r0, r3
8520e98c:	e584300c 	str	r3, [r4, #12]
8520e990:	e58d204c 	str	r2, [sp, #76]	; 0x4c
8520e994:	0a00000d 	beq	8520e9d0 <bootImageFromNand+0x164>
8520e998:	e59d205c 	ldr	r2, [sp, #92]	; 0x5c
8520e99c:	e1500002 	cmp	r0, r2
8520e9a0:	2a00000a 	bcs	8520e9d0 <bootImageFromNand+0x164>
8520e9a4:	e59d1048 	ldr	r1, [sp, #72]	; 0x48
8520e9a8:	ebfff87e 	bl	8520cba8 <__udivsi3>
8520e9ac:	e59d304c 	ldr	r3, [sp, #76]	; 0x4c
8520e9b0:	e59d1048 	ldr	r1, [sp, #72]	; 0x48
8520e9b4:	e1a05000 	mov	r5, r0
8520e9b8:	e5840004 	str	r0, [r4, #4]
8520e9bc:	e5930014 	ldr	r0, [r3, #20]
8520e9c0:	ebfff878 	bl	8520cba8 <__udivsi3>
8520e9c4:	e0800005 	add	r0, r0, r5
8520e9c8:	e5840008 	str	r0, [r4, #8]
8520e9cc:	ea000001 	b	8520e9d8 <bootImageFromNand+0x16c>
8520e9d0:	e5843008 	str	r3, [r4, #8]
8520e9d4:	e5843004 	str	r3, [r4, #4]
8520e9d8:	e5943004 	ldr	r3, [r4, #4]
8520e9dc:	e3530000 	cmp	r3, #0
8520e9e0:	0a000009 	beq	8520ea0c <bootImageFromNand+0x1a0>
8520e9e4:	e5941008 	ldr	r1, [r4, #8]
8520e9e8:	e1590001 	cmp	r9, r1
8520e9ec:	c1590003 	cmpgt	r9, r3
8520e9f0:	d3a02001 	movle	r2, #1
8520e9f4:	c3a02000 	movgt	r2, #0
8520e9f8:	e1530001 	cmp	r3, r1
8520e9fc:	b1a03002 	movlt	r3, r2
8520ea00:	a3823001 	orrge	r3, r2, #1
8520ea04:	e3530000 	cmp	r3, #0
8520ea08:	0a000008 	beq	8520ea30 <bootImageFromNand+0x1c4>
8520ea0c:	e59d3038 	ldr	r3, [sp, #56]	; 0x38
8520ea10:	e3530002 	cmp	r3, #2
8520ea14:	0a000129 	beq	8520eec0 <bootImageFromNand+0x654>
8520ea18:	e59d307c 	ldr	r3, [sp, #124]	; 0x7c
8520ea1c:	e3730001 	cmn	r3, #1
8520ea20:	058d9070 	streq	r9, [sp, #112]	; 0x70
8520ea24:	028d4068 	addeq	r4, sp, #104	; 0x68
8520ea28:	03a03001 	moveq	r3, #1
8520ea2c:	058d306c 	streq	r3, [sp, #108]	; 0x6c
8520ea30:	e5943004 	ldr	r3, [r4, #4]
8520ea34:	e3a07000 	mov	r7, #0
8520ea38:	e1a05007 	mov	r5, r7
8520ea3c:	e58d7050 	str	r7, [sp, #80]	; 0x50
8520ea40:	e58d3030 	str	r3, [sp, #48]	; 0x30
8520ea44:	e5946008 	ldr	r6, [r4, #8]
8520ea48:	e2255001 	eor	r5, r5, #1
8520ea4c:	e59d3030 	ldr	r3, [sp, #48]	; 0x30
8520ea50:	e1530006 	cmp	r3, r6
8520ea54:	a3a05000 	movge	r5, #0
8520ea58:	b2055001 	andlt	r5, r5, #1
8520ea5c:	e3550000 	cmp	r5, #0
8520ea60:	0a0000e3 	beq	8520edf4 <bootImageFromNand+0x588>
8520ea64:	e1dda3b0 	ldrh	sl, [sp, #48]	; 0x30
8520ea68:	e3a03c02 	mov	r3, #512	; 0x200
8520ea6c:	e3a02a01 	mov	r2, #4096	; 0x1000
8520ea70:	e3a01000 	mov	r1, #0
8520ea74:	e1a0000a 	mov	r0, sl
8520ea78:	ebffff66 	bl	8520e818 <nand_read_buf>
8520ea7c:	e3500000 	cmp	r0, #0
8520ea80:	da0000d6 	ble	8520ede0 <bootImageFromNand+0x574>
8520ea84:	e3a05a01 	mov	r5, #4096	; 0x1000
8520ea88:	e3013985 	movw	r3, #6533	; 0x1985
8520ea8c:	e1d520b0 	ldrh	r2, [r5]
8520ea90:	e1520003 	cmp	r2, r3
8520ea94:	1a000051 	bne	8520ebe0 <bootImageFromNand+0x374>
8520ea98:	e1a0300b 	mov	r3, fp
8520ea9c:	e1a02005 	mov	r2, r5
8520eaa0:	e3a01000 	mov	r1, #0
8520eaa4:	e1a0000a 	mov	r0, sl
8520eaa8:	ebffff5a 	bl	8520e818 <nand_read_buf>
8520eaac:	e59f6ba0 	ldr	r6, [pc, #2976]	; 8520f654 <bootImageFromNand+0xde8>
8520eab0:	e59d3040 	ldr	r3, [sp, #64]	; 0x40
8520eab4:	e1550003 	cmp	r5, r3
8520eab8:	2a0000c8 	bcs	8520ede0 <bootImageFromNand+0x574>
8520eabc:	e1d520b0 	ldrh	r2, [r5]
8520eac0:	e3013985 	movw	r3, #6533	; 0x1985
8520eac4:	e1520003 	cmp	r2, r3
8520eac8:	1a0000c4 	bne	8520ede0 <bootImageFromNand+0x574>
8520eacc:	e3a02000 	mov	r2, #0
8520ead0:	e3a01008 	mov	r1, #8
8520ead4:	e1a00005 	mov	r0, r5
8520ead8:	e595a008 	ldr	sl, [r5, #8]
8520eadc:	eb0016f5 	bl	852146b8 <lib_get_crc32>
8520eae0:	e15a0000 	cmp	sl, r0
8520eae4:	1a0000bd 	bne	8520ede0 <bootImageFromNand+0x574>
8520eae8:	e1d520b2 	ldrh	r2, [r5, #2]
8520eaec:	e30e3001 	movw	r3, #57345	; 0xe001
8520eaf0:	e1520003 	cmp	r2, r3
8520eaf4:	1a000033 	bne	8520ebc8 <bootImageFromNand+0x35c>
8520eaf8:	e5d5201c 	ldrb	r2, [r5, #28]
8520eafc:	e5963000 	ldr	r3, [r6]
8520eb00:	e1520003 	cmp	r2, r3
8520eb04:	1a00002f 	bne	8520ebc8 <bootImageFromNand+0x35c>
8520eb08:	e59f3b48 	ldr	r3, [pc, #2888]	; 8520f658 <bootImageFromNand+0xdec>
8520eb0c:	e285a028 	add	sl, r5, #40	; 0x28
8520eb10:	e59d003c 	ldr	r0, [sp, #60]	; 0x3c
8520eb14:	e1a0100a 	mov	r1, sl
8520eb18:	e5932000 	ldr	r2, [r3]
8520eb1c:	eb0016b3 	bl	852145f0 <lib_memcmp>
8520eb20:	e3500000 	cmp	r0, #0
8520eb24:	1a000027 	bne	8520ebc8 <bootImageFromNand+0x35c>
8520eb28:	e5953010 	ldr	r3, [r5, #16]
8520eb2c:	e58d3058 	str	r3, [sp, #88]	; 0x58
8520eb30:	e59d2058 	ldr	r2, [sp, #88]	; 0x58
8520eb34:	e59d3050 	ldr	r3, [sp, #80]	; 0x50
8520eb38:	e1530002 	cmp	r3, r2
8520eb3c:	2a000021 	bcs	8520ebc8 <bootImageFromNand+0x35c>
8520eb40:	e595c014 	ldr	ip, [r5, #20]
8520eb44:	e35c0000 	cmp	ip, #0
8520eb48:	0a00001e 	beq	8520ebc8 <bootImageFromNand+0x35c>
8520eb4c:	e59f3b04 	ldr	r3, [pc, #2820]	; 8520f658 <bootImageFromNand+0xdec>
8520eb50:	e3a0000a 	mov	r0, #10
8520eb54:	e5932000 	ldr	r2, [r3]
8520eb58:	e08a3002 	add	r3, sl, r2
8520eb5c:	e7da6002 	ldrb	r6, [sl, r2]
8520eb60:	e5d3e001 	ldrb	lr, [r3, #1]
8520eb64:	e2462030 	sub	r2, r6, #48	; 0x30
8520eb68:	e5d33002 	ldrb	r3, [r3, #2]
8520eb6c:	e24e1030 	sub	r1, lr, #48	; 0x30
8520eb70:	e0010190 	mul	r1, r0, r1
8520eb74:	e3a00064 	mov	r0, #100	; 0x64
8520eb78:	e0221290 	mla	r2, r0, r2, r1
8520eb7c:	e2430030 	sub	r0, r3, #48	; 0x30
8520eb80:	e0822000 	add	r2, r2, r0
8520eb84:	e5842014 	str	r2, [r4, #20]
8520eb88:	e5952018 	ldr	r2, [r5, #24]
8520eb8c:	e383044a 	orr	r0, r3, #1241513984	; 0x4a000000
8520eb90:	e1800806 	orr	r0, r0, r6, lsl #16
8520eb94:	e584c018 	str	ip, [r4, #24]
8520eb98:	e180040e 	orr	r0, r0, lr, lsl #8
8520eb9c:	e3a05001 	mov	r5, #1
8520eba0:	e5842020 	str	r2, [r4, #32]
8520eba4:	e59d2030 	ldr	r2, [sp, #48]	; 0x30
8520eba8:	e584500c 	str	r5, [r4, #12]
8520ebac:	e584201c 	str	r2, [r4, #28]
8520ebb0:	eb000cae 	bl	85211e70 <board_setleds>
8520ebb4:	e59f0aac 	ldr	r0, [pc, #2732]	; 8520f668 <bootImageFromNand+0xdfc>
8520ebb8:	eb000cac 	bl	85211e70 <board_setleds>
8520ebbc:	e59d3058 	ldr	r3, [sp, #88]	; 0x58
8520ebc0:	e58d3050 	str	r3, [sp, #80]	; 0x50
8520ebc4:	ea000086 	b	8520ede4 <bootImageFromNand+0x578>
8520ebc8:	e5953004 	ldr	r3, [r5, #4]
8520ebcc:	e3a07000 	mov	r7, #0
8520ebd0:	e2833003 	add	r3, r3, #3
8520ebd4:	e3c33003 	bic	r3, r3, #3
8520ebd8:	e0855003 	add	r5, r5, r3
8520ebdc:	eaffffb3 	b	8520eab0 <bootImageFromNand+0x244>
8520ebe0:	e5953000 	ldr	r3, [r5]
8520ebe4:	e59f2a80 	ldr	r2, [pc, #2688]	; 8520f66c <bootImageFromNand+0xe00>
8520ebe8:	e6bf3f33 	rev	r3, r3
8520ebec:	e1530002 	cmp	r3, r2
8520ebf0:	1a000073 	bne	8520edc4 <bootImageFromNand+0x558>
8520ebf4:	e3e02000 	mvn	r2, #0
8520ebf8:	e3a0103c 	mov	r1, #60	; 0x3c
8520ebfc:	e1a00005 	mov	r0, r5
8520ec00:	eb0016ac 	bl	852146b8 <lib_get_crc32>
8520ec04:	e595303c 	ldr	r3, [r5, #60]	; 0x3c
8520ec08:	e6bf3f33 	rev	r3, r3
8520ec0c:	e1500003 	cmp	r0, r3
8520ec10:	1a00006b 	bne	8520edc4 <bootImageFromNand+0x558>
8520ec14:	e3a07000 	mov	r7, #0
8520ec18:	e3a0a001 	mov	sl, #1
8520ec1c:	e59f3a4c 	ldr	r3, [pc, #2636]	; 8520f670 <bootImageFromNand+0xe04>
8520ec20:	e3a05000 	mov	r5, #0
8520ec24:	e58da004 	str	sl, [sp, #4]
8520ec28:	e3a01a01 	mov	r1, #4096	; 0x1000
8520ec2c:	e58d5028 	str	r5, [sp, #40]	; 0x28
8520ec30:	e1a00005 	mov	r0, r5
8520ec34:	e58d3018 	str	r3, [sp, #24]
8520ec38:	e28d30b0 	add	r3, sp, #176	; 0xb0
8520ec3c:	e58d300c 	str	r3, [sp, #12]
8520ec40:	e59f3a2c 	ldr	r3, [pc, #2604]	; 8520f674 <bootImageFromNand+0xe08>
8520ec44:	e58d5024 	str	r5, [sp, #36]	; 0x24
8520ec48:	e58d5020 	str	r5, [sp, #32]
8520ec4c:	e58d3008 	str	r3, [sp, #8]
8520ec50:	e1a03006 	mov	r3, r6
8520ec54:	e58d501c 	str	r5, [sp, #28]
8520ec58:	e58d5014 	str	r5, [sp, #20]
8520ec5c:	e58d5010 	str	r5, [sp, #16]
8520ec60:	e58db000 	str	fp, [sp]
8520ec64:	e59d2030 	ldr	r2, [sp, #48]	; 0x30
8520ec68:	ebfffc48 	bl	8520dd90 <parse_ubi>
8520ec6c:	e3500003 	cmp	r0, #3
8520ec70:	1a00002f 	bne	8520ed34 <bootImageFromNand+0x4c8>
8520ec74:	e5dd00b1 	ldrb	r0, [sp, #177]	; 0xb1
8520ec78:	e3a0200a 	mov	r2, #10
8520ec7c:	e5dd10b0 	ldrb	r1, [sp, #176]	; 0xb0
8520ec80:	e240e030 	sub	lr, r0, #48	; 0x30
8520ec84:	e5dd30b2 	ldrb	r3, [sp, #178]	; 0xb2
8520ec88:	e241c030 	sub	ip, r1, #48	; 0x30
8520ec8c:	e0020e92 	mul	r2, r2, lr
8520ec90:	e3a0e064 	mov	lr, #100	; 0x64
8520ec94:	e0222c9e 	mla	r2, lr, ip, r2
8520ec98:	e243c030 	sub	ip, r3, #48	; 0x30
8520ec9c:	e3833455 	orr	r3, r3, #1426063360	; 0x55000000
8520eca0:	e1833801 	orr	r3, r3, r1, lsl #16
8520eca4:	e082200c 	add	r2, r2, ip
8520eca8:	e1830400 	orr	r0, r3, r0, lsl #8
8520ecac:	e5842014 	str	r2, [r4, #20]
8520ecb0:	eb000c6e 	bl	85211e70 <board_setleds>
8520ecb4:	e59f39b4 	ldr	r3, [pc, #2484]	; 8520f670 <bootImageFromNand+0xe04>
8520ecb8:	e58d5028 	str	r5, [sp, #40]	; 0x28
8520ecbc:	e3a01a01 	mov	r1, #4096	; 0x1000
8520ecc0:	e58d5024 	str	r5, [sp, #36]	; 0x24
8520ecc4:	e1a00005 	mov	r0, r5
8520ecc8:	e58d3018 	str	r3, [sp, #24]
8520eccc:	e28d30b0 	add	r3, sp, #176	; 0xb0
8520ecd0:	e58d300c 	str	r3, [sp, #12]
8520ecd4:	e59f399c 	ldr	r3, [pc, #2460]	; 8520f678 <bootImageFromNand+0xe0c>
8520ecd8:	e58d5020 	str	r5, [sp, #32]
8520ecdc:	e58d501c 	str	r5, [sp, #28]
8520ece0:	e58d3008 	str	r3, [sp, #8]
8520ece4:	e1a03006 	mov	r3, r6
8520ece8:	e58d5014 	str	r5, [sp, #20]
8520ecec:	e58d5010 	str	r5, [sp, #16]
8520ecf0:	e58da004 	str	sl, [sp, #4]
8520ecf4:	e58db000 	str	fp, [sp]
8520ecf8:	e59d2030 	ldr	r2, [sp, #48]	; 0x30
8520ecfc:	ebfffc23 	bl	8520dd90 <parse_ubi>
8520ed00:	e3500001 	cmp	r0, #1
8520ed04:	1a00000a 	bne	8520ed34 <bootImageFromNand+0x4c8>
8520ed08:	e5dd30b0 	ldrb	r3, [sp, #176]	; 0xb0
8520ed0c:	e59f0968 	ldr	r0, [pc, #2408]	; 8520f67c <bootImageFromNand+0xe10>
8520ed10:	e2432031 	sub	r2, r3, #49	; 0x31
8520ed14:	e16f2f12 	clz	r2, r2
8520ed18:	e1830000 	orr	r0, r3, r0
8520ed1c:	e1a022a2 	lsr	r2, r2, #5
8520ed20:	e5842010 	str	r2, [r4, #16]
8520ed24:	e3a02002 	mov	r2, #2
8520ed28:	e584200c 	str	r2, [r4, #12]
8520ed2c:	eb000c4f 	bl	85211e70 <board_setleds>
8520ed30:	ea000003 	b	8520ed44 <bootImageFromNand+0x4d8>
8520ed34:	e2877001 	add	r7, r7, #1
8520ed38:	e3a0a002 	mov	sl, #2
8520ed3c:	e157000a 	cmp	r7, sl
8520ed40:	1affffb5 	bne	8520ec1c <bootImageFromNand+0x3b0>
8520ed44:	e59f0920 	ldr	r0, [pc, #2336]	; 8520f66c <bootImageFromNand+0xe00>
8520ed48:	e3a07000 	mov	r7, #0
8520ed4c:	eb000c47 	bl	85211e70 <board_setleds>
8520ed50:	e594c014 	ldr	ip, [r4, #20]
8520ed54:	e3a05001 	mov	r5, #1
8520ed58:	e20c2a0f 	and	r2, ip, #61440	; 0xf000
8520ed5c:	e20c00f0 	and	r0, ip, #240	; 0xf0
8520ed60:	e3520a09 	cmp	r2, #36864	; 0x9000
8520ed64:	d3a03203 	movle	r3, #805306368	; 0x30000000
8520ed68:	c3a03437 	movgt	r3, #922746880	; 0x37000000
8520ed6c:	e0831602 	add	r1, r3, r2, lsl #12
8520ed70:	e20c2c0f 	and	r2, ip, #3840	; 0xf00
8520ed74:	e3520c09 	cmp	r2, #2304	; 0x900
8520ed78:	e20cc00f 	and	ip, ip, #15
8520ed7c:	d3a03603 	movle	r3, #3145728	; 0x300000
8520ed80:	c3a03837 	movgt	r3, #3604480	; 0x370000
8520ed84:	e3500091 	cmp	r0, #145	; 0x91
8520ed88:	e0833402 	add	r3, r3, r2, lsl #8
8520ed8c:	e1832001 	orr	r2, r3, r1
8520ed90:	b3a03a03 	movlt	r3, #12288	; 0x3000
8520ed94:	a3a03c37 	movge	r3, #14080	; 0x3700
8520ed98:	e35c000a 	cmp	ip, #10
8520ed9c:	e0833200 	add	r3, r3, r0, lsl #4
8520eda0:	e1833002 	orr	r3, r3, r2
8520eda4:	b3a00030 	movlt	r0, #48	; 0x30
8520eda8:	a3a00037 	movge	r0, #55	; 0x37
8520edac:	e080000c 	add	r0, r0, ip
8520edb0:	e1800003 	orr	r0, r0, r3
8520edb4:	eb000c2d 	bl	85211e70 <board_setleds>
8520edb8:	e59d3030 	ldr	r3, [sp, #48]	; 0x30
8520edbc:	e584301c 	str	r3, [r4, #28]
8520edc0:	ea000007 	b	8520ede4 <bootImageFromNand+0x578>
8520edc4:	e357000a 	cmp	r7, #10
8520edc8:	e2873001 	add	r3, r7, #1
8520edcc:	da000002 	ble	8520eddc <bootImageFromNand+0x570>
8520edd0:	e59f08a8 	ldr	r0, [pc, #2216]	; 8520f680 <bootImageFromNand+0xe14>
8520edd4:	eb000c25 	bl	85211e70 <board_setleds>
8520edd8:	ea000005 	b	8520edf4 <bootImageFromNand+0x588>
8520eddc:	e1a07003 	mov	r7, r3
8520ede0:	e3a05000 	mov	r5, #0
8520ede4:	e59d3030 	ldr	r3, [sp, #48]	; 0x30
8520ede8:	e2833001 	add	r3, r3, #1
8520edec:	e58d3030 	str	r3, [sp, #48]	; 0x30
8520edf0:	eaffff13 	b	8520ea44 <bootImageFromNand+0x1d8>
8520edf4:	e5946014 	ldr	r6, [r4, #20]
8520edf8:	e3760001 	cmn	r6, #1
8520edfc:	0a00002d 	beq	8520eeb8 <bootImageFromNand+0x64c>
8520ee00:	e1a00006 	mov	r0, r6
8520ee04:	e3a01064 	mov	r1, #100	; 0x64
8520ee08:	ebfff7cf 	bl	8520cd4c <__aeabi_idivmod>
8520ee0c:	e1a00001 	mov	r0, r1
8520ee10:	e3a0100a 	mov	r1, #10
8520ee14:	ebfff795 	bl	8520cc70 <__divsi3>
8520ee18:	e3a0100a 	mov	r1, #10
8520ee1c:	e2800030 	add	r0, r0, #48	; 0x30
8520ee20:	e1a05400 	lsl	r5, r0, #8
8520ee24:	e1a00006 	mov	r0, r6
8520ee28:	ebfff7c7 	bl	8520cd4c <__aeabi_idivmod>
8520ee2c:	e2811030 	add	r1, r1, #48	; 0x30
8520ee30:	e1850001 	orr	r0, r5, r1
8520ee34:	e2800442 	add	r0, r0, #1107296256	; 0x42000000
8520ee38:	e2800715 	add	r0, r0, #5505024	; 0x540000
8520ee3c:	eb000c0b 	bl	85211e70 <board_setleds>
8520ee40:	e594701c 	ldr	r7, [r4, #28]
8520ee44:	e3a01ffa 	mov	r1, #1000	; 0x3e8
8520ee48:	e1a00007 	mov	r0, r7
8520ee4c:	ebfff77f 	bl	8520cc50 <__aeabi_uidivmod>
8520ee50:	e1a05001 	mov	r5, r1
8520ee54:	e3a01064 	mov	r1, #100	; 0x64
8520ee58:	e1a00005 	mov	r0, r5
8520ee5c:	ebfff77b 	bl	8520cc50 <__aeabi_uidivmod>
8520ee60:	e59f381c 	ldr	r3, [pc, #2076]	; 8520f684 <bootImageFromNand+0xe18>
8520ee64:	e0832395 	umull	r2, r3, r5, r3
8520ee68:	e1a052a3 	lsr	r5, r3, #5
8520ee6c:	e2855030 	add	r5, r5, #48	; 0x30
8520ee70:	e1a05805 	lsl	r5, r5, #16
8520ee74:	e1a06001 	mov	r6, r1
8520ee78:	e3a0100a 	mov	r1, #10
8520ee7c:	e1a00006 	mov	r0, r6
8520ee80:	ebfff772 	bl	8520cc50 <__aeabi_uidivmod>
8520ee84:	e59f27fc 	ldr	r2, [pc, #2044]	; 8520f688 <bootImageFromNand+0xe1c>
8520ee88:	e0832297 	umull	r2, r3, r7, r2
8520ee8c:	e1a03323 	lsr	r3, r3, #6
8520ee90:	e2833030 	add	r3, r3, #48	; 0x30
8520ee94:	e2811030 	add	r1, r1, #48	; 0x30
8520ee98:	e1855001 	orr	r5, r5, r1
8520ee9c:	e1855c03 	orr	r5, r5, r3, lsl #24
8520eea0:	e59f37e4 	ldr	r3, [pc, #2020]	; 8520f68c <bootImageFromNand+0xe20>
8520eea4:	e0876396 	umull	r6, r7, r6, r3
8520eea8:	e1a001a7 	lsr	r0, r7, #3
8520eeac:	e2800030 	add	r0, r0, #48	; 0x30
8520eeb0:	e1850400 	orr	r0, r5, r0, lsl #8
8520eeb4:	ea000000 	b	8520eebc <bootImageFromNand+0x650>
8520eeb8:	e59f07d0 	ldr	r0, [pc, #2000]	; 8520f690 <bootImageFromNand+0xe24>
8520eebc:	eb000beb 	bl	85211e70 <board_setleds>
8520eec0:	e59d3038 	ldr	r3, [sp, #56]	; 0x38
8520eec4:	e2844024 	add	r4, r4, #36	; 0x24
8520eec8:	e3530002 	cmp	r3, #2
8520eecc:	1afffe9e 	bne	8520e94c <bootImageFromNand+0xe0>
8520eed0:	e59d6074 	ldr	r6, [sp, #116]	; 0x74
8520eed4:	e3560001 	cmp	r6, #1
8520eed8:	0a000002 	beq	8520eee8 <bootImageFromNand+0x67c>
8520eedc:	e59d3098 	ldr	r3, [sp, #152]	; 0x98
8520eee0:	e3530001 	cmp	r3, #1
8520eee4:	1a00009a 	bne	8520f154 <bootImageFromNand+0x8e8>
8520eee8:	e59d3040 	ldr	r3, [sp, #64]	; 0x40
8520eeec:	e593025c 	ldr	r0, [r3, #604]	; 0x25c
8520eef0:	e3500000 	cmp	r0, #0
8520eef4:	0a000010 	beq	8520ef3c <bootImageFromNand+0x6d0>
8520eef8:	e003099b 	mul	r3, fp, r9
8520eefc:	e2832fff 	add	r2, r3, #1020	; 0x3fc
8520ef00:	e3530000 	cmp	r3, #0
8520ef04:	e2822003 	add	r2, r2, #3
8520ef08:	b1a03002 	movlt	r3, r2
8520ef0c:	e1500543 	cmp	r0, r3, asr #10
8520ef10:	2a000008 	bcs	8520ef38 <bootImageFromNand+0x6cc>
8520ef14:	e59d1048 	ldr	r1, [sp, #72]	; 0x48
8520ef18:	ebfff722 	bl	8520cba8 <__udivsi3>
8520ef1c:	e59d3040 	ldr	r3, [sp, #64]	; 0x40
8520ef20:	e59d1048 	ldr	r1, [sp, #72]	; 0x48
8520ef24:	e1a05000 	mov	r5, r0
8520ef28:	e5930270 	ldr	r0, [r3, #624]	; 0x270
8520ef2c:	ebfff71d 	bl	8520cba8 <__udivsi3>
8520ef30:	e0800005 	add	r0, r0, r5
8520ef34:	ea000001 	b	8520ef40 <bootImageFromNand+0x6d4>
8520ef38:	e3a00000 	mov	r0, #0
8520ef3c:	e1a05000 	mov	r5, r0
8520ef40:	e3550000 	cmp	r5, #0
8520ef44:	11550000 	cmpne	r5, r0
8520ef48:	23a05001 	movcs	r5, #1
8520ef4c:	2a000008 	bcs	8520ef74 <bootImageFromNand+0x708>
8520ef50:	e1500009 	cmp	r0, r9
8520ef54:	31550009 	cmpcc	r5, r9
8520ef58:	23a03001 	movcs	r3, #1
8520ef5c:	33a03000 	movcc	r3, #0
8520ef60:	e3530000 	cmp	r3, #0
8520ef64:	13a05001 	movne	r5, #1
8520ef68:	11a03009 	movne	r3, r9
8520ef6c:	01a03000 	moveq	r3, r0
8520ef70:	e58d3054 	str	r3, [sp, #84]	; 0x54
8520ef74:	e59f7718 	ldr	r7, [pc, #1816]	; 8520f694 <bootImageFromNand+0xe28>
8520ef78:	e3a03000 	mov	r3, #0
8520ef7c:	e5cd30b0 	strb	r3, [sp, #176]	; 0xb0
8520ef80:	e58d30bc 	str	r3, [sp, #188]	; 0xbc
8520ef84:	e5cd30c4 	strb	r3, [sp, #196]	; 0xc4
8520ef88:	e58d30d0 	str	r3, [sp, #208]	; 0xd0
8520ef8c:	e5cd30d8 	strb	r3, [sp, #216]	; 0xd8
8520ef90:	e58d30e4 	str	r3, [sp, #228]	; 0xe4
8520ef94:	e5cd30ec 	strb	r3, [sp, #236]	; 0xec
8520ef98:	e58d30f8 	str	r3, [sp, #248]	; 0xf8
8520ef9c:	e59d3054 	ldr	r3, [sp, #84]	; 0x54
8520efa0:	e1530005 	cmp	r3, r5
8520efa4:	9a000052 	bls	8520f0f4 <bootImageFromNand+0x888>
8520efa8:	e6ff9075 	uxth	r9, r5
8520efac:	e3a03004 	mov	r3, #4
8520efb0:	e3a02a01 	mov	r2, #4096	; 0x1000
8520efb4:	e3a01000 	mov	r1, #0
8520efb8:	e1a00009 	mov	r0, r9
8520efbc:	ebfffe15 	bl	8520e818 <nand_read_buf>
8520efc0:	e3500000 	cmp	r0, #0
8520efc4:	ca000001 	bgt	8520efd0 <bootImageFromNand+0x764>
8520efc8:	e2855001 	add	r5, r5, #1
8520efcc:	eafffff2 	b	8520ef9c <bootImageFromNand+0x730>
8520efd0:	e3a04a01 	mov	r4, #4096	; 0x1000
8520efd4:	e3013985 	movw	r3, #6533	; 0x1985
8520efd8:	e1d420b0 	ldrh	r2, [r4]
8520efdc:	e1520003 	cmp	r2, r3
8520efe0:	1afffff8 	bne	8520efc8 <bootImageFromNand+0x75c>
8520efe4:	e1a00009 	mov	r0, r9
8520efe8:	e1a0300b 	mov	r3, fp
8520efec:	e1a02004 	mov	r2, r4
8520eff0:	e3a01000 	mov	r1, #0
8520eff4:	ebfffe07 	bl	8520e818 <nand_read_buf>
8520eff8:	e3500000 	cmp	r0, #0
8520effc:	c59f9694 	ldrgt	r9, [pc, #1684]	; 8520f698 <bootImageFromNand+0xe2c>
8520f000:	dafffff0 	ble	8520efc8 <bootImageFromNand+0x75c>
8520f004:	e59d3040 	ldr	r3, [sp, #64]	; 0x40
8520f008:	e1540003 	cmp	r4, r3
8520f00c:	2affffed 	bcs	8520efc8 <bootImageFromNand+0x75c>
8520f010:	e1d420b0 	ldrh	r2, [r4]
8520f014:	e3013985 	movw	r3, #6533	; 0x1985
8520f018:	e1520003 	cmp	r2, r3
8520f01c:	1affffe9 	bne	8520efc8 <bootImageFromNand+0x75c>
8520f020:	e3a02000 	mov	r2, #0
8520f024:	e3a01008 	mov	r1, #8
8520f028:	e1a00004 	mov	r0, r4
8520f02c:	e594a008 	ldr	sl, [r4, #8]
8520f030:	eb0015a0 	bl	852146b8 <lib_get_crc32>
8520f034:	e15a0000 	cmp	sl, r0
8520f038:	1affffe2 	bne	8520efc8 <bootImageFromNand+0x75c>
8520f03c:	e1d420b2 	ldrh	r2, [r4, #2]
8520f040:	e30e3001 	movw	r3, #57345	; 0xe001
8520f044:	e1520003 	cmp	r2, r3
8520f048:	1a000024 	bne	8520f0e0 <bootImageFromNand+0x874>
8520f04c:	e5d4201c 	ldrb	r2, [r4, #28]
8520f050:	e5973000 	ldr	r3, [r7]
8520f054:	e1520003 	cmp	r2, r3
8520f058:	1a000020 	bne	8520f0e0 <bootImageFromNand+0x874>
8520f05c:	e5992000 	ldr	r2, [r9]
8520f060:	e2841028 	add	r1, r4, #40	; 0x28
8520f064:	e59f0630 	ldr	r0, [pc, #1584]	; 8520f69c <bootImageFromNand+0xe30>
8520f068:	eb001560 	bl	852145f0 <lib_memcmp>
8520f06c:	e3500000 	cmp	r0, #0
8520f070:	1a00001a 	bne	8520f0e0 <bootImageFromNand+0x874>
8520f074:	e5993000 	ldr	r3, [r9]
8520f078:	e3a0c014 	mov	ip, #20
8520f07c:	e0843003 	add	r3, r4, r3
8520f080:	e5d31028 	ldrb	r1, [r3, #40]	; 0x28
8520f084:	e1a03000 	mov	r3, r0
8520f088:	e002039c 	mul	r2, ip, r3
8520f08c:	e28de0b0 	add	lr, sp, #176	; 0xb0
8520f090:	e7d2200e 	ldrb	r2, [r2, lr]
8520f094:	e1520001 	cmp	r2, r1
8520f098:	0a000005 	beq	8520f0b4 <bootImageFromNand+0x848>
8520f09c:	e3520000 	cmp	r2, #0
8520f0a0:	01a00003 	moveq	r0, r3
8520f0a4:	e2833001 	add	r3, r3, #1
8520f0a8:	e3530004 	cmp	r3, #4
8520f0ac:	1afffff5 	bne	8520f088 <bootImageFromNand+0x81c>
8520f0b0:	ea000000 	b	8520f0b8 <bootImageFromNand+0x84c>
8520f0b4:	e1a00003 	mov	r0, r3
8520f0b8:	e28dcc01 	add	ip, sp, #256	; 0x100
8520f0bc:	e3a02014 	mov	r2, #20
8520f0c0:	e5943010 	ldr	r3, [r4, #16]
8520f0c4:	e020c092 	mla	r0, r2, r0, ip
8520f0c8:	e5102044 	ldr	r2, [r0, #-68]	; 0xffffffbc
8520f0cc:	e1530002 	cmp	r3, r2
8520f0d0:	85401050 	strbhi	r1, [r0, #-80]	; 0xffffffb0
8520f0d4:	85003044 	strhi	r3, [r0, #-68]	; 0xffffffbc
8520f0d8:	85943014 	ldrhi	r3, [r4, #20]
8520f0dc:	85003040 	strhi	r3, [r0, #-64]	; 0xffffffc0
8520f0e0:	e5943004 	ldr	r3, [r4, #4]
8520f0e4:	e2833003 	add	r3, r3, #3
8520f0e8:	e3c33003 	bic	r3, r3, #3
8520f0ec:	e0844003 	add	r4, r4, r3
8520f0f0:	eaffffc3 	b	8520f004 <bootImageFromNand+0x798>
8520f0f4:	e3a02000 	mov	r2, #0
8520f0f8:	e28d10c0 	add	r1, sp, #192	; 0xc0
8520f0fc:	e1a00002 	mov	r0, r2
8520f100:	e3e03000 	mvn	r3, #0
8520f104:	e551c010 	ldrb	ip, [r1, #-16]
8520f108:	e35c0000 	cmp	ip, #0
8520f10c:	0a000006 	beq	8520f12c <bootImageFromNand+0x8c0>
8520f110:	e591c000 	ldr	ip, [r1]
8520f114:	e35c0000 	cmp	ip, #0
8520f118:	0a000003 	beq	8520f12c <bootImageFromNand+0x8c0>
8520f11c:	e511c004 	ldr	ip, [r1, #-4]
8520f120:	e15c0000 	cmp	ip, r0
8520f124:	81a0000c 	movhi	r0, ip
8520f128:	81a03002 	movhi	r3, r2
8520f12c:	e2822001 	add	r2, r2, #1
8520f130:	e2811014 	add	r1, r1, #20
8520f134:	e3520004 	cmp	r2, #4
8520f138:	1afffff1 	bne	8520f104 <bootImageFromNand+0x898>
8520f13c:	e3730001 	cmn	r3, #1
8520f140:	128d1c01 	addne	r1, sp, #256	; 0x100
8520f144:	13a02014 	movne	r2, #20
8520f148:	10231392 	mlane	r3, r2, r3, r1
8520f14c:	15534050 	ldrbne	r4, [r3, #-80]	; 0xffffffb0
8520f150:	1a000000 	bne	8520f158 <bootImageFromNand+0x8ec>
8520f154:	e3a04000 	mov	r4, #0
8520f158:	e59f0500 	ldr	r0, [pc, #1280]	; 8520f660 <bootImageFromNand+0xdf4>
8520f15c:	eb000b43 	bl	85211e70 <board_setleds>
8520f160:	e59d20a0 	ldr	r2, [sp, #160]	; 0xa0
8520f164:	e3720001 	cmn	r2, #1
8520f168:	0a000022 	beq	8520f1f8 <bootImageFromNand+0x98c>
8520f16c:	e59d307c 	ldr	r3, [sp, #124]	; 0x7c
8520f170:	e3730001 	cmn	r3, #1
8520f174:	0a000021 	beq	8520f200 <bootImageFromNand+0x994>
8520f178:	e1520003 	cmp	r2, r3
8520f17c:	e2444031 	sub	r4, r4, #49	; 0x31
8520f180:	ca00000e 	bgt	8520f1c0 <bootImageFromNand+0x954>
8520f184:	e3d43010 	bics	r3, r4, #16
8520f188:	0a00001c 	beq	8520f200 <bootImageFromNand+0x994>
8520f18c:	e3560002 	cmp	r6, #2
8520f190:	1a00012b 	bne	8520f644 <bootImageFromNand+0xdd8>
8520f194:	e59d3098 	ldr	r3, [sp, #152]	; 0x98
8520f198:	e3530002 	cmp	r3, #2
8520f19c:	1a000128 	bne	8520f644 <bootImageFromNand+0xdd8>
8520f1a0:	e59d3078 	ldr	r3, [sp, #120]	; 0x78
8520f1a4:	e3530000 	cmp	r3, #0
8520f1a8:	13a04000 	movne	r4, #0
8520f1ac:	1a000019 	bne	8520f218 <bootImageFromNand+0x9ac>
8520f1b0:	e59d409c 	ldr	r4, [sp, #156]	; 0x9c
8520f1b4:	e2944000 	adds	r4, r4, #0
8520f1b8:	13a04001 	movne	r4, #1
8520f1bc:	ea000015 	b	8520f218 <bootImageFromNand+0x9ac>
8520f1c0:	e3d44010 	bics	r4, r4, #16
8520f1c4:	0a00000e 	beq	8520f204 <bootImageFromNand+0x998>
8520f1c8:	e3560002 	cmp	r6, #2
8520f1cc:	1a00011e 	bne	8520f64c <bootImageFromNand+0xde0>
8520f1d0:	e59d3098 	ldr	r3, [sp, #152]	; 0x98
8520f1d4:	e3530002 	cmp	r3, #2
8520f1d8:	1a00011b 	bne	8520f64c <bootImageFromNand+0xde0>
8520f1dc:	e59d309c 	ldr	r3, [sp, #156]	; 0x9c
8520f1e0:	e3530000 	cmp	r3, #0
8520f1e4:	059d4078 	ldreq	r4, [sp, #120]	; 0x78
8520f1e8:	016f4f14 	clzeq	r4, r4
8520f1ec:	01a042a4 	lsreq	r4, r4, #5
8520f1f0:	0a000008 	beq	8520f218 <bootImageFromNand+0x9ac>
8520f1f4:	ea000110 	b	8520f63c <bootImageFromNand+0xdd0>
8520f1f8:	e3a04000 	mov	r4, #0
8520f1fc:	ea000000 	b	8520f204 <bootImageFromNand+0x998>
8520f200:	e3a04001 	mov	r4, #1
8520f204:	e3560002 	cmp	r6, #2
8520f208:	1a000008 	bne	8520f230 <bootImageFromNand+0x9c4>
8520f20c:	e59d3098 	ldr	r3, [sp, #152]	; 0x98
8520f210:	e3530002 	cmp	r3, #2
8520f214:	1a000005 	bne	8520f230 <bootImageFromNand+0x9c4>
8520f218:	e59f3480 	ldr	r3, [pc, #1152]	; 8520f6a0 <bootImageFromNand+0xe34>
8520f21c:	e593302c 	ldr	r3, [r3, #44]	; 0x2c
8520f220:	e3130101 	tst	r3, #1073741824	; 0x40000000
8520f224:	e59d3044 	ldr	r3, [sp, #68]	; 0x44
8520f228:	13a03001 	movne	r3, #1
8520f22c:	e58d3044 	str	r3, [sp, #68]	; 0x44
8520f230:	e59f2468 	ldr	r2, [pc, #1128]	; 8520f6a0 <bootImageFromNand+0xe34>
8520f234:	e592302c 	ldr	r3, [r2, #44]	; 0x2c
8520f238:	e3c33101 	bic	r3, r3, #1073741824	; 0x40000000
8520f23c:	e582302c 	str	r3, [r2, #44]	; 0x2c
8520f240:	e59d3044 	ldr	r3, [sp, #68]	; 0x44
8520f244:	e3560000 	cmp	r6, #0
8520f248:	03a03000 	moveq	r3, #0
8520f24c:	12033001 	andne	r3, r3, #1
8520f250:	e3530000 	cmp	r3, #0
8520f254:	e1a06003 	mov	r6, r3
8520f258:	0a000002 	beq	8520f268 <bootImageFromNand+0x9fc>
8520f25c:	e59d3098 	ldr	r3, [sp, #152]	; 0x98
8520f260:	e3530000 	cmp	r3, #0
8520f264:	12244001 	eorne	r4, r4, #1
8520f268:	e3540000 	cmp	r4, #0
8520f26c:	e28d3068 	add	r3, sp, #104	; 0x68
8520f270:	e28d208c 	add	r2, sp, #140	; 0x8c
8520f274:	058d30b0 	streq	r3, [sp, #176]	; 0xb0
8520f278:	13a04001 	movne	r4, #1
8520f27c:	158d30b4 	strne	r3, [sp, #180]	; 0xb4
8520f280:	058d20b4 	streq	r2, [sp, #180]	; 0xb4
8520f284:	e3a03000 	mov	r3, #0
8520f288:	158d20b0 	strne	r2, [sp, #176]	; 0xb0
8520f28c:	e58d3038 	str	r3, [sp, #56]	; 0x38
8520f290:	e59f040c 	ldr	r0, [pc, #1036]	; 8520f6a4 <bootImageFromNand+0xe38>
8520f294:	e3a0a000 	mov	sl, #0
8520f298:	e58da064 	str	sl, [sp, #100]	; 0x64
8520f29c:	e0840000 	add	r0, r4, r0
8520f2a0:	eb000af2 	bl	85211e70 <board_setleds>
8520f2a4:	e59f03fc 	ldr	r0, [pc, #1020]	; 8520f6a8 <bootImageFromNand+0xe3c>
8520f2a8:	eb000af0 	bl	85211e70 <board_setleds>
8520f2ac:	e59d2038 	ldr	r2, [sp, #56]	; 0x38
8520f2b0:	e28d30b0 	add	r3, sp, #176	; 0xb0
8520f2b4:	e7937102 	ldr	r7, [r3, r2, lsl #2]
8520f2b8:	e5973014 	ldr	r3, [r7, #20]
8520f2bc:	e3730001 	cmn	r3, #1
8520f2c0:	0a0000ce 	beq	8520f600 <bootImageFromNand+0xd94>
8520f2c4:	e597300c 	ldr	r3, [r7, #12]
8520f2c8:	e3530001 	cmp	r3, #1
8520f2cc:	1a00006a 	bne	8520f47c <bootImageFromNand+0xc10>
8520f2d0:	e1a0500a 	mov	r5, sl
8520f2d4:	e1a0900a 	mov	r9, sl
8520f2d8:	e3a03002 	mov	r3, #2
8520f2dc:	e58d3048 	str	r3, [sp, #72]	; 0x48
8520f2e0:	e59f03c4 	ldr	r0, [pc, #964]	; 8520f6ac <bootImageFromNand+0xe40>
8520f2e4:	eb000ae1 	bl	85211e70 <board_setleds>
8520f2e8:	e5973004 	ldr	r3, [r7, #4]
8520f2ec:	e58d3030 	str	r3, [sp, #48]	; 0x30
8520f2f0:	e3a03000 	mov	r3, #0
8520f2f4:	e5972008 	ldr	r2, [r7, #8]
8520f2f8:	e2233001 	eor	r3, r3, #1
8520f2fc:	e59d1030 	ldr	r1, [sp, #48]	; 0x30
8520f300:	e1510002 	cmp	r1, r2
8520f304:	a3a03000 	movge	r3, #0
8520f308:	b2033001 	andlt	r3, r3, #1
8520f30c:	e3530000 	cmp	r3, #0
8520f310:	0a000054 	beq	8520f468 <bootImageFromNand+0xbfc>
8520f314:	e1a0300b 	mov	r3, fp
8520f318:	e3a02a01 	mov	r2, #4096	; 0x1000
8520f31c:	e3a01000 	mov	r1, #0
8520f320:	e1dd03b0 	ldrh	r0, [sp, #48]	; 0x30
8520f324:	ebfffd3b 	bl	8520e818 <nand_read_buf>
8520f328:	e3500000 	cmp	r0, #0
8520f32c:	c3a06a01 	movgt	r6, #4096	; 0x1000
8520f330:	da000043 	ble	8520f444 <bootImageFromNand+0xbd8>
8520f334:	e59d3040 	ldr	r3, [sp, #64]	; 0x40
8520f338:	e1560003 	cmp	r6, r3
8520f33c:	2a000042 	bcs	8520f44c <bootImageFromNand+0xbe0>
8520f340:	e1d630b0 	ldrh	r3, [r6]
8520f344:	e3012985 	movw	r2, #6533	; 0x1985
8520f348:	e1530002 	cmp	r3, r2
8520f34c:	1a00003e 	bne	8520f44c <bootImageFromNand+0xbe0>
8520f350:	e5963008 	ldr	r3, [r6, #8]
8520f354:	e3a02000 	mov	r2, #0
8520f358:	e3a01008 	mov	r1, #8
8520f35c:	e1a00006 	mov	r0, r6
8520f360:	e58d304c 	str	r3, [sp, #76]	; 0x4c
8520f364:	eb0014d3 	bl	852146b8 <lib_get_crc32>
8520f368:	e59d304c 	ldr	r3, [sp, #76]	; 0x4c
8520f36c:	e1530000 	cmp	r3, r0
8520f370:	1a000035 	bne	8520f44c <bootImageFromNand+0xbe0>
8520f374:	e1d620b2 	ldrh	r2, [r6, #2]
8520f378:	e30e3002 	movw	r3, #57346	; 0xe002
8520f37c:	e1520003 	cmp	r2, r3
8520f380:	1a00002a 	bne	8520f430 <bootImageFromNand+0xbc4>
8520f384:	e596200c 	ldr	r2, [r6, #12]
8520f388:	e5973018 	ldr	r3, [r7, #24]
8520f38c:	e1520003 	cmp	r2, r3
8520f390:	1a000026 	bne	8520f430 <bootImageFromNand+0xbc4>
8520f394:	e5963034 	ldr	r3, [r6, #52]	; 0x34
8520f398:	e3530000 	cmp	r3, #0
8520f39c:	0a000023 	beq	8520f430 <bootImageFromNand+0xbc4>
8520f3a0:	e5961024 	ldr	r1, [r6, #36]	; 0x24
8520f3a4:	e5972020 	ldr	r2, [r7, #32]
8520f3a8:	e1510002 	cmp	r1, r2
8520f3ac:	1a00001f 	bne	8520f430 <bootImageFromNand+0xbc4>
8520f3b0:	e3590000 	cmp	r9, #0
8520f3b4:	e596002c 	ldr	r0, [r6, #44]	; 0x2c
8520f3b8:	1a000014 	bne	8520f410 <bootImageFromNand+0xba4>
8520f3bc:	e3500000 	cmp	r0, #0
8520f3c0:	1a00001a 	bne	8520f430 <bootImageFromNand+0xbc4>
8520f3c4:	e3a02004 	mov	r2, #4
8520f3c8:	e2861044 	add	r1, r6, #68	; 0x44
8520f3cc:	e28d0064 	add	r0, sp, #100	; 0x64
8520f3d0:	eb001497 	bl	85214634 <lib_memcpy>
8520f3d4:	e59d3034 	ldr	r3, [sp, #52]	; 0x34
8520f3d8:	e59f02d0 	ldr	r0, [pc, #720]	; 8520f6b0 <bootImageFromNand+0xe44>
8520f3dc:	e596501c 	ldr	r5, [r6, #28]
8520f3e0:	e5933000 	ldr	r3, [r3]
8520f3e4:	e59d9064 	ldr	r9, [sp, #100]	; 0x64
8520f3e8:	e3530000 	cmp	r3, #0
8520f3ec:	e5973000 	ldr	r3, [r7]
8520f3f0:	0249900c 	subeq	r9, r9, #12
8520f3f4:	13a09601 	movne	r9, #1048576	; 0x100000
8520f3f8:	e1a0a005 	mov	sl, r5
8520f3fc:	e1830000 	orr	r0, r3, r0
8520f400:	eb000a9a 	bl	85211e70 <board_setleds>
8520f404:	e59f025c 	ldr	r0, [pc, #604]	; 8520f668 <bootImageFromNand+0xdfc>
8520f408:	eb000a98 	bl	85211e70 <board_setleds>
8520f40c:	ea000010 	b	8520f454 <bootImageFromNand+0xbe8>
8520f410:	e1a02003 	mov	r2, r3
8520f414:	e2861044 	add	r1, r6, #68	; 0x44
8520f418:	e0890000 	add	r0, r9, r0
8520f41c:	e58d304c 	str	r3, [sp, #76]	; 0x4c
8520f420:	eb001483 	bl	85214634 <lib_memcpy>
8520f424:	e59d304c 	ldr	r3, [sp, #76]	; 0x4c
8520f428:	e0555003 	subs	r5, r5, r3
8520f42c:	0a000008 	beq	8520f454 <bootImageFromNand+0xbe8>
8520f430:	e5963004 	ldr	r3, [r6, #4]
8520f434:	e2833003 	add	r3, r3, #3
8520f438:	e3c33003 	bic	r3, r3, #3
8520f43c:	e0866003 	add	r6, r6, r3
8520f440:	eaffffbb 	b	8520f334 <bootImageFromNand+0xac8>
8520f444:	e59f0268 	ldr	r0, [pc, #616]	; 8520f6b4 <bootImageFromNand+0xe48>
8520f448:	eb000a88 	bl	85211e70 <board_setleds>
8520f44c:	e3a03000 	mov	r3, #0
8520f450:	ea000000 	b	8520f458 <bootImageFromNand+0xbec>
8520f454:	e3a03001 	mov	r3, #1
8520f458:	e59d2030 	ldr	r2, [sp, #48]	; 0x30
8520f45c:	e2822001 	add	r2, r2, #1
8520f460:	e58d2030 	str	r2, [sp, #48]	; 0x30
8520f464:	eaffffa2 	b	8520f2f4 <bootImageFromNand+0xa88>
8520f468:	e59d3048 	ldr	r3, [sp, #72]	; 0x48
8520f46c:	e2533001 	subs	r3, r3, #1
8520f470:	e58d3048 	str	r3, [sp, #72]	; 0x48
8520f474:	1affff99 	bne	8520f2e0 <bootImageFromNand+0xa74>
8520f478:	ea00002f 	b	8520f53c <bootImageFromNand+0xcd0>
8520f47c:	e59f0234 	ldr	r0, [pc, #564]	; 8520f6b8 <bootImageFromNand+0xe4c>
8520f480:	eb000a7a 	bl	85211e70 <board_setleds>
8520f484:	e59d3034 	ldr	r3, [sp, #52]	; 0x34
8520f488:	e59f61e0 	ldr	r6, [pc, #480]	; 8520f670 <bootImageFromNand+0xe04>
8520f48c:	e5930000 	ldr	r0, [r3]
8520f490:	e3500000 	cmp	r0, #0
8520f494:	13a09601 	movne	r9, #1048576	; 0x100000
8520f498:	1a000013 	bne	8520f4ec <bootImageFromNand+0xc80>
8520f49c:	e3a03004 	mov	r3, #4
8520f4a0:	e58d3014 	str	r3, [sp, #20]
8520f4a4:	e28d3064 	add	r3, sp, #100	; 0x64
8520f4a8:	e58d300c 	str	r3, [sp, #12]
8520f4ac:	e59d303c 	ldr	r3, [sp, #60]	; 0x3c
8520f4b0:	e3a01a01 	mov	r1, #4096	; 0x1000
8520f4b4:	e58d0028 	str	r0, [sp, #40]	; 0x28
8520f4b8:	e58d0024 	str	r0, [sp, #36]	; 0x24
8520f4bc:	e58d3008 	str	r3, [sp, #8]
8520f4c0:	e3a0300a 	mov	r3, #10
8520f4c4:	e58d0020 	str	r0, [sp, #32]
8520f4c8:	e58d001c 	str	r0, [sp, #28]
8520f4cc:	e58d6018 	str	r6, [sp, #24]
8520f4d0:	e58d0010 	str	r0, [sp, #16]
8520f4d4:	e58d3004 	str	r3, [sp, #4]
8520f4d8:	e58db000 	str	fp, [sp]
8520f4dc:	e997000c 	ldmib	r7, {r2, r3}
8520f4e0:	ebfffa2a 	bl	8520dd90 <parse_ubi>
8520f4e4:	e59d9064 	ldr	r9, [sp, #100]	; 0x64
8520f4e8:	e249900c 	sub	r9, r9, #12
8520f4ec:	e59d303c 	ldr	r3, [sp, #60]	; 0x3c
8520f4f0:	e3a05000 	mov	r5, #0
8520f4f4:	e58d6018 	str	r6, [sp, #24]
8520f4f8:	e3a01a01 	mov	r1, #4096	; 0x1000
8520f4fc:	e58d5028 	str	r5, [sp, #40]	; 0x28
8520f500:	e1a00005 	mov	r0, r5
8520f504:	e58d3008 	str	r3, [sp, #8]
8520f508:	e3a0300a 	mov	r3, #10
8520f50c:	e58d5024 	str	r5, [sp, #36]	; 0x24
8520f510:	e58d5020 	str	r5, [sp, #32]
8520f514:	e58d501c 	str	r5, [sp, #28]
8520f518:	e58d5014 	str	r5, [sp, #20]
8520f51c:	e58d5010 	str	r5, [sp, #16]
8520f520:	e58d900c 	str	r9, [sp, #12]
8520f524:	e58d3004 	str	r3, [sp, #4]
8520f528:	e58db000 	str	fp, [sp]
8520f52c:	e997000c 	ldmib	r7, {r2, r3}
8520f530:	ebfffa16 	bl	8520dd90 <parse_ubi>
8520f534:	e250a000 	subs	sl, r0, #0
8520f538:	0a00002d 	beq	8520f5f4 <bootImageFromNand+0xd88>
8520f53c:	e59d3034 	ldr	r3, [sp, #52]	; 0x34
8520f540:	e5933000 	ldr	r3, [r3]
8520f544:	e3530000 	cmp	r3, #0
8520f548:	1a00001d 	bne	8520f5c4 <bootImageFromNand+0xd58>
8520f54c:	e59d3064 	ldr	r3, [sp, #100]	; 0x64
8520f550:	e2933000 	adds	r3, r3, #0
8520f554:	13a03001 	movne	r3, #1
8520f558:	e3550000 	cmp	r5, #0
8520f55c:	13a03000 	movne	r3, #0
8520f560:	e3530000 	cmp	r3, #0
8520f564:	0a000022 	beq	8520f5f4 <bootImageFromNand+0xd88>
8520f568:	e59f014c 	ldr	r0, [pc, #332]	; 8520f6bc <bootImageFromNand+0xe50>
8520f56c:	eb000a3f 	bl	85211e70 <board_setleds>
8520f570:	e59d3064 	ldr	r3, [sp, #100]	; 0x64
8520f574:	e5972000 	ldr	r2, [r7]
8520f578:	e2433601 	sub	r3, r3, #1048576	; 0x100000
8520f57c:	e5432001 	strb	r2, [r3, #-1]
8520f580:	e59d0064 	ldr	r0, [sp, #100]	; 0x64
8520f584:	e1dd37bc 	ldrh	r3, [sp, #124]	; 0x7c
8520f588:	e2402601 	sub	r2, r0, #1048576	; 0x100000
8520f58c:	e3833453 	orr	r3, r3, #1392508928	; 0x53000000
8520f590:	e3833851 	orr	r3, r3, #5308416	; 0x510000
8520f594:	e5023008 	str	r3, [r2, #-8]
8520f598:	e1dd3ab0 	ldrh	r3, [sp, #160]	; 0xa0
8520f59c:	e3833453 	orr	r3, r3, #1392508928	; 0x53000000
8520f5a0:	e3833851 	orr	r3, r3, #5308416	; 0x510000
8520f5a4:	e502300c 	str	r3, [r2, #-12]
8520f5a8:	e59d3044 	ldr	r3, [sp, #68]	; 0x44
8520f5ac:	e3530001 	cmp	r3, #1
8520f5b0:	059f3108 	ldreq	r3, [pc, #264]	; 8520f6c0 <bootImageFromNand+0xe54>
8520f5b4:	13a03000 	movne	r3, #0
8520f5b8:	e5023010 	str	r3, [r2, #-16]
8520f5bc:	ebfff655 	bl	8520cf18 <cfe_launch>
8520f5c0:	ea00000b 	b	8520f5f4 <bootImageFromNand+0xd88>
8520f5c4:	e59d2034 	ldr	r2, [sp, #52]	; 0x34
8520f5c8:	e28d3064 	add	r3, sp, #100	; 0x64
8520f5cc:	e58d3000 	str	r3, [sp]
8520f5d0:	e1a0100a 	mov	r1, sl
8520f5d4:	e59d3034 	ldr	r3, [sp, #52]	; 0x34
8520f5d8:	e1a00009 	mov	r0, r9
8520f5dc:	e5922028 	ldr	r2, [r2, #40]	; 0x28
8520f5e0:	e2833004 	add	r3, r3, #4
8520f5e4:	ebfff748 	bl	8520d30c <cfe_sec_load_sbi>
8520f5e8:	e3500000 	cmp	r0, #0
8520f5ec:	0affffd6 	beq	8520f54c <bootImageFromNand+0xce0>
8520f5f0:	ea00000b 	b	8520f624 <bootImageFromNand+0xdb8>
8520f5f4:	e59f00c8 	ldr	r0, [pc, #200]	; 8520f6c4 <bootImageFromNand+0xe58>
8520f5f8:	e2244001 	eor	r4, r4, #1
8520f5fc:	eb000a1b 	bl	85211e70 <board_setleds>
8520f600:	e59d3038 	ldr	r3, [sp, #56]	; 0x38
8520f604:	e2833001 	add	r3, r3, #1
8520f608:	e58d3038 	str	r3, [sp, #56]	; 0x38
8520f60c:	e3530002 	cmp	r3, #2
8520f610:	1affff1e 	bne	8520f290 <bootImageFromNand+0xa24>
8520f614:	e59d3034 	ldr	r3, [sp, #52]	; 0x34
8520f618:	e5933000 	ldr	r3, [r3]
8520f61c:	e3530000 	cmp	r3, #0
8520f620:	0a000002 	beq	8520f630 <bootImageFromNand+0xdc4>
8520f624:	e59f009c 	ldr	r0, [pc, #156]	; 8520f6c8 <bootImageFromNand+0xe5c>
8520f628:	eb000a10 	bl	85211e70 <board_setleds>
8520f62c:	ebfff6f2 	bl	8520d1fc <cfe_sec_abort>
8520f630:	e59f0094 	ldr	r0, [pc, #148]	; 8520f6cc <bootImageFromNand+0xe60>
8520f634:	eb000a0d 	bl	85211e70 <board_setleds>
8520f638:	eafffffe 	b	8520f638 <bootImageFromNand+0xdcc>
8520f63c:	e3a04001 	mov	r4, #1
8520f640:	eafffef4 	b	8520f218 <bootImageFromNand+0x9ac>
8520f644:	e3a04000 	mov	r4, #0
8520f648:	eafffef8 	b	8520f230 <bootImageFromNand+0x9c4>
8520f64c:	e3a04001 	mov	r4, #1
8520f650:	eafffef6 	b	8520f230 <bootImageFromNand+0x9c4>
8520f654:	8521fc98 	.word	0x8521fc98
8520f658:	8521fc9c 	.word	0x8521fc9c
8520f65c:	46505330 	.word	0x46505330
8520f660:	2d2d2d2d 	.word	0x2d2d2d2d
8520f664:	50415231 	.word	0x50415231
8520f668:	4a464653 	.word	0x4a464653
8520f66c:	55424923 	.word	0x55424923
8520f670:	8520f6d0 	.word	0x8520f6d0
8520f674:	8521d348 	.word	0x8521d348
8520f678:	8521a63f 	.word	0x8521a63f
8520f67c:	434f4d00 	.word	0x434f4d00
8520f680:	4e4f4e45 	.word	0x4e4f4e45
8520f684:	51eb851f 	.word	0x51eb851f
8520f688:	10624dd3 	.word	0x10624dd3
8520f68c:	cccccccd 	.word	0xcccccccd
8520f690:	4e414e39 	.word	0x4e414e39
8520f694:	8521d354 	.word	0x8521d354
8520f698:	8521d344 	.word	0x8521d344
8520f69c:	8521d358 	.word	0x8521d358
8520f6a0:	ff802600 	.word	0xff802600
8520f6a4:	54525931 	.word	0x54525931
8520f6a8:	4e414e33 	.word	0x4e414e33
8520f6ac:	4a465332 	.word	0x4a465332
8520f6b0:	52465330 	.word	0x52465330
8520f6b4:	45525231 	.word	0x45525231
8520f6b8:	55424921 	.word	0x55424921
8520f6bc:	4e414e35 	.word	0x4e414e35
8520f6c0:	20000031 	.word	0x20000031
8520f6c4:	4e414e38 	.word	0x4e414e38
8520f6c8:	4641494c 	.word	0x4641494c
8520f6cc:	44494530 	.word	0x44494530

8520f6d0 <read_blk>:
8520f6d0:	e1a0c002 	mov	ip, r2
8520f6d4:	e89d000c 	ldm	sp, {r2, r3}
8520f6d8:	e6ff0071 	uxth	r0, r1
8520f6dc:	e1a0100c 	mov	r1, ip
8520f6e0:	e082200c 	add	r2, r2, ip
8520f6e4:	eafffc4b 	b	8520e818 <nand_read_buf>

8520f6e8 <bootNand>:
8520f6e8:	e59f301c 	ldr	r3, [pc, #28]	; 8520f70c <bootNand+0x24>
8520f6ec:	e5933000 	ldr	r3, [r3]
8520f6f0:	e3130020 	tst	r3, #32
8520f6f4:	112fff1e 	bxne	lr
8520f6f8:	e59f3010 	ldr	r3, [pc, #16]	; 8520f710 <bootNand+0x28>
8520f6fc:	e1a01000 	mov	r1, r0
8520f700:	e92d4010 	push	{r4, lr}
8520f704:	e5930000 	ldr	r0, [r3]
8520f708:	ebfffc57 	bl	8520e86c <bootImageFromNand>
8520f70c:	ff802600 	.word	0xff802600
8520f710:	8520c070 	.word	0x8520c070

8520f714 <bootSpiNand>:
8520f714:	e92d4010 	push	{r4, lr}
8520f718:	e1a01000 	mov	r1, r0
8520f71c:	ebfffc35 	bl	8520e7f8 <strap_check_spinand>
8520f720:	e3500000 	cmp	r0, #0
8520f724:	08bd8010 	popeq	{r4, pc}
8520f728:	e59f3004 	ldr	r3, [pc, #4]	; 8520f734 <bootSpiNand+0x20>
8520f72c:	e5930000 	ldr	r0, [r3]
8520f730:	ebfffc4d 	bl	8520e86c <bootImageFromNand>
8520f734:	8520c070 	.word	0x8520c070

8520f738 <BcmSpi_SetCtrlState>:
8520f738:	e3500001 	cmp	r0, #1
8520f73c:	d3510007 	cmple	r1, #7
8520f740:	e92d4070 	push	{r4, r5, r6, lr}
8520f744:	c3a04001 	movgt	r4, #1
8520f748:	d3a04000 	movle	r4, #0
8520f74c:	da000004 	ble	8520f764 <BcmSpi_SetCtrlState+0x2c>
8520f750:	e1a02000 	mov	r2, r0
8520f754:	e59f0028 	ldr	r0, [pc, #40]	; 8520f784 <BcmSpi_SetCtrlState+0x4c>
8520f758:	eb001564 	bl	85214cf0 <xprintf>
8520f75c:	e3e00001 	mvn	r0, #1
8520f760:	e8bd8070 	pop	{r4, r5, r6, pc}
8520f764:	e1a05001 	mov	r5, r1
8520f768:	e1a00002 	mov	r0, r2
8520f76c:	e1a01003 	mov	r1, r3
8520f770:	eb0000cd 	bl	8520faac <BcmHsSpiSetup>
8520f774:	e59f300c 	ldr	r3, [pc, #12]	; 8520f788 <BcmSpi_SetCtrlState+0x50>
8520f778:	e7830105 	str	r0, [r3, r5, lsl #2]
8520f77c:	e1a00004 	mov	r0, r4
8520f780:	e8bd8070 	pop	{r4, r5, r6, pc}
8520f784:	8521a649 	.word	0x8521a649
8520f788:	8521d368 	.word	0x8521d368

8520f78c <BcmSpi_SetFlashCtrl>:
8520f78c:	e3530001 	cmp	r3, #1
8520f790:	e92d401f 	push	{r0, r1, r2, r3, r4, lr}
8520f794:	13e00001 	mvnne	r0, #1
8520f798:	1a000007 	bne	8520f7bc <BcmSpi_SetFlashCtrl+0x30>
8520f79c:	e59dc020 	ldr	ip, [sp, #32]
8520f7a0:	e58dc008 	str	ip, [sp, #8]
8520f7a4:	e59dc01c 	ldr	ip, [sp, #28]
8520f7a8:	e58dc004 	str	ip, [sp, #4]
8520f7ac:	e59dc018 	ldr	ip, [sp, #24]
8520f7b0:	e58dc000 	str	ip, [sp]
8520f7b4:	eb0000d5 	bl	8520fb10 <BcmHsSpiSetFlashCtrl>
8520f7b8:	e3a00000 	mov	r0, #0
8520f7bc:	e28dd014 	add	sp, sp, #20
8520f7c0:	e49df004 	pop	{pc}		; (ldr pc, [sp], #4)

8520f7c4 <BcmSpi_GetMaxRWSize>:
8520f7c4:	e3500001 	cmp	r0, #1
8520f7c8:	1a000001 	bne	8520f7d4 <BcmSpi_GetMaxRWSize+0x10>
8520f7cc:	e1a00001 	mov	r0, r1
8520f7d0:	ea0000af 	b	8520fa94 <BcmHsSpiGetMaxRWSize>
8520f7d4:	e3a00000 	mov	r0, #0
8520f7d8:	e12fff1e 	bx	lr

8520f7dc <BcmSpi_Write>:
8520f7dc:	e3520001 	cmp	r2, #1
8520f7e0:	e1a0c003 	mov	ip, r3
8520f7e4:	e59d3000 	ldr	r3, [sp]
8520f7e8:	1a000004 	bne	8520f800 <BcmSpi_Write+0x24>
8520f7ec:	e59f2014 	ldr	r2, [pc, #20]	; 8520f808 <BcmSpi_Write+0x2c>
8520f7f0:	e792210c 	ldr	r2, [r2, ip, lsl #2]
8520f7f4:	e58d2000 	str	r2, [sp]
8520f7f8:	e1a0200c 	mov	r2, ip
8520f7fc:	ea000085 	b	8520fa18 <BcmHsSpiWrite>
8520f800:	e3e00001 	mvn	r0, #1
8520f804:	e12fff1e 	bx	lr
8520f808:	8521d368 	.word	0x8521d368

8520f80c <BcmSpi_MultibitRead>:
8520f80c:	e3510001 	cmp	r1, #1
8520f810:	e1a03002 	mov	r3, r2
8520f814:	1a000003 	bne	8520f828 <BcmSpi_MultibitRead+0x1c>
8520f818:	e59f2010 	ldr	r2, [pc, #16]	; 8520f830 <BcmSpi_MultibitRead+0x24>
8520f81c:	e1a01003 	mov	r1, r3
8520f820:	e7922103 	ldr	r2, [r2, r3, lsl #2]
8520f824:	ea000049 	b	8520f950 <BcmHsSpiMultibitRead>
8520f828:	e3e00001 	mvn	r0, #1
8520f82c:	e12fff1e 	bx	lr
8520f830:	8521d368 	.word	0x8521d368

8520f834 <hsSpiSetGlobalState>:
8520f834:	e59f202c 	ldr	r2, [pc, #44]	; 8520f868 <hsSpiSetGlobalState+0x34>
8520f838:	e3100101 	tst	r0, #1073741824	; 0x40000000
8520f83c:	e5923000 	ldr	r3, [r2]
8520f840:	e5922000 	ldr	r2, [r2]
8520f844:	03c33801 	biceq	r3, r3, #65536	; 0x10000
8520f848:	13833801 	orrne	r3, r3, #65536	; 0x10000
8520f84c:	e3500000 	cmp	r0, #0
8520f850:	a3c33802 	bicge	r3, r3, #131072	; 0x20000
8520f854:	b3833802 	orrlt	r3, r3, #131072	; 0x20000
8520f858:	e1530002 	cmp	r3, r2
8520f85c:	159f2004 	ldrne	r2, [pc, #4]	; 8520f868 <hsSpiSetGlobalState+0x34>
8520f860:	15823000 	strne	r3, [r2]
8520f864:	e12fff1e 	bx	lr
8520f868:	ff801000 	.word	0xff801000

8520f86c <hsSpiSetProfile.constprop.2>:
8520f86c:	e59f30a8 	ldr	r3, [pc, #168]	; 8520f91c <hsSpiSetProfile.constprop.2+0xb0>
8520f870:	e92d42f0 	push	{r4, r5, r6, r7, r9, lr}
8520f874:	e1a05000 	mov	r5, r0
8520f878:	e5937000 	ldr	r7, [r3]
8520f87c:	e1a04002 	mov	r4, r2
8520f880:	e1a09001 	mov	r9, r1
8520f884:	e1a00007 	mov	r0, r7
8520f888:	ebfff4c6 	bl	8520cba8 <__udivsi3>
8520f88c:	e1a01009 	mov	r1, r9
8520f890:	e1a06000 	mov	r6, r0
8520f894:	e1a00007 	mov	r0, r7
8520f898:	ebfff4ec 	bl	8520cc50 <__aeabi_uidivmod>
8520f89c:	e3a00b02 	mov	r0, #2048	; 0x800
8520f8a0:	e3510000 	cmp	r1, #0
8520f8a4:	12866001 	addne	r6, r6, #1
8520f8a8:	e1a01006 	mov	r1, r6
8520f8ac:	ebfff4bd 	bl	8520cba8 <__udivsi3>
8520f8b0:	e1a06000 	mov	r6, r0
8520f8b4:	e1a01000 	mov	r1, r0
8520f8b8:	e3a00b02 	mov	r0, #2048	; 0x800
8520f8bc:	ebfff4e3 	bl	8520cc50 <__aeabi_uidivmod>
8520f8c0:	e59f2058 	ldr	r2, [pc, #88]	; 8520f920 <hsSpiSetProfile.constprop.2+0xb4>
8520f8c4:	e3510000 	cmp	r1, #0
8520f8c8:	e1a01002 	mov	r1, r2
8520f8cc:	12866001 	addne	r6, r6, #1
8520f8d0:	e3150201 	tst	r5, #268435456	; 0x10000000
8520f8d4:	e3866902 	orr	r6, r6, #32768	; 0x8000
8520f8d8:	e5826020 	str	r6, [r2, #32]
8520f8dc:	e5923024 	ldr	r3, [r2, #36]	; 0x24
8520f8e0:	03c33a01 	biceq	r3, r3, #4096	; 0x1000
8520f8e4:	13833a01 	orrne	r3, r3, #4096	; 0x1000
8520f8e8:	e3150202 	tst	r5, #536870912	; 0x20000000
8520f8ec:	03c33a02 	biceq	r3, r3, #8192	; 0x2000
8520f8f0:	13833a02 	orrne	r3, r3, #8192	; 0x2000
8520f8f4:	e3150302 	tst	r5, #134217728	; 0x8000000
8520f8f8:	03c33801 	biceq	r3, r3, #65536	; 0x10000
8520f8fc:	13833801 	orrne	r3, r3, #65536	; 0x10000
8520f900:	e3150301 	tst	r5, #67108864	; 0x4000000
8520f904:	e5823024 	str	r3, [r2, #36]	; 0x24
8520f908:	e38420ff 	orr	r2, r4, #255	; 0xff
8520f90c:	03c22601 	biceq	r2, r2, #1048576	; 0x100000
8520f910:	13822601 	orrne	r2, r2, #1048576	; 0x100000
8520f914:	e5812028 	str	r2, [r1, #40]	; 0x28
8520f918:	e8bd82f0 	pop	{r4, r5, r6, r7, r9, pc}
8520f91c:	8521d388 	.word	0x8521d388
8520f920:	ff801100 	.word	0xff801100

8520f924 <hsSpiTransPoll.constprop.3>:
8520f924:	e59f301c 	ldr	r3, [pc, #28]	; 8520f948 <hsSpiTransPoll.constprop.3+0x24>
8520f928:	e59f201c 	ldr	r2, [pc, #28]	; 8520f94c <hsSpiTransPoll.constprop.3+0x28>
8520f92c:	e5920084 	ldr	r0, [r2, #132]	; 0x84
8520f930:	e2100002 	ands	r0, r0, #2
8520f934:	012fff1e 	bxeq	lr
8520f938:	e2533001 	subs	r3, r3, #1
8520f93c:	1afffffa 	bne	8520f92c <hsSpiTransPoll.constprop.3+0x8>
8520f940:	e3e00001 	mvn	r0, #1
8520f944:	e12fff1e 	bx	lr
8520f948:	000186a0 	.word	0x000186a0
8520f94c:	ff801000 	.word	0xff801000

8520f950 <BcmHsSpiMultibitRead>:
8520f950:	e92d4070 	push	{r4, r5, r6, lr}
8520f954:	e1a04000 	mov	r4, r0
8520f958:	e1a00002 	mov	r0, r2
8520f95c:	e1a06002 	mov	r6, r2
8520f960:	e1a05001 	mov	r5, r1
8520f964:	ebffffb2 	bl	8520f834 <hsSpiSetGlobalState>
8520f968:	e5d43011 	ldrb	r3, [r4, #17]
8520f96c:	e1a00006 	mov	r0, r6
8520f970:	e5d42010 	ldrb	r2, [r4, #16]
8520f974:	e3530000 	cmp	r3, #0
8520f978:	e594100c 	ldr	r1, [r4, #12]
8520f97c:	e202200f 	and	r2, r2, #15
8520f980:	15d43012 	ldrbne	r3, [r4, #18]
8520f984:	e1a02c02 	lsl	r2, r2, #24
8520f988:	11822403 	orrne	r2, r2, r3, lsl #8
8520f98c:	13822801 	orrne	r2, r2, #65536	; 0x10000
8520f990:	ebffffb5 	bl	8520f86c <hsSpiSetProfile.constprop.2>
8520f994:	e5943008 	ldr	r3, [r4, #8]
8520f998:	e5d40011 	ldrb	r0, [r4, #17]
8520f99c:	e5d42010 	ldrb	r2, [r4, #16]
8520f9a0:	e3833a06 	orr	r3, r3, #24576	; 0x6000
8520f9a4:	e3500000 	cmp	r0, #0
8520f9a8:	e59f0060 	ldr	r0, [pc, #96]	; 8520fa10 <BcmHsSpiMultibitRead+0xc0>
8520f9ac:	e6ff3073 	uxth	r3, r3
8520f9b0:	e202200f 	and	r2, r2, #15
8520f9b4:	13833b02 	orrne	r3, r3, #2048	; 0x800
8520f9b8:	e3520000 	cmp	r2, #0
8520f9bc:	e5941000 	ldr	r1, [r4]
8520f9c0:	e1a0c423 	lsr	ip, r3, #8
8520f9c4:	e6ef3073 	uxtb	r3, r3
8520f9c8:	e5c0c000 	strb	ip, [r0]
8520f9cc:	e5c03001 	strb	r3, [r0, #1]
8520f9d0:	0a000001 	beq	8520f9dc <BcmHsSpiMultibitRead+0x8c>
8520f9d4:	e2800002 	add	r0, r0, #2
8520f9d8:	eb001315 	bl	85214634 <lib_memcpy>
8520f9dc:	e59f3030 	ldr	r3, [pc, #48]	; 8520fa14 <BcmHsSpiMultibitRead+0xc4>
8520f9e0:	e1a05605 	lsl	r5, r5, #12
8520f9e4:	e3855c01 	orr	r5, r5, #256	; 0x100
8520f9e8:	e3855001 	orr	r5, r5, #1
8520f9ec:	e5835080 	str	r5, [r3, #128]	; 0x80
8520f9f0:	ebffffcb 	bl	8520f924 <hsSpiTransPoll.constprop.3>
8520f9f4:	e9940005 	ldmib	r4, {r0, r2}
8520f9f8:	e3500000 	cmp	r0, #0
8520f9fc:	0a000001 	beq	8520fa08 <BcmHsSpiMultibitRead+0xb8>
8520fa00:	e59f1008 	ldr	r1, [pc, #8]	; 8520fa10 <BcmHsSpiMultibitRead+0xc0>
8520fa04:	eb00130a 	bl	85214634 <lib_memcpy>
8520fa08:	e3a00000 	mov	r0, #0
8520fa0c:	e8bd8070 	pop	{r4, r5, r6, pc}
8520fa10:	ff801200 	.word	0xff801200
8520fa14:	ff801000 	.word	0xff801000

8520fa18 <BcmHsSpiWrite>:
8520fa18:	e92d4070 	push	{r4, r5, r6, lr}
8520fa1c:	e1a06000 	mov	r6, r0
8520fa20:	e59d0010 	ldr	r0, [sp, #16]
8520fa24:	e1a04001 	mov	r4, r1
8520fa28:	e1a05002 	mov	r5, r2
8520fa2c:	e1a01003 	mov	r1, r3
8520fa30:	ebffff7f 	bl	8520f834 <hsSpiSetGlobalState>
8520fa34:	e59d0010 	ldr	r0, [sp, #16]
8520fa38:	e3a02000 	mov	r2, #0
8520fa3c:	ebffff8a 	bl	8520f86c <hsSpiSetProfile.constprop.2>
8520fa40:	e3843901 	orr	r3, r4, #16384	; 0x4000
8520fa44:	e59f203c 	ldr	r2, [pc, #60]	; 8520fa88 <BcmHsSpiWrite+0x70>
8520fa48:	e6bf3073 	sxth	r3, r3
8520fa4c:	e59f0038 	ldr	r0, [pc, #56]	; 8520fa8c <BcmHsSpiWrite+0x74>
8520fa50:	e7e71453 	ubfx	r1, r3, #8, #8
8520fa54:	e6ef3073 	uxtb	r3, r3
8520fa58:	e5c21000 	strb	r1, [r2]
8520fa5c:	e5c23001 	strb	r3, [r2, #1]
8520fa60:	e1a01006 	mov	r1, r6
8520fa64:	e1a02004 	mov	r2, r4
8520fa68:	eb0012f1 	bl	85214634 <lib_memcpy>
8520fa6c:	e59f301c 	ldr	r3, [pc, #28]	; 8520fa90 <BcmHsSpiWrite+0x78>
8520fa70:	e3002101 	movw	r2, #257	; 0x101
8520fa74:	e1822605 	orr	r2, r2, r5, lsl #12
8520fa78:	e5832080 	str	r2, [r3, #128]	; 0x80
8520fa7c:	ebffffa8 	bl	8520f924 <hsSpiTransPoll.constprop.3>
8520fa80:	e3a00000 	mov	r0, #0
8520fa84:	e8bd8070 	pop	{r4, r5, r6, pc}
8520fa88:	ff801200 	.word	0xff801200
8520fa8c:	ff801202 	.word	0xff801202
8520fa90:	ff801000 	.word	0xff801000

8520fa94 <BcmHsSpiGetMaxRWSize>:
8520fa94:	e3500000 	cmp	r0, #0
8520fa98:	159f3008 	ldrne	r3, [pc, #8]	; 8520faa8 <BcmHsSpiGetMaxRWSize+0x14>
8520fa9c:	15930000 	ldrne	r0, [r3]
8520faa0:	030001fe 	movweq	r0, #510	; 0x1fe
8520faa4:	e12fff1e 	bx	lr
8520faa8:	8521d38c 	.word	0x8521d38c

8520faac <BcmHsSpiSetup>:
8520faac:	e201320f 	and	r3, r1, #-268435456	; 0xf0000000
8520fab0:	e1510003 	cmp	r1, r3
8520fab4:	1a000011 	bne	8520fb00 <BcmHsSpiSetup+0x54>
8520fab8:	e3110201 	tst	r1, #268435456	; 0x10000000
8520fabc:	13a03302 	movne	r3, #134217728	; 0x8000000
8520fac0:	03a03000 	moveq	r3, #0
8520fac4:	e3110202 	tst	r1, #536870912	; 0x20000000
8520fac8:	13833101 	orrne	r3, r3, #1073741824	; 0x40000000
8520facc:	e3100002 	tst	r0, #2
8520fad0:	13833102 	orrne	r3, r3, #-2147483648	; 0x80000000
8520fad4:	e3110101 	tst	r1, #1073741824	; 0x40000000
8520fad8:	e2000001 	and	r0, r0, #1
8520fadc:	1a000003 	bne	8520faf0 <BcmHsSpiSetup+0x44>
8520fae0:	e3500000 	cmp	r0, #0
8520fae4:	03830201 	orreq	r0, r3, #268435456	; 0x10000000
8520fae8:	13830202 	orrne	r0, r3, #536870912	; 0x20000000
8520faec:	e12fff1e 	bx	lr
8520faf0:	e3500000 	cmp	r0, #0
8520faf4:	1a000003 	bne	8520fb08 <BcmHsSpiSetup+0x5c>
8520faf8:	e3830203 	orr	r0, r3, #805306368	; 0x30000000
8520fafc:	e12fff1e 	bx	lr
8520fb00:	e3e00001 	mvn	r0, #1
8520fb04:	e12fff1e 	bx	lr
8520fb08:	e1a00003 	mov	r0, r3
8520fb0c:	e12fff1e 	bx	lr

8520fb10 <BcmHsSpiSetFlashCtrl>:
8520fb10:	e59f3088 	ldr	r3, [pc, #136]	; 8520fba0 <BcmHsSpiSetFlashCtrl+0x90>
8520fb14:	e92d42f0 	push	{r4, r5, r6, r7, r9, lr}
8520fb18:	e1a04000 	mov	r4, r0
8520fb1c:	e5939000 	ldr	r9, [r3]
8520fb20:	e1a07001 	mov	r7, r1
8520fb24:	e59d101c 	ldr	r1, [sp, #28]
8520fb28:	e1a06002 	mov	r6, r2
8520fb2c:	e1a00009 	mov	r0, r9
8520fb30:	ebfff41c 	bl	8520cba8 <__udivsi3>
8520fb34:	e59d101c 	ldr	r1, [sp, #28]
8520fb38:	e1a05000 	mov	r5, r0
8520fb3c:	e1a00009 	mov	r0, r9
8520fb40:	ebfff442 	bl	8520cc50 <__aeabi_uidivmod>
8520fb44:	e3a00b02 	mov	r0, #2048	; 0x800
8520fb48:	e3510000 	cmp	r1, #0
8520fb4c:	12855001 	addne	r5, r5, #1
8520fb50:	e1a01005 	mov	r1, r5
8520fb54:	ebfff445 	bl	8520cc70 <__divsi3>
8520fb58:	e1a05000 	mov	r5, r0
8520fb5c:	e1a01000 	mov	r1, r0
8520fb60:	e3a00b02 	mov	r0, #2048	; 0x800
8520fb64:	ebfff478 	bl	8520cd4c <__aeabi_idivmod>
8520fb68:	e59f3034 	ldr	r3, [pc, #52]	; 8520fba4 <BcmHsSpiSetFlashCtrl+0x94>
8520fb6c:	e3a00000 	mov	r0, #0
8520fb70:	e3510000 	cmp	r1, #0
8520fb74:	12855001 	addne	r5, r5, #1
8520fb78:	e3855902 	orr	r5, r5, #32768	; 0x8000
8520fb7c:	e5835000 	str	r5, [r3]
8520fb80:	e59d2020 	ldr	r2, [sp, #32]
8520fb84:	e1842b82 	orr	r2, r4, r2, lsl #23
8520fb88:	e59d4018 	ldr	r4, [sp, #24]
8520fb8c:	e1822407 	orr	r2, r2, r7, lsl #8
8520fb90:	e1822506 	orr	r2, r2, r6, lsl #10
8520fb94:	e1824a04 	orr	r4, r2, r4, lsl #20
8520fb98:	e50340ec 	str	r4, [r3, #-236]	; 0xffffff14
8520fb9c:	e8bd82f0 	pop	{r4, r5, r6, r7, r9, pc}
8520fba0:	8521d388 	.word	0x8521d388
8520fba4:	ff801100 	.word	0xff801100

8520fba8 <spiWrite>:
8520fba8:	e59f3020 	ldr	r3, [pc, #32]	; 8520fbd0 <spiWrite+0x28>
8520fbac:	e92d4007 	push	{r0, r1, r2, lr}
8520fbb0:	e5933000 	ldr	r3, [r3]
8520fbb4:	e59f2018 	ldr	r2, [pc, #24]	; 8520fbd4 <spiWrite+0x2c>
8520fbb8:	e58d3000 	str	r3, [sp]
8520fbbc:	e3a03000 	mov	r3, #0
8520fbc0:	e5922000 	ldr	r2, [r2]
8520fbc4:	ebffff04 	bl	8520f7dc <BcmSpi_Write>
8520fbc8:	e28dd00c 	add	sp, sp, #12
8520fbcc:	e49df004 	pop	{pc}		; (ldr pc, [sp], #4)
8520fbd0:	8521d390 	.word	0x8521d390
8520fbd4:	8521fca0 	.word	0x8521fca0

8520fbd8 <spiRead>:
8520fbd8:	e59f3008 	ldr	r3, [pc, #8]	; 8520fbe8 <spiRead+0x10>
8520fbdc:	e3a02000 	mov	r2, #0
8520fbe0:	e5931000 	ldr	r1, [r3]
8520fbe4:	eaffff08 	b	8520f80c <BcmSpi_MultibitRead>
8520fbe8:	8521fca0 	.word	0x8521fca0

8520fbec <spi_nand_get_cmd.constprop.3>:
8520fbec:	e52de004 	push	{lr}		; (str lr, [sp, #-4]!)
8520fbf0:	e24dd024 	sub	sp, sp, #36	; 0x24
8520fbf4:	e3a02018 	mov	r2, #24
8520fbf8:	e3a01000 	mov	r1, #0
8520fbfc:	e28d0008 	add	r0, sp, #8
8520fc00:	eb0012a7 	bl	852146a4 <lib_memset>
8520fc04:	e3a0300f 	mov	r3, #15
8520fc08:	e5cd3004 	strb	r3, [sp, #4]
8520fc0c:	e3e0303f 	mvn	r3, #63	; 0x3f
8520fc10:	e5cd3005 	strb	r3, [sp, #5]
8520fc14:	e28d3004 	add	r3, sp, #4
8520fc18:	e58d3008 	str	r3, [sp, #8]
8520fc1c:	e28d0008 	add	r0, sp, #8
8520fc20:	e58d300c 	str	r3, [sp, #12]
8520fc24:	e3a03001 	mov	r3, #1
8520fc28:	e58d3010 	str	r3, [sp, #16]
8520fc2c:	e59f301c 	ldr	r3, [pc, #28]	; 8520fc50 <spi_nand_get_cmd.constprop.3+0x64>
8520fc30:	e5933000 	ldr	r3, [r3]
8520fc34:	e58d3014 	str	r3, [sp, #20]
8520fc38:	e3a03002 	mov	r3, #2
8520fc3c:	e5cd3018 	strb	r3, [sp, #24]
8520fc40:	ebffffe4 	bl	8520fbd8 <spiRead>
8520fc44:	e5dd0004 	ldrb	r0, [sp, #4]
8520fc48:	e28dd024 	add	sp, sp, #36	; 0x24
8520fc4c:	e49df004 	pop	{pc}		; (ldr pc, [sp], #4)
8520fc50:	8521d390 	.word	0x8521d390

8520fc54 <spi_nand_ready>:
8520fc54:	e92d4010 	push	{r4, lr}
8520fc58:	ebffffe3 	bl	8520fbec <spi_nand_get_cmd.constprop.3>
8520fc5c:	e2000001 	and	r0, r0, #1
8520fc60:	e2200001 	eor	r0, r0, #1
8520fc64:	e8bd8010 	pop	{r4, pc}

8520fc68 <spi_nand_set_feat>:
8520fc68:	e92d4037 	push	{r0, r1, r2, r4, r5, lr}
8520fc6c:	e1a05000 	mov	r5, r0
8520fc70:	e1a04001 	mov	r4, r1
8520fc74:	ebfffff6 	bl	8520fc54 <spi_nand_ready>
8520fc78:	e3500000 	cmp	r0, #0
8520fc7c:	0afffffc 	beq	8520fc74 <spi_nand_set_feat+0xc>
8520fc80:	e3a01003 	mov	r1, #3
8520fc84:	e28d0004 	add	r0, sp, #4
8520fc88:	e3a0301f 	mov	r3, #31
8520fc8c:	e5cd5005 	strb	r5, [sp, #5]
8520fc90:	e5cd3004 	strb	r3, [sp, #4]
8520fc94:	e5cd4006 	strb	r4, [sp, #6]
8520fc98:	ebffffc2 	bl	8520fba8 <spiWrite>
8520fc9c:	e28dd00c 	add	sp, sp, #12
8520fca0:	e8bd8030 	pop	{r4, r5, pc}

8520fca4 <spi_nand_init>:
8520fca4:	e92d4070 	push	{r4, r5, r6, lr}
8520fca8:	e3a05001 	mov	r5, #1
8520fcac:	e59f4310 	ldr	r4, [pc, #784]	; 8520ffc4 <spi_nand_init+0x320>
8520fcb0:	e24dd030 	sub	sp, sp, #48	; 0x30
8520fcb4:	e59f630c 	ldr	r6, [pc, #780]	; 8520ffc8 <spi_nand_init+0x324>
8520fcb8:	e1a01005 	mov	r1, r5
8520fcbc:	e59f3308 	ldr	r3, [pc, #776]	; 8520ffcc <spi_nand_init+0x328>
8520fcc0:	e1a00005 	mov	r0, r5
8520fcc4:	e5845000 	str	r5, [r4]
8520fcc8:	e5863000 	str	r3, [r6]
8520fccc:	ebfffebc 	bl	8520f7c4 <BcmSpi_GetMaxRWSize>
8520fcd0:	e59f32f8 	ldr	r3, [pc, #760]	; 8520ffd0 <spi_nand_init+0x32c>
8520fcd4:	e5962000 	ldr	r2, [r6]
8520fcd8:	e5830000 	str	r0, [r3]
8520fcdc:	e59f32f0 	ldr	r3, [pc, #752]	; 8520ffd4 <spi_nand_init+0x330>
8520fce0:	e5940000 	ldr	r0, [r4]
8520fce4:	e1520003 	cmp	r2, r3
8520fce8:	e3a02000 	mov	r2, #0
8520fcec:	e1a01002 	mov	r1, r2
8520fcf0:	d3a03202 	movle	r3, #536870912	; 0x20000000
8520fcf4:	c3a03203 	movgt	r3, #805306368	; 0x30000000
8520fcf8:	ebfffe8e 	bl	8520f738 <BcmSpi_SetCtrlState>
8520fcfc:	e5963000 	ldr	r3, [r6]
8520fd00:	e3a02000 	mov	r2, #0
8520fd04:	e1a01005 	mov	r1, r5
8520fd08:	e58d2008 	str	r2, [sp, #8]
8520fd0c:	e3a00003 	mov	r0, #3
8520fd10:	e88d000c 	stm	sp, {r2, r3}
8520fd14:	e5943000 	ldr	r3, [r4]
8520fd18:	e28d4030 	add	r4, sp, #48	; 0x30
8520fd1c:	ebfffe9a 	bl	8520f78c <BcmSpi_SetFlashCtrl>
8520fd20:	e3a00f4b 	mov	r0, #300	; 0x12c
8520fd24:	eb00024a 	bl	85210654 <cfe_usleep>
8520fd28:	e3e03000 	mvn	r3, #0
8520fd2c:	e1a01005 	mov	r1, r5
8520fd30:	e5643018 	strb	r3, [r4, #-24]!	; 0xffffffe8
8520fd34:	e1a00004 	mov	r0, r4
8520fd38:	ebffff9a 	bl	8520fba8 <spiWrite>
8520fd3c:	e3020710 	movw	r0, #10000	; 0x2710
8520fd40:	eb000243 	bl	85210654 <cfe_usleep>
8520fd44:	ebffffc2 	bl	8520fc54 <spi_nand_ready>
8520fd48:	e3500000 	cmp	r0, #0
8520fd4c:	0afffffc 	beq	8520fd44 <spi_nand_init+0xa0>
8520fd50:	e3a01000 	mov	r1, #0
8520fd54:	e3a000a0 	mov	r0, #160	; 0xa0
8520fd58:	ebffffc2 	bl	8520fc68 <spi_nand_set_feat>
8520fd5c:	ebffffbc 	bl	8520fc54 <spi_nand_ready>
8520fd60:	e3500000 	cmp	r0, #0
8520fd64:	0afffffc 	beq	8520fd5c <spi_nand_init+0xb8>
8520fd68:	e3a02018 	mov	r2, #24
8520fd6c:	e3a01000 	mov	r1, #0
8520fd70:	e1a00004 	mov	r0, r4
8520fd74:	e28d5010 	add	r5, sp, #16
8520fd78:	eb001249 	bl	852146a4 <lib_memset>
8520fd7c:	e3e03060 	mvn	r3, #96	; 0x60
8520fd80:	e5cd3010 	strb	r3, [sp, #16]
8520fd84:	e3a03000 	mov	r3, #0
8520fd88:	e5cd3011 	strb	r3, [sp, #17]
8520fd8c:	e3a03004 	mov	r3, #4
8520fd90:	e58d3020 	str	r3, [sp, #32]
8520fd94:	e1a00004 	mov	r0, r4
8520fd98:	e5963000 	ldr	r3, [r6]
8520fd9c:	e58d5018 	str	r5, [sp, #24]
8520fda0:	e58d501c 	str	r5, [sp, #28]
8520fda4:	e58d3024 	str	r3, [sp, #36]	; 0x24
8520fda8:	e3a03002 	mov	r3, #2
8520fdac:	e5cd3028 	strb	r3, [sp, #40]	; 0x28
8520fdb0:	ebffff88 	bl	8520fbd8 <spiRead>
8520fdb4:	ebffffa6 	bl	8520fc54 <spi_nand_ready>
8520fdb8:	e3500000 	cmp	r0, #0
8520fdbc:	0afffffc 	beq	8520fdb4 <spi_nand_init+0x110>
8520fdc0:	e3a02004 	mov	r2, #4
8520fdc4:	e1a01005 	mov	r1, r5
8520fdc8:	e28d0014 	add	r0, sp, #20
8520fdcc:	eb001218 	bl	85214634 <lib_memcpy>
8520fdd0:	e5dd3014 	ldrb	r3, [sp, #20]
8520fdd4:	e59fc1fc 	ldr	ip, [pc, #508]	; 8520ffd8 <spi_nand_init+0x334>
8520fdd8:	e3a0100b 	mov	r1, #11
8520fddc:	e3a00b02 	mov	r0, #2048	; 0x800
8520fde0:	e5cd3013 	strb	r3, [sp, #19]
8520fde4:	e5dd3015 	ldrb	r3, [sp, #21]
8520fde8:	e5cd3012 	strb	r3, [sp, #18]
8520fdec:	e5dd3016 	ldrb	r3, [sp, #22]
8520fdf0:	e5cd3011 	strb	r3, [sp, #17]
8520fdf4:	e5dd3017 	ldrb	r3, [sp, #23]
8520fdf8:	e5cd3010 	strb	r3, [sp, #16]
8520fdfc:	e59f31d8 	ldr	r3, [pc, #472]	; 8520ffdc <spi_nand_init+0x338>
8520fe00:	e59d2010 	ldr	r2, [sp, #16]
8520fe04:	e1c311ba 	strh	r1, [r3, #26]
8520fe08:	e3a01040 	mov	r1, #64	; 0x40
8520fe0c:	e5831020 	str	r1, [r3, #32]
8520fe10:	e3a01b01 	mov	r1, #1024	; 0x400
8520fe14:	e5831008 	str	r1, [r3, #8]
8520fe18:	e3a01011 	mov	r1, #17
8520fe1c:	e1c311b8 	strh	r1, [r3, #24]
8520fe20:	e3a01001 	mov	r1, #1
8520fe24:	e1c311bc 	strh	r1, [r3, #28]
8520fe28:	e3a01000 	mov	r1, #0
8520fe2c:	e5831014 	str	r1, [r3, #20]
8520fe30:	e3c210ff 	bic	r1, r2, #255	; 0xff
8520fe34:	e151000c 	cmp	r1, ip
8520fe38:	e5830010 	str	r0, [r3, #16]
8520fe3c:	e5831000 	str	r1, [r3]
8520fe40:	0a000056 	beq	8520ffa0 <spi_nand_init+0x2fc>
8520fe44:	e28cc801 	add	ip, ip, #65536	; 0x10000
8520fe48:	e151000c 	cmp	r1, ip
8520fe4c:	0a00004b 	beq	8520ff80 <spi_nand_init+0x2dc>
8520fe50:	e24cc801 	sub	ip, ip, #65536	; 0x10000
8520fe54:	e24ccc01 	sub	ip, ip, #256	; 0x100
8520fe58:	e151000c 	cmp	r1, ip
8520fe5c:	03a02c02 	moveq	r2, #512	; 0x200
8520fe60:	0a000033 	beq	8520ff34 <spi_nand_init+0x290>
8520fe64:	e1a02822 	lsr	r2, r2, #16
8520fe68:	e59f1170 	ldr	r1, [pc, #368]	; 8520ffe0 <spi_nand_init+0x33c>
8520fe6c:	e1a02802 	lsl	r2, r2, #16
8520fe70:	e5832000 	str	r2, [r3]
8520fe74:	e1520001 	cmp	r2, r1
8520fe78:	0a000047 	beq	8520ff9c <spi_nand_init+0x2f8>
8520fe7c:	8a000013 	bhi	8520fed0 <spi_nand_init+0x22c>
8520fe80:	e59f115c 	ldr	r1, [pc, #348]	; 8520ffe4 <spi_nand_init+0x340>
8520fe84:	e1520001 	cmp	r2, r1
8520fe88:	0a00002b 	beq	8520ff3c <spi_nand_init+0x298>
8520fe8c:	8a000004 	bhi	8520fea4 <spi_nand_init+0x200>
8520fe90:	e59f1150 	ldr	r1, [pc, #336]	; 8520ffe8 <spi_nand_init+0x344>
8520fe94:	e1520001 	cmp	r2, r1
8520fe98:	12811581 	addne	r1, r1, #541065216	; 0x20400000
8520fe9c:	1a000016 	bne	8520fefc <spi_nand_init+0x258>
8520fea0:	ea00003d 	b	8520ff9c <spi_nand_init+0x2f8>
8520fea4:	e59f1140 	ldr	r1, [pc, #320]	; 8520ffec <spi_nand_init+0x348>
8520fea8:	e1520001 	cmp	r2, r1
8520feac:	0a000024 	beq	8520ff44 <spi_nand_init+0x2a0>
8520feb0:	e2811802 	add	r1, r1, #131072	; 0x20000
8520feb4:	e1520001 	cmp	r2, r1
8520feb8:	0a000029 	beq	8520ff64 <spi_nand_init+0x2c0>
8520febc:	e2411701 	sub	r1, r1, #262144	; 0x40000
8520fec0:	e1520001 	cmp	r2, r1
8520fec4:	1a000035 	bne	8520ffa0 <spi_nand_init+0x2fc>
8520fec8:	e3a02a01 	mov	r2, #4096	; 0x1000
8520fecc:	ea00002e 	b	8520ff8c <spi_nand_init+0x2e8>
8520fed0:	e59f1118 	ldr	r1, [pc, #280]	; 8520fff0 <spi_nand_init+0x34c>
8520fed4:	e1520001 	cmp	r2, r1
8520fed8:	0a000019 	beq	8520ff44 <spi_nand_init+0x2a0>
8520fedc:	8a00000a 	bhi	8520ff0c <spi_nand_init+0x268>
8520fee0:	e24118ca 	sub	r1, r1, #13238272	; 0xca0000
8520fee4:	e1520001 	cmp	r2, r1
8520fee8:	0a000024 	beq	8520ff80 <spi_nand_init+0x2dc>
8520feec:	e2811732 	add	r1, r1, #13107200	; 0xc80000
8520fef0:	e1520001 	cmp	r2, r1
8520fef4:	0a00000d 	beq	8520ff30 <spi_nand_init+0x28c>
8520fef8:	e241166b 	sub	r1, r1, #112197632	; 0x6b00000
8520fefc:	e1520001 	cmp	r2, r1
8520ff00:	1a000026 	bne	8520ffa0 <spi_nand_init+0x2fc>
8520ff04:	e3a02b02 	mov	r2, #2048	; 0x800
8520ff08:	ea00001f 	b	8520ff8c <spi_nand_init+0x2e8>
8520ff0c:	e59f10e0 	ldr	r1, [pc, #224]	; 8520fff4 <spi_nand_init+0x350>
8520ff10:	e1520001 	cmp	r2, r1
8520ff14:	0a000020 	beq	8520ff9c <spi_nand_init+0x2f8>
8520ff18:	e281180f 	add	r1, r1, #983040	; 0xf0000
8520ff1c:	e1520001 	cmp	r2, r1
8520ff20:	0a000002 	beq	8520ff30 <spi_nand_init+0x28c>
8520ff24:	e59f10cc 	ldr	r1, [pc, #204]	; 8520fff8 <spi_nand_init+0x354>
8520ff28:	e1520001 	cmp	r2, r1
8520ff2c:	1a00001b 	bne	8520ffa0 <spi_nand_init+0x2fc>
8520ff30:	e3a02b02 	mov	r2, #2048	; 0x800
8520ff34:	e5832008 	str	r2, [r3, #8]
8520ff38:	ea000018 	b	8520ffa0 <spi_nand_init+0x2fc>
8520ff3c:	e5830008 	str	r0, [r3, #8]
8520ff40:	ea000012 	b	8520ff90 <spi_nand_init+0x2ec>
8520ff44:	e3a02a01 	mov	r2, #4096	; 0x1000
8520ff48:	e5830008 	str	r0, [r3, #8]
8520ff4c:	e5832010 	str	r2, [r3, #16]
8520ff50:	e3a0200c 	mov	r2, #12
8520ff54:	e1c321ba 	strh	r2, [r3, #26]
8520ff58:	e3a02012 	mov	r2, #18
8520ff5c:	e1c321b8 	strh	r2, [r3, #24]
8520ff60:	ea00000e 	b	8520ffa0 <spi_nand_init+0x2fc>
8520ff64:	e3a02a01 	mov	r2, #4096	; 0x1000
8520ff68:	e5832008 	str	r2, [r3, #8]
8520ff6c:	e3a02002 	mov	r2, #2
8520ff70:	e1c321bc 	strh	r2, [r3, #28]
8520ff74:	e3a02201 	mov	r2, #268435456	; 0x10000000
8520ff78:	e5832014 	str	r2, [r3, #20]
8520ff7c:	ea000007 	b	8520ffa0 <spi_nand_init+0x2fc>
8520ff80:	e5830008 	str	r0, [r3, #8]
8520ff84:	e3a02302 	mov	r2, #134217728	; 0x8000000
8520ff88:	eafffffa 	b	8520ff78 <spi_nand_init+0x2d4>
8520ff8c:	e5832008 	str	r2, [r3, #8]
8520ff90:	e3a02002 	mov	r2, #2
8520ff94:	e1c321bc 	strh	r2, [r3, #28]
8520ff98:	ea000000 	b	8520ffa0 <spi_nand_init+0x2fc>
8520ff9c:	e5830008 	str	r0, [r3, #8]
8520ffa0:	e5932010 	ldr	r2, [r3, #16]
8520ffa4:	e3a00001 	mov	r0, #1
8520ffa8:	e5931008 	ldr	r1, [r3, #8]
8520ffac:	e1a02302 	lsl	r2, r2, #6
8520ffb0:	e583200c 	str	r2, [r3, #12]
8520ffb4:	e0020192 	mul	r2, r2, r1
8520ffb8:	e5832004 	str	r2, [r3, #4]
8520ffbc:	e28dd030 	add	sp, sp, #48	; 0x30
8520ffc0:	e8bd8070 	pop	{r4, r5, r6, pc}
8520ffc4:	8521fca0 	.word	0x8521fca0
8520ffc8:	8521d390 	.word	0x8521d390
8520ffcc:	02faf080 	.word	0x02faf080
8520ffd0:	8521d394 	.word	0x8521d394
8520ffd4:	01c9c380 	.word	0x01c9c380
8520ffd8:	efaa2100 	.word	0xefaa2100
8520ffdc:	8521fca4 	.word	0x8521fca4
8520ffe0:	98cb0000 	.word	0x98cb0000
8520ffe4:	2c240000 	.word	0x2c240000
8520ffe8:	0be20000 	.word	0x0be20000
8520ffec:	2c340000 	.word	0x2c340000
8520fff0:	c8d40000 	.word	0xc8d40000
8520fff4:	d5100000 	.word	0xd5100000
8520fff8:	c8f20000 	.word	0xc8f20000

8520fffc <spi_nand_read_buf>:
8520fffc:	e92d4ef0 	push	{r4, r5, r6, r7, r9, sl, fp, lr}
85210000:	e24dd038 	sub	sp, sp, #56	; 0x38
85210004:	e59f6280 	ldr	r6, [pc, #640]	; 8521028c <spi_nand_read_buf+0x290>
85210008:	e1a09003 	mov	r9, r3
8521000c:	e58d2010 	str	r2, [sp, #16]
85210010:	e58d3004 	str	r3, [sp, #4]
85210014:	e596400c 	ldr	r4, [r6, #12]
85210018:	e1a0b006 	mov	fp, r6
8521001c:	e0201094 	mla	r0, r4, r0, r1
85210020:	e5964010 	ldr	r4, [r6, #16]
85210024:	e2645000 	rsb	r5, r4, #0
85210028:	e0055000 	and	r5, r5, r0
8521002c:	e0657000 	rsb	r7, r5, r0
85210030:	e0600005 	rsb	r0, r0, r5
85210034:	e0804004 	add	r4, r0, r4
85210038:	e1540003 	cmp	r4, r3
8521003c:	21a04003 	movcs	r4, r3
85210040:	e3590000 	cmp	r9, #0
85210044:	0a000036 	beq	85210124 <spi_nand_read_buf+0x128>
85210048:	e5963014 	ldr	r3, [r6, #20]
8521004c:	e1a0a004 	mov	sl, r4
85210050:	e3530000 	cmp	r3, #0
85210054:	0a000019 	beq	852100c0 <spi_nand_read_buf+0xc4>
85210058:	e5d63003 	ldrb	r3, [r6, #3]
8521005c:	e35300c8 	cmp	r3, #200	; 0xc8
85210060:	135300ef 	cmpne	r3, #239	; 0xef
85210064:	1a00000c 	bne	8521009c <spi_nand_read_buf+0xa0>
85210068:	ebfffef9 	bl	8520fc54 <spi_nand_ready>
8521006c:	e3500000 	cmp	r0, #0
85210070:	0afffffc 	beq	85210068 <spi_nand_read_buf+0x6c>
85210074:	e3e0303d 	mvn	r3, #61	; 0x3d
85210078:	e5cd3018 	strb	r3, [sp, #24]
8521007c:	e59b3014 	ldr	r3, [fp, #20]
85210080:	e3a01002 	mov	r1, #2
85210084:	e28d0018 	add	r0, sp, #24
85210088:	e1150003 	tst	r5, r3
8521008c:	13a03001 	movne	r3, #1
85210090:	03a03000 	moveq	r3, #0
85210094:	e5cd3019 	strb	r3, [sp, #25]
85210098:	ebfffec2 	bl	8520fba8 <spiWrite>
8521009c:	e5db3003 	ldrb	r3, [fp, #3]
852100a0:	e353002c 	cmp	r3, #44	; 0x2c
852100a4:	1a000005 	bne	852100c0 <spi_nand_read_buf+0xc4>
852100a8:	e5963014 	ldr	r3, [r6, #20]
852100ac:	e3a000d0 	mov	r0, #208	; 0xd0
852100b0:	e1150003 	tst	r5, r3
852100b4:	13a01040 	movne	r1, #64	; 0x40
852100b8:	03a01000 	moveq	r1, #0
852100bc:	ebfffee9 	bl	8520fc68 <spi_nand_set_feat>
852100c0:	e3a01010 	mov	r1, #16
852100c4:	e3a000b0 	mov	r0, #176	; 0xb0
852100c8:	ebfffee6 	bl	8520fc68 <spi_nand_set_feat>
852100cc:	e3a03013 	mov	r3, #19
852100d0:	e5cd3018 	strb	r3, [sp, #24]
852100d4:	e3a01004 	mov	r1, #4
852100d8:	e1db31ba 	ldrh	r3, [fp, #26]
852100dc:	e28d0018 	add	r0, sp, #24
852100e0:	e2832010 	add	r2, r3, #16
852100e4:	e1a02235 	lsr	r2, r5, r2
852100e8:	e5cd2019 	strb	r2, [sp, #25]
852100ec:	e2832008 	add	r2, r3, #8
852100f0:	e1a03335 	lsr	r3, r5, r3
852100f4:	e1a02235 	lsr	r2, r5, r2
852100f8:	e5cd301b 	strb	r3, [sp, #27]
852100fc:	e5cd201a 	strb	r2, [sp, #26]
85210100:	ebfffea8 	bl	8520fba8 <spiWrite>
85210104:	ebfffed2 	bl	8520fc54 <spi_nand_ready>
85210108:	e3500000 	cmp	r0, #0
8521010c:	0afffffc 	beq	85210104 <spi_nand_read_buf+0x108>
85210110:	ebfffeb5 	bl	8520fbec <spi_nand_get_cmd.constprop.3>
85210114:	e2000030 	and	r0, r0, #48	; 0x30
85210118:	e3500020 	cmp	r0, #32
8521011c:	1a000053 	bne	85210270 <spi_nand_read_buf+0x274>
85210120:	ea000001 	b	8521012c <spi_nand_read_buf+0x130>
85210124:	e59d3004 	ldr	r3, [sp, #4]
85210128:	ea000054 	b	85210280 <spi_nand_read_buf+0x284>
8521012c:	e3540000 	cmp	r4, #0
85210130:	e3e03000 	mvn	r3, #0
85210134:	0a000051 	beq	85210280 <spi_nand_read_buf+0x284>
85210138:	e59d2010 	ldr	r2, [sp, #16]
8521013c:	e58d7008 	str	r7, [sp, #8]
85210140:	e58d200c 	str	r2, [sp, #12]
85210144:	e35a0000 	cmp	sl, #0
85210148:	da00003a 	ble	85210238 <spi_nand_read_buf+0x23c>
8521014c:	e59f213c 	ldr	r2, [pc, #316]	; 85210290 <spi_nand_read_buf+0x294>
85210150:	e3e01000 	mvn	r1, #0
85210154:	e59d0008 	ldr	r0, [sp, #8]
85210158:	e58d3014 	str	r3, [sp, #20]
8521015c:	e5927000 	ldr	r7, [r2]
85210160:	e3a02003 	mov	r2, #3
85210164:	e5cd201c 	strb	r2, [sp, #28]
85210168:	e1d621ba 	ldrh	r2, [r6, #26]
8521016c:	e15a0007 	cmp	sl, r7
85210170:	e2822001 	add	r2, r2, #1
85210174:	31a0700a 	movcc	r7, sl
85210178:	e1c02211 	bic	r2, r0, r1, lsl r2
8521017c:	e1d611bc 	ldrh	r1, [r6, #28]
85210180:	e5cd201e 	strb	r2, [sp, #30]
85210184:	e3510001 	cmp	r1, #1
85210188:	87e30452 	ubfxhi	r0, r2, #8, #4
8521018c:	91a01422 	lsrls	r1, r2, #8
85210190:	81d611b8 	ldrhhi	r1, [r6, #24]
85210194:	e3a02018 	mov	r2, #24
85210198:	81a01135 	lsrhi	r1, r5, r1
8521019c:	82011001 	andhi	r1, r1, #1
852101a0:	81801201 	orrhi	r1, r0, r1, lsl #4
852101a4:	e28d0020 	add	r0, sp, #32
852101a8:	e5cd101d 	strb	r1, [sp, #29]
852101ac:	e3a01000 	mov	r1, #0
852101b0:	e5cd101f 	strb	r1, [sp, #31]
852101b4:	eb00113a 	bl	852146a4 <lib_memset>
852101b8:	e28d201c 	add	r2, sp, #28
852101bc:	e58d2020 	str	r2, [sp, #32]
852101c0:	e59f20cc 	ldr	r2, [pc, #204]	; 85210294 <spi_nand_read_buf+0x298>
852101c4:	e28d0020 	add	r0, sp, #32
852101c8:	e59d300c 	ldr	r3, [sp, #12]
852101cc:	e3a01004 	mov	r1, #4
852101d0:	e58d7028 	str	r7, [sp, #40]	; 0x28
852101d4:	e5922000 	ldr	r2, [r2]
852101d8:	e58d3024 	str	r3, [sp, #36]	; 0x24
852101dc:	e5cd1030 	strb	r1, [sp, #48]	; 0x30
852101e0:	e58d202c 	str	r2, [sp, #44]	; 0x2c
852101e4:	e3a02003 	mov	r2, #3
852101e8:	e5cd1033 	strb	r1, [sp, #51]	; 0x33
852101ec:	e5cd2035 	strb	r2, [sp, #53]	; 0x35
852101f0:	e3a02001 	mov	r2, #1
852101f4:	e5cd2036 	strb	r2, [sp, #54]	; 0x36
852101f8:	e5cd2034 	strb	r2, [sp, #52]	; 0x34
852101fc:	ebfffe75 	bl	8520fbd8 <spiRead>
85210200:	e59d3014 	ldr	r3, [sp, #20]
85210204:	e58d3014 	str	r3, [sp, #20]
85210208:	ebfffe91 	bl	8520fc54 <spi_nand_ready>
8521020c:	e59d3014 	ldr	r3, [sp, #20]
85210210:	e3500000 	cmp	r0, #0
85210214:	0afffffa 	beq	85210204 <spi_nand_read_buf+0x208>
85210218:	e59d200c 	ldr	r2, [sp, #12]
8521021c:	e067a00a 	rsb	sl, r7, sl
85210220:	e0822007 	add	r2, r2, r7
85210224:	e58d200c 	str	r2, [sp, #12]
85210228:	e59d2008 	ldr	r2, [sp, #8]
8521022c:	e0822007 	add	r2, r2, r7
85210230:	e58d2008 	str	r2, [sp, #8]
85210234:	eaffffc2 	b	85210144 <spi_nand_read_buf+0x148>
85210238:	e3730001 	cmn	r3, #1
8521023c:	0a00000f 	beq	85210280 <spi_nand_read_buf+0x284>
85210240:	e0599004 	subs	r9, r9, r4
85210244:	0affffb6 	beq	85210124 <spi_nand_read_buf+0x128>
85210248:	e5963010 	ldr	r3, [r6, #16]
8521024c:	e3a07000 	mov	r7, #0
85210250:	e59d2010 	ldr	r2, [sp, #16]
85210254:	e1590003 	cmp	r9, r3
85210258:	e0855003 	add	r5, r5, r3
8521025c:	e0822004 	add	r2, r2, r4
85210260:	e58d2010 	str	r2, [sp, #16]
85210264:	31a04009 	movcc	r4, r9
85210268:	21a04003 	movcs	r4, r3
8521026c:	eaffff73 	b	85210040 <spi_nand_read_buf+0x44>
85210270:	e3540000 	cmp	r4, #0
85210274:	13a03001 	movne	r3, #1
85210278:	0afffff0 	beq	85210240 <spi_nand_read_buf+0x244>
8521027c:	eaffffad 	b	85210138 <spi_nand_read_buf+0x13c>
85210280:	e1a00003 	mov	r0, r3
85210284:	e28dd038 	add	sp, sp, #56	; 0x38
85210288:	e8bd8ef0 	pop	{r4, r5, r6, r7, r9, sl, fp, pc}
8521028c:	8521fca4 	.word	0x8521fca4
85210290:	8521d394 	.word	0x8521d394
85210294:	8521d390 	.word	0x8521d390

85210298 <spi_nand_get_numsectors>:
85210298:	e59f3004 	ldr	r3, [pc, #4]	; 852102a4 <spi_nand_get_numsectors+0xc>
8521029c:	e5930008 	ldr	r0, [r3, #8]
852102a0:	e12fff1e 	bx	lr
852102a4:	8521fca4 	.word	0x8521fca4

852102a8 <spi_nand_get_sector_size>:
852102a8:	e59f3004 	ldr	r3, [pc, #4]	; 852102b4 <spi_nand_get_sector_size+0xc>
852102ac:	e593000c 	ldr	r0, [r3, #12]
852102b0:	e12fff1e 	bx	lr
852102b4:	8521fca4 	.word	0x8521fca4

852102b8 <rom_spi_nand_init>:
852102b8:	eafffe79 	b	8520fca4 <spi_nand_init>

852102bc <pmc_initmode>:
852102bc:	e59f3018 	ldr	r3, [pc, #24]	; 852102dc <pmc_initmode+0x20>
852102c0:	e5933400 	ldr	r3, [r3, #1024]	; 0x400
852102c4:	e3530001 	cmp	r3, #1
852102c8:	e59f3010 	ldr	r3, [pc, #16]	; 852102e0 <pmc_initmode+0x24>
852102cc:	03a02000 	moveq	r2, #0
852102d0:	13a02001 	movne	r2, #1
852102d4:	e5832000 	str	r2, [r3]
852102d8:	e12fff1e 	bx	lr
852102dc:	80300000 	.word	0x80300000
852102e0:	8521fcc8 	.word	0x8521fcc8

852102e4 <otp_wait_status>:
852102e4:	e3a0c801 	mov	ip, #65536	; 0x10000
852102e8:	e5903000 	ldr	r3, [r0]
852102ec:	e0033001 	and	r3, r3, r1
852102f0:	e1530002 	cmp	r3, r2
852102f4:	0a000003 	beq	85210308 <otp_wait_status+0x24>
852102f8:	e25cc001 	subs	ip, ip, #1
852102fc:	1afffff9 	bne	852102e8 <otp_wait_status+0x4>
85210300:	e3e00000 	mvn	r0, #0
85210304:	e12fff1e 	bx	lr
85210308:	e3a00000 	mov	r0, #0
8521030c:	e12fff1e 	bx	lr

85210310 <bcm_otp_get_row_ecc>:
85210310:	e92d42f0 	push	{r4, r5, r6, r7, r9, lr}
85210314:	e1a05002 	mov	r5, r2
85210318:	e59f4094 	ldr	r4, [pc, #148]	; 852103b4 <bcm_otp_get_row_ecc+0xa4>
8521031c:	e3a02001 	mov	r2, #1
85210320:	e1a07000 	mov	r7, r0
85210324:	e1a06001 	mov	r6, r1
85210328:	e59f0088 	ldr	r0, [pc, #136]	; 852103b8 <bcm_otp_get_row_ecc+0xa8>
8521032c:	e1a01002 	mov	r1, r2
85210330:	e5842070 	str	r2, [r4, #112]	; 0x70
85210334:	ebffffea 	bl	852102e4 <otp_wait_status>
85210338:	e3500000 	cmp	r0, #0
8521033c:	1a000019 	bne	852103a8 <bcm_otp_get_row_ecc+0x98>
85210340:	e5943004 	ldr	r3, [r4, #4]
85210344:	e1a02000 	mov	r2, r0
85210348:	e3a01002 	mov	r1, #2
8521034c:	e59f0068 	ldr	r0, [pc, #104]	; 852103bc <bcm_otp_get_row_ecc+0xac>
85210350:	e3833001 	orr	r3, r3, #1
85210354:	e5843004 	str	r3, [r4, #4]
85210358:	e59f3060 	ldr	r3, [pc, #96]	; 852103c0 <bcm_otp_get_row_ecc+0xb0>
8521035c:	e5847010 	str	r7, [r4, #16]
85210360:	e5843000 	str	r3, [r4]
85210364:	ebffffde 	bl	852102e4 <otp_wait_status>
85210368:	e3a02002 	mov	r2, #2
8521036c:	e1a01002 	mov	r1, r2
85210370:	e59f0044 	ldr	r0, [pc, #68]	; 852103bc <bcm_otp_get_row_ecc+0xac>
85210374:	ebffffda 	bl	852102e4 <otp_wait_status>
85210378:	e3500000 	cmp	r0, #0
8521037c:	1a000009 	bne	852103a8 <bcm_otp_get_row_ecc+0x98>
85210380:	e5943018 	ldr	r3, [r4, #24]
85210384:	e3550000 	cmp	r5, #0
85210388:	e5863000 	str	r3, [r6]
8521038c:	1594301c 	ldrne	r3, [r4, #28]
85210390:	15853000 	strne	r3, [r5]
85210394:	e3a03000 	mov	r3, #0
85210398:	e5843000 	str	r3, [r4]
8521039c:	e5943004 	ldr	r3, [r4, #4]
852103a0:	e3c33001 	bic	r3, r3, #1
852103a4:	e5843004 	str	r3, [r4, #4]
852103a8:	e3a03000 	mov	r3, #0
852103ac:	e5843070 	str	r3, [r4, #112]	; 0x70
852103b0:	e8bd82f0 	pop	{r4, r5, r6, r7, r9, pc}
852103b4:	ff802800 	.word	0xff802800
852103b8:	ff802870 	.word	0xff802870
852103bc:	ff802820 	.word	0xff802820
852103c0:	00a00001 	.word	0x00a00001

852103c4 <bcm_otp_get_row>:
852103c4:	e3a02000 	mov	r2, #0
852103c8:	eaffffd0 	b	85210310 <bcm_otp_get_row_ecc>

852103cc <sotp_sec89_both_readlocked>:
852103cc:	e59f3020 	ldr	r3, [pc, #32]	; 852103f4 <sotp_sec89_both_readlocked+0x28>
852103d0:	e5930c3c 	ldr	r0, [r3, #3132]	; 0xc3c
852103d4:	e59f301c 	ldr	r3, [pc, #28]	; 852103f8 <sotp_sec89_both_readlocked+0x2c>
852103d8:	e1500003 	cmp	r0, r3
852103dc:	17e50550 	ubfxne	r0, r0, #10, #6
852103e0:	1240003f 	subne	r0, r0, #63	; 0x3f
852103e4:	116f0f10 	clzne	r0, r0
852103e8:	11a002a0 	lsrne	r0, r0, #5
852103ec:	03a00001 	moveq	r0, #1
852103f0:	e12fff1e 	bx	lr
852103f4:	ff800000 	.word	0xff800000
852103f8:	deadbeef 	.word	0xdeadbeef

852103fc <bcm_otp_fld_secure_rows>:
852103fc:	e92d4010 	push	{r4, lr}
85210400:	ebfffff1 	bl	852103cc <sotp_sec89_both_readlocked>
85210404:	e16f0f10 	clz	r0, r0
85210408:	e1a002a0 	lsr	r0, r0, #5
8521040c:	e8bd8010 	pop	{r4, pc}

85210410 <bcm_otp_is_boot_secure>:
85210410:	e92d401f 	push	{r0, r1, r2, r3, r4, lr}
85210414:	e3a00011 	mov	r0, #17
85210418:	e28d1004 	add	r1, sp, #4
8521041c:	ebffffe8 	bl	852103c4 <bcm_otp_get_row>
85210420:	e28d1008 	add	r1, sp, #8
85210424:	e1a04000 	mov	r4, r0
85210428:	e3a00012 	mov	r0, #18
8521042c:	ebffffe4 	bl	852103c4 <bcm_otp_get_row>
85210430:	e28d100c 	add	r1, sp, #12
85210434:	e1844000 	orr	r4, r4, r0
85210438:	e3a00017 	mov	r0, #23
8521043c:	ebffffe0 	bl	852103c4 <bcm_otp_get_row>
85210440:	e1940000 	orrs	r0, r4, r0
85210444:	13a00000 	movne	r0, #0
85210448:	1a000008 	bne	85210470 <bcm_otp_is_boot_secure+0x60>
8521044c:	e59d3004 	ldr	r3, [sp, #4]
85210450:	e3130008 	tst	r3, #8
85210454:	0a000005 	beq	85210470 <bcm_otp_is_boot_secure+0x60>
85210458:	e59d3008 	ldr	r3, [sp, #8]
8521045c:	e313090e 	tst	r3, #229376	; 0x38000
85210460:	0a000002 	beq	85210470 <bcm_otp_is_boot_secure+0x60>
85210464:	e1dd00bc 	ldrh	r0, [sp, #12]
85210468:	e2900000 	adds	r0, r0, #0
8521046c:	13a00001 	movne	r0, #1
85210470:	e28dd010 	add	sp, sp, #16
85210474:	e8bd8010 	pop	{r4, pc}

85210478 <bcm_otp_is_boot_mfg_secure>:
85210478:	e92d401f 	push	{r0, r1, r2, r3, r4, lr}
8521047c:	e3a00011 	mov	r0, #17
85210480:	e28d1004 	add	r1, sp, #4
85210484:	ebffffce 	bl	852103c4 <bcm_otp_get_row>
85210488:	e28d1008 	add	r1, sp, #8
8521048c:	e1a04000 	mov	r4, r0
85210490:	e3a00012 	mov	r0, #18
85210494:	ebffffca 	bl	852103c4 <bcm_otp_get_row>
85210498:	e28d100c 	add	r1, sp, #12
8521049c:	e1844000 	orr	r4, r4, r0
852104a0:	e3a00017 	mov	r0, #23
852104a4:	ebffffc6 	bl	852103c4 <bcm_otp_get_row>
852104a8:	e1940000 	orrs	r0, r4, r0
852104ac:	13a00000 	movne	r0, #0
852104b0:	1a00000c 	bne	852104e8 <bcm_otp_is_boot_mfg_secure+0x70>
852104b4:	e59d3004 	ldr	r3, [sp, #4]
852104b8:	e3130008 	tst	r3, #8
852104bc:	0a000009 	beq	852104e8 <bcm_otp_is_boot_mfg_secure+0x70>
852104c0:	e59d3008 	ldr	r3, [sp, #8]
852104c4:	e313090e 	tst	r3, #229376	; 0x38000
852104c8:	0a000006 	beq	852104e8 <bcm_otp_is_boot_mfg_secure+0x70>
852104cc:	e1dd30bc 	ldrh	r3, [sp, #12]
852104d0:	e3530000 	cmp	r3, #0
852104d4:	03a00001 	moveq	r0, #1
852104d8:	0a000002 	beq	852104e8 <bcm_otp_is_boot_mfg_secure+0x70>
852104dc:	ebffffc6 	bl	852103fc <bcm_otp_fld_secure_rows>
852104e0:	e2900000 	adds	r0, r0, #0
852104e4:	13a00001 	movne	r0, #1
852104e8:	e28dd010 	add	sp, sp, #16
852104ec:	e8bd8010 	pop	{r4, pc}

852104f0 <bcm_otp_get_ldo_trim>:
852104f0:	e92d4013 	push	{r0, r1, r4, lr}
852104f4:	e1a04000 	mov	r4, r0
852104f8:	e28d1004 	add	r1, sp, #4
852104fc:	e3a00009 	mov	r0, #9
85210500:	ebffffaf 	bl	852103c4 <bcm_otp_get_row>
85210504:	e59d3004 	ldr	r3, [sp, #4]
85210508:	e1a03e23 	lsr	r3, r3, #28
8521050c:	e5843000 	str	r3, [r4]
85210510:	e28dd008 	add	sp, sp, #8
85210514:	e8bd8010 	pop	{r4, pc}

85210518 <ddrInit>:
85210518:	e59f3038 	ldr	r3, [pc, #56]	; 85210558 <ddrInit+0x40>
8521051c:	e92d4013 	push	{r0, r1, r4, lr}
85210520:	e28d0008 	add	r0, sp, #8
85210524:	e5934000 	ldr	r4, [r3]
85210528:	e3a03000 	mov	r3, #0
8521052c:	e5203004 	str	r3, [r0, #-4]!
85210530:	eb000108 	bl	85210958 <read_memcfg_from_nvram>
85210534:	e59d1004 	ldr	r1, [sp, #4]
85210538:	e1a00004 	mov	r0, r4
8521053c:	eb000568 	bl	85211ae4 <ddr_init>
85210540:	e2504000 	subs	r4, r0, #0
85210544:	0a000000 	beq	8521054c <ddrInit+0x34>
85210548:	eb0000d8 	bl	852108b0 <stopCfeRom>
8521054c:	e1a00004 	mov	r0, r4
85210550:	e28dd008 	add	sp, sp, #8
85210554:	e8bd8010 	pop	{r4, pc}
85210558:	8520c070 	.word	0x8520c070

8521055c <cfe_main>:
8521055c:	e92d4010 	push	{r4, lr}
85210560:	eb00005b 	bl	852106d4 <bootInit>
85210564:	ebffffeb 	bl	85210518 <ddrInit>
85210568:	e8bd4010 	pop	{r4, lr}
8521056c:	eaffffff 	b	85210570 <boot_media>

85210570 <boot_media>:
85210570:	e92d4010 	push	{r4, lr}
85210574:	e24dd058 	sub	sp, sp, #88	; 0x58
85210578:	e3a02058 	mov	r2, #88	; 0x58
8521057c:	e3a01000 	mov	r1, #0
85210580:	e1a0000d 	mov	r0, sp
85210584:	eb001046 	bl	852146a4 <lib_memset>
85210588:	e3a02014 	mov	r2, #20
8521058c:	e59f1084 	ldr	r1, [pc, #132]	; 85210618 <boot_media+0xa8>
85210590:	e28d002c 	add	r0, sp, #44	; 0x2c
85210594:	eb001001 	bl	852145a0 <lib_strncpy>
85210598:	ebffff9c 	bl	85210410 <bcm_otp_is_boot_secure>
8521059c:	e2504000 	subs	r4, r0, #0
852105a0:	0a000009 	beq	852105cc <boot_media+0x5c>
852105a4:	e3a02014 	mov	r2, #20
852105a8:	e59f106c 	ldr	r1, [pc, #108]	; 8521061c <boot_media+0xac>
852105ac:	e28d002c 	add	r0, sp, #44	; 0x2c
852105b0:	e3a04001 	mov	r4, #1
852105b4:	eb000ff9 	bl	852145a0 <lib_strncpy>
852105b8:	e3a02014 	mov	r2, #20
852105bc:	e59f105c 	ldr	r1, [pc, #92]	; 85210620 <boot_media+0xb0>
852105c0:	e28d0041 	add	r0, sp, #65	; 0x41
852105c4:	eb000ff5 	bl	852145a0 <lib_strncpy>
852105c8:	ea00000b 	b	852105fc <boot_media+0x8c>
852105cc:	ebffffa9 	bl	85210478 <bcm_otp_is_boot_mfg_secure>
852105d0:	e3500000 	cmp	r0, #0
852105d4:	0a000008 	beq	852105fc <boot_media+0x8c>
852105d8:	e3a02014 	mov	r2, #20
852105dc:	e59f1040 	ldr	r1, [pc, #64]	; 85210624 <boot_media+0xb4>
852105e0:	e28d002c 	add	r0, sp, #44	; 0x2c
852105e4:	e3a04002 	mov	r4, #2
852105e8:	eb000fec 	bl	852145a0 <lib_strncpy>
852105ec:	e3a02014 	mov	r2, #20
852105f0:	e59f1030 	ldr	r1, [pc, #48]	; 85210628 <boot_media+0xb8>
852105f4:	e28d0041 	add	r0, sp, #65	; 0x41
852105f8:	eb000fe8 	bl	852145a0 <lib_strncpy>
852105fc:	e1a0000d 	mov	r0, sp
85210600:	e58d4000 	str	r4, [sp]
85210604:	ebfffc37 	bl	8520f6e8 <bootNand>
85210608:	e1a0000d 	mov	r0, sp
8521060c:	ebfffc40 	bl	8520f714 <bootSpiNand>
85210610:	e28dd058 	add	sp, sp, #88	; 0x58
85210614:	e8bd8010 	pop	{r4, pc}
85210618:	8521a68a 	.word	0x8521a68a
8521061c:	8521a695 	.word	0x8521a695
85210620:	8521a6a0 	.word	0x8521a6a0
85210624:	8521a6ab 	.word	0x8521a6ab
85210628:	8521a6b6 	.word	0x8521a6b6

8521062c <clk_init>:
8521062c:	e59f3018 	ldr	r3, [pc, #24]	; 8521064c <clk_init+0x20>
85210630:	e3a00000 	mov	r0, #0
85210634:	e59f2014 	ldr	r2, [pc, #20]	; 85210650 <clk_init+0x24>
85210638:	e5933000 	ldr	r3, [r3]
8521063c:	e2233c02 	eor	r3, r3, #512	; 0x200
85210640:	e7e034d3 	ubfx	r3, r3, #9, #1
85210644:	e5823000 	str	r3, [r2]
85210648:	e12fff1e 	bx	lr
8521064c:	ff802600 	.word	0xff802600
85210650:	8521fccc 	.word	0x8521fccc

85210654 <cfe_usleep>:
85210654:	e92d4070 	push	{r4, r5, r6, lr}
85210658:	e1a05000 	mov	r5, r0
8521065c:	eb000fab 	bl	85214510 <_getticks>
85210660:	e59f303c 	ldr	r3, [pc, #60]	; 852106a4 <cfe_usleep+0x50>
85210664:	e5934000 	ldr	r4, [r3]
85210668:	e3a03e4b 	mov	r3, #1200	; 0x4b0
8521066c:	e0040493 	mul	r4, r3, r4
85210670:	e2844f4b 	add	r4, r4, #300	; 0x12c
85210674:	e0340495 	mlas	r4, r5, r4, r0
85210678:	12444008 	subne	r4, r4, #8
8521067c:	e1540000 	cmp	r4, r0
85210680:	e1a06000 	mov	r6, r0
85210684:	2a000002 	bcs	85210694 <cfe_usleep+0x40>
85210688:	eb000fa0 	bl	85214510 <_getticks>
8521068c:	e1560000 	cmp	r6, r0
85210690:	eafffffb 	b	85210684 <cfe_usleep+0x30>
85210694:	eb000f9d 	bl	85214510 <_getticks>
85210698:	e1540000 	cmp	r4, r0
8521069c:	8afffffc 	bhi	85210694 <cfe_usleep+0x40>
852106a0:	e8bd8070 	pop	{r4, r5, r6, pc}
852106a4:	8521fccc 	.word	0x8521fccc

852106a8 <cfe_get_utime>:
852106a8:	e92d4010 	push	{r4, lr}
852106ac:	eb000f97 	bl	85214510 <_getticks>
852106b0:	e59f3018 	ldr	r3, [pc, #24]	; 852106d0 <cfe_get_utime+0x28>
852106b4:	e5931000 	ldr	r1, [r3]
852106b8:	e3a03e4b 	mov	r3, #1200	; 0x4b0
852106bc:	e0010193 	mul	r1, r3, r1
852106c0:	e2811f4b 	add	r1, r1, #300	; 0x12c
852106c4:	ebfff137 	bl	8520cba8 <__udivsi3>
852106c8:	e3a01000 	mov	r1, #0
852106cc:	e8bd8010 	pop	{r4, pc}
852106d0:	8521fccc 	.word	0x8521fccc

852106d4 <bootInit>:
852106d4:	e92d4013 	push	{r0, r1, r4, lr}
852106d8:	e59f40d0 	ldr	r4, [pc, #208]	; 852107b0 <bootInit+0xdc>
852106dc:	e5943028 	ldr	r3, [r4, #40]	; 0x28
852106e0:	e3530000 	cmp	r3, #0
852106e4:	0584302c 	streq	r3, [r4, #44]	; 0x2c
852106e8:	ebfff2c7 	bl	8520d20c <cfe_sec_init>
852106ec:	e59f20c0 	ldr	r2, [pc, #192]	; 852107b4 <bootInit+0xe0>
852106f0:	e59f30c0 	ldr	r3, [pc, #192]	; 852107b8 <bootInit+0xe4>
852106f4:	e5941000 	ldr	r1, [r4]
852106f8:	e59f00bc 	ldr	r0, [pc, #188]	; 852107bc <bootInit+0xe8>
852106fc:	e5832000 	str	r2, [r3]
85210700:	eb00117a 	bl	85214cf0 <xprintf>
85210704:	ebfffeec 	bl	852102bc <pmc_initmode>
85210708:	e28d0008 	add	r0, sp, #8
8521070c:	e3a03000 	mov	r3, #0
85210710:	e5203004 	str	r3, [r0, #-4]!
85210714:	ebffff75 	bl	852104f0 <bcm_otp_get_ldo_trim>
85210718:	e59d1004 	ldr	r1, [sp, #4]
8521071c:	e3510000 	cmp	r1, #0
85210720:	0a000008 	beq	85210748 <bootInit+0x74>
85210724:	e1a02101 	lsl	r2, r1, #2
85210728:	e59f0090 	ldr	r0, [pc, #144]	; 852107c0 <bootInit+0xec>
8521072c:	e202203c 	and	r2, r2, #60	; 0x3c
85210730:	eb00116e 	bl	85214cf0 <xprintf>
85210734:	e59d3004 	ldr	r3, [sp, #4]
85210738:	e59f2084 	ldr	r2, [pc, #132]	; 852107c4 <bootInit+0xf0>
8521073c:	e1a03103 	lsl	r3, r3, #2
85210740:	e203303c 	and	r3, r3, #60	; 0x3c
85210744:	e5023083 	str	r3, [r2, #-131]	; 0xffffff7d
85210748:	ebffffb7 	bl	8521062c <clk_init>
8521074c:	e59f3074 	ldr	r3, [pc, #116]	; 852107c8 <bootInit+0xf4>
85210750:	e5933000 	ldr	r3, [r3]
85210754:	e3130001 	tst	r3, #1
85210758:	1594302c 	ldrne	r3, [r4, #44]	; 0x2c
8521075c:	13833c01 	orrne	r3, r3, #256	; 0x100
85210760:	1584302c 	strne	r3, [r4, #44]	; 0x2c
85210764:	15943028 	ldrne	r3, [r4, #40]	; 0x28
85210768:	13833001 	orrne	r3, r3, #1
8521076c:	15843028 	strne	r3, [r4, #40]	; 0x28
85210770:	e594302c 	ldr	r3, [r4, #44]	; 0x2c
85210774:	e3c330ff 	bic	r3, r3, #255	; 0xff
85210778:	e3833007 	orr	r3, r3, #7
8521077c:	e584302c 	str	r3, [r4, #44]	; 0x2c
85210780:	e5943028 	ldr	r3, [r4, #40]	; 0x28
85210784:	e3833001 	orr	r3, r3, #1
85210788:	e5843028 	str	r3, [r4, #40]	; 0x28
8521078c:	ebfff819 	bl	8520e7f8 <strap_check_spinand>
85210790:	e3500000 	cmp	r0, #0
85210794:	0a000001 	beq	852107a0 <bootInit+0xcc>
85210798:	ebfffec6 	bl	852102b8 <rom_spi_nand_init>
8521079c:	ea000000 	b	852107a4 <bootInit+0xd0>
852107a0:	ebfff481 	bl	8520d9ac <rom_nand_flash_init>
852107a4:	e3a00000 	mov	r0, #0
852107a8:	e28dd008 	add	sp, sp, #8
852107ac:	e8bd8010 	pop	{r4, pc}
852107b0:	ff802600 	.word	0xff802600
852107b4:	85211f14 	.word	0x85211f14
852107b8:	85220e50 	.word	0x85220e50
852107bc:	8521a6c1 	.word	0x8521a6c1
852107c0:	8521a6dd 	.word	0x8521a6dd
852107c4:	ff85a0ff 	.word	0xff85a0ff
852107c8:	8520c070 	.word	0x8520c070

852107cc <validate_nvram>:
852107cc:	e1a02000 	mov	r2, r0
852107d0:	e3a03b01 	mov	r3, #1024	; 0x400
852107d4:	e92d4070 	push	{r4, r5, r6, lr}
852107d8:	e1a04000 	mov	r4, r0
852107dc:	e3a00000 	mov	r0, #0
852107e0:	ebfff80c 	bl	8520e818 <nand_read_buf>
852107e4:	e5d42001 	ldrb	r2, [r4, #1]
852107e8:	e5d43000 	ldrb	r3, [r4]
852107ec:	e1833402 	orr	r3, r3, r2, lsl #8
852107f0:	e3012985 	movw	r2, #6533	; 0x1985
852107f4:	e1530002 	cmp	r3, r2
852107f8:	0a000029 	beq	852108a4 <validate_nvram+0xd8>
852107fc:	e5d42002 	ldrb	r2, [r4, #2]
85210800:	e1833802 	orr	r3, r3, r2, lsl #16
85210804:	e5d42003 	ldrb	r2, [r4, #3]
85210808:	e1833c02 	orr	r3, r3, r2, lsl #24
8521080c:	e2031cff 	and	r1, r3, #65280	; 0xff00
85210810:	e1a02c23 	lsr	r2, r3, #24
85210814:	e1822c03 	orr	r2, r2, r3, lsl #24
85210818:	e20338ff 	and	r3, r3, #16711680	; 0xff0000
8521081c:	e1822401 	orr	r2, r2, r1, lsl #8
85210820:	e1823423 	orr	r3, r2, r3, lsr #8
85210824:	e59f2080 	ldr	r2, [pc, #128]	; 852108ac <validate_nvram+0xe0>
85210828:	e1530002 	cmp	r3, r2
8521082c:	1a000012 	bne	8521087c <validate_nvram+0xb0>
85210830:	e3e02000 	mvn	r2, #0
85210834:	e3a0103c 	mov	r1, #60	; 0x3c
85210838:	e1a00004 	mov	r0, r4
8521083c:	eb000f9d 	bl	852146b8 <lib_get_crc32>
85210840:	e5d4203d 	ldrb	r2, [r4, #61]	; 0x3d
85210844:	e5d4303c 	ldrb	r3, [r4, #60]	; 0x3c
85210848:	e1833402 	orr	r3, r3, r2, lsl #8
8521084c:	e5d4203e 	ldrb	r2, [r4, #62]	; 0x3e
85210850:	e1833802 	orr	r3, r3, r2, lsl #16
85210854:	e5d4203f 	ldrb	r2, [r4, #63]	; 0x3f
85210858:	e1833c02 	orr	r3, r3, r2, lsl #24
8521085c:	e2031cff 	and	r1, r3, #65280	; 0xff00
85210860:	e1a02c23 	lsr	r2, r3, #24
85210864:	e1822c03 	orr	r2, r2, r3, lsl #24
85210868:	e20338ff 	and	r3, r3, #16711680	; 0xff0000
8521086c:	e1822401 	orr	r2, r2, r1, lsl #8
85210870:	e1823423 	orr	r3, r2, r3, lsr #8
85210874:	e1500003 	cmp	r0, r3
85210878:	0a000009 	beq	852108a4 <validate_nvram+0xd8>
8521087c:	e59453fc 	ldr	r5, [r4, #1020]	; 0x3fc
85210880:	e3a03000 	mov	r3, #0
85210884:	e3e02000 	mvn	r2, #0
85210888:	e58433fc 	str	r3, [r4, #1020]	; 0x3fc
8521088c:	e3a01b01 	mov	r1, #1024	; 0x400
85210890:	e1a00004 	mov	r0, r4
85210894:	eb000f87 	bl	852146b8 <lib_get_crc32>
85210898:	e0550000 	subs	r0, r5, r0
8521089c:	13a00001 	movne	r0, #1
852108a0:	e8bd8070 	pop	{r4, r5, r6, pc}
852108a4:	e3a00002 	mov	r0, #2
852108a8:	e8bd8070 	pop	{r4, r5, r6, pc}
852108ac:	55424923 	.word	0x55424923

852108b0 <stopCfeRom>:
852108b0:	e92d4010 	push	{r4, lr}
852108b4:	eb000f09 	bl	852144e0 <armv7_disable_mmu>
852108b8:	eafffffe 	b	852108b8 <stopCfeRom+0x8>

852108bc <nvram_read>:
852108bc:	e92d4070 	push	{r4, r5, r6, lr}
852108c0:	e1a06000 	mov	r6, r0
852108c4:	e59f1078 	ldr	r1, [pc, #120]	; 85210944 <nvram_read+0x88>
852108c8:	ebffffbf 	bl	852107cc <validate_nvram>
852108cc:	e3500000 	cmp	r0, #0
852108d0:	08bd8070 	popeq	{r4, r5, r6, pc}
852108d4:	e59f006c 	ldr	r0, [pc, #108]	; 85210948 <nvram_read+0x8c>
852108d8:	e59f506c 	ldr	r5, [pc, #108]	; 8521094c <nvram_read+0x90>
852108dc:	eb001103 	bl	85214cf0 <xprintf>
852108e0:	e3a00000 	mov	r0, #0
852108e4:	e1a04000 	mov	r4, r0
852108e8:	e2200001 	eor	r0, r0, #1
852108ec:	e1540005 	cmp	r4, r5
852108f0:	83a00000 	movhi	r0, #0
852108f4:	92000001 	andls	r0, r0, #1
852108f8:	e3500000 	cmp	r0, #0
852108fc:	0a00000f 	beq	85210940 <nvram_read+0x84>
85210900:	e59f0048 	ldr	r0, [pc, #72]	; 85210950 <nvram_read+0x94>
85210904:	eb000f32 	bl	852145d4 <lib_strlen>
85210908:	e0841000 	add	r1, r4, r0
8521090c:	e1a00006 	mov	r0, r6
85210910:	ebffffad 	bl	852107cc <validate_nvram>
85210914:	e3500000 	cmp	r0, #0
85210918:	12400002 	subne	r0, r0, #2
8521091c:	116f0f10 	clzne	r0, r0
85210920:	11a002a0 	lsrne	r0, r0, #5
85210924:	1a000003 	bne	85210938 <nvram_read+0x7c>
85210928:	e1a01004 	mov	r1, r4
8521092c:	e59f0020 	ldr	r0, [pc, #32]	; 85210954 <nvram_read+0x98>
85210930:	eb0010ee 	bl	85214cf0 <xprintf>
85210934:	e3a00001 	mov	r0, #1
85210938:	e2844b01 	add	r4, r4, #1024	; 0x400
8521093c:	eaffffe9 	b	852108e8 <nvram_read+0x2c>
85210940:	e8bd8070 	pop	{r4, r5, r6, pc}
85210944:	00010580 	.word	0x00010580
85210948:	8521a71d 	.word	0x8521a71d
8521094c:	013fffff 	.word	0x013fffff
85210950:	8521a75a 	.word	0x8521a75a
85210954:	8521a763 	.word	0x8521a763

85210958 <read_memcfg_from_nvram>:
85210958:	e92d42f0 	push	{r4, r5, r6, r7, r9, lr}
8521095c:	e3e03000 	mvn	r3, #0
85210960:	e59f40ac 	ldr	r4, [pc, #172]	; 85210a14 <read_memcfg_from_nvram+0xbc>
85210964:	e1a05000 	mov	r5, r0
85210968:	e5803000 	str	r3, [r0]
8521096c:	e59f10a4 	ldr	r1, [pc, #164]	; 85210a18 <read_memcfg_from_nvram+0xc0>
85210970:	e1a00004 	mov	r0, r4
85210974:	ebffff94 	bl	852107cc <validate_nvram>
85210978:	e3500000 	cmp	r0, #0
8521097c:	1a000002 	bne	8521098c <read_memcfg_from_nvram+0x34>
85210980:	e59432dc 	ldr	r3, [r4, #732]	; 0x2dc
85210984:	e5853000 	str	r3, [r5]
85210988:	e8bd82f0 	pop	{r4, r5, r6, r7, r9, pc}
8521098c:	e59f0088 	ldr	r0, [pc, #136]	; 85210a1c <read_memcfg_from_nvram+0xc4>
85210990:	e59f6088 	ldr	r6, [pc, #136]	; 85210a20 <read_memcfg_from_nvram+0xc8>
85210994:	eb0010d5 	bl	85214cf0 <xprintf>
85210998:	e3a00000 	mov	r0, #0
8521099c:	e1a04000 	mov	r4, r0
852109a0:	e2200001 	eor	r0, r0, #1
852109a4:	e1540006 	cmp	r4, r6
852109a8:	83a00000 	movhi	r0, #0
852109ac:	92000001 	andls	r0, r0, #1
852109b0:	e3500000 	cmp	r0, #0
852109b4:	0a000015 	beq	85210a10 <read_memcfg_from_nvram+0xb8>
852109b8:	e59f0064 	ldr	r0, [pc, #100]	; 85210a24 <read_memcfg_from_nvram+0xcc>
852109bc:	eb000f04 	bl	852145d4 <lib_strlen>
852109c0:	e59f704c 	ldr	r7, [pc, #76]	; 85210a14 <read_memcfg_from_nvram+0xbc>
852109c4:	e3e03000 	mvn	r3, #0
852109c8:	e5853000 	str	r3, [r5]
852109cc:	e0841000 	add	r1, r4, r0
852109d0:	e1a00007 	mov	r0, r7
852109d4:	ebffff7c 	bl	852107cc <validate_nvram>
852109d8:	e3500000 	cmp	r0, #0
852109dc:	1a000006 	bne	852109fc <read_memcfg_from_nvram+0xa4>
852109e0:	e59732dc 	ldr	r3, [r7, #732]	; 0x2dc
852109e4:	e1a01004 	mov	r1, r4
852109e8:	e59f0038 	ldr	r0, [pc, #56]	; 85210a28 <read_memcfg_from_nvram+0xd0>
852109ec:	e5853000 	str	r3, [r5]
852109f0:	eb0010be 	bl	85214cf0 <xprintf>
852109f4:	e3a00001 	mov	r0, #1
852109f8:	ea000002 	b	85210a08 <read_memcfg_from_nvram+0xb0>
852109fc:	e2400002 	sub	r0, r0, #2
85210a00:	e16f0f10 	clz	r0, r0
85210a04:	e1a002a0 	lsr	r0, r0, #5
85210a08:	e2844b01 	add	r4, r4, #1024	; 0x400
85210a0c:	eaffffe3 	b	852109a0 <read_memcfg_from_nvram+0x48>
85210a10:	e8bd82f0 	pop	{r4, r5, r6, r7, r9, pc}
85210a14:	8521fcd0 	.word	0x8521fcd0
85210a18:	00010580 	.word	0x00010580
85210a1c:	8521a71d 	.word	0x8521a71d
85210a20:	013fffff 	.word	0x013fffff
85210a24:	8521a75a 	.word	0x8521a75a
85210a28:	8521a763 	.word	0x8521a763

85210a2c <board_earlyinit>:
85210a2c:	e59f0038 	ldr	r0, [pc, #56]	; 85210a6c <board_earlyinit+0x40>
85210a30:	ee0e0f10 	mcr	15, 0, r0, cr14, cr0, {0}
85210a34:	e59f0034 	ldr	r0, [pc, #52]	; 85210a70 <board_earlyinit+0x44>
85210a38:	e2800a01 	add	r0, r0, #4096	; 0x1000
85210a3c:	e3a01001 	mov	r1, #1
85210a40:	e5801000 	str	r1, [r0]
85210a44:	e5901000 	ldr	r1, [r0]
85210a48:	e59f0024 	ldr	r0, [pc, #36]	; 85210a74 <board_earlyinit+0x48>
85210a4c:	e5901d00 	ldr	r1, [r0, #3328]	; 0xd00
85210a50:	e3811020 	orr	r1, r1, #32
85210a54:	e5801d00 	str	r1, [r0, #3328]	; 0xd00
85210a58:	e59f0010 	ldr	r0, [pc, #16]	; 85210a70 <board_earlyinit+0x44>
85210a5c:	e5901300 	ldr	r1, [r0, #768]	; 0x300
85210a60:	e3811033 	orr	r1, r1, #51	; 0x33
85210a64:	e5801300 	str	r1, [r0, #768]	; 0x300
85210a68:	e1a0f00e 	mov	pc, lr
85210a6c:	02faf080 	.word	0x02faf080
85210a70:	81060000 	.word	0x81060000
85210a74:	83020000 	.word	0x83020000

85210a78 <board_deinit>:
85210a78:	e59f000c 	ldr	r0, [pc, #12]	; 85210a8c <board_deinit+0x14>
85210a7c:	e5901d00 	ldr	r1, [r0, #3328]	; 0xd00
85210a80:	e3c11020 	bic	r1, r1, #32
85210a84:	e5801d00 	str	r1, [r0, #3328]	; 0xd00
85210a88:	e1a0f00e 	mov	pc, lr
85210a8c:	83020000 	.word	0x83020000

85210a90 <chek_abort_key>:
85210a90:	e1a0c00e 	mov	ip, lr
85210a94:	e3a04000 	mov	r4, #0
85210a98:	ebffffff 	bl	85210a9c <chek_abort_key+0xc>
85210a9c:	e320f000 	nop	{0}
85210aa0:	e59fd160 	ldr	sp, [pc, #352]	; 85210c08 <end_loop+0xc>
85210aa4:	e04ee00d 	sub	lr, lr, sp
85210aa8:	e59fd15c 	ldr	sp, [pc, #348]	; 85210c0c <end_loop+0x10>
85210aac:	e08dd00e 	add	sp, sp, lr
85210ab0:	e12fff3d 	blx	sp
85210ab4:	e3500061 	cmp	r0, #97	; 0x61
85210ab8:	1a00004f 	bne	85210bfc <end_loop>

85210abc <print_msg>:
85210abc:	ebffffff 	bl	85210ac0 <print_msg+0x4>
85210ac0:	e320f000 	nop	{0}
85210ac4:	e59f0144 	ldr	r0, [pc, #324]	; 85210c10 <end_loop+0x14>
85210ac8:	e04ee000 	sub	lr, lr, r0
85210acc:	e59f0140 	ldr	r0, [pc, #320]	; 85210c14 <end_loop+0x18>
85210ad0:	e080000e 	add	r0, r0, lr
85210ad4:	ebffffff 	bl	85210ad8 <print_msg+0x1c>
85210ad8:	e320f000 	nop	{0}
85210adc:	e59fd134 	ldr	sp, [pc, #308]	; 85210c18 <end_loop+0x1c>
85210ae0:	e04ee00d 	sub	lr, lr, sp
85210ae4:	e59fd130 	ldr	sp, [pc, #304]	; 85210c1c <end_loop+0x20>
85210ae8:	e08dd00e 	add	sp, sp, lr
85210aec:	e12fff3d 	blx	sp

85210af0 <start_loop>:
85210af0:	ebffffff 	bl	85210af4 <start_loop+0x4>
85210af4:	e320f000 	nop	{0}
85210af8:	e59fd120 	ldr	sp, [pc, #288]	; 85210c20 <end_loop+0x24>
85210afc:	e04ee00d 	sub	lr, lr, sp
85210b00:	e59fd104 	ldr	sp, [pc, #260]	; 85210c0c <end_loop+0x10>
85210b04:	e08dd00e 	add	sp, sp, lr
85210b08:	e12fff3d 	blx	sp
85210b0c:	e3500063 	cmp	r0, #99	; 0x63
85210b10:	0a000039 	beq	85210bfc <end_loop>
85210b14:	e3500030 	cmp	r0, #48	; 0x30
85210b18:	0a000012 	beq	85210b68 <starthex>
85210b1c:	e3500069 	cmp	r0, #105	; 0x69
85210b20:	0a000031 	beq	85210bec <imgsel>
85210b24:	e3500073 	cmp	r0, #115	; 0x73
85210b28:	1a000032 	bne	85210bf8 <checkx>

85210b2c <safemode>:
85210b2c:	ebffffff 	bl	85210b30 <safemode+0x4>
85210b30:	e320f000 	nop	{0}
85210b34:	e59f00e8 	ldr	r0, [pc, #232]	; 85210c24 <end_loop+0x28>
85210b38:	e04ee000 	sub	lr, lr, r0
85210b3c:	e59f00e4 	ldr	r0, [pc, #228]	; 85210c28 <end_loop+0x2c>
85210b40:	e080000e 	add	r0, r0, lr
85210b44:	ebffffff 	bl	85210b48 <safemode+0x1c>
85210b48:	e320f000 	nop	{0}
85210b4c:	e59fd0d8 	ldr	sp, [pc, #216]	; 85210c2c <end_loop+0x30>
85210b50:	e04ee00d 	sub	lr, lr, sp
85210b54:	e59fd0c0 	ldr	sp, [pc, #192]	; 85210c1c <end_loop+0x20>
85210b58:	e08dd00e 	add	sp, sp, lr
85210b5c:	e12fff3d 	blx	sp
85210b60:	e3844001 	orr	r4, r4, #1
85210b64:	ea000024 	b	85210bfc <end_loop>

85210b68 <starthex>:
85210b68:	ebffffff 	bl	85210b6c <starthex+0x4>
85210b6c:	e320f000 	nop	{0}
85210b70:	e59fd0b8 	ldr	sp, [pc, #184]	; 85210c30 <end_loop+0x34>
85210b74:	e04ee00d 	sub	lr, lr, sp
85210b78:	e59fd08c 	ldr	sp, [pc, #140]	; 85210c0c <end_loop+0x10>
85210b7c:	e08dd00e 	add	sp, sp, lr
85210b80:	e12fff3d 	blx	sp
85210b84:	e350000a 	cmp	r0, #10
85210b88:	0a000012 	beq	85210bd8 <endhex>
85210b8c:	e350000d 	cmp	r0, #13
85210b90:	0a000010 	beq	85210bd8 <endhex>
85210b94:	e1a01220 	lsr	r1, r0, #4
85210b98:	e7df021f 	bfc	r0, #4, #28
85210b9c:	e3510006 	cmp	r1, #6
85210ba0:	0a000004 	beq	85210bb8 <hexlet>
85210ba4:	e3510004 	cmp	r1, #4
85210ba8:	0a000002 	beq	85210bb8 <hexlet>
85210bac:	e3510003 	cmp	r1, #3
85210bb0:	0a000004 	beq	85210bc8 <hexnum>
85210bb4:	eaffffeb 	b	85210b68 <starthex>

85210bb8 <hexlet>:
85210bb8:	e3500006 	cmp	r0, #6
85210bbc:	caffffe9 	bgt	85210b68 <starthex>
85210bc0:	e2800009 	add	r0, r0, #9
85210bc4:	ea000001 	b	85210bd0 <hexpack>

85210bc8 <hexnum>:
85210bc8:	e3500009 	cmp	r0, #9
85210bcc:	caffffe5 	bgt	85210b68 <starthex>

85210bd0 <hexpack>:
85210bd0:	e1804204 	orr	r4, r0, r4, lsl #4
85210bd4:	eaffffe3 	b	85210b68 <starthex>

85210bd8 <endhex>:
85210bd8:	e3540000 	cmp	r4, #0
85210bdc:	0affffd2 	beq	85210b2c <safemode>
85210be0:	e3a02001 	mov	r2, #1
85210be4:	e1844f82 	orr	r4, r4, r2, lsl #31
85210be8:	ea000003 	b	85210bfc <end_loop>

85210bec <imgsel>:
85210bec:	e3a02001 	mov	r2, #1
85210bf0:	e1844e82 	orr	r4, r4, r2, lsl #29
85210bf4:	ea000000 	b	85210bfc <end_loop>

85210bf8 <checkx>:
85210bf8:	eaffffbc 	b	85210af0 <start_loop>

85210bfc <end_loop>:
85210bfc:	e1a00004 	mov	r0, r4
85210c00:	e1a0e00c 	mov	lr, ip
85210c04:	e1a0f00e 	mov	pc, lr
85210c08:	85210a9c 	.word	0x85210a9c
85210c0c:	85211f88 	.word	0x85211f88
85210c10:	85210ac0 	.word	0x85210ac0
85210c14:	85210c34 	.word	0x85210c34
85210c18:	85210ad8 	.word	0x85210ad8
85210c1c:	85211f14 	.word	0x85211f14
85210c20:	85210af4 	.word	0x85210af4
85210c24:	85210b30 	.word	0x85210b30
85210c28:	85210cd0 	.word	0x85210cd0
85210c2c:	85210b48 	.word	0x85210b48
85210c30:	85210b6c 	.word	0x85210b6c

85210c34 <print_options>:
85210c34:	4546430a 	.word	0x4546430a
85210c38:	4d4f522d 	.word	0x4d4f522d
85210c3c:	53415720 	.word	0x53415720
85210c40:	4f424120 	.word	0x4f424120
85210c44:	44455452 	.word	0x44455452
85210c48:	74704f0a 	.word	0x74704f0a
85210c4c:	736e6f69 	.word	0x736e6f69
85210c50:	63200a3a 	.word	0x63200a3a
85210c54:	63202d20 	.word	0x63202d20
85210c58:	69746e6f 	.word	0x69746e6f
85210c5c:	0a65756e 	.word	0x0a65756e
85210c60:	2d207320 	.word	0x2d207320
85210c64:	52444420 	.word	0x52444420
85210c68:	66617320 	.word	0x66617320
85210c6c:	6f6d2065 	.word	0x6f6d2065
85210c70:	200a6564 	.word	0x200a6564
85210c74:	202d2069 	.word	0x202d2069
85210c78:	746f6f62 	.word	0x746f6f62
85210c7c:	6f726620 	.word	0x6f726620
85210c80:	746f206d 	.word	0x746f206d
85210c84:	20726568 	.word	0x20726568
85210c88:	67616d69 	.word	0x67616d69
85210c8c:	30200a65 	.word	0x30200a65
85210c90:	66202d20 	.word	0x66202d20
85210c94:	6f6c6c6f 	.word	0x6f6c6c6f
85210c98:	20646577 	.word	0x20646577
85210c9c:	68207962 	.word	0x68207962
85210ca0:	6e207865 	.word	0x6e207865
85210ca4:	65626d75 	.word	0x65626d75
85210ca8:	74207372 	.word	0x74207372
85210cac:	6573206f 	.word	0x6573206f
85210cb0:	7463656c 	.word	0x7463656c
85210cb4:	42434d20 	.word	0x42434d20
85210cb8:	5243203b 	.word	0x5243203b
85210cbc:	204c4e2f 	.word	0x204c4e2f
85210cc0:	63206f74 	.word	0x63206f74
85210cc4:	69746e6f 	.word	0x69746e6f
85210cc8:	0a65756e 	.word	0x0a65756e
85210ccc:	000a      	.short	0x000a
	...

85210cd0 <print_ddr_safemode>:
85210cd0:	6e697375 	.word	0x6e697375
85210cd4:	44442067 	.word	0x44442067
85210cd8:	61732052 	.word	0x61732052
85210cdc:	6d206566 	.word	0x6d206566
85210ce0:	0a65646f 	.word	0x0a65646f
85210ce4:	00          	.byte	0x00
85210ce5:	00          	.byte	0x00
	...

85210ce8 <refresh_ctrl_cfg>:
85210ce8:	e92d4030 	push	{r4, r5, lr}
85210cec:	e3014c84 	movw	r4, #7300	; 0x1c84
85210cf0:	e0040094 	mul	r4, r4, r0
85210cf4:	e59f0020 	ldr	r0, [pc, #32]	; 85210d1c <refresh_ctrl_cfg+0x34>
85210cf8:	e3510000 	cmp	r1, #0
85210cfc:	e1a02f82 	lsl	r2, r2, #31
85210d00:	e0854094 	umull	r4, r5, r4, r0
85210d04:	11a03625 	lsrne	r3, r5, #12
85210d08:	01a035a5 	lsreq	r3, r5, #11
85210d0c:	e1822403 	orr	r2, r2, r3, lsl #8
85210d10:	e59f3008 	ldr	r3, [pc, #8]	; 85210d20 <refresh_ctrl_cfg+0x38>
85210d14:	e583220c 	str	r2, [r3, #524]	; 0x20c
85210d18:	e8bd8030 	pop	{r4, r5, pc}
85210d1c:	10624dd3 	.word	0x10624dd3
85210d20:	80180000 	.word	0x80180000

85210d24 <disable_dram_refresh>:
85210d24:	e59f3018 	ldr	r3, [pc, #24]	; 85210d44 <disable_dram_refresh+0x20>
85210d28:	e3a02001 	mov	r2, #1
85210d2c:	e92d4010 	push	{r4, lr}
85210d30:	e5930004 	ldr	r0, [r3, #4]
85210d34:	e5931050 	ldr	r1, [r3, #80]	; 0x50
85210d38:	ebffffea 	bl	85210ce8 <refresh_ctrl_cfg>
85210d3c:	e3a00000 	mov	r0, #0
85210d40:	e8bd8010 	pop	{r4, pc}
85210d44:	852203ec 	.word	0x852203ec

85210d48 <enable_dram_refresh>:
85210d48:	e59f3018 	ldr	r3, [pc, #24]	; 85210d68 <enable_dram_refresh+0x20>
85210d4c:	e3a02000 	mov	r2, #0
85210d50:	e92d4010 	push	{r4, lr}
85210d54:	e5930004 	ldr	r0, [r3, #4]
85210d58:	e5931050 	ldr	r1, [r3, #80]	; 0x50
85210d5c:	ebffffe1 	bl	85210ce8 <refresh_ctrl_cfg>
85210d60:	e3a00000 	mov	r0, #0
85210d64:	e8bd8010 	pop	{r4, pc}
85210d68:	852203ec 	.word	0x852203ec

85210d6c <memsys_end>:
85210d6c:	e92d4070 	push	{r4, r5, r6, lr}
85210d70:	e59f5094 	ldr	r5, [pc, #148]	; 85210e0c <memsys_end+0xa0>
85210d74:	e59f0094 	ldr	r0, [pc, #148]	; 85210e10 <memsys_end+0xa4>
85210d78:	eb000fdc 	bl	85214cf0 <xprintf>
85210d7c:	e59f1090 	ldr	r1, [pc, #144]	; 85210e14 <memsys_end+0xa8>
85210d80:	e5954004 	ldr	r4, [r5, #4]
85210d84:	e59f008c 	ldr	r0, [pc, #140]	; 85210e18 <memsys_end+0xac>
85210d88:	e3c44205 	bic	r4, r4, #1342177280	; 0x50000000
85210d8c:	e1a02004 	mov	r2, r4
85210d90:	eb000fd6 	bl	85214cf0 <xprintf>
85210d94:	e59f3080 	ldr	r3, [pc, #128]	; 85210e1c <memsys_end+0xb0>
85210d98:	e5854004 	str	r4, [r5, #4]
85210d9c:	e3a01000 	mov	r1, #0
85210da0:	e5933000 	ldr	r3, [r3]
85210da4:	e3530000 	cmp	r3, #0
85210da8:	e59f3070 	ldr	r3, [pc, #112]	; 85210e20 <memsys_end+0xb4>
85210dac:	13a02b01 	movne	r2, #1024	; 0x400
85210db0:	1583202c 	strne	r2, [r3, #44]	; 0x2c
85210db4:	e593302c 	ldr	r3, [r3, #44]	; 0x2c
85210db8:	e1a031a3 	lsr	r3, r3, #3
85210dbc:	e3530000 	cmp	r3, #0
85210dc0:	0a000002 	beq	85210dd0 <memsys_end+0x64>
85210dc4:	e1b030a3 	lsrs	r3, r3, #1
85210dc8:	12811001 	addne	r1, r1, #1
85210dcc:	1afffffa 	bne	85210dbc <memsys_end+0x50>
85210dd0:	e59f3034 	ldr	r3, [pc, #52]	; 85210e0c <memsys_end+0xa0>
85210dd4:	e59f003c 	ldr	r0, [pc, #60]	; 85210e18 <memsys_end+0xac>
85210dd8:	e5932010 	ldr	r2, [r3, #16]
85210ddc:	e3c2200f 	bic	r2, r2, #15
85210de0:	e5832010 	str	r2, [r3, #16]
85210de4:	e5932010 	ldr	r2, [r3, #16]
85210de8:	e1812002 	orr	r2, r1, r2
85210dec:	e59f1030 	ldr	r1, [pc, #48]	; 85210e24 <memsys_end+0xb8>
85210df0:	e5832010 	str	r2, [r3, #16]
85210df4:	e5932010 	ldr	r2, [r3, #16]
85210df8:	eb000fbc 	bl	85214cf0 <xprintf>
85210dfc:	e59f0024 	ldr	r0, [pc, #36]	; 85210e28 <memsys_end+0xbc>
85210e00:	eb000fba 	bl	85214cf0 <xprintf>
85210e04:	e3a00000 	mov	r0, #0
85210e08:	e8bd8070 	pop	{r4, r5, r6, pc}
85210e0c:	80180000 	.word	0x80180000
85210e10:	8521a783 	.word	0x8521a783
85210e14:	80180004 	.word	0x80180004
85210e18:	8521a799 	.word	0x8521a799
85210e1c:	852203e4 	.word	0x852203e4
85210e20:	852203ec 	.word	0x852203ec
85210e24:	80180010 	.word	0x80180010
85210e28:	8521a7ad 	.word	0x8521a7ad

85210e2c <pre_shmoo>:
85210e2c:	e92d4070 	push	{r4, r5, r6, lr}
85210e30:	e59f5034 	ldr	r5, [pc, #52]	; 85210e6c <pre_shmoo+0x40>
85210e34:	e59f0034 	ldr	r0, [pc, #52]	; 85210e70 <pre_shmoo+0x44>
85210e38:	eb000fac 	bl	85214cf0 <xprintf>
85210e3c:	e59f1030 	ldr	r1, [pc, #48]	; 85210e74 <pre_shmoo+0x48>
85210e40:	e5954004 	ldr	r4, [r5, #4]
85210e44:	e59f002c 	ldr	r0, [pc, #44]	; 85210e78 <pre_shmoo+0x4c>
85210e48:	e3844103 	orr	r4, r4, #-1073741824	; 0xc0000000
85210e4c:	e3844c01 	orr	r4, r4, #256	; 0x100
85210e50:	e1a02004 	mov	r2, r4
85210e54:	eb000fa5 	bl	85214cf0 <xprintf>
85210e58:	e5854004 	str	r4, [r5, #4]
85210e5c:	e59f0018 	ldr	r0, [pc, #24]	; 85210e7c <pre_shmoo+0x50>
85210e60:	eb000fa2 	bl	85214cf0 <xprintf>
85210e64:	e3a00000 	mov	r0, #0
85210e68:	e8bd8070 	pop	{r4, r5, r6, pc}
85210e6c:	80180000 	.word	0x80180000
85210e70:	8521a7c1 	.word	0x8521a7c1
85210e74:	80180004 	.word	0x80180004
85210e78:	8521a799 	.word	0x8521a799
85210e7c:	8521a7d6 	.word	0x8521a7d6

85210e80 <memc_init>:
85210e80:	e92d4ef0 	push	{r4, r5, r6, r7, r9, sl, fp, lr}
85210e84:	e24dd030 	sub	sp, sp, #48	; 0x30
85210e88:	e59f63c0 	ldr	r6, [pc, #960]	; 85211250 <memc_init+0x3d0>
85210e8c:	e59f03c0 	ldr	r0, [pc, #960]	; 85211254 <memc_init+0x3d4>
85210e90:	eb000f96 	bl	85214cf0 <xprintf>
85210e94:	e59f13bc 	ldr	r1, [pc, #956]	; 85211258 <memc_init+0x3d8>
85210e98:	e5964004 	ldr	r4, [r6, #4]
85210e9c:	e59f03b8 	ldr	r0, [pc, #952]	; 8521125c <memc_init+0x3dc>
85210ea0:	e3c44403 	bic	r4, r4, #50331648	; 0x3000000
85210ea4:	e3844401 	orr	r4, r4, #16777216	; 0x1000000
85210ea8:	e3844c06 	orr	r4, r4, #1536	; 0x600
85210eac:	e1a02004 	mov	r2, r4
85210eb0:	eb000f8e 	bl	85214cf0 <xprintf>
85210eb4:	e5864004 	str	r4, [r6, #4]
85210eb8:	e59f43a0 	ldr	r4, [pc, #928]	; 85211260 <memc_init+0x3e0>
85210ebc:	e5963234 	ldr	r3, [r6, #564]	; 0x234
85210ec0:	e59f139c 	ldr	r1, [pc, #924]	; 85211264 <memc_init+0x3e4>
85210ec4:	e5945044 	ldr	r5, [r4, #68]	; 0x44
85210ec8:	e3c33b01 	bic	r3, r3, #1024	; 0x400
85210ecc:	e3c3300f 	bic	r3, r3, #15
85210ed0:	e59f0384 	ldr	r0, [pc, #900]	; 8521125c <memc_init+0x3dc>
85210ed4:	e2055001 	and	r5, r5, #1
85210ed8:	e3833001 	orr	r3, r3, #1
85210edc:	e1833505 	orr	r3, r3, r5, lsl #10
85210ee0:	e5945048 	ldr	r5, [r4, #72]	; 0x48
85210ee4:	e3c33a01 	bic	r3, r3, #4096	; 0x1000
85210ee8:	e2055001 	and	r5, r5, #1
85210eec:	e1835605 	orr	r5, r3, r5, lsl #12
85210ef0:	e1a02005 	mov	r2, r5
85210ef4:	eb000f7d 	bl	85214cf0 <xprintf>
85210ef8:	e5865234 	str	r5, [r6, #564]	; 0x234
85210efc:	e59f0364 	ldr	r0, [pc, #868]	; 85211268 <memc_init+0x3e8>
85210f00:	eb000f7a 	bl	85214cf0 <xprintf>
85210f04:	e3a02000 	mov	r2, #0
85210f08:	e5941050 	ldr	r1, [r4, #80]	; 0x50
85210f0c:	e5940004 	ldr	r0, [r4, #4]
85210f10:	ebffff74 	bl	85210ce8 <refresh_ctrl_cfg>
85210f14:	e59fe350 	ldr	lr, [pc, #848]	; 8521126c <memc_init+0x3ec>
85210f18:	e28dc00c 	add	ip, sp, #12
85210f1c:	e8be000f 	ldm	lr!, {r0, r1, r2, r3}
85210f20:	e8ac000f 	stmia	ip!, {r0, r1, r2, r3}
85210f24:	e8be000f 	ldm	lr!, {r0, r1, r2, r3}
85210f28:	e8ac000f 	stmia	ip!, {r0, r1, r2, r3}
85210f2c:	e5941034 	ldr	r1, [r4, #52]	; 0x34
85210f30:	e59e3000 	ldr	r3, [lr]
85210f34:	e3510008 	cmp	r1, #8
85210f38:	e58c3000 	str	r3, [ip]
85210f3c:	0594604c 	ldreq	r6, [r4, #76]	; 0x4c
85210f40:	02466001 	subeq	r6, r6, #1
85210f44:	016f6f16 	clzeq	r6, r6
85210f48:	01a062a6 	lsreq	r6, r6, #5
85210f4c:	0a000010 	beq	85210f94 <memc_init+0x114>
85210f50:	e3510010 	cmp	r1, #16
85210f54:	1a000004 	bne	85210f6c <memc_init+0xec>
85210f58:	e594304c 	ldr	r3, [r4, #76]	; 0x4c
85210f5c:	e3530001 	cmp	r3, #1
85210f60:	03a06003 	moveq	r6, #3
85210f64:	13a06002 	movne	r6, #2
85210f68:	ea000009 	b	85210f94 <memc_init+0x114>
85210f6c:	e3510020 	cmp	r1, #32
85210f70:	1a000004 	bne	85210f88 <memc_init+0x108>
85210f74:	e594304c 	ldr	r3, [r4, #76]	; 0x4c
85210f78:	e3530001 	cmp	r3, #1
85210f7c:	03a06005 	moveq	r6, #5
85210f80:	13a06004 	movne	r6, #4
85210f84:	ea000002 	b	85210f94 <memc_init+0x114>
85210f88:	e59f02e0 	ldr	r0, [pc, #736]	; 85211270 <memc_init+0x3f0>
85210f8c:	eb000f57 	bl	85214cf0 <xprintf>
85210f90:	ea000048 	b	852110b8 <memc_init+0x238>
85210f94:	e594301c 	ldr	r3, [r4, #28]
85210f98:	e3a05000 	mov	r5, #0
85210f9c:	e353000c 	cmp	r3, #12
85210fa0:	02866006 	addeq	r6, r6, #6
85210fa4:	e3550000 	cmp	r5, #0
85210fa8:	0594a018 	ldreq	sl, [r4, #24]
85210fac:	01a07005 	moveq	r7, r5
85210fb0:	01a0b005 	moveq	fp, r5
85210fb4:	0a000008 	beq	85210fdc <memc_init+0x15c>
85210fb8:	e3550004 	cmp	r5, #4
85210fbc:	0594a01c 	ldreq	sl, [r4, #28]
85210fc0:	03a07000 	moveq	r7, #0
85210fc4:	03a0b001 	moveq	fp, #1
85210fc8:	0a000003 	beq	85210fdc <memc_init+0x15c>
85210fcc:	e3550008 	cmp	r5, #8
85210fd0:	0594a020 	ldreq	sl, [r4, #32]
85210fd4:	03a07000 	moveq	r7, #0
85210fd8:	03a0b002 	moveq	fp, #2
85210fdc:	e0862086 	add	r2, r6, r6, lsl #1
85210fe0:	e3a03000 	mov	r3, #0
85210fe4:	e082200b 	add	r2, r2, fp
85210fe8:	e1a01003 	mov	r1, r3
85210fec:	e1a09003 	mov	r9, r3
85210ff0:	e1a02202 	lsl	r2, r2, #4
85210ff4:	e157000a 	cmp	r7, sl
85210ff8:	30821007 	addcc	r1, r2, r7
85210ffc:	32877001 	addcc	r7, r7, #1
85211000:	359f026c 	ldrcc	r0, [pc, #620]	; 85211274 <memc_init+0x3f4>
85211004:	37901101 	ldrcc	r1, [r0, r1, lsl #2]
85211008:	30899311 	addcc	r9, r9, r1, lsl r3
8521100c:	e2833008 	add	r3, r3, #8
85211010:	33a01001 	movcc	r1, #1
85211014:	e3530020 	cmp	r3, #32
85211018:	1afffff5 	bne	85210ff4 <memc_init+0x174>
8521101c:	e3510000 	cmp	r1, #0
85211020:	0a000008 	beq	85211048 <memc_init+0x1c8>
85211024:	e28d300c 	add	r3, sp, #12
85211028:	e1a02009 	mov	r2, r9
8521102c:	e59f0228 	ldr	r0, [pc, #552]	; 8521125c <memc_init+0x3dc>
85211030:	e7933105 	ldr	r3, [r3, r5, lsl #2]
85211034:	e1a01003 	mov	r1, r3
85211038:	e58d3004 	str	r3, [sp, #4]
8521103c:	eb000f2b 	bl	85214cf0 <xprintf>
85211040:	e59d3004 	ldr	r3, [sp, #4]
85211044:	e5839000 	str	r9, [r3]
85211048:	e2855001 	add	r5, r5, #1
8521104c:	e3550009 	cmp	r5, #9
85211050:	1affffd3 	bne	85210fa4 <memc_init+0x124>
85211054:	e594505c 	ldr	r5, [r4, #92]	; 0x5c
85211058:	e59f61f0 	ldr	r6, [pc, #496]	; 85211250 <memc_init+0x3d0>
8521105c:	e59f0214 	ldr	r0, [pc, #532]	; 85211278 <memc_init+0x3f8>
85211060:	e1a05805 	lsl	r5, r5, #16
85211064:	e2055803 	and	r5, r5, #196608	; 0x30000
85211068:	e1a01005 	mov	r1, r5
8521106c:	eb000f1f 	bl	85214cf0 <xprintf>
85211070:	e1a02005 	mov	r2, r5
85211074:	e59f1200 	ldr	r1, [pc, #512]	; 8521127c <memc_init+0x3fc>
85211078:	e59f01dc 	ldr	r0, [pc, #476]	; 8521125c <memc_init+0x3dc>
8521107c:	eb000f1b 	bl	85214cf0 <xprintf>
85211080:	e5865100 	str	r5, [r6, #256]	; 0x100
85211084:	e5943058 	ldr	r3, [r4, #88]	; 0x58
85211088:	e3530000 	cmp	r3, #0
8521108c:	0a000009 	beq	852110b8 <memc_init+0x238>
85211090:	e59f31c8 	ldr	r3, [pc, #456]	; 85211260 <memc_init+0x3e0>
85211094:	e59f01e4 	ldr	r0, [pc, #484]	; 85211280 <memc_init+0x400>
85211098:	e5935060 	ldr	r5, [r3, #96]	; 0x60
8521109c:	e1a01005 	mov	r1, r5
852110a0:	eb000f12 	bl	85214cf0 <xprintf>
852110a4:	e1a02005 	mov	r2, r5
852110a8:	e59f11d4 	ldr	r1, [pc, #468]	; 85211284 <memc_init+0x404>
852110ac:	e59f01a8 	ldr	r0, [pc, #424]	; 8521125c <memc_init+0x3dc>
852110b0:	eb000f0e 	bl	85214cf0 <xprintf>
852110b4:	e5865104 	str	r5, [r6, #260]	; 0x104
852110b8:	e59f01c8 	ldr	r0, [pc, #456]	; 85211288 <memc_init+0x408>
852110bc:	eb000f0b 	bl	85214cf0 <xprintf>
852110c0:	e59420b4 	ldr	r2, [r4, #180]	; 0xb4
852110c4:	e59f5194 	ldr	r5, [pc, #404]	; 85211260 <memc_init+0x3e0>
852110c8:	e3520000 	cmp	r2, #0
852110cc:	0a000005 	beq	852110e8 <memc_init+0x268>
852110d0:	e5953070 	ldr	r3, [r5, #112]	; 0x70
852110d4:	e59f01b0 	ldr	r0, [pc, #432]	; 8521128c <memc_init+0x40c>
852110d8:	e0626003 	rsb	r6, r2, r3
852110dc:	e1a01006 	mov	r1, r6
852110e0:	eb000f02 	bl	85214cf0 <xprintf>
852110e4:	e58560b4 	str	r6, [r5, #180]	; 0xb4
852110e8:	e5942068 	ldr	r2, [r4, #104]	; 0x68
852110ec:	e5d43074 	ldrb	r3, [r4, #116]	; 0x74
852110f0:	e5947078 	ldr	r7, [r4, #120]	; 0x78
852110f4:	e1832c02 	orr	r2, r3, r2, lsl #24
852110f8:	e594306c 	ldr	r3, [r4, #108]	; 0x6c
852110fc:	e5946088 	ldr	r6, [r4, #136]	; 0x88
85211100:	e5945094 	ldr	r5, [r4, #148]	; 0x94
85211104:	e1a03803 	lsl	r3, r3, #16
85211108:	e59410b8 	ldr	r1, [r4, #184]	; 0xb8
8521110c:	e20338ff 	and	r3, r3, #16711680	; 0xff0000
85211110:	e59f0178 	ldr	r0, [pc, #376]	; 85211290 <memc_init+0x410>
85211114:	e1823003 	orr	r3, r2, r3
85211118:	e5942070 	ldr	r2, [r4, #112]	; 0x70
8521111c:	e7eb1051 	ubfx	r1, r1, #0, #12
85211120:	e1a02402 	lsl	r2, r2, #8
85211124:	e6ff2072 	uxth	r2, r2
85211128:	e1832002 	orr	r2, r3, r2
8521112c:	e5d43084 	ldrb	r3, [r4, #132]	; 0x84
85211130:	e1837c07 	orr	r7, r3, r7, lsl #24
85211134:	e594307c 	ldr	r3, [r4, #124]	; 0x7c
85211138:	e1a03803 	lsl	r3, r3, #16
8521113c:	e20338ff 	and	r3, r3, #16711680	; 0xff0000
85211140:	e1873003 	orr	r3, r7, r3
85211144:	e5947080 	ldr	r7, [r4, #128]	; 0x80
85211148:	e1a07407 	lsl	r7, r7, #8
8521114c:	e6ff7077 	uxth	r7, r7
85211150:	e1837007 	orr	r7, r3, r7
85211154:	e5d43090 	ldrb	r3, [r4, #144]	; 0x90
85211158:	e1836c06 	orr	r6, r3, r6, lsl #24
8521115c:	e594308c 	ldr	r3, [r4, #140]	; 0x8c
85211160:	e1a03403 	lsl	r3, r3, #8
85211164:	e6ff3073 	uxth	r3, r3
85211168:	e1866003 	orr	r6, r6, r3
8521116c:	e5d430a0 	ldrb	r3, [r4, #160]	; 0xa0
85211170:	e1835c05 	orr	r5, r3, r5, lsl #24
85211174:	e5943098 	ldr	r3, [r4, #152]	; 0x98
85211178:	e1a03803 	lsl	r3, r3, #16
8521117c:	e20338ff 	and	r3, r3, #16711680	; 0xff0000
85211180:	e1853003 	orr	r3, r5, r3
85211184:	e594509c 	ldr	r5, [r4, #156]	; 0x9c
85211188:	e1a05405 	lsl	r5, r5, #8
8521118c:	e2055c0f 	and	r5, r5, #3840	; 0xf00
85211190:	e1835005 	orr	r5, r3, r5
85211194:	e59430a4 	ldr	r3, [r4, #164]	; 0xa4
85211198:	e1811f03 	orr	r1, r1, r3, lsl #30
8521119c:	e59430a8 	ldr	r3, [r4, #168]	; 0xa8
852111a0:	e1a03d83 	lsl	r3, r3, #27
852111a4:	e203330e 	and	r3, r3, #939524096	; 0x38000000
852111a8:	e1811003 	orr	r1, r1, r3
852111ac:	e59430ac 	ldr	r3, [r4, #172]	; 0xac
852111b0:	e1a03c03 	lsl	r3, r3, #24
852111b4:	e2033407 	and	r3, r3, #117440512	; 0x7000000
852111b8:	e1811003 	orr	r1, r1, r3
852111bc:	e59430b0 	ldr	r3, [r4, #176]	; 0xb0
852111c0:	e1a03903 	lsl	r3, r3, #18
852111c4:	e203370f 	and	r3, r3, #3932160	; 0x3c0000
852111c8:	e1811003 	orr	r1, r1, r3
852111cc:	e59430b4 	ldr	r3, [r4, #180]	; 0xb4
852111d0:	e1a03603 	lsl	r3, r3, #12
852111d4:	e6ff3073 	uxth	r3, r3
852111d8:	e1814003 	orr	r4, r1, r3
852111dc:	e59f306c 	ldr	r3, [pc, #108]	; 85211250 <memc_init+0x3d0>
852111e0:	e59f10ac 	ldr	r1, [pc, #172]	; 85211294 <memc_init+0x414>
852111e4:	e5832214 	str	r2, [r3, #532]	; 0x214
852111e8:	e5837218 	str	r7, [r3, #536]	; 0x218
852111ec:	e583621c 	str	r6, [r3, #540]	; 0x21c
852111f0:	e5835220 	str	r5, [r3, #544]	; 0x220
852111f4:	e5834224 	str	r4, [r3, #548]	; 0x224
852111f8:	eb000ebc 	bl	85214cf0 <xprintf>
852111fc:	e1a02007 	mov	r2, r7
85211200:	e59f1090 	ldr	r1, [pc, #144]	; 85211298 <memc_init+0x418>
85211204:	e59f0050 	ldr	r0, [pc, #80]	; 8521125c <memc_init+0x3dc>
85211208:	eb000eb8 	bl	85214cf0 <xprintf>
8521120c:	e1a02006 	mov	r2, r6
85211210:	e59f1084 	ldr	r1, [pc, #132]	; 8521129c <memc_init+0x41c>
85211214:	e59f0040 	ldr	r0, [pc, #64]	; 8521125c <memc_init+0x3dc>
85211218:	eb000eb4 	bl	85214cf0 <xprintf>
8521121c:	e1a02005 	mov	r2, r5
85211220:	e59f1078 	ldr	r1, [pc, #120]	; 852112a0 <memc_init+0x420>
85211224:	e59f0030 	ldr	r0, [pc, #48]	; 8521125c <memc_init+0x3dc>
85211228:	eb000eb0 	bl	85214cf0 <xprintf>
8521122c:	e1a02004 	mov	r2, r4
85211230:	e59f106c 	ldr	r1, [pc, #108]	; 852112a4 <memc_init+0x424>
85211234:	e59f0020 	ldr	r0, [pc, #32]	; 8521125c <memc_init+0x3dc>
85211238:	eb000eac 	bl	85214cf0 <xprintf>
8521123c:	e59f0064 	ldr	r0, [pc, #100]	; 852112a8 <memc_init+0x428>
85211240:	eb000eaa 	bl	85214cf0 <xprintf>
85211244:	e3a00000 	mov	r0, #0
85211248:	e28dd030 	add	sp, sp, #48	; 0x30
8521124c:	e8bd8ef0 	pop	{r4, r5, r6, r7, r9, sl, fp, pc}
85211250:	80180000 	.word	0x80180000
85211254:	8521a7e9 	.word	0x8521a7e9
85211258:	80180004 	.word	0x80180004
8521125c:	8521a799 	.word	0x8521a799
85211260:	852203ec 	.word	0x852203ec
85211264:	80180234 	.word	0x80180234
85211268:	8521a7fe 	.word	0x8521a7fe
8521126c:	8521a494 	.word	0x8521a494
85211270:	8521a814 	.word	0x8521a814
85211274:	8521d3f0 	.word	0x8521d3f0
85211278:	8521a85d 	.word	0x8521a85d
8521127c:	80180100 	.word	0x80180100
85211280:	8521a88b 	.word	0x8521a88b
85211284:	80180104 	.word	0x80180104
85211288:	8521a8cc 	.word	0x8521a8cc
8521128c:	8521a8ec 	.word	0x8521a8ec
85211290:	8521a938 	.word	0x8521a938
85211294:	80180214 	.word	0x80180214
85211298:	80180218 	.word	0x80180218
8521129c:	8018021c 	.word	0x8018021c
852112a0:	80180220 	.word	0x80180220
852112a4:	80180224 	.word	0x80180224
852112a8:	8521a94d 	.word	0x8521a94d

852112ac <memsys_udelay>:
852112ac:	e92d4010 	push	{r4, lr}
852112b0:	ebfffce7 	bl	85210654 <cfe_usleep>
852112b4:	e3a00000 	mov	r0, #0
852112b8:	e8bd8010 	pop	{r4, pc}

852112bc <memsys_begin>:
852112bc:	e92d42f0 	push	{r4, r5, r6, r7, r9, lr}
852112c0:	e1a04000 	mov	r4, r0
852112c4:	e59f6660 	ldr	r6, [pc, #1632]	; 8521192c <memsys_begin+0x670>
852112c8:	e59f0660 	ldr	r0, [pc, #1632]	; 85211930 <memsys_begin+0x674>
852112cc:	eb000e87 	bl	85214cf0 <xprintf>
852112d0:	e59f065c 	ldr	r0, [pc, #1628]	; 85211934 <memsys_begin+0x678>
852112d4:	e5945024 	ldr	r5, [r4, #36]	; 0x24
852112d8:	eb000e84 	bl	85214cf0 <xprintf>
852112dc:	e3a02fc5 	mov	r2, #788	; 0x314
852112e0:	e3a01000 	mov	r1, #0
852112e4:	e1a00006 	mov	r0, r6
852112e8:	eb000ced 	bl	852146a4 <lib_memset>
852112ec:	e1a02006 	mov	r2, r6
852112f0:	e3a03001 	mov	r3, #1
852112f4:	e5863000 	str	r3, [r6]
852112f8:	e5a23004 	str	r3, [r2, #4]!
852112fc:	e3a03000 	mov	r3, #0
85211300:	e1a00006 	mov	r0, r6
85211304:	e1a01003 	mov	r1, r3
85211308:	e5a21004 	str	r1, [r2, #4]!
8521130c:	e582308c 	str	r3, [r2, #140]	; 0x8c
85211310:	e2833001 	add	r3, r3, #1
85211314:	e3530023 	cmp	r3, #35	; 0x23
85211318:	1afffffa 	bne	85211308 <memsys_begin+0x4c>
8521131c:	e59f3614 	ldr	r3, [pc, #1556]	; 85211938 <memsys_begin+0x67c>
85211320:	e3a02001 	mov	r2, #1
85211324:	e5802090 	str	r2, [r0, #144]	; 0x90
85211328:	e2831088 	add	r1, r3, #136	; 0x88
8521132c:	e5a32004 	str	r2, [r3, #4]!
85211330:	e1530001 	cmp	r3, r1
85211334:	1afffffc 	bne	8521132c <memsys_begin+0x70>
85211338:	e59531a0 	ldr	r3, [r5, #416]	; 0x1a0
8521133c:	e3a02001 	mov	r2, #1
85211340:	e59f15f4 	ldr	r1, [pc, #1524]	; 8521193c <memsys_begin+0x680>
85211344:	e7e43753 	ubfx	r3, r3, #14, #5
85211348:	e58031a8 	str	r3, [r0, #424]	; 0x1a8
8521134c:	e59531a0 	ldr	r3, [r5, #416]	; 0x1a0
85211350:	e281c080 	add	ip, r1, #128	; 0x80
85211354:	e58021b8 	str	r2, [r0, #440]	; 0x1b8
85211358:	e3a02002 	mov	r2, #2
8521135c:	e58021bc 	str	r2, [r0, #444]	; 0x1bc
85211360:	e7e739d3 	ubfx	r3, r3, #19, #8
85211364:	e58021c0 	str	r2, [r0, #448]	; 0x1c0
85211368:	e59f25d0 	ldr	r2, [pc, #1488]	; 85211940 <memsys_begin+0x684>
8521136c:	e58031ac 	str	r3, [r0, #428]	; 0x1ac
85211370:	e3a03000 	mov	r3, #0
85211374:	e58031b0 	str	r3, [r0, #432]	; 0x1b0
85211378:	e58021c8 	str	r2, [r0, #456]	; 0x1c8
8521137c:	e58021cc 	str	r2, [r0, #460]	; 0x1cc
85211380:	e59f25bc 	ldr	r2, [pc, #1468]	; 85211944 <memsys_begin+0x688>
85211384:	e58031b4 	str	r3, [r0, #436]	; 0x1b4
85211388:	e58031c4 	str	r3, [r0, #452]	; 0x1c4
8521138c:	e58021d0 	str	r2, [r0, #464]	; 0x1d0
85211390:	e1a02003 	mov	r2, r3
85211394:	e5a12004 	str	r2, [r1, #4]!
85211398:	e15c0001 	cmp	ip, r1
8521139c:	e3a03000 	mov	r3, #0
852113a0:	1afffffb 	bne	85211394 <memsys_begin+0xd8>
852113a4:	e59f259c 	ldr	r2, [pc, #1436]	; 85211948 <memsys_begin+0x68c>
852113a8:	e580325c 	str	r3, [r0, #604]	; 0x25c
852113ac:	e2821080 	add	r1, r2, #128	; 0x80
852113b0:	e5803260 	str	r3, [r0, #608]	; 0x260
852113b4:	e5803268 	str	r3, [r0, #616]	; 0x268
852113b8:	e580326c 	str	r3, [r0, #620]	; 0x26c
852113bc:	e5803264 	str	r3, [r0, #612]	; 0x264
852113c0:	e5a23004 	str	r3, [r2, #4]!
852113c4:	e1510002 	cmp	r1, r2
852113c8:	e3a06000 	mov	r6, #0
852113cc:	1afffffb 	bne	852113c0 <memsys_begin+0x104>
852113d0:	e5945024 	ldr	r5, [r4, #36]	; 0x24
852113d4:	e3a0300f 	mov	r3, #15
852113d8:	e59f456c 	ldr	r4, [pc, #1388]	; 8521194c <memsys_begin+0x690>
852113dc:	e580330c 	str	r3, [r0, #780]	; 0x30c
852113e0:	e58062f8 	str	r6, [r0, #760]	; 0x2f8
852113e4:	e58062fc 	str	r6, [r0, #764]	; 0x2fc
852113e8:	e5806304 	str	r6, [r0, #772]	; 0x304
852113ec:	e5806308 	str	r6, [r0, #776]	; 0x308
852113f0:	e5806300 	str	r6, [r0, #768]	; 0x300
852113f4:	e5806310 	str	r6, [r0, #784]	; 0x310
852113f8:	e59f0550 	ldr	r0, [pc, #1360]	; 85211950 <memsys_begin+0x694>
852113fc:	eb000e3b 	bl	85214cf0 <xprintf>
85211400:	e3a020bc 	mov	r2, #188	; 0xbc
85211404:	e1a01006 	mov	r1, r6
85211408:	e1a00004 	mov	r0, r4
8521140c:	eb000ca4 	bl	852146a4 <lib_memset>
85211410:	e59f353c 	ldr	r3, [pc, #1340]	; 85211954 <memsys_begin+0x698>
85211414:	e5936000 	ldr	r6, [r3]
85211418:	e7e13a56 	ubfx	r3, r6, #20, #2
8521141c:	e5843000 	str	r3, [r4]
85211420:	e216301f 	ands	r3, r6, #31
85211424:	e2062703 	and	r2, r6, #786432	; 0xc0000
85211428:	12433001 	subne	r3, r3, #1
8521142c:	e7e37456 	ubfx	r7, r6, #8, #4
85211430:	03a03002 	moveq	r3, #2
85211434:	e3520702 	cmp	r2, #524288	; 0x80000
85211438:	e584300c 	str	r3, [r4, #12]
8521143c:	e2873008 	add	r3, r7, #8
85211440:	e3a07001 	mov	r7, #1
85211444:	03a02008 	moveq	r2, #8
85211448:	e1a07317 	lsl	r7, r7, r3
8521144c:	e59f34f8 	ldr	r3, [pc, #1272]	; 8521194c <memsys_begin+0x690>
85211450:	e584702c 	str	r7, [r4, #44]	; 0x2c
85211454:	0a000005 	beq	85211470 <memsys_begin+0x1b4>
85211458:	e3520000 	cmp	r2, #0
8521145c:	03a02010 	moveq	r2, #16
85211460:	0a000002 	beq	85211470 <memsys_begin+0x1b4>
85211464:	e3520701 	cmp	r2, #262144	; 0x40000
85211468:	1a000001 	bne	85211474 <memsys_begin+0x1b8>
8521146c:	e3a02020 	mov	r2, #32
85211470:	e5832034 	str	r2, [r3, #52]	; 0x34
85211474:	e5949034 	ldr	r9, [r4, #52]	; 0x34
85211478:	e3a03008 	mov	r3, #8
8521147c:	e7e212d6 	ubfx	r1, r6, #5, #3
85211480:	e1a01113 	lsl	r1, r3, r1
85211484:	e5841028 	str	r1, [r4, #40]	; 0x28
85211488:	e5849038 	str	r9, [r4, #56]	; 0x38
8521148c:	e1a00009 	mov	r0, r9
85211490:	ebffedc4 	bl	8520cba8 <__udivsi3>
85211494:	e1a01000 	mov	r1, r0
85211498:	e5840010 	str	r0, [r4, #16]
8521149c:	e1a00007 	mov	r0, r7
852114a0:	ebffedc0 	bl	8520cba8 <__udivsi3>
852114a4:	e5953070 	ldr	r3, [r5, #112]	; 0x70
852114a8:	e3130b03 	tst	r3, #3072	; 0xc00
852114ac:	e7e32253 	ubfx	r2, r3, #4, #4
852114b0:	e282200c 	add	r2, r2, #12
852114b4:	e5842018 	str	r2, [r4, #24]
852114b8:	e7e12453 	ubfx	r2, r3, #8, #2
852114bc:	13a03003 	movne	r3, #3
852114c0:	03a03002 	moveq	r3, #2
852114c4:	e5843020 	str	r3, [r4, #32]
852114c8:	e3e03000 	mvn	r3, #0
852114cc:	e2822009 	add	r2, r2, #9
852114d0:	e584201c 	str	r2, [r4, #28]
852114d4:	e5840014 	str	r0, [r4, #20]
852114d8:	e1b070a7 	lsrs	r7, r7, #1
852114dc:	e2832001 	add	r2, r3, #1
852114e0:	11a03002 	movne	r3, r2
852114e4:	1afffffb 	bne	852114d8 <memsys_begin+0x21c>
852114e8:	e3a02001 	mov	r2, #1
852114ec:	e2833012 	add	r3, r3, #18
852114f0:	e5843040 	str	r3, [r4, #64]	; 0x40
852114f4:	e1a03312 	lsl	r3, r2, r3
852114f8:	e2433001 	sub	r3, r3, #1
852114fc:	e584303c 	str	r3, [r4, #60]	; 0x3c
85211500:	e7e13856 	ubfx	r3, r6, #16, #2
85211504:	e7e36656 	ubfx	r6, r6, #12, #4
85211508:	e5843050 	str	r3, [r4, #80]	; 0x50
8521150c:	e2499008 	sub	r9, r9, #8
85211510:	e5846054 	str	r6, [r4, #84]	; 0x54
85211514:	e16f9f19 	clz	r9, r9
85211518:	e5953028 	ldr	r3, [r5, #40]	; 0x28
8521151c:	e5951078 	ldr	r1, [r5, #120]	; 0x78
85211520:	e1a092a9 	lsr	r9, r9, #5
85211524:	e5843008 	str	r3, [r4, #8]
85211528:	e7e70451 	ubfx	r0, r1, #8, #8
8521152c:	e5953030 	ldr	r3, [r5, #48]	; 0x30
85211530:	e6ef1071 	uxtb	r1, r1
85211534:	e584204c 	str	r2, [r4, #76]	; 0x4c
85211538:	e5840068 	str	r0, [r4, #104]	; 0x68
8521153c:	e5843004 	str	r3, [r4, #4]
85211540:	e595314c 	ldr	r3, [r5, #332]	; 0x14c
85211544:	e5841070 	str	r1, [r4, #112]	; 0x70
85211548:	e7e03653 	ubfx	r3, r3, #12, #1
8521154c:	e5843044 	str	r3, [r4, #68]	; 0x44
85211550:	e5953074 	ldr	r3, [r5, #116]	; 0x74
85211554:	e5849048 	str	r9, [r4, #72]	; 0x48
85211558:	e7e70453 	ubfx	r0, r3, #8, #8
8521155c:	e5847058 	str	r7, [r4, #88]	; 0x58
85211560:	e1a02c23 	lsr	r2, r3, #24
85211564:	e6ef3073 	uxtb	r3, r3
85211568:	e5843074 	str	r3, [r4, #116]	; 0x74
8521156c:	e3a03004 	mov	r3, #4
85211570:	e584307c 	str	r3, [r4, #124]	; 0x7c
85211574:	e5843078 	str	r3, [r4, #120]	; 0x78
85211578:	e5d53076 	ldrb	r3, [r5, #118]	; 0x76
8521157c:	e5842064 	str	r2, [r4, #100]	; 0x64
85211580:	e0822000 	add	r2, r2, r0
85211584:	e584006c 	str	r0, [r4, #108]	; 0x6c
85211588:	e5843084 	str	r3, [r4, #132]	; 0x84
8521158c:	e5843080 	str	r3, [r4, #128]	; 0x80
85211590:	e5d5312d 	ldrb	r3, [r5, #301]	; 0x12d
85211594:	e59f03bc 	ldr	r0, [pc, #956]	; 85211958 <memsys_begin+0x69c>
85211598:	e5843088 	str	r3, [r4, #136]	; 0x88
8521159c:	e5d5307b 	ldrb	r3, [r5, #123]	; 0x7b
852115a0:	e5842090 	str	r2, [r4, #144]	; 0x90
852115a4:	e584308c 	str	r3, [r4, #140]	; 0x8c
852115a8:	e595307c 	ldr	r3, [r5, #124]	; 0x7c
852115ac:	e7e33653 	ubfx	r3, r3, #12, #4
852115b0:	e5843098 	str	r3, [r4, #152]	; 0x98
852115b4:	e5843094 	str	r3, [r4, #148]	; 0x94
852115b8:	e5d5307a 	ldrb	r3, [r5, #122]	; 0x7a
852115bc:	e58430a0 	str	r3, [r4, #160]	; 0xa0
852115c0:	e584309c 	str	r3, [r4, #156]	; 0x9c
852115c4:	e59531a0 	ldr	r3, [r5, #416]	; 0x1a0
852115c8:	e7e12253 	ubfx	r2, r3, #4, #2
852115cc:	e58420a4 	str	r2, [r4, #164]	; 0xa4
852115d0:	e7e22353 	ubfx	r2, r3, #6, #3
852115d4:	e2822001 	add	r2, r2, #1
852115d8:	e58420a8 	str	r2, [r4, #168]	; 0xa8
852115dc:	e7e224d3 	ubfx	r2, r3, #9, #3
852115e0:	e203300f 	and	r3, r3, #15
852115e4:	e58420ac 	str	r2, [r4, #172]	; 0xac
852115e8:	e58430b0 	str	r3, [r4, #176]	; 0xb0
852115ec:	e595307c 	ldr	r3, [r5, #124]	; 0x7c
852115f0:	e7e73a53 	ubfx	r3, r3, #20, #8
852115f4:	e58430b4 	str	r3, [r4, #180]	; 0xb4
852115f8:	e595307c 	ldr	r3, [r5, #124]	; 0x7c
852115fc:	e7eb3053 	ubfx	r3, r3, #0, #12
85211600:	e58430b8 	str	r3, [r4, #184]	; 0xb8
85211604:	eb000db9 	bl	85214cf0 <xprintf>
85211608:	e59f034c 	ldr	r0, [pc, #844]	; 8521195c <memsys_begin+0x6a0>
8521160c:	eb000db7 	bl	85214cf0 <xprintf>
85211610:	e5941000 	ldr	r1, [r4]
85211614:	e59f0344 	ldr	r0, [pc, #836]	; 85211960 <memsys_begin+0x6a4>
85211618:	e2811003 	add	r1, r1, #3
8521161c:	eb000db3 	bl	85214cf0 <xprintf>
85211620:	e59f033c 	ldr	r0, [pc, #828]	; 85211964 <memsys_begin+0x6a8>
85211624:	eb000db1 	bl	85214cf0 <xprintf>
85211628:	e59f0338 	ldr	r0, [pc, #824]	; 85211968 <memsys_begin+0x6ac>
8521162c:	eb000daf 	bl	85214cf0 <xprintf>
85211630:	e594200c 	ldr	r2, [r4, #12]
85211634:	e59f3330 	ldr	r3, [pc, #816]	; 8521196c <memsys_begin+0x6b0>
85211638:	e59f0330 	ldr	r0, [pc, #816]	; 85211970 <memsys_begin+0x6b4>
8521163c:	e7931102 	ldr	r1, [r3, r2, lsl #2]
85211640:	eb000daa 	bl	85214cf0 <xprintf>
85211644:	e5941014 	ldr	r1, [r4, #20]
85211648:	e59f0324 	ldr	r0, [pc, #804]	; 85211974 <memsys_begin+0x6b8>
8521164c:	eb000da7 	bl	85214cf0 <xprintf>
85211650:	e5941018 	ldr	r1, [r4, #24]
85211654:	e59f031c 	ldr	r0, [pc, #796]	; 85211978 <memsys_begin+0x6bc>
85211658:	eb000da4 	bl	85214cf0 <xprintf>
8521165c:	e594101c 	ldr	r1, [r4, #28]
85211660:	e59f0314 	ldr	r0, [pc, #788]	; 8521197c <memsys_begin+0x6c0>
85211664:	eb000da1 	bl	85214cf0 <xprintf>
85211668:	e5941020 	ldr	r1, [r4, #32]
8521166c:	e59f030c 	ldr	r0, [pc, #780]	; 85211980 <memsys_begin+0x6c4>
85211670:	eb000d9e 	bl	85214cf0 <xprintf>
85211674:	e5941028 	ldr	r1, [r4, #40]	; 0x28
85211678:	e59f0304 	ldr	r0, [pc, #772]	; 85211984 <memsys_begin+0x6c8>
8521167c:	eb000d9b 	bl	85214cf0 <xprintf>
85211680:	e59f0300 	ldr	r0, [pc, #768]	; 85211988 <memsys_begin+0x6cc>
85211684:	eb000d99 	bl	85214cf0 <xprintf>
85211688:	e5941010 	ldr	r1, [r4, #16]
8521168c:	e59f02f8 	ldr	r0, [pc, #760]	; 8521198c <memsys_begin+0x6d0>
85211690:	eb000d96 	bl	85214cf0 <xprintf>
85211694:	e59f02f4 	ldr	r0, [pc, #756]	; 85211990 <memsys_begin+0x6d4>
85211698:	eb000d94 	bl	85214cf0 <xprintf>
8521169c:	e594102c 	ldr	r1, [r4, #44]	; 0x2c
852116a0:	e59f02ec 	ldr	r0, [pc, #748]	; 85211994 <memsys_begin+0x6d8>
852116a4:	eb000d91 	bl	85214cf0 <xprintf>
852116a8:	e5941030 	ldr	r1, [r4, #48]	; 0x30
852116ac:	e59f02e4 	ldr	r0, [pc, #740]	; 85211998 <memsys_begin+0x6dc>
852116b0:	eb000d8e 	bl	85214cf0 <xprintf>
852116b4:	e5941034 	ldr	r1, [r4, #52]	; 0x34
852116b8:	e59f02dc 	ldr	r0, [pc, #732]	; 8521199c <memsys_begin+0x6e0>
852116bc:	eb000d8b 	bl	85214cf0 <xprintf>
852116c0:	e5941038 	ldr	r1, [r4, #56]	; 0x38
852116c4:	e59f02d4 	ldr	r0, [pc, #724]	; 852119a0 <memsys_begin+0x6e4>
852116c8:	eb000d88 	bl	85214cf0 <xprintf>
852116cc:	e594103c 	ldr	r1, [r4, #60]	; 0x3c
852116d0:	e59f02cc 	ldr	r0, [pc, #716]	; 852119a4 <memsys_begin+0x6e8>
852116d4:	eb000d85 	bl	85214cf0 <xprintf>
852116d8:	e5941040 	ldr	r1, [r4, #64]	; 0x40
852116dc:	e59f02c4 	ldr	r0, [pc, #708]	; 852119a8 <memsys_begin+0x6ec>
852116e0:	eb000d82 	bl	85214cf0 <xprintf>
852116e4:	e5941040 	ldr	r1, [r4, #64]	; 0x40
852116e8:	e59f02bc 	ldr	r0, [pc, #700]	; 852119ac <memsys_begin+0x6f0>
852116ec:	e2411001 	sub	r1, r1, #1
852116f0:	eb000d7e 	bl	85214cf0 <xprintf>
852116f4:	e5941044 	ldr	r1, [r4, #68]	; 0x44
852116f8:	e59f02b0 	ldr	r0, [pc, #688]	; 852119b0 <memsys_begin+0x6f4>
852116fc:	eb000d7b 	bl	85214cf0 <xprintf>
85211700:	e5941048 	ldr	r1, [r4, #72]	; 0x48
85211704:	e59f02a8 	ldr	r0, [pc, #680]	; 852119b4 <memsys_begin+0x6f8>
85211708:	eb000d78 	bl	85214cf0 <xprintf>
8521170c:	e594104c 	ldr	r1, [r4, #76]	; 0x4c
85211710:	e59f02a0 	ldr	r0, [pc, #672]	; 852119b8 <memsys_begin+0x6fc>
85211714:	eb000d75 	bl	85214cf0 <xprintf>
85211718:	e5941058 	ldr	r1, [r4, #88]	; 0x58
8521171c:	e59f0298 	ldr	r0, [pc, #664]	; 852119bc <memsys_begin+0x700>
85211720:	eb000d72 	bl	85214cf0 <xprintf>
85211724:	e594105c 	ldr	r1, [r4, #92]	; 0x5c
85211728:	e59f0290 	ldr	r0, [pc, #656]	; 852119c0 <memsys_begin+0x704>
8521172c:	eb000d6f 	bl	85214cf0 <xprintf>
85211730:	e59f028c 	ldr	r0, [pc, #652]	; 852119c4 <memsys_begin+0x708>
85211734:	eb000d6d 	bl	85214cf0 <xprintf>
85211738:	e59f0224 	ldr	r0, [pc, #548]	; 85211964 <memsys_begin+0x6a8>
8521173c:	eb000d6b 	bl	85214cf0 <xprintf>
85211740:	e59f0280 	ldr	r0, [pc, #640]	; 852119c8 <memsys_begin+0x70c>
85211744:	eb000d69 	bl	85214cf0 <xprintf>
85211748:	e5941068 	ldr	r1, [r4, #104]	; 0x68
8521174c:	e59f0278 	ldr	r0, [pc, #632]	; 852119cc <memsys_begin+0x710>
85211750:	eb000d66 	bl	85214cf0 <xprintf>
85211754:	e594106c 	ldr	r1, [r4, #108]	; 0x6c
85211758:	e59f0270 	ldr	r0, [pc, #624]	; 852119d0 <memsys_begin+0x714>
8521175c:	eb000d63 	bl	85214cf0 <xprintf>
85211760:	e5941070 	ldr	r1, [r4, #112]	; 0x70
85211764:	e59f0268 	ldr	r0, [pc, #616]	; 852119d4 <memsys_begin+0x718>
85211768:	eb000d60 	bl	85214cf0 <xprintf>
8521176c:	e5941074 	ldr	r1, [r4, #116]	; 0x74
85211770:	e59f0260 	ldr	r0, [pc, #608]	; 852119d8 <memsys_begin+0x71c>
85211774:	eb000d5d 	bl	85214cf0 <xprintf>
85211778:	e59f025c 	ldr	r0, [pc, #604]	; 852119dc <memsys_begin+0x720>
8521177c:	eb000d5b 	bl	85214cf0 <xprintf>
85211780:	e5941078 	ldr	r1, [r4, #120]	; 0x78
85211784:	e59f0254 	ldr	r0, [pc, #596]	; 852119e0 <memsys_begin+0x724>
85211788:	eb000d58 	bl	85214cf0 <xprintf>
8521178c:	e594107c 	ldr	r1, [r4, #124]	; 0x7c
85211790:	e59f024c 	ldr	r0, [pc, #588]	; 852119e4 <memsys_begin+0x728>
85211794:	eb000d55 	bl	85214cf0 <xprintf>
85211798:	e5941080 	ldr	r1, [r4, #128]	; 0x80
8521179c:	e59f0244 	ldr	r0, [pc, #580]	; 852119e8 <memsys_begin+0x72c>
852117a0:	eb000d52 	bl	85214cf0 <xprintf>
852117a4:	e5941084 	ldr	r1, [r4, #132]	; 0x84
852117a8:	e59f023c 	ldr	r0, [pc, #572]	; 852119ec <memsys_begin+0x730>
852117ac:	eb000d4f 	bl	85214cf0 <xprintf>
852117b0:	e59f0238 	ldr	r0, [pc, #568]	; 852119f0 <memsys_begin+0x734>
852117b4:	eb000d4d 	bl	85214cf0 <xprintf>
852117b8:	e5941088 	ldr	r1, [r4, #136]	; 0x88
852117bc:	e59f0230 	ldr	r0, [pc, #560]	; 852119f4 <memsys_begin+0x738>
852117c0:	eb000d4a 	bl	85214cf0 <xprintf>
852117c4:	e594108c 	ldr	r1, [r4, #140]	; 0x8c
852117c8:	e59f0228 	ldr	r0, [pc, #552]	; 852119f8 <memsys_begin+0x73c>
852117cc:	eb000d47 	bl	85214cf0 <xprintf>
852117d0:	e5941090 	ldr	r1, [r4, #144]	; 0x90
852117d4:	e59f0220 	ldr	r0, [pc, #544]	; 852119fc <memsys_begin+0x740>
852117d8:	eb000d44 	bl	85214cf0 <xprintf>
852117dc:	e59f021c 	ldr	r0, [pc, #540]	; 85211a00 <memsys_begin+0x744>
852117e0:	eb000d42 	bl	85214cf0 <xprintf>
852117e4:	e5941094 	ldr	r1, [r4, #148]	; 0x94
852117e8:	e59f0214 	ldr	r0, [pc, #532]	; 85211a04 <memsys_begin+0x748>
852117ec:	eb000d3f 	bl	85214cf0 <xprintf>
852117f0:	e5941098 	ldr	r1, [r4, #152]	; 0x98
852117f4:	e59f020c 	ldr	r0, [pc, #524]	; 85211a08 <memsys_begin+0x74c>
852117f8:	eb000d3c 	bl	85214cf0 <xprintf>
852117fc:	e594109c 	ldr	r1, [r4, #156]	; 0x9c
85211800:	e59f0204 	ldr	r0, [pc, #516]	; 85211a0c <memsys_begin+0x750>
85211804:	eb000d39 	bl	85214cf0 <xprintf>
85211808:	e59410a0 	ldr	r1, [r4, #160]	; 0xa0
8521180c:	e59f01fc 	ldr	r0, [pc, #508]	; 85211a10 <memsys_begin+0x754>
85211810:	eb000d36 	bl	85214cf0 <xprintf>
85211814:	e59f01f8 	ldr	r0, [pc, #504]	; 85211a14 <memsys_begin+0x758>
85211818:	eb000d34 	bl	85214cf0 <xprintf>
8521181c:	e59410a4 	ldr	r1, [r4, #164]	; 0xa4
85211820:	e59f01f0 	ldr	r0, [pc, #496]	; 85211a18 <memsys_begin+0x75c>
85211824:	eb000d31 	bl	85214cf0 <xprintf>
85211828:	e59410a8 	ldr	r1, [r4, #168]	; 0xa8
8521182c:	e59f01e8 	ldr	r0, [pc, #488]	; 85211a1c <memsys_begin+0x760>
85211830:	eb000d2e 	bl	85214cf0 <xprintf>
85211834:	e59410ac 	ldr	r1, [r4, #172]	; 0xac
85211838:	e59f01e0 	ldr	r0, [pc, #480]	; 85211a20 <memsys_begin+0x764>
8521183c:	eb000d2b 	bl	85214cf0 <xprintf>
85211840:	e59410b0 	ldr	r1, [r4, #176]	; 0xb0
85211844:	e59f01d8 	ldr	r0, [pc, #472]	; 85211a24 <memsys_begin+0x768>
85211848:	eb000d28 	bl	85214cf0 <xprintf>
8521184c:	e59410b4 	ldr	r1, [r4, #180]	; 0xb4
85211850:	e59f01d0 	ldr	r0, [pc, #464]	; 85211a28 <memsys_begin+0x76c>
85211854:	eb000d25 	bl	85214cf0 <xprintf>
85211858:	e59410b8 	ldr	r1, [r4, #184]	; 0xb8
8521185c:	e59f01c8 	ldr	r0, [pc, #456]	; 85211a2c <memsys_begin+0x770>
85211860:	eb000d22 	bl	85214cf0 <xprintf>
85211864:	e59f00f8 	ldr	r0, [pc, #248]	; 85211964 <memsys_begin+0x6a8>
85211868:	eb000d20 	bl	85214cf0 <xprintf>
8521186c:	e5943054 	ldr	r3, [r4, #84]	; 0x54
85211870:	e2432001 	sub	r2, r3, #1
85211874:	e352000e 	cmp	r2, #14
85211878:	8a000003 	bhi	8521188c <memsys_begin+0x5d0>
8521187c:	e59f21ac 	ldr	r2, [pc, #428]	; 85211a30 <memsys_begin+0x774>
85211880:	e59f01ac 	ldr	r0, [pc, #428]	; 85211a34 <memsys_begin+0x778>
85211884:	e7921103 	ldr	r1, [r2, r3, lsl #2]
85211888:	eb000d18 	bl	85214cf0 <xprintf>
8521188c:	e5943050 	ldr	r3, [r4, #80]	; 0x50
85211890:	e3530000 	cmp	r3, #0
85211894:	0a000005 	beq	852118b0 <memsys_begin+0x5f4>
85211898:	e59f2198 	ldr	r2, [pc, #408]	; 85211a38 <memsys_begin+0x77c>
8521189c:	e3530001 	cmp	r3, #1
852118a0:	e59f1194 	ldr	r1, [pc, #404]	; 85211a3c <memsys_begin+0x780>
852118a4:	e59f0194 	ldr	r0, [pc, #404]	; 85211a40 <memsys_begin+0x784>
852118a8:	11a01002 	movne	r1, r2
852118ac:	eb000d0f 	bl	85214cf0 <xprintf>
852118b0:	e59f018c 	ldr	r0, [pc, #396]	; 85211a44 <memsys_begin+0x788>
852118b4:	eb000d0d 	bl	85214cf0 <xprintf>
852118b8:	e59f0188 	ldr	r0, [pc, #392]	; 85211a48 <memsys_begin+0x78c>
852118bc:	eb000d0b 	bl	85214cf0 <xprintf>
852118c0:	e59f6184 	ldr	r6, [pc, #388]	; 85211a4c <memsys_begin+0x790>
852118c4:	e5965230 	ldr	r5, [r6, #560]	; 0x230
852118c8:	e59f0180 	ldr	r0, [pc, #384]	; 85211a50 <memsys_begin+0x794>
852118cc:	e1a01005 	mov	r1, r5
852118d0:	eb000d06 	bl	85214cf0 <xprintf>
852118d4:	e3150007 	tst	r5, #7
852118d8:	1a000002 	bne	852118e8 <memsys_begin+0x62c>
852118dc:	e3a00001 	mov	r0, #1
852118e0:	ebfffb5b 	bl	85210654 <cfe_usleep>
852118e4:	eafffff6 	b	852118c4 <memsys_begin+0x608>
852118e8:	e59f0164 	ldr	r0, [pc, #356]	; 85211a54 <memsys_begin+0x798>
852118ec:	eb000cff 	bl	85214cf0 <xprintf>
852118f0:	e5941050 	ldr	r1, [r4, #80]	; 0x50
852118f4:	e5940004 	ldr	r0, [r4, #4]
852118f8:	e3a02001 	mov	r2, #1
852118fc:	ebfffcf9 	bl	85210ce8 <refresh_ctrl_cfg>
85211900:	e59f1150 	ldr	r1, [pc, #336]	; 85211a58 <memsys_begin+0x79c>
85211904:	e3002305 	movw	r2, #773	; 0x305
85211908:	e59f014c 	ldr	r0, [pc, #332]	; 85211a5c <memsys_begin+0x7a0>
8521190c:	eb000cf7 	bl	85214cf0 <xprintf>
85211910:	e59f3134 	ldr	r3, [pc, #308]	; 85211a4c <memsys_begin+0x790>
85211914:	e3002305 	movw	r2, #773	; 0x305
85211918:	e59f0140 	ldr	r0, [pc, #320]	; 85211a60 <memsys_begin+0x7a4>
8521191c:	e5832200 	str	r2, [r3, #512]	; 0x200
85211920:	eb000cf2 	bl	85214cf0 <xprintf>
85211924:	e3a00000 	mov	r0, #0
85211928:	e8bd82f0 	pop	{r4, r5, r6, r7, r9, pc}
8521192c:	852200d0 	.word	0x852200d0
85211930:	8521a968 	.word	0x8521a968
85211934:	8521a980 	.word	0x8521a980
85211938:	852201ec 	.word	0x852201ec
8521193c:	852202a4 	.word	0x852202a4
85211940:	d9c8fbea 	.word	0xd9c8fbea
85211944:	51417362 	.word	0x51417362
85211948:	85220340 	.word	0x85220340
8521194c:	852203ec 	.word	0x852203ec
85211950:	8521a9b9 	.word	0x8521a9b9
85211954:	852203e8 	.word	0x852203e8
85211958:	8521a9f4 	.word	0x8521a9f4
8521195c:	8521aa36 	.word	0x8521aa36
85211960:	8521aa6d 	.word	0x8521aa6d
85211964:	8521aa86 	.word	0x8521aa86
85211968:	8521aabd 	.word	0x8521aabd
8521196c:	8521d3a8 	.word	0x8521d3a8
85211970:	8521aacc 	.word	0x8521aacc
85211974:	8521aaea 	.word	0x8521aaea
85211978:	8521ab1f 	.word	0x8521ab1f
8521197c:	8521ab51 	.word	0x8521ab51
85211980:	8521ab86 	.word	0x8521ab86
85211984:	8521abb9 	.word	0x8521abb9
85211988:	8521abeb 	.word	0x8521abeb
8521198c:	8521abfd 	.word	0x8521abfd
85211990:	8521ac2c 	.word	0x8521ac2c
85211994:	8521ac3c 	.word	0x8521ac3c
85211998:	8521ac71 	.word	0x8521ac71
8521199c:	8521acb6 	.word	0x8521acb6
852119a0:	8521ace8 	.word	0x8521ace8
852119a4:	8521ad27 	.word	0x8521ad27
852119a8:	8521ad67 	.word	0x8521ad67
852119ac:	8521adaf 	.word	0x8521adaf
852119b0:	8521adfe 	.word	0x8521adfe
852119b4:	8521ae1b 	.word	0x8521ae1b
852119b8:	8521ae38 	.word	0x8521ae38
852119bc:	8521ae55 	.word	0x8521ae55
852119c0:	8521ae72 	.word	0x8521ae72
852119c4:	8521ae8f 	.word	0x8521ae8f
852119c8:	8521aec3 	.word	0x8521aec3
852119cc:	8521aeea 	.word	0x8521aeea
852119d0:	8521aefc 	.word	0x8521aefc
852119d4:	8521af0e 	.word	0x8521af0e
852119d8:	8521af20 	.word	0x8521af20
852119dc:	8521af32 	.word	0x8521af32
852119e0:	8521af59 	.word	0x8521af59
852119e4:	8521af6b 	.word	0x8521af6b
852119e8:	8521af7d 	.word	0x8521af7d
852119ec:	8521af8f 	.word	0x8521af8f
852119f0:	8521afa1 	.word	0x8521afa1
852119f4:	8521afc8 	.word	0x8521afc8
852119f8:	8521afda 	.word	0x8521afda
852119fc:	8521afec 	.word	0x8521afec
85211a00:	8521affe 	.word	0x8521affe
85211a04:	8521b025 	.word	0x8521b025
85211a08:	8521b037 	.word	0x8521b037
85211a0c:	8521b049 	.word	0x8521b049
85211a10:	8521b05b 	.word	0x8521b05b
85211a14:	8521b06d 	.word	0x8521b06d
85211a18:	8521b092 	.word	0x8521b092
85211a1c:	8521b0a4 	.word	0x8521b0a4
85211a20:	8521b0b6 	.word	0x8521b0b6
85211a24:	8521b0c8 	.word	0x8521b0c8
85211a28:	8521b0da 	.word	0x8521b0da
85211a2c:	8521b0ec 	.word	0x8521b0ec
85211a30:	8521d398 	.word	0x8521d398
85211a34:	8521b0fe 	.word	0x8521b0fe
85211a38:	8521a964 	.word	0x8521a964
85211a3c:	8521a960 	.word	0x8521a960
85211a40:	8521b10f 	.word	0x8521b10f
85211a44:	8521c328 	.word	0x8521c328
85211a48:	8521b12d 	.word	0x8521b12d
85211a4c:	80180000 	.word	0x80180000
85211a50:	8521b148 	.word	0x8521b148
85211a54:	8521b159 	.word	0x8521b159
85211a58:	80180200 	.word	0x80180200
85211a5c:	8521a799 	.word	0x8521a799
85211a60:	8521b170 	.word	0x8521b170

85211a64 <memsys_get_time_us>:
85211a64:	e92d4010 	push	{r4, lr}
85211a68:	ebfffb0e 	bl	852106a8 <cfe_get_utime>
85211a6c:	e8bd8010 	pop	{r4, pc}

85211a70 <memsys_putchar>:
85211a70:	e92d4010 	push	{r4, lr}
85211a74:	eb000117 	bl	85211ed8 <board_putc>
85211a78:	e3a00000 	mov	r0, #0
85211a7c:	e8bd8010 	pop	{r4, pc}

85211a80 <memsys_register_flow_control_user_callbacks>:
85211a80:	e59f2044 	ldr	r2, [pc, #68]	; 85211acc <memsys_register_flow_control_user_callbacks+0x4c>
85211a84:	e1a03000 	mov	r3, r0
85211a88:	e5802000 	str	r2, [r0]
85211a8c:	e3a00000 	mov	r0, #0
85211a90:	e59f2038 	ldr	r2, [pc, #56]	; 85211ad0 <memsys_register_flow_control_user_callbacks+0x50>
85211a94:	e5830004 	str	r0, [r3, #4]
85211a98:	e583001c 	str	r0, [r3, #28]
85211a9c:	e5832008 	str	r2, [r3, #8]
85211aa0:	e59f202c 	ldr	r2, [pc, #44]	; 85211ad4 <memsys_register_flow_control_user_callbacks+0x54>
85211aa4:	e5830020 	str	r0, [r3, #32]
85211aa8:	e5830024 	str	r0, [r3, #36]	; 0x24
85211aac:	e583200c 	str	r2, [r3, #12]
85211ab0:	e59f2020 	ldr	r2, [pc, #32]	; 85211ad8 <memsys_register_flow_control_user_callbacks+0x58>
85211ab4:	e5832010 	str	r2, [r3, #16]
85211ab8:	e59f201c 	ldr	r2, [pc, #28]	; 85211adc <memsys_register_flow_control_user_callbacks+0x5c>
85211abc:	e5832014 	str	r2, [r3, #20]
85211ac0:	e59f2018 	ldr	r2, [pc, #24]	; 85211ae0 <memsys_register_flow_control_user_callbacks+0x60>
85211ac4:	e5832018 	str	r2, [r3, #24]
85211ac8:	e12fff1e 	bx	lr
85211acc:	852112bc 	.word	0x852112bc
85211ad0:	85210e80 	.word	0x85210e80
85211ad4:	85210e2c 	.word	0x85210e2c
85211ad8:	85210d6c 	.word	0x85210d6c
85211adc:	85210d24 	.word	0x85210d24
85211ae0:	85210d48 	.word	0x85210d48

85211ae4 <ddr_init>:
85211ae4:	e59f32b0 	ldr	r3, [pc, #688]	; 85211d9c <ddr_init+0x2b8>
85211ae8:	e1a0c000 	mov	ip, r0
85211aec:	e92d40f0 	push	{r4, r5, r6, r7, lr}
85211af0:	e1a0e001 	mov	lr, r1
85211af4:	e893000f 	ldm	r3, {r0, r1, r2, r3}
85211af8:	e24dd064 	sub	sp, sp, #100	; 0x64
85211afc:	e35c0001 	cmp	ip, #1
85211b00:	e28d6004 	add	r6, sp, #4
85211b04:	e59f5294 	ldr	r5, [pc, #660]	; 85211da0 <ddr_init+0x2bc>
85211b08:	e886000f 	stm	r6, {r0, r1, r2, r3}
85211b0c:	059f3290 	ldreq	r3, [pc, #656]	; 85211da4 <ddr_init+0x2c0>
85211b10:	0583c000 	streq	ip, [r3]
85211b14:	0a000027 	beq	85211bb8 <ddr_init+0xd4>
85211b18:	e35c0000 	cmp	ip, #0
85211b1c:	e59f0284 	ldr	r0, [pc, #644]	; 85211da8 <ddr_init+0x2c4>
85211b20:	b3ccc102 	biclt	ip, ip, #-2147483648	; 0x80000000
85211b24:	a585e000 	strge	lr, [r5]
85211b28:	b585c000 	strlt	ip, [r5]
85211b2c:	e5951000 	ldr	r1, [r5]
85211b30:	eb000c6e 	bl	85214cf0 <xprintf>
85211b34:	e5951000 	ldr	r1, [r5]
85211b38:	e311001f 	tst	r1, #31
85211b3c:	13a02000 	movne	r2, #0
85211b40:	159f4264 	ldrne	r4, [pc, #612]	; 85211dac <ddr_init+0x2c8>
85211b44:	1a000008 	bne	85211b6c <ddr_init+0x88>
85211b48:	e59f0260 	ldr	r0, [pc, #608]	; 85211db0 <ddr_init+0x2cc>
85211b4c:	eb000c67 	bl	85214cf0 <xprintf>
85211b50:	ea000012 	b	85211ba0 <ddr_init+0xbc>
85211b54:	e5943000 	ldr	r3, [r4]
85211b58:	e5940004 	ldr	r0, [r4, #4]
85211b5c:	e0233001 	eor	r3, r3, r1
85211b60:	e1130000 	tst	r3, r0
85211b64:	0a000004 	beq	85211b7c <ddr_init+0x98>
85211b68:	e284400c 	add	r4, r4, #12
85211b6c:	e5943008 	ldr	r3, [r4, #8]
85211b70:	e3530000 	cmp	r3, #0
85211b74:	1afffff6 	bne	85211b54 <ddr_init+0x70>
85211b78:	ea000005 	b	85211b94 <ddr_init+0xb0>
85211b7c:	e3520000 	cmp	r2, #0
85211b80:	e3c33103 	bic	r3, r3, #-1073741824	; 0xc0000000
85211b84:	01a02004 	moveq	r2, r4
85211b88:	e3530000 	cmp	r3, #0
85211b8c:	1afffff5 	bne	85211b68 <ddr_init+0x84>
85211b90:	ea000000 	b	85211b98 <ddr_init+0xb4>
85211b94:	e1a04002 	mov	r4, r2
85211b98:	e3540000 	cmp	r4, #0
85211b9c:	1a000006 	bne	85211bbc <ddr_init+0xd8>
85211ba0:	e5951000 	ldr	r1, [r5]
85211ba4:	e59f0208 	ldr	r0, [pc, #520]	; 85211db4 <ddr_init+0x2d0>
85211ba8:	eb000c50 	bl	85214cf0 <xprintf>
85211bac:	e59f31f0 	ldr	r3, [pc, #496]	; 85211da4 <ddr_init+0x2c0>
85211bb0:	e3a02001 	mov	r2, #1
85211bb4:	e5832000 	str	r2, [r3]
85211bb8:	e3a04000 	mov	r4, #0
85211bbc:	e59f31e0 	ldr	r3, [pc, #480]	; 85211da4 <ddr_init+0x2c0>
85211bc0:	e5932000 	ldr	r2, [r3]
85211bc4:	e1a07003 	mov	r7, r3
85211bc8:	e3520001 	cmp	r2, #1
85211bcc:	1a000002 	bne	85211bdc <ddr_init+0xf8>
85211bd0:	e59f01e0 	ldr	r0, [pc, #480]	; 85211db8 <ddr_init+0x2d4>
85211bd4:	eb000c45 	bl	85214cf0 <xprintf>
85211bd8:	e59f41cc 	ldr	r4, [pc, #460]	; 85211dac <ddr_init+0x2c8>
85211bdc:	e5943008 	ldr	r3, [r4, #8]
85211be0:	e5942000 	ldr	r2, [r4]
85211be4:	e59f01d0 	ldr	r0, [pc, #464]	; 85211dbc <ddr_init+0x2d8>
85211be8:	e593100c 	ldr	r1, [r3, #12]
85211bec:	e5852000 	str	r2, [r5]
85211bf0:	eb000c3e 	bl	85214cf0 <xprintf>
85211bf4:	e59f31c4 	ldr	r3, [pc, #452]	; 85211dc0 <ddr_init+0x2dc>
85211bf8:	e28d0014 	add	r0, sp, #20
85211bfc:	e3a05000 	mov	r5, #0
85211c00:	e58d6040 	str	r6, [sp, #64]	; 0x40
85211c04:	e58d5024 	str	r5, [sp, #36]	; 0x24
85211c08:	e58d3014 	str	r3, [sp, #20]
85211c0c:	e3a03001 	mov	r3, #1
85211c10:	e58d301c 	str	r3, [sp, #28]
85211c14:	e3a03802 	mov	r3, #131072	; 0x20000
85211c18:	e58d3020 	str	r3, [sp, #32]
85211c1c:	e59f31a0 	ldr	r3, [pc, #416]	; 85211dc4 <ddr_init+0x2e0>
85211c20:	e58d5030 	str	r5, [sp, #48]	; 0x30
85211c24:	e58d503c 	str	r5, [sp, #60]	; 0x3c
85211c28:	e58d3028 	str	r3, [sp, #40]	; 0x28
85211c2c:	e2833802 	add	r3, r3, #131072	; 0x20000
85211c30:	e58d302c 	str	r3, [sp, #44]	; 0x2c
85211c34:	e2433b7e 	sub	r3, r3, #129024	; 0x1f800
85211c38:	e58d3034 	str	r3, [sp, #52]	; 0x34
85211c3c:	e5943008 	ldr	r3, [r4, #8]
85211c40:	e58d5018 	str	r5, [sp, #24]
85211c44:	e58d3038 	str	r3, [sp, #56]	; 0x38
85211c48:	eb000c48 	bl	85214d70 <memsys_top>
85211c4c:	e2501000 	subs	r1, r0, #0
85211c50:	0a00001d 	beq	85211ccc <ddr_init+0x1e8>
85211c54:	e59f016c 	ldr	r0, [pc, #364]	; 85211dc8 <ddr_init+0x2e4>
85211c58:	eb000c24 	bl	85214cf0 <xprintf>
85211c5c:	e59f0168 	ldr	r0, [pc, #360]	; 85211dcc <ddr_init+0x2e8>
85211c60:	eb000c22 	bl	85214cf0 <xprintf>
85211c64:	e59d1044 	ldr	r1, [sp, #68]	; 0x44
85211c68:	e59f0160 	ldr	r0, [pc, #352]	; 85211dd0 <ddr_init+0x2ec>
85211c6c:	eb000c1f 	bl	85214cf0 <xprintf>
85211c70:	e59f015c 	ldr	r0, [pc, #348]	; 85211dd4 <ddr_init+0x2f0>
85211c74:	eb000c1d 	bl	85214cf0 <xprintf>
85211c78:	e59d1048 	ldr	r1, [sp, #72]	; 0x48
85211c7c:	e59f014c 	ldr	r0, [pc, #332]	; 85211dd0 <ddr_init+0x2ec>
85211c80:	eb000c1a 	bl	85214cf0 <xprintf>
85211c84:	e59f014c 	ldr	r0, [pc, #332]	; 85211dd8 <ddr_init+0x2f4>
85211c88:	eb000c18 	bl	85214cf0 <xprintf>
85211c8c:	e2855004 	add	r5, r5, #4
85211c90:	e3550018 	cmp	r5, #24
85211c94:	0a000005 	beq	85211cb0 <ddr_init+0x1cc>
85211c98:	e28d3014 	add	r3, sp, #20
85211c9c:	e59f012c 	ldr	r0, [pc, #300]	; 85211dd0 <ddr_init+0x2ec>
85211ca0:	e0833005 	add	r3, r3, r5
85211ca4:	e5931034 	ldr	r1, [r3, #52]	; 0x34
85211ca8:	eb000c10 	bl	85214cf0 <xprintf>
85211cac:	eafffff6 	b	85211c8c <ddr_init+0x1a8>
85211cb0:	e59f0124 	ldr	r0, [pc, #292]	; 85211ddc <ddr_init+0x2f8>
85211cb4:	eb000c0d 	bl	85214cf0 <xprintf>
85211cb8:	e3a01000 	mov	r1, #0
85211cbc:	e28d0014 	add	r0, sp, #20
85211cc0:	ebfffc29 	bl	85210d6c <memsys_end>
85211cc4:	e3e00000 	mvn	r0, #0
85211cc8:	ea000031 	b	85211d94 <ddr_init+0x2b0>
85211ccc:	f57ff04f 	dsb	sy
85211cd0:	f57ff06f 	isb	sy
85211cd4:	e5973000 	ldr	r3, [r7]
85211cd8:	e3530000 	cmp	r3, #0
85211cdc:	0a000001 	beq	85211ce8 <ddr_init+0x204>
85211ce0:	e3a03000 	mov	r3, #0
85211ce4:	ea000012 	b	85211d34 <ddr_init+0x250>
85211ce8:	e59f20f0 	ldr	r2, [pc, #240]	; 85211de0 <ddr_init+0x2fc>
85211cec:	e3a00c01 	mov	r0, #256	; 0x100
85211cf0:	e59fc0ec 	ldr	ip, [pc, #236]	; 85211de4 <ddr_init+0x300>
85211cf4:	e3a01000 	mov	r1, #0
85211cf8:	e592202c 	ldr	r2, [r2, #44]	; 0x2c
85211cfc:	e1a057a2 	lsr	r5, r2, #15
85211d00:	e1a04882 	lsl	r4, r2, #17
85211d04:	e1550001 	cmp	r5, r1
85211d08:	01540000 	cmpeq	r4, r0
85211d0c:	9afffff3 	bls	85211ce0 <ddr_init+0x1fc>
85211d10:	e5833000 	str	r3, [r3]
85211d14:	e580c000 	str	ip, [r0]
85211d18:	e593e000 	ldr	lr, [r3]
85211d1c:	e5902000 	ldr	r2, [r0]
85211d20:	e15e0002 	cmp	lr, r2
85211d24:	0a000013 	beq	85211d78 <ddr_init+0x294>
85211d28:	e0900000 	adds	r0, r0, r0
85211d2c:	e0a11001 	adc	r1, r1, r1
85211d30:	eafffff3 	b	85211d04 <ddr_init+0x220>
85211d34:	e1a02103 	lsl	r2, r3, #2
85211d38:	e5823000 	str	r3, [r2]
85211d3c:	e2833001 	add	r3, r3, #1
85211d40:	e3530b01 	cmp	r3, #1024	; 0x400
85211d44:	1afffffa 	bne	85211d34 <ddr_init+0x250>
85211d48:	e3a01000 	mov	r1, #0
85211d4c:	e1a03101 	lsl	r3, r1, #2
85211d50:	e5933000 	ldr	r3, [r3]
85211d54:	e1510003 	cmp	r1, r3
85211d58:	1a00000a 	bne	85211d88 <ddr_init+0x2a4>
85211d5c:	e2811001 	add	r1, r1, #1
85211d60:	e3510b01 	cmp	r1, #1024	; 0x400
85211d64:	1afffff8 	bne	85211d4c <ddr_init+0x268>
85211d68:	e59f0078 	ldr	r0, [pc, #120]	; 85211de8 <ddr_init+0x304>
85211d6c:	eb000bdf 	bl	85214cf0 <xprintf>
85211d70:	e3a00000 	mov	r0, #0
85211d74:	ea000006 	b	85211d94 <ddr_init+0x2b0>
85211d78:	e59f006c 	ldr	r0, [pc, #108]	; 85211dec <ddr_init+0x308>
85211d7c:	eb000bdb 	bl	85214cf0 <xprintf>
85211d80:	e3e00002 	mvn	r0, #2
85211d84:	ea000002 	b	85211d94 <ddr_init+0x2b0>
85211d88:	e59f0060 	ldr	r0, [pc, #96]	; 85211df0 <ddr_init+0x30c>
85211d8c:	eb000bd7 	bl	85214cf0 <xprintf>
85211d90:	e3e00001 	mvn	r0, #1
85211d94:	e28dd064 	add	sp, sp, #100	; 0x64
85211d98:	e8bd80f0 	pop	{r4, r5, r6, r7, pc}
85211d9c:	8521a4b8 	.word	0x8521a4b8
85211da0:	852203e8 	.word	0x852203e8
85211da4:	852203e4 	.word	0x852203e4
85211da8:	8521b186 	.word	0x8521b186
85211dac:	8521f970 	.word	0x8521f970
85211db0:	8521b199 	.word	0x8521b199
85211db4:	8521b1c8 	.word	0x8521b1c8
85211db8:	8521b203 	.word	0x8521b203
85211dbc:	8521b217 	.word	0x8521b217
85211dc0:	03030100 	.word	0x03030100
85211dc4:	80180000 	.word	0x80180000
85211dc8:	8521b235 	.word	0x8521b235
85211dcc:	8521b25c 	.word	0x8521b25c
85211dd0:	8521b269 	.word	0x8521b269
85211dd4:	8521b274 	.word	0x8521b274
85211dd8:	8521b280 	.word	0x8521b280
85211ddc:	8521c29f 	.word	0x8521c29f
85211de0:	852203ec 	.word	0x852203ec
85211de4:	aa55beef 	.word	0xaa55beef
85211de8:	8521b2ef 	.word	0x8521b2ef
85211dec:	8521b28e 	.word	0x8521b28e
85211df0:	8521b30c 	.word	0x8521b30c

85211df4 <board_earlyinit_common>:
85211df4:	e1a0900e 	mov	r9, lr
85211df8:	eb000007 	bl	85211e1c <uart_init>
85211dfc:	e3a08401 	mov	r8, #16777216	; 0x1000000
85211e00:	e3a07000 	mov	r7, #0
85211e04:	e2877001 	add	r7, r7, #1
85211e08:	e1570008 	cmp	r7, r8
85211e0c:	0a000000 	beq	85211e14 <board_earlyinit_common+0x20>
85211e10:	eafffffb 	b	85211e04 <board_earlyinit_common+0x10>
85211e14:	e1a0e009 	mov	lr, r9
85211e18:	e1a0f00e 	mov	pc, lr

85211e1c <uart_init>:
85211e1c:	e59f0044 	ldr	r0, [pc, #68]	; 85211e68 <uart_init+0x4c>
85211e20:	e5901030 	ldr	r1, [r0, #48]	; 0x30
85211e24:	e3c11001 	bic	r1, r1, #1
85211e28:	e5801030 	str	r1, [r0, #48]	; 0x30
85211e2c:	e59f1038 	ldr	r1, [pc, #56]	; 85211e6c <uart_init+0x50>
85211e30:	e1a03321 	lsr	r3, r1, #6
85211e34:	e5803024 	str	r3, [r0, #36]	; 0x24
85211e38:	e201303f 	and	r3, r1, #63	; 0x3f
85211e3c:	e5803028 	str	r3, [r0, #40]	; 0x28
85211e40:	e3a01070 	mov	r1, #112	; 0x70
85211e44:	e580102c 	str	r1, [r0, #44]	; 0x2c
85211e48:	e3a03000 	mov	r3, #0
85211e4c:	e5803038 	str	r3, [r0, #56]	; 0x38
85211e50:	e30f3fff 	movw	r3, #65535	; 0xffff
85211e54:	e5803044 	str	r3, [r0, #68]	; 0x44
85211e58:	e3a01c03 	mov	r1, #768	; 0x300
85211e5c:	e3811001 	orr	r1, r1, #1
85211e60:	e5801030 	str	r1, [r0, #48]	; 0x30
85211e64:	e1a0f00e 	mov	pc, lr
85211e68:	ff812000 	.word	0xff812000
85211e6c:	000006c8 	.word	0x000006c8

85211e70 <board_setleds>:
85211e70:	e59f1058 	ldr	r1, [pc, #88]	; 85211ed0 <uart_done+0x4>
85211e74:	e3a02000 	mov	r2, #0
85211e78:	e5912030 	ldr	r2, [r1, #48]	; 0x30
85211e7c:	e59f3050 	ldr	r3, [pc, #80]	; 85211ed4 <uart_done+0x8>
85211e80:	e0022003 	and	r2, r2, r3
85211e84:	e1520003 	cmp	r2, r3
85211e88:	1a00000f 	bne	85211ecc <uart_done>
85211e8c:	e3a0300d 	mov	r3, #13
85211e90:	e1a03403 	lsl	r3, r3, #8
85211e94:	e383300a 	orr	r3, r3, #10
85211e98:	e1a03803 	lsl	r3, r3, #16
85211e9c:	e5912018 	ldr	r2, [r1, #24]
85211ea0:	e2022020 	and	r2, r2, #32
85211ea4:	e3520000 	cmp	r2, #0
85211ea8:	1afffffb 	bne	85211e9c <board_setleds+0x2c>
85211eac:	e1a02c20 	lsr	r2, r0, #24
85211eb0:	e5c12000 	strb	r2, [r1]
85211eb4:	e1a00400 	lsl	r0, r0, #8
85211eb8:	e3a02018 	mov	r2, #24
85211ebc:	e1800233 	orr	r0, r0, r3, lsr r2
85211ec0:	e1a03403 	lsl	r3, r3, #8
85211ec4:	e3500000 	cmp	r0, #0
85211ec8:	1afffff3 	bne	85211e9c <board_setleds+0x2c>

85211ecc <uart_done>:
85211ecc:	e1a0f00e 	mov	pc, lr
85211ed0:	ff812000 	.word	0xff812000
85211ed4:	00000101 	.word	0x00000101

85211ed8 <board_putc>:
85211ed8:	e59f102c 	ldr	r1, [pc, #44]	; 85211f0c <board_putc+0x34>
85211edc:	e3a02000 	mov	r2, #0
85211ee0:	e5912030 	ldr	r2, [r1, #48]	; 0x30
85211ee4:	e59f3024 	ldr	r3, [pc, #36]	; 85211f10 <board_putc+0x38>
85211ee8:	e0022003 	and	r2, r2, r3
85211eec:	e1520003 	cmp	r2, r3
85211ef0:	1a000004 	bne	85211f08 <board_putc+0x30>
85211ef4:	e5912018 	ldr	r2, [r1, #24]
85211ef8:	e2022020 	and	r2, r2, #32
85211efc:	e3520000 	cmp	r2, #0
85211f00:	1afffffb 	bne	85211ef4 <board_putc+0x1c>
85211f04:	e5c10000 	strb	r0, [r1]
85211f08:	e1a0f00e 	mov	pc, lr
85211f0c:	ff812000 	.word	0xff812000
85211f10:	00000101 	.word	0x00000101

85211f14 <board_puts>:
85211f14:	e59f1064 	ldr	r1, [pc, #100]	; 85211f80 <puts_start+0x50>
85211f18:	e3a02000 	mov	r2, #0
85211f1c:	e5912030 	ldr	r2, [r1, #48]	; 0x30
85211f20:	e59f305c 	ldr	r3, [pc, #92]	; 85211f84 <puts_start+0x54>
85211f24:	e0022003 	and	r2, r2, r3
85211f28:	e1520003 	cmp	r2, r3
85211f2c:	1a000011 	bne	85211f78 <puts_start+0x48>

85211f30 <puts_start>:
85211f30:	e5912018 	ldr	r2, [r1, #24]
85211f34:	e2022020 	and	r2, r2, #32
85211f38:	e3520000 	cmp	r2, #0
85211f3c:	1afffffb 	bne	85211f30 <puts_start>
85211f40:	e5d02000 	ldrb	r2, [r0]
85211f44:	e3520000 	cmp	r2, #0
85211f48:	0a00000a 	beq	85211f78 <puts_start+0x48>
85211f4c:	e352000a 	cmp	r2, #10
85211f50:	1a000005 	bne	85211f6c <puts_start+0x3c>
85211f54:	e5c12000 	strb	r2, [r1]
85211f58:	e5912018 	ldr	r2, [r1, #24]
85211f5c:	e2022020 	and	r2, r2, #32
85211f60:	e3520000 	cmp	r2, #0
85211f64:	1afffffb 	bne	85211f58 <puts_start+0x28>
85211f68:	e3a0200d 	mov	r2, #13
85211f6c:	e5c12000 	strb	r2, [r1]
85211f70:	e2800001 	add	r0, r0, #1
85211f74:	eaffffed 	b	85211f30 <puts_start>
85211f78:	e3a00000 	mov	r0, #0
85211f7c:	e1a0f00e 	mov	pc, lr
85211f80:	ff812000 	.word	0xff812000
85211f84:	00000101 	.word	0x00000101

85211f88 <board_getc>:
85211f88:	e3a00000 	mov	r0, #0
85211f8c:	e59f1014 	ldr	r1, [pc, #20]	; 85211fa8 <board_getc+0x20>
85211f90:	e5912018 	ldr	r2, [r1, #24]
85211f94:	e2022010 	and	r2, r2, #16
85211f98:	e3520000 	cmp	r2, #0
85211f9c:	1a000000 	bne	85211fa4 <board_getc+0x1c>
85211fa0:	e5d10000 	ldrb	r0, [r1]
85211fa4:	e1a0f00e 	mov	pc, lr
85211fa8:	ff812000 	.word	0xff812000

85211fac <board_mmu_map_scn>:
85211fac:	e1a0900e 	mov	r9, lr
85211fb0:	e59f00d8 	ldr	r0, [pc, #216]	; 85212090 <board_mmu_map_scn+0xe4>
85211fb4:	e3a01901 	mov	r1, #16384	; 0x4000
85211fb8:	eb000956 	bl	85214518 <mmu_init_table>
85211fbc:	e59f00cc 	ldr	r0, [pc, #204]	; 85212090 <board_mmu_map_scn+0xe4>
85211fc0:	e3a01000 	mov	r1, #0
85211fc4:	e3a02b02 	mov	r2, #2048	; 0x800
85211fc8:	e59f30c4 	ldr	r3, [pc, #196]	; 85212094 <board_mmu_map_scn+0xe8>
85211fcc:	e3a04000 	mov	r4, #0
85211fd0:	e3a06a01 	mov	r6, #4096	; 0x1000
85211fd4:	eb000962 	bl	85214564 <mmu_set_scn>
85211fd8:	e59f00b0 	ldr	r0, [pc, #176]	; 85212090 <board_mmu_map_scn+0xe4>
85211fdc:	e59f10b4 	ldr	r1, [pc, #180]	; 85212098 <board_mmu_map_scn+0xec>
85211fe0:	e3a02001 	mov	r2, #1
85211fe4:	e59f30b0 	ldr	r3, [pc, #176]	; 8521209c <board_mmu_map_scn+0xf0>
85211fe8:	e59f40a8 	ldr	r4, [pc, #168]	; 85212098 <board_mmu_map_scn+0xec>
85211fec:	e3a06a01 	mov	r6, #4096	; 0x1000
85211ff0:	eb00095b 	bl	85214564 <mmu_set_scn>
85211ff4:	e59f0094 	ldr	r0, [pc, #148]	; 85212090 <board_mmu_map_scn+0xe4>
85211ff8:	e59f10a0 	ldr	r1, [pc, #160]	; 852120a0 <board_mmu_map_scn+0xf4>
85211ffc:	e3a02001 	mov	r2, #1
85212000:	e59f309c 	ldr	r3, [pc, #156]	; 852120a4 <board_mmu_map_scn+0xf8>
85212004:	e59f4094 	ldr	r4, [pc, #148]	; 852120a0 <board_mmu_map_scn+0xf4>
85212008:	e3a06a01 	mov	r6, #4096	; 0x1000
8521200c:	eb000954 	bl	85214564 <mmu_set_scn>
85212010:	e59f0078 	ldr	r0, [pc, #120]	; 85212090 <board_mmu_map_scn+0xe4>
85212014:	e59f108c 	ldr	r1, [pc, #140]	; 852120a8 <board_mmu_map_scn+0xfc>
85212018:	e3a02001 	mov	r2, #1
8521201c:	e59f3070 	ldr	r3, [pc, #112]	; 85212094 <board_mmu_map_scn+0xe8>
85212020:	e59f4080 	ldr	r4, [pc, #128]	; 852120a8 <board_mmu_map_scn+0xfc>
85212024:	e3a06a01 	mov	r6, #4096	; 0x1000
85212028:	eb00094d 	bl	85214564 <mmu_set_scn>
8521202c:	e59f005c 	ldr	r0, [pc, #92]	; 85212090 <board_mmu_map_scn+0xe4>
85212030:	e59f1074 	ldr	r1, [pc, #116]	; 852120ac <board_mmu_map_scn+0x100>
85212034:	e3a02001 	mov	r2, #1
85212038:	e59f3054 	ldr	r3, [pc, #84]	; 85212094 <board_mmu_map_scn+0xe8>
8521203c:	e59f4068 	ldr	r4, [pc, #104]	; 852120ac <board_mmu_map_scn+0x100>
85212040:	e3a06a01 	mov	r6, #4096	; 0x1000
85212044:	eb000946 	bl	85214564 <mmu_set_scn>
85212048:	e59f0040 	ldr	r0, [pc, #64]	; 85212090 <board_mmu_map_scn+0xe4>
8521204c:	e59f105c 	ldr	r1, [pc, #92]	; 852120b0 <board_mmu_map_scn+0x104>
85212050:	e3a02002 	mov	r2, #2
85212054:	e59f3038 	ldr	r3, [pc, #56]	; 85212094 <board_mmu_map_scn+0xe8>
85212058:	e59f4050 	ldr	r4, [pc, #80]	; 852120b0 <board_mmu_map_scn+0x104>
8521205c:	e3a06a01 	mov	r6, #4096	; 0x1000
85212060:	eb00093f 	bl	85214564 <mmu_set_scn>
85212064:	e59f0024 	ldr	r0, [pc, #36]	; 85212090 <board_mmu_map_scn+0xe4>
85212068:	e59f1044 	ldr	r1, [pc, #68]	; 852120b4 <board_mmu_map_scn+0x108>
8521206c:	e3a02001 	mov	r2, #1
85212070:	e59f301c 	ldr	r3, [pc, #28]	; 85212094 <board_mmu_map_scn+0xe8>
85212074:	e59f4038 	ldr	r4, [pc, #56]	; 852120b4 <board_mmu_map_scn+0x108>
85212078:	e3a06a01 	mov	r6, #4096	; 0x1000
8521207c:	eb000938 	bl	85214564 <mmu_set_scn>
85212080:	e59f0008 	ldr	r0, [pc, #8]	; 85212090 <board_mmu_map_scn+0xe4>
85212084:	eb00092a 	bl	85214534 <mmu_set_ttbr>
85212088:	e1a0e009 	mov	lr, r9
8521208c:	e1a0f00e 	mov	pc, lr
85212090:	85208000 	.word	0x85208000
85212094:	00002c13 	.word	0x00002c13
85212098:	85200000 	.word	0x85200000
8521209c:	00001c0e 	.word	0x00001c0e
852120a0:	ffd00000 	.word	0xffd00000
852120a4:	00002c02 	.word	0x00002c02
852120a8:	ff800000 	.word	0xff800000
852120ac:	80180000 	.word	0x80180000
852120b0:	80200000 	.word	0x80200000
852120b4:	fff00000 	.word	0xfff00000

852120b8 <board_mmu_update_scn>:
852120b8:	e1a0b00e 	mov	fp, lr
852120bc:	e59f0028 	ldr	r0, [pc, #40]	; 852120ec <board_mmu_update_scn+0x34>
852120c0:	e59f1028 	ldr	r1, [pc, #40]	; 852120f0 <board_mmu_update_scn+0x38>
852120c4:	e3a02001 	mov	r2, #1
852120c8:	e59f3024 	ldr	r3, [pc, #36]	; 852120f4 <board_mmu_update_scn+0x3c>
852120cc:	e59f401c 	ldr	r4, [pc, #28]	; 852120f0 <board_mmu_update_scn+0x38>
852120d0:	e3a06a01 	mov	r6, #4096	; 0x1000
852120d4:	eb000922 	bl	85214564 <mmu_set_scn>
852120d8:	eb00085c 	bl	85214250 <armv7_l1cache_inval_i>
852120dc:	eb000884 	bl	852142f4 <armv7_l1cache_flush_d>
852120e0:	eb00091a 	bl	85214550 <mmu_invalidate_tlb>
852120e4:	e1a0e00b 	mov	lr, fp
852120e8:	e1a0f00e 	mov	pc, lr
852120ec:	85208000 	.word	0x85208000
852120f0:	ffd00000 	.word	0xffd00000
852120f4:	00002c13 	.word	0x00002c13

852120f8 <aesInitDecrypt>:
852120f8:	e2413001 	sub	r3, r1, #1
852120fc:	e2402004 	sub	r2, r0, #4
85212100:	e281100f 	add	r1, r1, #15
85212104:	e92d40f0 	push	{r4, r5, r6, r7, lr}
85212108:	e3a04000 	mov	r4, #0
8521210c:	e1530001 	cmp	r3, r1
85212110:	0a00000c 	beq	85212148 <aesInitDecrypt+0x50>
85212114:	e283e004 	add	lr, r3, #4
85212118:	e1a0c003 	mov	ip, r3
8521211c:	e5a24004 	str	r4, [r2, #4]!
85212120:	e15c000e 	cmp	ip, lr
85212124:	e1a0300e 	mov	r3, lr
85212128:	0afffff7 	beq	8521210c <aesInitDecrypt+0x14>
8521212c:	e5923000 	ldr	r3, [r2]
85212130:	e1a03403 	lsl	r3, r3, #8
85212134:	e5823000 	str	r3, [r2]
85212138:	e5fc5001 	ldrb	r5, [ip, #1]!
8521213c:	e1853003 	orr	r3, r5, r3
85212140:	e5823000 	str	r3, [r2]
85212144:	eafffff5 	b	85212120 <aesInitDecrypt+0x28>
85212148:	e59f4134 	ldr	r4, [pc, #308]	; 85212284 <aesInitDecrypt+0x18c>
8521214c:	e280c010 	add	ip, r0, #16
85212150:	e3a01004 	mov	r1, #4
85212154:	e3a05001 	mov	r5, #1
85212158:	e51c6010 	ldr	r6, [ip, #-16]
8521215c:	e3a02000 	mov	r2, #0
85212160:	e7806101 	str	r6, [r0, r1, lsl #2]
85212164:	e51c7004 	ldr	r7, [ip, #-4]
85212168:	e1a03237 	lsr	r3, r7, r2
8521216c:	e3520018 	cmp	r2, #24
85212170:	e2822008 	add	r2, r2, #8
85212174:	e59fe108 	ldr	lr, [pc, #264]	; 85212284 <aesInitDecrypt+0x18c>
85212178:	e6ef3073 	uxtb	r3, r3
8521217c:	e7d43003 	ldrb	r3, [r4, r3]
85212180:	11a03213 	lslne	r3, r3, r2
85212184:	e3520020 	cmp	r2, #32
85212188:	e0266003 	eor	r6, r6, r3
8521218c:	1afffff5 	bne	85212168 <aesInitDecrypt+0x70>
85212190:	e3510028 	cmp	r1, #40	; 0x28
85212194:	03a03436 	moveq	r3, #905969664	; 0x36000000
85212198:	0a000004 	beq	852121b0 <aesInitDecrypt+0xb8>
8521219c:	e3510024 	cmp	r1, #36	; 0x24
852121a0:	11a02141 	asrne	r2, r1, #2
852121a4:	12822017 	addne	r2, r2, #23
852121a8:	03a0341b 	moveq	r3, #452984832	; 0x1b000000
852121ac:	11a03215 	lslne	r3, r5, r2
852121b0:	e0233006 	eor	r3, r3, r6
852121b4:	e3a02001 	mov	r2, #1
852121b8:	e7803101 	str	r3, [r0, r1, lsl #2]
852121bc:	e1a0300c 	mov	r3, ip
852121c0:	e3520004 	cmp	r2, #4
852121c4:	e2833004 	add	r3, r3, #4
852121c8:	0a000005 	beq	852121e4 <aesInitDecrypt+0xec>
852121cc:	e5137010 	ldr	r7, [r3, #-16]
852121d0:	e2822001 	add	r2, r2, #1
852121d4:	e5136004 	ldr	r6, [r3, #-4]
852121d8:	e0266007 	eor	r6, r6, r7
852121dc:	e5836000 	str	r6, [r3]
852121e0:	eafffff6 	b	852121c0 <aesInitDecrypt+0xc8>
852121e4:	e2811004 	add	r1, r1, #4
852121e8:	e28cc010 	add	ip, ip, #16
852121ec:	e351002c 	cmp	r1, #44	; 0x2c
852121f0:	1affffd8 	bne	85212158 <aesInitDecrypt+0x60>
852121f4:	e1a04080 	lsl	r4, r0, #1
852121f8:	e28030a0 	add	r3, r0, #160	; 0xa0
852121fc:	e2805050 	add	r5, r0, #80	; 0x50
85212200:	e28440a0 	add	r4, r4, #160	; 0xa0
85212204:	e063c004 	rsb	ip, r3, r4
85212208:	e1a01003 	mov	r1, r3
8521220c:	e3a02000 	mov	r2, #0
85212210:	e59c6000 	ldr	r6, [ip]
85212214:	e2822001 	add	r2, r2, #1
85212218:	e5917000 	ldr	r7, [r1]
8521221c:	e3520004 	cmp	r2, #4
85212220:	e48c7004 	str	r7, [ip], #4
85212224:	e4816004 	str	r6, [r1], #4
85212228:	1afffff8 	bne	85212210 <aesInitDecrypt+0x118>
8521222c:	e2433010 	sub	r3, r3, #16
85212230:	e1530005 	cmp	r3, r5
85212234:	1afffff2 	bne	85212204 <aesInitDecrypt+0x10c>
85212238:	e59f5048 	ldr	r5, [pc, #72]	; 85212288 <aesInitDecrypt+0x190>
8521223c:	e280100c 	add	r1, r0, #12
85212240:	e280009c 	add	r0, r0, #156	; 0x9c
85212244:	e5b14004 	ldr	r4, [r1, #4]!
85212248:	e3a02000 	mov	r2, #0
8521224c:	e1a03002 	mov	r3, r2
85212250:	e1a0c334 	lsr	ip, r4, r3
85212254:	e6efc07c 	uxtb	ip, ip
85212258:	e7dec00c 	ldrb	ip, [lr, ip]
8521225c:	e795610c 	ldr	r6, [r5, ip, lsl #2]
85212260:	e263c020 	rsb	ip, r3, #32
85212264:	e2833008 	add	r3, r3, #8
85212268:	e3530020 	cmp	r3, #32
8521226c:	e0222c76 	eor	r2, r2, r6, ror ip
85212270:	1afffff6 	bne	85212250 <aesInitDecrypt+0x158>
85212274:	e1510000 	cmp	r1, r0
85212278:	e5812000 	str	r2, [r1]
8521227c:	1afffff0 	bne	85212244 <aesInitDecrypt+0x14c>
85212280:	e8bd80f0 	pop	{r4, r5, r6, r7, pc}
85212284:	8521b4e9 	.word	0x8521b4e9
85212288:	8521b5ec 	.word	0x8521b5ec

8521228c <aesCompleteDecrypt>:
8521228c:	e92d4ef0 	push	{r4, r5, r6, r7, r9, sl, fp, lr}
85212290:	e24dd030 	sub	sp, sp, #48	; 0x30
85212294:	e1a04000 	mov	r4, r0
85212298:	e1a06001 	mov	r6, r1
8521229c:	e1a05002 	mov	r5, r2
852122a0:	e59f11a8 	ldr	r1, [pc, #424]	; 85212450 <aesCompleteDecrypt+0x1c4>
852122a4:	e3a02010 	mov	r2, #16
852122a8:	e1a0000d 	mov	r0, sp
852122ac:	eb0008fb 	bl	852146a0 <memcpy>
852122b0:	e28d100c 	add	r1, sp, #12
852122b4:	e3a03000 	mov	r3, #0
852122b8:	e7940003 	ldr	r0, [r4, r3]
852122bc:	e2833004 	add	r3, r3, #4
852122c0:	e2811004 	add	r1, r1, #4
852122c4:	e086c003 	add	ip, r6, r3
852122c8:	e3a02000 	mov	r2, #0
852122cc:	e57ce001 	ldrb	lr, [ip, #-1]!
852122d0:	e020021e 	eor	r0, r0, lr, lsl r2
852122d4:	e2822008 	add	r2, r2, #8
852122d8:	e3520020 	cmp	r2, #32
852122dc:	1afffffa 	bne	852122cc <aesCompleteDecrypt+0x40>
852122e0:	e3530010 	cmp	r3, #16
852122e4:	e5810000 	str	r0, [r1]
852122e8:	1afffff2 	bne	852122b8 <aesCompleteDecrypt+0x2c>
852122ec:	e59f6160 	ldr	r6, [pc, #352]	; 85212454 <aesCompleteDecrypt+0x1c8>
852122f0:	e1a01004 	mov	r1, r4
852122f4:	e3a00000 	mov	r0, #0
852122f8:	e281e00c 	add	lr, r1, #12
852122fc:	e3a02000 	mov	r2, #0
85212300:	e2827004 	add	r7, r2, #4
85212304:	e5bec004 	ldr	ip, [lr, #4]!
85212308:	e08d9007 	add	r9, sp, r7
8521230c:	e3a03000 	mov	r3, #0
85212310:	e579a001 	ldrb	sl, [r9, #-1]!
85212314:	e28db030 	add	fp, sp, #48	; 0x30
85212318:	e08ba10a 	add	sl, fp, sl, lsl #2
8521231c:	e51aa020 	ldr	sl, [sl, #-32]	; 0xffffffe0
85212320:	e1a0a33a 	lsr	sl, sl, r3
85212324:	e6efa07a 	uxtb	sl, sl
85212328:	e796b10a 	ldr	fp, [r6, sl, lsl #2]
8521232c:	e263a020 	rsb	sl, r3, #32
85212330:	e2833008 	add	r3, r3, #8
85212334:	e3530020 	cmp	r3, #32
85212338:	e02cca7b 	eor	ip, ip, fp, ror sl
8521233c:	1afffff3 	bne	85212310 <aesCompleteDecrypt+0x84>
85212340:	e28d3020 	add	r3, sp, #32
85212344:	e3570010 	cmp	r7, #16
85212348:	e782c003 	str	ip, [r2, r3]
8521234c:	e1a02007 	mov	r2, r7
85212350:	1affffea 	bne	85212300 <aesCompleteDecrypt+0x74>
85212354:	e3500004 	cmp	r0, #4
85212358:	e2811020 	add	r1, r1, #32
8521235c:	128de00c 	addne	lr, sp, #12
85212360:	13a03000 	movne	r3, #0
85212364:	1a000017 	bne	852123c8 <aesCompleteDecrypt+0x13c>
85212368:	e2800001 	add	r0, r0, #1
8521236c:	e3500005 	cmp	r0, #5
85212370:	1affffe0 	bne	852122f8 <aesCompleteDecrypt+0x6c>
85212374:	e284409c 	add	r4, r4, #156	; 0x9c
85212378:	e28dc010 	add	ip, sp, #16
8521237c:	e3a03000 	mov	r3, #0
85212380:	e59fe0d0 	ldr	lr, [pc, #208]	; 85212458 <aesCompleteDecrypt+0x1cc>
85212384:	ea000015 	b	852123e0 <aesCompleteDecrypt+0x154>
85212388:	e579c001 	ldrb	ip, [r9, #-1]!
8521238c:	e28da030 	add	sl, sp, #48	; 0x30
85212390:	e08ac10c 	add	ip, sl, ip, lsl #2
85212394:	e59fa0b8 	ldr	sl, [pc, #184]	; 85212454 <aesCompleteDecrypt+0x1c8>
85212398:	e51cc010 	ldr	ip, [ip, #-16]
8521239c:	e1a0c23c 	lsr	ip, ip, r2
852123a0:	e6efc07c 	uxtb	ip, ip
852123a4:	e79aa10c 	ldr	sl, [sl, ip, lsl #2]
852123a8:	e262c020 	rsb	ip, r2, #32
852123ac:	e2822008 	add	r2, r2, #8
852123b0:	e3520020 	cmp	r2, #32
852123b4:	e0277c7a 	eor	r7, r7, sl, ror ip
852123b8:	1afffff2 	bne	85212388 <aesCompleteDecrypt+0xfc>
852123bc:	e3530010 	cmp	r3, #16
852123c0:	e58e7000 	str	r7, [lr]
852123c4:	0affffe7 	beq	85212368 <aesCompleteDecrypt+0xdc>
852123c8:	e7917003 	ldr	r7, [r1, r3]
852123cc:	e2833004 	add	r3, r3, #4
852123d0:	e28ee004 	add	lr, lr, #4
852123d4:	e08d9003 	add	r9, sp, r3
852123d8:	e3a02000 	mov	r2, #0
852123dc:	eaffffe9 	b	85212388 <aesCompleteDecrypt+0xfc>
852123e0:	e2833004 	add	r3, r3, #4
852123e4:	e5b40004 	ldr	r0, [r4, #4]!
852123e8:	e08d6003 	add	r6, sp, r3
852123ec:	e3a02000 	mov	r2, #0
852123f0:	e5761001 	ldrb	r1, [r6, #-1]!
852123f4:	e28d7030 	add	r7, sp, #48	; 0x30
852123f8:	e0871101 	add	r1, r7, r1, lsl #2
852123fc:	e5111010 	ldr	r1, [r1, #-16]
85212400:	e1a01231 	lsr	r1, r1, r2
85212404:	e6ef1071 	uxtb	r1, r1
85212408:	e7de1001 	ldrb	r1, [lr, r1]
8521240c:	e0200211 	eor	r0, r0, r1, lsl r2
85212410:	e2822008 	add	r2, r2, #8
85212414:	e3520020 	cmp	r2, #32
85212418:	1afffff4 	bne	852123f0 <aesCompleteDecrypt+0x164>
8521241c:	e0851003 	add	r1, r5, r3
85212420:	e3a02000 	mov	r2, #0
85212424:	e58c0000 	str	r0, [ip]
85212428:	e1a06230 	lsr	r6, r0, r2
8521242c:	e2822008 	add	r2, r2, #8
85212430:	e3520020 	cmp	r2, #32
85212434:	e5616001 	strb	r6, [r1, #-1]!
85212438:	1afffffa 	bne	85212428 <aesCompleteDecrypt+0x19c>
8521243c:	e3530010 	cmp	r3, #16
85212440:	e28cc004 	add	ip, ip, #4
85212444:	1affffe5 	bne	852123e0 <aesCompleteDecrypt+0x154>
85212448:	e28dd030 	add	sp, sp, #48	; 0x30
8521244c:	e8bd8ef0 	pop	{r4, r5, r6, r7, r9, sl, fp, pc}
85212450:	8521a4c8 	.word	0x8521a4c8
85212454:	8521b5ec 	.word	0x8521b5ec
85212458:	8521b3e9 	.word	0x8521b3e9

8521245c <_iterate_block>:
8521245c:	e5913000 	ldr	r3, [r1]
85212460:	e2833010 	add	r3, r3, #16
85212464:	e5813000 	str	r3, [r1]
85212468:	e5903000 	ldr	r3, [r0]
8521246c:	e2833010 	add	r3, r3, #16
85212470:	e5803000 	str	r3, [r0]
85212474:	e12fff1e 	bx	lr

85212478 <_iterate_block_copy>:
85212478:	e5912000 	ldr	r2, [r1]
8521247c:	e5903000 	ldr	r3, [r0]
85212480:	e5921000 	ldr	r1, [r2]
85212484:	e2833010 	add	r3, r3, #16
85212488:	e5031010 	str	r1, [r3, #-16]
8521248c:	e5921004 	ldr	r1, [r2, #4]
85212490:	e503100c 	str	r1, [r3, #-12]
85212494:	e5921008 	ldr	r1, [r2, #8]
85212498:	e5031008 	str	r1, [r3, #-8]
8521249c:	e592200c 	ldr	r2, [r2, #12]
852124a0:	e5032004 	str	r2, [r3, #-4]
852124a4:	e5803000 	str	r3, [r0]
852124a8:	e12fff1e 	bx	lr

852124ac <ek_iv_cleanup>:
852124ac:	e92d4010 	push	{r4, lr}
852124b0:	e3a02010 	mov	r2, #16
852124b4:	e3a01000 	mov	r1, #0
852124b8:	e1a04000 	mov	r4, r0
852124bc:	eb000878 	bl	852146a4 <lib_memset>
852124c0:	e3a02010 	mov	r2, #16
852124c4:	e3a01000 	mov	r1, #0
852124c8:	e0840002 	add	r0, r4, r2
852124cc:	eb000874 	bl	852146a4 <lib_memset>
852124d0:	e3a02010 	mov	r2, #16
852124d4:	e3a01000 	mov	r1, #0
852124d8:	e2840020 	add	r0, r4, #32
852124dc:	eb000870 	bl	852146a4 <lib_memset>
852124e0:	e3a02010 	mov	r2, #16
852124e4:	e3a01000 	mov	r1, #0
852124e8:	e2840030 	add	r0, r4, #48	; 0x30
852124ec:	eb00086c 	bl	852146a4 <lib_memset>
852124f0:	e3a02010 	mov	r2, #16
852124f4:	e3a01000 	mov	r1, #0
852124f8:	e59f0034 	ldr	r0, [pc, #52]	; 85212534 <ek_iv_cleanup+0x88>
852124fc:	eb000868 	bl	852146a4 <lib_memset>
85212500:	e3a02010 	mov	r2, #16
85212504:	e3a01000 	mov	r1, #0
85212508:	e59f0028 	ldr	r0, [pc, #40]	; 85212538 <ek_iv_cleanup+0x8c>
8521250c:	eb000864 	bl	852146a4 <lib_memset>
85212510:	e3a02010 	mov	r2, #16
85212514:	e3a01000 	mov	r1, #0
85212518:	e59f001c 	ldr	r0, [pc, #28]	; 8521253c <ek_iv_cleanup+0x90>
8521251c:	eb000860 	bl	852146a4 <lib_memset>
85212520:	e3a02010 	mov	r2, #16
85212524:	e3a01000 	mov	r1, #0
85212528:	e59f0010 	ldr	r0, [pc, #16]	; 85212540 <ek_iv_cleanup+0x94>
8521252c:	e8bd4010 	pop	{r4, lr}
85212530:	ea00085b 	b	852146a4 <lib_memset>
85212534:	fff87200 	.word	0xfff87200
85212538:	fff87210 	.word	0xfff87210
8521253c:	fff87220 	.word	0xfff87220
85212540:	fff87230 	.word	0xfff87230

85212544 <aes_cbc128_decrypt>:
85212544:	e92d46f0 	push	{r4, r5, r6, r7, r9, sl, lr}
85212548:	e3500000 	cmp	r0, #0
8521254c:	e24dd0d4 	sub	sp, sp, #212	; 0xd4
85212550:	e0819002 	add	r9, r1, r2
85212554:	11a02000 	movne	r2, r0
85212558:	028d2010 	addeq	r2, sp, #16
8521255c:	e59dc0f0 	ldr	ip, [sp, #240]	; 0xf0
85212560:	e3500000 	cmp	r0, #0
85212564:	e58d200c 	str	r2, [sp, #12]
85212568:	e28d0020 	add	r0, sp, #32
8521256c:	e59f20ac 	ldr	r2, [pc, #172]	; 85212620 <aes_cbc128_decrypt+0xdc>
85212570:	e58d1004 	str	r1, [sp, #4]
85212574:	e1a01003 	mov	r1, r3
85212578:	e59f40a4 	ldr	r4, [pc, #164]	; 85212624 <aes_cbc128_decrypt+0xe0>
8521257c:	e59c7000 	ldr	r7, [ip]
85212580:	01a04002 	moveq	r4, r2
85212584:	e59c6004 	ldr	r6, [ip, #4]
85212588:	e59c5008 	ldr	r5, [ip, #8]
8521258c:	e59ca00c 	ldr	sl, [ip, #12]
85212590:	ebfffed8 	bl	852120f8 <aesInitDecrypt>
85212594:	e59d1004 	ldr	r1, [sp, #4]
85212598:	e1590001 	cmp	r9, r1
8521259c:	9a000018 	bls	85212604 <aes_cbc128_decrypt+0xc0>
852125a0:	e59d200c 	ldr	r2, [sp, #12]
852125a4:	e28d0020 	add	r0, sp, #32
852125a8:	ebffff37 	bl	8521228c <aesCompleteDecrypt>
852125ac:	e59d300c 	ldr	r3, [sp, #12]
852125b0:	e28d100c 	add	r1, sp, #12
852125b4:	e28d0004 	add	r0, sp, #4
852125b8:	e5932000 	ldr	r2, [r3]
852125bc:	e0277002 	eor	r7, r7, r2
852125c0:	e5932004 	ldr	r2, [r3, #4]
852125c4:	e5837000 	str	r7, [r3]
852125c8:	e0266002 	eor	r6, r6, r2
852125cc:	e5932008 	ldr	r2, [r3, #8]
852125d0:	e5836004 	str	r6, [r3, #4]
852125d4:	e0255002 	eor	r5, r5, r2
852125d8:	e593200c 	ldr	r2, [r3, #12]
852125dc:	e5835008 	str	r5, [r3, #8]
852125e0:	e022200a 	eor	r2, r2, sl
852125e4:	e583200c 	str	r2, [r3, #12]
852125e8:	e59d3004 	ldr	r3, [sp, #4]
852125ec:	e5937000 	ldr	r7, [r3]
852125f0:	e5936004 	ldr	r6, [r3, #4]
852125f4:	e5935008 	ldr	r5, [r3, #8]
852125f8:	e593a00c 	ldr	sl, [r3, #12]
852125fc:	e12fff34 	blx	r4
85212600:	eaffffe3 	b	85212594 <aes_cbc128_decrypt+0x50>
85212604:	e3a0202c 	mov	r2, #44	; 0x2c
85212608:	e3a01000 	mov	r1, #0
8521260c:	e28d0020 	add	r0, sp, #32
85212610:	eb000823 	bl	852146a4 <lib_memset>
85212614:	e3a00000 	mov	r0, #0
85212618:	e28dd0d4 	add	sp, sp, #212	; 0xd4
8521261c:	e8bd86f0 	pop	{r4, r5, r6, r7, r9, sl, pc}
85212620:	85212478 	.word	0x85212478
85212624:	8521245c 	.word	0x8521245c

85212628 <decryptWithEk>:
85212628:	e1a0c003 	mov	ip, r3
8521262c:	e1a03002 	mov	r3, r2
85212630:	e1a0200c 	mov	r2, ip
85212634:	eaffffc2 	b	85212544 <aes_cbc128_decrypt>

85212638 <LzmaDecodeProperties>:
85212638:	e3520004 	cmp	r2, #4
8521263c:	da000019 	ble	852126a8 <LzmaDecodeProperties+0x70>
85212640:	e5d13000 	ldrb	r3, [r1]
85212644:	e35300e0 	cmp	r3, #224	; 0xe0
85212648:	93a02000 	movls	r2, #0
8521264c:	95802008 	strls	r2, [r0, #8]
85212650:	8a000014 	bhi	852126a8 <LzmaDecodeProperties+0x70>
85212654:	e353002c 	cmp	r3, #44	; 0x2c
85212658:	9a000005 	bls	85212674 <LzmaDecodeProperties+0x3c>
8521265c:	e5902008 	ldr	r2, [r0, #8]
85212660:	e243302d 	sub	r3, r3, #45	; 0x2d
85212664:	e2822001 	add	r2, r2, #1
85212668:	e6ef3073 	uxtb	r3, r3
8521266c:	e5802008 	str	r2, [r0, #8]
85212670:	eafffff7 	b	85212654 <LzmaDecodeProperties+0x1c>
85212674:	e3a02000 	mov	r2, #0
85212678:	e5802004 	str	r2, [r0, #4]
8521267c:	e3530008 	cmp	r3, #8
85212680:	9a000005 	bls	8521269c <LzmaDecodeProperties+0x64>
85212684:	e5902004 	ldr	r2, [r0, #4]
85212688:	e2433009 	sub	r3, r3, #9
8521268c:	e2822001 	add	r2, r2, #1
85212690:	e6ef3073 	uxtb	r3, r3
85212694:	e5802004 	str	r2, [r0, #4]
85212698:	eafffff7 	b	8521267c <LzmaDecodeProperties+0x44>
8521269c:	e5803000 	str	r3, [r0]
852126a0:	e3a00000 	mov	r0, #0
852126a4:	e12fff1e 	bx	lr
852126a8:	e3a00001 	mov	r0, #1
852126ac:	e12fff1e 	bx	lr

852126b0 <LzmaDecode>:
852126b0:	e92d4ef0 	push	{r4, r5, r6, r7, r9, sl, fp, lr}
852126b4:	e24dd030 	sub	sp, sp, #48	; 0x30
852126b8:	e590c00c 	ldr	ip, [r0, #12]
852126bc:	e3a0eb01 	mov	lr, #1024	; 0x400
852126c0:	e58d100c 	str	r1, [sp, #12]
852126c4:	e5901008 	ldr	r1, [r0, #8]
852126c8:	e58d301c 	str	r3, [sp, #28]
852126cc:	e3a03001 	mov	r3, #1
852126d0:	e1a01113 	lsl	r1, r3, r1
852126d4:	e2411001 	sub	r1, r1, #1
852126d8:	e58d1020 	str	r1, [sp, #32]
852126dc:	e5901004 	ldr	r1, [r0, #4]
852126e0:	e1a03113 	lsl	r3, r3, r1
852126e4:	e3a01000 	mov	r1, #0
852126e8:	e2433001 	sub	r3, r3, #1
852126ec:	e58d3024 	str	r3, [sp, #36]	; 0x24
852126f0:	e5903000 	ldr	r3, [r0]
852126f4:	e58d3014 	str	r3, [sp, #20]
852126f8:	e59d301c 	ldr	r3, [sp, #28]
852126fc:	e5831000 	str	r1, [r3]
85212700:	e59d3058 	ldr	r3, [sp, #88]	; 0x58
85212704:	e5831000 	str	r1, [r3]
85212708:	e5903004 	ldr	r3, [r0, #4]
8521270c:	e59d0014 	ldr	r0, [sp, #20]
85212710:	e0803003 	add	r3, r0, r3
85212714:	e3a00c03 	mov	r0, #768	; 0x300
85212718:	e1a03310 	lsl	r3, r0, r3
8521271c:	e24c0002 	sub	r0, ip, #2
85212720:	e2833e73 	add	r3, r3, #1840	; 0x730
85212724:	e2833006 	add	r3, r3, #6
85212728:	e1510003 	cmp	r1, r3
8521272c:	31e0e0b2 	strhcc	lr, [r0, #2]!
85212730:	32811001 	addcc	r1, r1, #1
85212734:	3afffffb 	bcc	85212728 <LzmaDecode+0x78>
85212738:	e59d300c 	ldr	r3, [sp, #12]
8521273c:	e2831005 	add	r1, r3, #5
85212740:	e083a002 	add	sl, r3, r2
85212744:	e3a02000 	mov	r2, #0
85212748:	e15a0003 	cmp	sl, r3
8521274c:	1a000001 	bne	85212758 <LzmaDecode+0xa8>
85212750:	e3a00001 	mov	r0, #1
85212754:	ea000219 	b	85212fc0 <LzmaDecode+0x910>
85212758:	e4d30001 	ldrb	r0, [r3], #1
8521275c:	e1510003 	cmp	r1, r3
85212760:	e1802402 	orr	r2, r0, r2, lsl #8
85212764:	1afffff7 	bne	85212748 <LzmaDecode+0x98>
85212768:	e3a0e000 	mov	lr, #0
8521276c:	e59d4014 	ldr	r4, [sp, #20]
85212770:	e3a00001 	mov	r0, #1
85212774:	e3e03000 	mvn	r3, #0
85212778:	e58d0010 	str	r0, [sp, #16]
8521277c:	e1a0b00e 	mov	fp, lr
85212780:	e58d0004 	str	r0, [sp, #4]
85212784:	e2644008 	rsb	r4, r4, #8
85212788:	e58d0008 	str	r0, [sp, #8]
8521278c:	e58d0000 	str	r0, [sp]
85212790:	e1a0000e 	mov	r0, lr
85212794:	e58d4028 	str	r4, [sp, #40]	; 0x28
85212798:	e59d4054 	ldr	r4, [sp, #84]	; 0x54
8521279c:	e15b0004 	cmp	fp, r4
852127a0:	2a0001fa 	bcs	85212f90 <LzmaDecode+0x8e0>
852127a4:	e59d4020 	ldr	r4, [sp, #32]
852127a8:	e3530401 	cmp	r3, #16777216	; 0x1000000
852127ac:	e00b9004 	and	r9, fp, r4
852127b0:	e089620e 	add	r6, r9, lr, lsl #4
852127b4:	e1a06086 	lsl	r6, r6, #1
852127b8:	2a000005 	bcs	852127d4 <LzmaDecode+0x124>
852127bc:	e151000a 	cmp	r1, sl
852127c0:	0affffe2 	beq	85212750 <LzmaDecode+0xa0>
852127c4:	e5d14000 	ldrb	r4, [r1]
852127c8:	e1a03403 	lsl	r3, r3, #8
852127cc:	e2811001 	add	r1, r1, #1
852127d0:	e1842402 	orr	r2, r4, r2, lsl #8
852127d4:	e19c50b6 	ldrh	r5, [ip, r6]
852127d8:	e1a045a3 	lsr	r4, r3, #11
852127dc:	e0040594 	mul	r4, r4, r5
852127e0:	e1520004 	cmp	r2, r4
852127e4:	2a000065 	bcs	85212980 <LzmaDecode+0x2d0>
852127e8:	e2653b02 	rsb	r3, r5, #2048	; 0x800
852127ec:	e35e0006 	cmp	lr, #6
852127f0:	e08552c3 	add	r5, r5, r3, asr #5
852127f4:	e59d3024 	ldr	r3, [sp, #36]	; 0x24
852127f8:	e18c50b6 	strh	r5, [ip, r6]
852127fc:	e00b5003 	and	r5, fp, r3
85212800:	e59d3028 	ldr	r3, [sp, #40]	; 0x28
85212804:	e1a00350 	asr	r0, r0, r3
85212808:	e59d3014 	ldr	r3, [sp, #20]
8521280c:	e0805315 	add	r5, r0, r5, lsl r3
85212810:	e3a03c06 	mov	r3, #1536	; 0x600
85212814:	d3a00001 	movle	r0, #1
85212818:	e025c593 	mla	r5, r3, r5, ip
8521281c:	e2855ee6 	add	r5, r5, #3680	; 0xe60
85212820:	e285500c 	add	r5, r5, #12
85212824:	da00003f 	ble	85212928 <LzmaDecode+0x278>
85212828:	e59d3000 	ldr	r3, [sp]
8521282c:	e59d0050 	ldr	r0, [sp, #80]	; 0x50
85212830:	e063300b 	rsb	r3, r3, fp
85212834:	e7d09003 	ldrb	r9, [r0, r3]
85212838:	e1a03004 	mov	r3, r4
8521283c:	e3a00001 	mov	r0, #1
85212840:	e1a09089 	lsl	r9, r9, #1
85212844:	e3530401 	cmp	r3, #16777216	; 0x1000000
85212848:	e2094c01 	and	r4, r9, #256	; 0x100
8521284c:	e58d4018 	str	r4, [sp, #24]
85212850:	e2846c01 	add	r6, r4, #256	; 0x100
85212854:	e0866000 	add	r6, r6, r0
85212858:	e1a06086 	lsl	r6, r6, #1
8521285c:	2a000005 	bcs	85212878 <LzmaDecode+0x1c8>
85212860:	e151000a 	cmp	r1, sl
85212864:	0affffb9 	beq	85212750 <LzmaDecode+0xa0>
85212868:	e5d14000 	ldrb	r4, [r1]
8521286c:	e1a03403 	lsl	r3, r3, #8
85212870:	e2811001 	add	r1, r1, #1
85212874:	e1842402 	orr	r2, r4, r2, lsl #8
85212878:	e19570b6 	ldrh	r7, [r5, r6]
8521287c:	e1a045a3 	lsr	r4, r3, #11
85212880:	e0040794 	mul	r4, r4, r7
85212884:	e1520004 	cmp	r2, r4
85212888:	2a000008 	bcs	852128b0 <LzmaDecode+0x200>
8521288c:	e2673b02 	rsb	r3, r7, #2048	; 0x800
85212890:	e1a00080 	lsl	r0, r0, #1
85212894:	e08772c3 	add	r7, r7, r3, asr #5
85212898:	e59d3018 	ldr	r3, [sp, #24]
8521289c:	e18570b6 	strh	r7, [r5, r6]
852128a0:	e3530000 	cmp	r3, #0
852128a4:	1a00001f 	bne	85212928 <LzmaDecode+0x278>
852128a8:	e1a03004 	mov	r3, r4
852128ac:	ea000009 	b	852128d8 <LzmaDecode+0x228>
852128b0:	e0643003 	rsb	r3, r4, r3
852128b4:	e0642002 	rsb	r2, r4, r2
852128b8:	e2094c01 	and	r4, r9, #256	; 0x100
852128bc:	e1a00080 	lsl	r0, r0, #1
852128c0:	e3540000 	cmp	r4, #0
852128c4:	e04772a7 	sub	r7, r7, r7, lsr #5
852128c8:	e2800001 	add	r0, r0, #1
852128cc:	e18570b6 	strh	r7, [r5, r6]
852128d0:	01a04003 	moveq	r4, r3
852128d4:	0a000013 	beq	85212928 <LzmaDecode+0x278>
852128d8:	e35000ff 	cmp	r0, #255	; 0xff
852128dc:	daffffd7 	ble	85212840 <LzmaDecode+0x190>
852128e0:	ea00001b 	b	85212954 <LzmaDecode+0x2a4>
852128e4:	e3530401 	cmp	r3, #16777216	; 0x1000000
852128e8:	e1a07080 	lsl	r7, r0, #1
852128ec:	3a000011 	bcc	85212938 <LzmaDecode+0x288>
852128f0:	e19560b7 	ldrh	r6, [r5, r7]
852128f4:	e1a045a3 	lsr	r4, r3, #11
852128f8:	e0040694 	mul	r4, r4, r6
852128fc:	e1520004 	cmp	r2, r4
85212900:	21a00080 	lslcs	r0, r0, #1
85212904:	32663b02 	rsbcc	r3, r6, #2048	; 0x800
85212908:	20642002 	rsbcs	r2, r4, r2
8521290c:	31a00080 	lslcc	r0, r0, #1
85212910:	22800001 	addcs	r0, r0, #1
85212914:	20644003 	rsbcs	r4, r4, r3
85212918:	308662c3 	addcc	r6, r6, r3, asr #5
8521291c:	204662a6 	subcs	r6, r6, r6, lsr #5
85212920:	318560b7 	strhcc	r6, [r5, r7]
85212924:	218560b7 	strhcs	r6, [r5, r7]
85212928:	e35000ff 	cmp	r0, #255	; 0xff
8521292c:	e1a03004 	mov	r3, r4
85212930:	daffffeb 	ble	852128e4 <LzmaDecode+0x234>
85212934:	ea000006 	b	85212954 <LzmaDecode+0x2a4>
85212938:	e151000a 	cmp	r1, sl
8521293c:	0affff83 	beq	85212750 <LzmaDecode+0xa0>
85212940:	e5d14000 	ldrb	r4, [r1]
85212944:	e1a03403 	lsl	r3, r3, #8
85212948:	e2811001 	add	r1, r1, #1
8521294c:	e1842402 	orr	r2, r4, r2, lsl #8
85212950:	eaffffe6 	b	852128f0 <LzmaDecode+0x240>
85212954:	e59d5050 	ldr	r5, [sp, #80]	; 0x50
85212958:	e35e0003 	cmp	lr, #3
8521295c:	e6ef0070 	uxtb	r0, r0
85212960:	e28b4001 	add	r4, fp, #1
85212964:	d3a0e000 	movle	lr, #0
85212968:	e7c5000b 	strb	r0, [r5, fp]
8521296c:	da000185 	ble	85212f88 <LzmaDecode+0x8d8>
85212970:	e35e0009 	cmp	lr, #9
85212974:	d24ee003 	suble	lr, lr, #3
85212978:	c24ee006 	subgt	lr, lr, #6
8521297c:	ea000181 	b	85212f88 <LzmaDecode+0x8d8>
85212980:	e0643003 	rsb	r3, r4, r3
85212984:	e28e00c0 	add	r0, lr, #192	; 0xc0
85212988:	e3530401 	cmp	r3, #16777216	; 0x1000000
8521298c:	e04552a5 	sub	r5, r5, r5, lsr #5
85212990:	e0642002 	rsb	r2, r4, r2
85212994:	e18c50b6 	strh	r5, [ip, r6]
85212998:	e1a00080 	lsl	r0, r0, #1
8521299c:	2a000005 	bcs	852129b8 <LzmaDecode+0x308>
852129a0:	e151000a 	cmp	r1, sl
852129a4:	0affff69 	beq	85212750 <LzmaDecode+0xa0>
852129a8:	e5d14000 	ldrb	r4, [r1]
852129ac:	e1a03403 	lsl	r3, r3, #8
852129b0:	e2811001 	add	r1, r1, #1
852129b4:	e1842402 	orr	r2, r4, r2, lsl #8
852129b8:	e19c50b0 	ldrh	r5, [ip, r0]
852129bc:	e1a045a3 	lsr	r4, r3, #11
852129c0:	e0040594 	mul	r4, r4, r5
852129c4:	e1520004 	cmp	r2, r4
852129c8:	2a00000d 	bcs	85212a04 <LzmaDecode+0x354>
852129cc:	e2653b02 	rsb	r3, r5, #2048	; 0x800
852129d0:	e35e0007 	cmp	lr, #7
852129d4:	e08552c3 	add	r5, r5, r3, asr #5
852129d8:	e59d3004 	ldr	r3, [sp, #4]
852129dc:	e18c50b0 	strh	r5, [ip, r0]
852129e0:	e28c0e66 	add	r0, ip, #1632	; 0x660
852129e4:	b3a0e000 	movlt	lr, #0
852129e8:	a3a0e003 	movge	lr, #3
852129ec:	e58d3010 	str	r3, [sp, #16]
852129f0:	e2800004 	add	r0, r0, #4
852129f4:	e59d3008 	ldr	r3, [sp, #8]
852129f8:	e58d3004 	str	r3, [sp, #4]
852129fc:	e59d3000 	ldr	r3, [sp]
85212a00:	ea00007a 	b	85212bf0 <LzmaDecode+0x540>
85212a04:	e0643003 	rsb	r3, r4, r3
85212a08:	e04552a5 	sub	r5, r5, r5, lsr #5
85212a0c:	e3530401 	cmp	r3, #16777216	; 0x1000000
85212a10:	e0642002 	rsb	r2, r4, r2
85212a14:	e18c50b0 	strh	r5, [ip, r0]
85212a18:	e2807018 	add	r7, r0, #24
85212a1c:	2a000005 	bcs	85212a38 <LzmaDecode+0x388>
85212a20:	e151000a 	cmp	r1, sl
85212a24:	0affff49 	beq	85212750 <LzmaDecode+0xa0>
85212a28:	e5d14000 	ldrb	r4, [r1]
85212a2c:	e1a03403 	lsl	r3, r3, #8
85212a30:	e2811001 	add	r1, r1, #1
85212a34:	e1842402 	orr	r2, r4, r2, lsl #8
85212a38:	e19c50b7 	ldrh	r5, [ip, r7]
85212a3c:	e1a045a3 	lsr	r4, r3, #11
85212a40:	e0040594 	mul	r4, r4, r5
85212a44:	e1520004 	cmp	r2, r4
85212a48:	2a000029 	bcs	85212af4 <LzmaDecode+0x444>
85212a4c:	e2653b02 	rsb	r3, r5, #2048	; 0x800
85212a50:	e3540401 	cmp	r4, #16777216	; 0x1000000
85212a54:	e2866e1e 	add	r6, r6, #480	; 0x1e0
85212a58:	e08552c3 	add	r5, r5, r3, asr #5
85212a5c:	e18c50b7 	strh	r5, [ip, r7]
85212a60:	2a000005 	bcs	85212a7c <LzmaDecode+0x3cc>
85212a64:	e151000a 	cmp	r1, sl
85212a68:	0affff38 	beq	85212750 <LzmaDecode+0xa0>
85212a6c:	e5d13000 	ldrb	r3, [r1]
85212a70:	e1a04404 	lsl	r4, r4, #8
85212a74:	e2811001 	add	r1, r1, #1
85212a78:	e1832402 	orr	r2, r3, r2, lsl #8
85212a7c:	e19c00b6 	ldrh	r0, [ip, r6]
85212a80:	e1a035a4 	lsr	r3, r4, #11
85212a84:	e0030093 	mul	r3, r3, r0
85212a88:	e1520003 	cmp	r2, r3
85212a8c:	2a00000f 	bcs	85212ad0 <LzmaDecode+0x420>
85212a90:	e2604b02 	rsb	r4, r0, #2048	; 0x800
85212a94:	e35b0000 	cmp	fp, #0
85212a98:	e08002c4 	add	r0, r0, r4, asr #5
85212a9c:	e18c00b6 	strh	r0, [ip, r6]
85212aa0:	0affff2a 	beq	85212750 <LzmaDecode+0xa0>
85212aa4:	e59d0000 	ldr	r0, [sp]
85212aa8:	e35e0007 	cmp	lr, #7
85212aac:	e59d4050 	ldr	r4, [sp, #80]	; 0x50
85212ab0:	e060000b 	rsb	r0, r0, fp
85212ab4:	e59d5050 	ldr	r5, [sp, #80]	; 0x50
85212ab8:	b3a0e009 	movlt	lr, #9
85212abc:	a3a0e00b 	movge	lr, #11
85212ac0:	e7d40000 	ldrb	r0, [r4, r0]
85212ac4:	e28b4001 	add	r4, fp, #1
85212ac8:	e7c5000b 	strb	r0, [r5, fp]
85212acc:	ea00012d 	b	85212f88 <LzmaDecode+0x8d8>
85212ad0:	e04002a0 	sub	r0, r0, r0, lsr #5
85212ad4:	e0634004 	rsb	r4, r3, r4
85212ad8:	e0632002 	rsb	r2, r3, r2
85212adc:	e18c00b6 	strh	r0, [ip, r6]
85212ae0:	e89d0009 	ldm	sp, {r0, r3}
85212ae4:	e58d0004 	str	r0, [sp, #4]
85212ae8:	e59d0008 	ldr	r0, [sp, #8]
85212aec:	e58d0000 	str	r0, [sp]
85212af0:	ea000017 	b	85212b54 <LzmaDecode+0x4a4>
85212af4:	e0643003 	rsb	r3, r4, r3
85212af8:	e04552a5 	sub	r5, r5, r5, lsr #5
85212afc:	e3530401 	cmp	r3, #16777216	; 0x1000000
85212b00:	e0642002 	rsb	r2, r4, r2
85212b04:	e18c50b7 	strh	r5, [ip, r7]
85212b08:	e2806030 	add	r6, r0, #48	; 0x30
85212b0c:	2a000005 	bcs	85212b28 <LzmaDecode+0x478>
85212b10:	e151000a 	cmp	r1, sl
85212b14:	0affff0d 	beq	85212750 <LzmaDecode+0xa0>
85212b18:	e5d14000 	ldrb	r4, [r1]
85212b1c:	e1a03403 	lsl	r3, r3, #8
85212b20:	e2811001 	add	r1, r1, #1
85212b24:	e1842402 	orr	r2, r4, r2, lsl #8
85212b28:	e19c50b6 	ldrh	r5, [ip, r6]
85212b2c:	e1a045a3 	lsr	r4, r3, #11
85212b30:	e0040594 	mul	r4, r4, r5
85212b34:	e1520004 	cmp	r2, r4
85212b38:	2a000007 	bcs	85212b5c <LzmaDecode+0x4ac>
85212b3c:	e59d0008 	ldr	r0, [sp, #8]
85212b40:	e2653b02 	rsb	r3, r5, #2048	; 0x800
85212b44:	e08552c3 	add	r5, r5, r3, asr #5
85212b48:	e59d3004 	ldr	r3, [sp, #4]
85212b4c:	e18c50b6 	strh	r5, [ip, r6]
85212b50:	e58d0004 	str	r0, [sp, #4]
85212b54:	e58d3008 	str	r3, [sp, #8]
85212b58:	ea00001b 	b	85212bcc <LzmaDecode+0x51c>
85212b5c:	e0643003 	rsb	r3, r4, r3
85212b60:	e04552a5 	sub	r5, r5, r5, lsr #5
85212b64:	e3530401 	cmp	r3, #16777216	; 0x1000000
85212b68:	e0642002 	rsb	r2, r4, r2
85212b6c:	e18c50b6 	strh	r5, [ip, r6]
85212b70:	e2800048 	add	r0, r0, #72	; 0x48
85212b74:	2a000005 	bcs	85212b90 <LzmaDecode+0x4e0>
85212b78:	e151000a 	cmp	r1, sl
85212b7c:	0afffef3 	beq	85212750 <LzmaDecode+0xa0>
85212b80:	e5d14000 	ldrb	r4, [r1]
85212b84:	e1a03403 	lsl	r3, r3, #8
85212b88:	e2811001 	add	r1, r1, #1
85212b8c:	e1842402 	orr	r2, r4, r2, lsl #8
85212b90:	e19c50b0 	ldrh	r5, [ip, r0]
85212b94:	e1a045a3 	lsr	r4, r3, #11
85212b98:	e0040594 	mul	r4, r4, r5
85212b9c:	e1520004 	cmp	r2, r4
85212ba0:	20642002 	rsbcs	r2, r4, r2
85212ba4:	204552a5 	subcs	r5, r5, r5, lsr #5
85212ba8:	20644003 	rsbcs	r4, r4, r3
85212bac:	218c50b0 	strhcs	r5, [ip, r0]
85212bb0:	259d3004 	ldrcs	r3, [sp, #4]
85212bb4:	32653b02 	rsbcc	r3, r5, #2048	; 0x800
85212bb8:	259d0010 	ldrcs	r0, [sp, #16]
85212bbc:	308552c3 	addcc	r5, r5, r3, asr #5
85212bc0:	318c50b0 	strhcc	r5, [ip, r0]
85212bc4:	258d3010 	strcs	r3, [sp, #16]
85212bc8:	258d0004 	strcs	r0, [sp, #4]
85212bcc:	e89d0028 	ldm	sp, {r3, r5}
85212bd0:	e35e0007 	cmp	lr, #7
85212bd4:	e28c0ea6 	add	r0, ip, #2656	; 0xa60
85212bd8:	e2800008 	add	r0, r0, #8
85212bdc:	b3a0e008 	movlt	lr, #8
85212be0:	e58d5000 	str	r5, [sp]
85212be4:	a3a0e00b 	movge	lr, #11
85212be8:	e59d5008 	ldr	r5, [sp, #8]
85212bec:	e58d5004 	str	r5, [sp, #4]
85212bf0:	e3540401 	cmp	r4, #16777216	; 0x1000000
85212bf4:	e58d3008 	str	r3, [sp, #8]
85212bf8:	2a000005 	bcs	85212c14 <LzmaDecode+0x564>
85212bfc:	e151000a 	cmp	r1, sl
85212c00:	0afffed2 	beq	85212750 <LzmaDecode+0xa0>
85212c04:	e5d13000 	ldrb	r3, [r1]
85212c08:	e1a04404 	lsl	r4, r4, #8
85212c0c:	e2811001 	add	r1, r1, #1
85212c10:	e1832402 	orr	r2, r3, r2, lsl #8
85212c14:	e1d050b0 	ldrh	r5, [r0]
85212c18:	e1a035a4 	lsr	r3, r4, #11
85212c1c:	e0030593 	mul	r3, r3, r5
85212c20:	e1520003 	cmp	r2, r3
85212c24:	2a000006 	bcs	85212c44 <LzmaDecode+0x594>
85212c28:	e2654b02 	rsb	r4, r5, #2048	; 0x800
85212c2c:	e08552c4 	add	r5, r5, r4, asr #5
85212c30:	e1c050b0 	strh	r5, [r0]
85212c34:	e0800209 	add	r0, r0, r9, lsl #4
85212c38:	e3a09000 	mov	r9, #0
85212c3c:	e2800004 	add	r0, r0, #4
85212c40:	ea000016 	b	85212ca0 <LzmaDecode+0x5f0>
85212c44:	e0634004 	rsb	r4, r3, r4
85212c48:	e04552a5 	sub	r5, r5, r5, lsr #5
85212c4c:	e3540401 	cmp	r4, #16777216	; 0x1000000
85212c50:	e0632002 	rsb	r2, r3, r2
85212c54:	e1c050b0 	strh	r5, [r0]
85212c58:	2a000005 	bcs	85212c74 <LzmaDecode+0x5c4>
85212c5c:	e151000a 	cmp	r1, sl
85212c60:	0afffeba 	beq	85212750 <LzmaDecode+0xa0>
85212c64:	e5d13000 	ldrb	r3, [r1]
85212c68:	e1a04404 	lsl	r4, r4, #8
85212c6c:	e2811001 	add	r1, r1, #1
85212c70:	e1832402 	orr	r2, r3, r2, lsl #8
85212c74:	e1d050b2 	ldrh	r5, [r0, #2]
85212c78:	e1a035a4 	lsr	r3, r4, #11
85212c7c:	e0030593 	mul	r3, r3, r5
85212c80:	e1520003 	cmp	r2, r3
85212c84:	2a000007 	bcs	85212ca8 <LzmaDecode+0x5f8>
85212c88:	e2654b02 	rsb	r4, r5, #2048	; 0x800
85212c8c:	e08552c4 	add	r5, r5, r4, asr #5
85212c90:	e1c050b2 	strh	r5, [r0, #2]
85212c94:	e0800209 	add	r0, r0, r9, lsl #4
85212c98:	e3a09008 	mov	r9, #8
85212c9c:	e2800f41 	add	r0, r0, #260	; 0x104
85212ca0:	e3a07003 	mov	r7, #3
85212ca4:	ea000006 	b	85212cc4 <LzmaDecode+0x614>
85212ca8:	e0632002 	rsb	r2, r3, r2
85212cac:	e04552a5 	sub	r5, r5, r5, lsr #5
85212cb0:	e0633004 	rsb	r3, r3, r4
85212cb4:	e1c050b2 	strh	r5, [r0, #2]
85212cb8:	e2800f81 	add	r0, r0, #516	; 0x204
85212cbc:	e3a09010 	mov	r9, #16
85212cc0:	e3a07008 	mov	r7, #8
85212cc4:	e3a04001 	mov	r4, #1
85212cc8:	e58d7018 	str	r7, [sp, #24]
85212ccc:	e3530401 	cmp	r3, #16777216	; 0x1000000
85212cd0:	e0805084 	add	r5, r0, r4, lsl #1
85212cd4:	e58d502c 	str	r5, [sp, #44]	; 0x2c
85212cd8:	2a000005 	bcs	85212cf4 <LzmaDecode+0x644>
85212cdc:	e151000a 	cmp	r1, sl
85212ce0:	0afffe9a 	beq	85212750 <LzmaDecode+0xa0>
85212ce4:	e5d15000 	ldrb	r5, [r1]
85212ce8:	e1a03403 	lsl	r3, r3, #8
85212cec:	e2811001 	add	r1, r1, #1
85212cf0:	e1852402 	orr	r2, r5, r2, lsl #8
85212cf4:	e0806084 	add	r6, r0, r4, lsl #1
85212cf8:	e1a055a3 	lsr	r5, r3, #11
85212cfc:	e1d660b0 	ldrh	r6, [r6]
85212d00:	e0050695 	mul	r5, r5, r6
85212d04:	e1520005 	cmp	r2, r5
85212d08:	2a000006 	bcs	85212d28 <LzmaDecode+0x678>
85212d0c:	e2663b02 	rsb	r3, r6, #2048	; 0x800
85212d10:	e08662c3 	add	r6, r6, r3, asr #5
85212d14:	e0803084 	add	r3, r0, r4, lsl #1
85212d18:	e1a04084 	lsl	r4, r4, #1
85212d1c:	e1c360b0 	strh	r6, [r3]
85212d20:	e1a03005 	mov	r3, r5
85212d24:	ea000006 	b	85212d44 <LzmaDecode+0x694>
85212d28:	e0653003 	rsb	r3, r5, r3
85212d2c:	e0652002 	rsb	r2, r5, r2
85212d30:	e0805084 	add	r5, r0, r4, lsl #1
85212d34:	e1a04084 	lsl	r4, r4, #1
85212d38:	e2844001 	add	r4, r4, #1
85212d3c:	e04662a6 	sub	r6, r6, r6, lsr #5
85212d40:	e1c560b0 	strh	r6, [r5]
85212d44:	e59d5018 	ldr	r5, [sp, #24]
85212d48:	e2555001 	subs	r5, r5, #1
85212d4c:	e58d5018 	str	r5, [sp, #24]
85212d50:	1affffdd 	bne	85212ccc <LzmaDecode+0x61c>
85212d54:	e3a00001 	mov	r0, #1
85212d58:	e35e0003 	cmp	lr, #3
85212d5c:	e0444710 	sub	r4, r4, r0, lsl r7
85212d60:	e0890004 	add	r0, r9, r4
85212d64:	e58d0018 	str	r0, [sp, #24]
85212d68:	ca000070 	bgt	85212f30 <LzmaDecode+0x880>
85212d6c:	e3500003 	cmp	r0, #3
85212d70:	e3a07006 	mov	r7, #6
85212d74:	b1a06000 	movlt	r6, r0
85212d78:	a3a06003 	movge	r6, #3
85212d7c:	e1a06386 	lsl	r6, r6, #7
85212d80:	e3a00001 	mov	r0, #1
85212d84:	e2866e36 	add	r6, r6, #864	; 0x360
85212d88:	e3530401 	cmp	r3, #16777216	; 0x1000000
85212d8c:	e0869080 	add	r9, r6, r0, lsl #1
85212d90:	2a000005 	bcs	85212dac <LzmaDecode+0x6fc>
85212d94:	e151000a 	cmp	r1, sl
85212d98:	0afffe6c 	beq	85212750 <LzmaDecode+0xa0>
85212d9c:	e5d14000 	ldrb	r4, [r1]
85212da0:	e1a03403 	lsl	r3, r3, #8
85212da4:	e2811001 	add	r1, r1, #1
85212da8:	e1842402 	orr	r2, r4, r2, lsl #8
85212dac:	e19c50b9 	ldrh	r5, [ip, r9]
85212db0:	e1a045a3 	lsr	r4, r3, #11
85212db4:	e0040594 	mul	r4, r4, r5
85212db8:	e1520004 	cmp	r2, r4
85212dbc:	32653b02 	rsbcc	r3, r5, #2048	; 0x800
85212dc0:	21a00080 	lslcs	r0, r0, #1
85212dc4:	204552a5 	subcs	r5, r5, r5, lsr #5
85212dc8:	31a00080 	lslcc	r0, r0, #1
85212dcc:	308552c3 	addcc	r5, r5, r3, asr #5
85212dd0:	20643003 	rsbcs	r3, r4, r3
85212dd4:	318c50b9 	strhcc	r5, [ip, r9]
85212dd8:	31a03004 	movcc	r3, r4
85212ddc:	20642002 	rsbcs	r2, r4, r2
85212de0:	218c50b9 	strhcs	r5, [ip, r9]
85212de4:	22800001 	addcs	r0, r0, #1
85212de8:	e2577001 	subs	r7, r7, #1
85212dec:	1affffe5 	bne	85212d88 <LzmaDecode+0x6d8>
85212df0:	e2400040 	sub	r0, r0, #64	; 0x40
85212df4:	e3500003 	cmp	r0, #3
85212df8:	da000047 	ble	85212f1c <LzmaDecode+0x86c>
85212dfc:	e350000d 	cmp	r0, #13
85212e00:	e2004001 	and	r4, r0, #1
85212e04:	e1a050c0 	asr	r5, r0, #1
85212e08:	e3844002 	orr	r4, r4, #2
85212e0c:	ca000006 	bgt	85212e2c <LzmaDecode+0x77c>
85212e10:	e2455001 	sub	r5, r5, #1
85212e14:	e2600fab 	rsb	r0, r0, #684	; 0x2ac
85212e18:	e1a04514 	lsl	r4, r4, r5
85212e1c:	e2800003 	add	r0, r0, #3
85212e20:	e0800004 	add	r0, r0, r4
85212e24:	e08c0080 	add	r0, ip, r0, lsl #1
85212e28:	ea000013 	b	85212e7c <LzmaDecode+0x7cc>
85212e2c:	e2455005 	sub	r5, r5, #5
85212e30:	e3530401 	cmp	r3, #16777216	; 0x1000000
85212e34:	2a000005 	bcs	85212e50 <LzmaDecode+0x7a0>
85212e38:	e151000a 	cmp	r1, sl
85212e3c:	0afffe43 	beq	85212750 <LzmaDecode+0xa0>
85212e40:	e5d10000 	ldrb	r0, [r1]
85212e44:	e1a03403 	lsl	r3, r3, #8
85212e48:	e2811001 	add	r1, r1, #1
85212e4c:	e1802402 	orr	r2, r0, r2, lsl #8
85212e50:	e1a030a3 	lsr	r3, r3, #1
85212e54:	e1a04084 	lsl	r4, r4, #1
85212e58:	e1520003 	cmp	r2, r3
85212e5c:	20632002 	rsbcs	r2, r3, r2
85212e60:	23844001 	orrcs	r4, r4, #1
85212e64:	e2555001 	subs	r5, r5, #1
85212e68:	1afffff0 	bne	85212e30 <LzmaDecode+0x780>
85212e6c:	e28c0d19 	add	r0, ip, #1600	; 0x640
85212e70:	e1a04204 	lsl	r4, r4, #4
85212e74:	e2800004 	add	r0, r0, #4
85212e78:	e3a05004 	mov	r5, #4
85212e7c:	e3a06001 	mov	r6, #1
85212e80:	e58d6000 	str	r6, [sp]
85212e84:	e3530401 	cmp	r3, #16777216	; 0x1000000
85212e88:	e0807086 	add	r7, r0, r6, lsl #1
85212e8c:	e58d702c 	str	r7, [sp, #44]	; 0x2c
85212e90:	2a000005 	bcs	85212eac <LzmaDecode+0x7fc>
85212e94:	e151000a 	cmp	r1, sl
85212e98:	0afffe2c 	beq	85212750 <LzmaDecode+0xa0>
85212e9c:	e5d17000 	ldrb	r7, [r1]
85212ea0:	e1a03403 	lsl	r3, r3, #8
85212ea4:	e2811001 	add	r1, r1, #1
85212ea8:	e1872402 	orr	r2, r7, r2, lsl #8
85212eac:	e0809086 	add	r9, r0, r6, lsl #1
85212eb0:	e1a075a3 	lsr	r7, r3, #11
85212eb4:	e1d990b0 	ldrh	r9, [r9]
85212eb8:	e0070997 	mul	r7, r7, r9
85212ebc:	e1520007 	cmp	r2, r7
85212ec0:	2a000006 	bcs	85212ee0 <LzmaDecode+0x830>
85212ec4:	e2693b02 	rsb	r3, r9, #2048	; 0x800
85212ec8:	e08992c3 	add	r9, r9, r3, asr #5
85212ecc:	e0803086 	add	r3, r0, r6, lsl #1
85212ed0:	e1a06086 	lsl	r6, r6, #1
85212ed4:	e1c390b0 	strh	r9, [r3]
85212ed8:	e1a03007 	mov	r3, r7
85212edc:	ea000008 	b	85212f04 <LzmaDecode+0x854>
85212ee0:	e0673003 	rsb	r3, r7, r3
85212ee4:	e0672002 	rsb	r2, r7, r2
85212ee8:	e0807086 	add	r7, r0, r6, lsl #1
85212eec:	e04992a9 	sub	r9, r9, r9, lsr #5
85212ef0:	e1a06086 	lsl	r6, r6, #1
85212ef4:	e1c790b0 	strh	r9, [r7]
85212ef8:	e2866001 	add	r6, r6, #1
85212efc:	e59d7000 	ldr	r7, [sp]
85212f00:	e1844007 	orr	r4, r4, r7
85212f04:	e59d7000 	ldr	r7, [sp]
85212f08:	e2555001 	subs	r5, r5, #1
85212f0c:	e1a07087 	lsl	r7, r7, #1
85212f10:	e58d7000 	str	r7, [sp]
85212f14:	1affffda 	bne	85212e84 <LzmaDecode+0x7d4>
85212f18:	ea000000 	b	85212f20 <LzmaDecode+0x870>
85212f1c:	e1a04000 	mov	r4, r0
85212f20:	e2940001 	adds	r0, r4, #1
85212f24:	e58d0000 	str	r0, [sp]
85212f28:	0a000018 	beq	85212f90 <LzmaDecode+0x8e0>
85212f2c:	e28ee007 	add	lr, lr, #7
85212f30:	e59d0018 	ldr	r0, [sp, #24]
85212f34:	e2806002 	add	r6, r0, #2
85212f38:	e59d0000 	ldr	r0, [sp]
85212f3c:	e15b0000 	cmp	fp, r0
85212f40:	3afffe02 	bcc	85212750 <LzmaDecode+0xa0>
85212f44:	e59d0050 	ldr	r0, [sp, #80]	; 0x50
85212f48:	e1a0400b 	mov	r4, fp
85212f4c:	e080700b 	add	r7, r0, fp
85212f50:	e59d0000 	ldr	r0, [sp]
85212f54:	e2609000 	rsb	r9, r0, #0
85212f58:	e2566001 	subs	r6, r6, #1
85212f5c:	e59db054 	ldr	fp, [sp, #84]	; 0x54
85212f60:	e2844001 	add	r4, r4, #1
85212f64:	e7d70009 	ldrb	r0, [r7, r9]
85212f68:	13a05001 	movne	r5, #1
85212f6c:	03a05000 	moveq	r5, #0
85212f70:	e15b0004 	cmp	fp, r4
85212f74:	93a05000 	movls	r5, #0
85212f78:	82055001 	andhi	r5, r5, #1
85212f7c:	e3550000 	cmp	r5, #0
85212f80:	e4c70001 	strb	r0, [r7], #1
85212f84:	1afffff3 	bne	85212f58 <LzmaDecode+0x8a8>
85212f88:	e1a0b004 	mov	fp, r4
85212f8c:	eafffe01 	b	85212798 <LzmaDecode+0xe8>
85212f90:	e3530401 	cmp	r3, #16777216	; 0x1000000
85212f94:	2a000002 	bcs	85212fa4 <LzmaDecode+0x8f4>
85212f98:	e151000a 	cmp	r1, sl
85212f9c:	0afffdeb 	beq	85212750 <LzmaDecode+0xa0>
85212fa0:	e2811001 	add	r1, r1, #1
85212fa4:	e59d300c 	ldr	r3, [sp, #12]
85212fa8:	e3a00000 	mov	r0, #0
85212fac:	e0631001 	rsb	r1, r3, r1
85212fb0:	e59d301c 	ldr	r3, [sp, #28]
85212fb4:	e5831000 	str	r1, [r3]
85212fb8:	e59d3058 	ldr	r3, [sp, #88]	; 0x58
85212fbc:	e583b000 	str	fp, [r3]
85212fc0:	e28dd030 	add	sp, sp, #48	; 0x30
85212fc4:	e8bd8ef0 	pop	{r4, r5, r6, r7, r9, sl, fp, pc}

85212fc8 <decompressLZMA>:
85212fc8:	e92d40f0 	push	{r4, r5, r6, r7, lr}
85212fcc:	e24dd02c 	sub	sp, sp, #44	; 0x2c
85212fd0:	e1a04000 	mov	r4, r0
85212fd4:	e1a05001 	mov	r5, r1
85212fd8:	e1a06002 	mov	r6, r2
85212fdc:	e1a01000 	mov	r1, r0
85212fe0:	e3a02005 	mov	r2, #5
85212fe4:	e28d0018 	add	r0, sp, #24
85212fe8:	e1a07003 	mov	r7, r3
85212fec:	ebfffd91 	bl	85212638 <LzmaDecodeProperties>
85212ff0:	e2501000 	subs	r1, r0, #0
85212ff4:	11a00001 	movne	r0, r1
85212ff8:	1a000039 	bne	852130e4 <decompressLZMA+0x11c>
85212ffc:	e59f00e8 	ldr	r0, [pc, #232]	; 852130ec <decompressLZMA+0x124>
85213000:	e59d3018 	ldr	r3, [sp, #24]
85213004:	e59d201c 	ldr	r2, [sp, #28]
85213008:	e5900000 	ldr	r0, [r0]
8521300c:	e3500000 	cmp	r0, #0
85213010:	e58d0024 	str	r0, [sp, #36]	; 0x24
85213014:	030003e9 	movweq	r0, #1001	; 0x3e9
85213018:	0a000031 	beq	852130e4 <decompressLZMA+0x11c>
8521301c:	e0832002 	add	r2, r3, r2
85213020:	e3a03c03 	mov	r3, #768	; 0x300
85213024:	e1a02213 	lsl	r2, r3, r2
85213028:	e2822e73 	add	r2, r2, #1840	; 0x730
8521302c:	e2822006 	add	r2, r2, #6
85213030:	e1a02082 	lsl	r2, r2, #1
85213034:	eb00059a 	bl	852146a4 <lib_memset>
85213038:	e5d43009 	ldrb	r3, [r4, #9]
8521303c:	e3530000 	cmp	r3, #0
85213040:	1a00001c 	bne	852130b8 <decompressLZMA+0xf0>
85213044:	e5d4300a 	ldrb	r3, [r4, #10]
85213048:	e3530000 	cmp	r3, #0
8521304c:	1a000019 	bne	852130b8 <decompressLZMA+0xf0>
85213050:	e5d4300b 	ldrb	r3, [r4, #11]
85213054:	e3530000 	cmp	r3, #0
85213058:	1a000016 	bne	852130b8 <decompressLZMA+0xf0>
8521305c:	e5d4300c 	ldrb	r3, [r4, #12]
85213060:	e3530000 	cmp	r3, #0
85213064:	1a000013 	bne	852130b8 <decompressLZMA+0xf0>
85213068:	e5d42006 	ldrb	r2, [r4, #6]
8521306c:	e5d43005 	ldrb	r3, [r4, #5]
85213070:	e1833402 	orr	r3, r3, r2, lsl #8
85213074:	e5d42007 	ldrb	r2, [r4, #7]
85213078:	e1833802 	orr	r3, r3, r2, lsl #16
8521307c:	e5d42008 	ldrb	r2, [r4, #8]
85213080:	e1833c02 	orr	r3, r3, r2, lsl #24
85213084:	e1570003 	cmp	r7, r3
85213088:	33a00ffa 	movcc	r0, #1000	; 0x3e8
8521308c:	3a000014 	bcc	852130e4 <decompressLZMA+0x11c>
85213090:	e28d2014 	add	r2, sp, #20
85213094:	e58d3004 	str	r3, [sp, #4]
85213098:	e58d2008 	str	r2, [sp, #8]
8521309c:	e28d3010 	add	r3, sp, #16
852130a0:	e58d6000 	str	r6, [sp]
852130a4:	e1a02005 	mov	r2, r5
852130a8:	e284100d 	add	r1, r4, #13
852130ac:	e28d0018 	add	r0, sp, #24
852130b0:	ebfffd7e 	bl	852126b0 <LzmaDecode>
852130b4:	ea00000a 	b	852130e4 <decompressLZMA+0x11c>
852130b8:	e59f0030 	ldr	r0, [pc, #48]	; 852130f0 <decompressLZMA+0x128>
852130bc:	eb00070b 	bl	85214cf0 <xprintf>
852130c0:	e28d3014 	add	r3, sp, #20
852130c4:	e88d00c0 	stm	sp, {r6, r7}
852130c8:	e1a02005 	mov	r2, r5
852130cc:	e58d3008 	str	r3, [sp, #8]
852130d0:	e2841005 	add	r1, r4, #5
852130d4:	e28d3010 	add	r3, sp, #16
852130d8:	e28d0018 	add	r0, sp, #24
852130dc:	ebfffd73 	bl	852126b0 <LzmaDecode>
852130e0:	e3a00000 	mov	r0, #0
852130e4:	e28dd02c 	add	sp, sp, #44	; 0x2c
852130e8:	e8bd80f0 	pop	{r4, r5, r6, r7, pc}
852130ec:	8520c058 	.word	0x8520c058
852130f0:	8521b9ec 	.word	0x8521b9ec

852130f4 <HTONL>:
852130f4:	e6bf0f30 	rev	r0, r0
852130f8:	e12fff1e 	bx	lr

852130fc <mpcompare>:
852130fc:	e5903000 	ldr	r3, [r0]
85213100:	e92d4010 	push	{r4, lr}
85213104:	e3530001 	cmp	r3, #1
85213108:	e591e000 	ldr	lr, [r1]
8521310c:	0590c004 	ldreq	ip, [r0, #4]
85213110:	13a0c000 	movne	ip, #0
85213114:	016fcf1c 	clzeq	ip, ip
85213118:	01a0c2ac 	lsreq	ip, ip, #5
8521311c:	e35e0001 	cmp	lr, #1
85213120:	05912004 	ldreq	r2, [r1, #4]
85213124:	13a02000 	movne	r2, #0
85213128:	016f2f12 	clzeq	r2, r2
8521312c:	01a022a2 	lsreq	r2, r2, #5
85213130:	e19c4002 	orrs	r4, ip, r2
85213134:	0a000001 	beq	85213140 <mpcompare+0x44>
85213138:	e062000c 	rsb	r0, r2, ip
8521313c:	e8bd8010 	pop	{r4, pc}
85213140:	e153000e 	cmp	r3, lr
85213144:	0a000001 	beq	85213150 <mpcompare+0x54>
85213148:	2a00000f 	bcs	8521318c <mpcompare+0x90>
8521314c:	ea000010 	b	85213194 <mpcompare+0x98>
85213150:	e3a02000 	mov	r2, #0
85213154:	e0800002 	add	r0, r0, r2
85213158:	e0811002 	add	r1, r1, r2
8521315c:	e3530000 	cmp	r3, #0
85213160:	0a000007 	beq	85213184 <mpcompare+0x88>
85213164:	e790c103 	ldr	ip, [r0, r3, lsl #2]
85213168:	e7912103 	ldr	r2, [r1, r3, lsl #2]
8521316c:	e15c0002 	cmp	ip, r2
85213170:	0a000001 	beq	8521317c <mpcompare+0x80>
85213174:	8a000004 	bhi	8521318c <mpcompare+0x90>
85213178:	ea000005 	b	85213194 <mpcompare+0x98>
8521317c:	e2433001 	sub	r3, r3, #1
85213180:	eafffff5 	b	8521315c <mpcompare+0x60>
85213184:	e1a00003 	mov	r0, r3
85213188:	e8bd8010 	pop	{r4, pc}
8521318c:	e3a00001 	mov	r0, #1
85213190:	e8bd8010 	pop	{r4, pc}
85213194:	e3e00000 	mvn	r0, #0
85213198:	e8bd8010 	pop	{r4, pc}

8521319c <mpsub>:
8521319c:	e1500001 	cmp	r0, r1
852131a0:	e3a0c000 	mov	ip, #0
852131a4:	e92d40f0 	push	{r4, r5, r6, r7, lr}
852131a8:	e3a05001 	mov	r5, #1
852131ac:	e5906000 	ldr	r6, [r0]
852131b0:	11a04005 	movne	r4, r5
852131b4:	e5917000 	ldr	r7, [r1]
852131b8:	1a000001 	bne	852131c4 <mpsub+0x28>
852131bc:	e8821020 	stm	r2, {r5, ip}
852131c0:	e8bd80f0 	pop	{r4, r5, r6, r7, pc}
852131c4:	e1540006 	cmp	r4, r6
852131c8:	8a00000f 	bhi	8521320c <mpsub+0x70>
852131cc:	e1540007 	cmp	r4, r7
852131d0:	e7903104 	ldr	r3, [r0, r4, lsl #2]
852131d4:	9791e104 	ldrls	lr, [r1, r4, lsl #2]
852131d8:	83a0e000 	movhi	lr, #0
852131dc:	e08cc00e 	add	ip, ip, lr
852131e0:	e15c0003 	cmp	ip, r3
852131e4:	82833101 	addhi	r3, r3, #1073741824	; 0x40000000
852131e8:	906c3003 	rsbls	r3, ip, r3
852131ec:	806c3003 	rsbhi	r3, ip, r3
852131f0:	93a0c000 	movls	ip, #0
852131f4:	83a0c001 	movhi	ip, #1
852131f8:	e3530000 	cmp	r3, #0
852131fc:	e7823104 	str	r3, [r2, r4, lsl #2]
85213200:	11a05004 	movne	r5, r4
85213204:	e2844001 	add	r4, r4, #1
85213208:	eaffffed 	b	852131c4 <mpsub+0x28>
8521320c:	e5825000 	str	r5, [r2]
85213210:	e8bd80f0 	pop	{r4, r5, r6, r7, pc}

85213214 <mpclshift>:
85213214:	e52de004 	push	{lr}		; (str lr, [sp, #-4]!)
85213218:	e590e000 	ldr	lr, [r0]
8521321c:	e35e0001 	cmp	lr, #1
85213220:	e081300e 	add	r3, r1, lr
85213224:	1a000002 	bne	85213234 <mpclshift+0x20>
85213228:	e590c004 	ldr	ip, [r0, #4]
8521322c:	e35c0000 	cmp	ip, #0
85213230:	049df004 	popeq	{pc}		; (ldreq pc, [sp], #4)
85213234:	e1a0c103 	lsl	ip, r3, #2
85213238:	e5823000 	str	r3, [r2]
8521323c:	e06cc10e 	rsb	ip, ip, lr, lsl #2
85213240:	e0822103 	add	r2, r2, r3, lsl #2
85213244:	e080000c 	add	r0, r0, ip
85213248:	e3530000 	cmp	r3, #0
8521324c:	0a000005 	beq	85213268 <mpclshift+0x54>
85213250:	e1530001 	cmp	r3, r1
85213254:	8790c103 	ldrhi	ip, [r0, r3, lsl #2]
85213258:	93a0c000 	movls	ip, #0
8521325c:	e2433001 	sub	r3, r3, #1
85213260:	e402c004 	str	ip, [r2], #-4
85213264:	eafffff7 	b	85213248 <mpclshift+0x34>
85213268:	e49df004 	pop	{pc}		; (ldr pc, [sp], #4)

8521326c <mpmul>:
8521326c:	e5913000 	ldr	r3, [r1]
85213270:	e590c000 	ldr	ip, [r0]
85213274:	e92d4ef3 	push	{r0, r1, r4, r5, r6, r7, r9, sl, fp, lr}
85213278:	e1a0e002 	mov	lr, r2
8521327c:	e58d3000 	str	r3, [sp]
85213280:	e24c3001 	sub	r3, ip, #1
85213284:	e58d3004 	str	r3, [sp, #4]
85213288:	e3a04000 	mov	r4, #0
8521328c:	e59d3000 	ldr	r3, [sp]
85213290:	e083c00c 	add	ip, r3, ip
85213294:	e1a0300c 	mov	r3, ip
85213298:	e3530000 	cmp	r3, #0
8521329c:	148e4004 	strne	r4, [lr], #4
852132a0:	12433001 	subne	r3, r3, #1
852132a4:	1afffffb 	bne	85213298 <mpmul+0x2c>
852132a8:	e3a06001 	mov	r6, #1
852132ac:	e59d3000 	ldr	r3, [sp]
852132b0:	e1560003 	cmp	r6, r3
852132b4:	8a000022 	bhi	85213344 <mpmul+0xd8>
852132b8:	e3a07000 	mov	r7, #0
852132bc:	e0829106 	add	r9, r2, r6, lsl #2
852132c0:	e1a04007 	mov	r4, r7
852132c4:	e2844001 	add	r4, r4, #1
852132c8:	e7915106 	ldr	r5, [r1, r6, lsl #2]
852132cc:	e5993000 	ldr	r3, [r9]
852132d0:	e790a104 	ldr	sl, [r0, r4, lsl #2]
852132d4:	e7eee055 	ubfx	lr, r5, #0, #15
852132d8:	e1a057a5 	lsr	r5, r5, #15
852132dc:	e7eeb05a 	ubfx	fp, sl, #0, #15
852132e0:	e1a0a7aa 	lsr	sl, sl, #15
852132e4:	e0233b9e 	mla	r3, lr, fp, r3
852132e8:	e00e0e9a 	mul	lr, sl, lr
852132ec:	e02eeb95 	mla	lr, r5, fp, lr
852132f0:	e08ee7a3 	add	lr, lr, r3, lsr #15
852132f4:	e7ee3053 	ubfx	r3, r3, #0, #15
852132f8:	e7eeb05e 	ubfx	fp, lr, #0, #15
852132fc:	e083378b 	add	r3, r3, fp, lsl #15
85213300:	e0833007 	add	r3, r3, r7
85213304:	e1a077ae 	lsr	r7, lr, #15
85213308:	e025759a 	mla	r5, sl, r5, r7
8521330c:	e0857f23 	add	r7, r5, r3, lsr #30
85213310:	e3c33103 	bic	r3, r3, #-1073741824	; 0xc0000000
85213314:	e4893004 	str	r3, [r9], #4
85213318:	e59d3004 	ldr	r3, [sp, #4]
8521331c:	e1530004 	cmp	r3, r4
85213320:	2affffe7 	bcs	852132c4 <mpmul+0x58>
85213324:	e0864004 	add	r4, r6, r4
85213328:	e2866001 	add	r6, r6, #1
8521332c:	e7827104 	str	r7, [r2, r4, lsl #2]
85213330:	eaffffdd 	b	852132ac <mpmul+0x40>
85213334:	e792310c 	ldr	r3, [r2, ip, lsl #2]
85213338:	e3530000 	cmp	r3, #0
8521333c:	1a000002 	bne	8521334c <mpmul+0xe0>
85213340:	e24cc001 	sub	ip, ip, #1
85213344:	e35c0001 	cmp	ip, #1
85213348:	8afffff9 	bhi	85213334 <mpmul+0xc8>
8521334c:	e582c000 	str	ip, [r2]
85213350:	e28dd008 	add	sp, sp, #8
85213354:	e8bd8ef0 	pop	{r4, r5, r6, r7, r9, sl, fp, pc}

85213358 <mplshift>:
85213358:	e590c000 	ldr	ip, [r0]
8521335c:	e92d4010 	push	{r4, lr}
85213360:	e261401e 	rsb	r4, r1, #30
85213364:	e1a0310c 	lsl	r3, ip, #2
85213368:	e582c000 	str	ip, [r2]
8521336c:	e080e003 	add	lr, r0, r3
85213370:	e790010c 	ldr	r0, [r0, ip, lsl #2]
85213374:	e0823003 	add	r3, r2, r3
85213378:	e1b00430 	lsrs	r0, r0, r4
8521337c:	15830004 	strne	r0, [r3, #4]
85213380:	128c0001 	addne	r0, ip, #1
85213384:	15820000 	strne	r0, [r2]
85213388:	e35c0001 	cmp	ip, #1
8521338c:	e59e2000 	ldr	r2, [lr]
85213390:	9a000006 	bls	852133b0 <mplshift+0x58>
85213394:	e53e0004 	ldr	r0, [lr, #-4]!
85213398:	e1a02112 	lsl	r2, r2, r1
8521339c:	e3c22103 	bic	r2, r2, #-1073741824	; 0xc0000000
852133a0:	e24cc001 	sub	ip, ip, #1
852133a4:	e1822430 	orr	r2, r2, r0, lsr r4
852133a8:	e4032004 	str	r2, [r3], #-4
852133ac:	eafffff5 	b	85213388 <mplshift+0x30>
852133b0:	e1a01112 	lsl	r1, r2, r1
852133b4:	e3c11103 	bic	r1, r1, #-1073741824	; 0xc0000000
852133b8:	e5831000 	str	r1, [r3]
852133bc:	e8bd8010 	pop	{r4, pc}

852133c0 <pack.constprop.3>:
852133c0:	e92d4ef0 	push	{r4, r5, r6, r7, r9, sl, fp, lr}
852133c4:	e28060fc 	add	r6, r0, #252	; 0xfc
852133c8:	e59000fc 	ldr	r0, [r0, #252]	; 0xfc
852133cc:	e3a07001 	mov	r7, #1
852133d0:	ebffff47 	bl	852130f4 <HTONL>
852133d4:	e3e0a000 	mvn	sl, #0
852133d8:	e3a03040 	mov	r3, #64	; 0x40
852133dc:	e3a02000 	mov	r2, #0
852133e0:	e3c05103 	bic	r5, r0, #-1073741824	; 0xc0000000
852133e4:	e2814004 	add	r4, r1, #4
852133e8:	e262c020 	rsb	ip, r2, #32
852133ec:	e2822002 	add	r2, r2, #2
852133f0:	e202201f 	and	r2, r2, #31
852133f4:	e1530007 	cmp	r3, r7
852133f8:	e1a0923a 	lsr	r9, sl, r2
852133fc:	e1a05c75 	ror	r5, r5, ip
85213400:	e4845004 	str	r5, [r4], #4
85213404:	e1c05009 	bic	r5, r0, r9
85213408:	9a000006 	bls	85213428 <pack.constprop.3+0x68>
8521340c:	e3520000 	cmp	r2, #0
85213410:	02866004 	addeq	r6, r6, #4
85213414:	02833001 	addeq	r3, r3, #1
85213418:	e5160004 	ldr	r0, [r6, #-4]
8521341c:	ebffff34 	bl	852130f4 <HTONL>
85213420:	e0009129 	and	r9, r0, r9, lsr #2
85213424:	e1855009 	orr	r5, r5, r9
85213428:	e2877001 	add	r7, r7, #1
8521342c:	e2466004 	sub	r6, r6, #4
85213430:	e1570003 	cmp	r7, r3
85213434:	9affffeb 	bls	852133e8 <pack.constprop.3+0x28>
85213438:	e2833001 	add	r3, r3, #1
8521343c:	e2622020 	rsb	r2, r2, #32
85213440:	e1a00004 	mov	r0, r4
85213444:	e1a02275 	ror	r2, r5, r2
85213448:	e4802004 	str	r2, [r0], #4
8521344c:	e3530001 	cmp	r3, #1
85213450:	8a000001 	bhi	8521345c <pack.constprop.3+0x9c>
85213454:	e5813000 	str	r3, [r1]
85213458:	e8bd8ef0 	pop	{r4, r5, r6, r7, r9, sl, fp, pc}
8521345c:	e5302004 	ldr	r2, [r0, #-4]!
85213460:	e3520000 	cmp	r2, #0
85213464:	1afffffa 	bne	85213454 <pack.constprop.3+0x94>
85213468:	e2433001 	sub	r3, r3, #1
8521346c:	eafffff6 	b	8521344c <pack.constprop.3+0x8c>

85213470 <mpcopy.constprop.5>:
85213470:	e5902000 	ldr	r2, [r0]
85213474:	e3a03000 	mov	r3, #0
85213478:	e59f1018 	ldr	r1, [pc, #24]	; 85213498 <mpcopy.constprop.5+0x28>
8521347c:	e2822001 	add	r2, r2, #1
85213480:	e1520003 	cmp	r2, r3
85213484:	1790c103 	ldrne	ip, [r0, r3, lsl #2]
85213488:	1781c103 	strne	ip, [r1, r3, lsl #2]
8521348c:	12833001 	addne	r3, r3, #1
85213490:	1afffffa 	bne	85213480 <mpcopy.constprop.5+0x10>
85213494:	e12fff1e 	bx	lr
85213498:	852204a8 	.word	0x852204a8

8521349c <Sec_verifyDigest.part.0>:
8521349c:	e3510c01 	cmp	r1, #256	; 0x100
852134a0:	1a0001fc 	bne	85213c98 <Sec_verifyDigest.part.0+0x7fc>
852134a4:	e3530c01 	cmp	r3, #256	; 0x100
852134a8:	1a0001fc 	bne	85213ca0 <Sec_verifyDigest.part.0+0x804>
852134ac:	e92d4ef0 	push	{r4, r5, r6, r7, r9, sl, fp, lr}
852134b0:	e24ddd21 	sub	sp, sp, #2112	; 0x840
852134b4:	e24dd008 	sub	sp, sp, #8
852134b8:	e1a04002 	mov	r4, r2
852134bc:	e59f17f0 	ldr	r1, [pc, #2032]	; 85213cb4 <Sec_verifyDigest.part.0+0x818>
852134c0:	ebffffbe 	bl	852133c0 <pack.constprop.3>
852134c4:	e59f17ec 	ldr	r1, [pc, #2028]	; 85213cb8 <Sec_verifyDigest.part.0+0x81c>
852134c8:	e1a00004 	mov	r0, r4
852134cc:	ebffffbb 	bl	852133c0 <pack.constprop.3>
852134d0:	e59f07dc 	ldr	r0, [pc, #2012]	; 85213cb4 <Sec_verifyDigest.part.0+0x818>
852134d4:	ebffffe5 	bl	85213470 <mpcopy.constprop.5>
852134d8:	e59f17dc 	ldr	r1, [pc, #2012]	; 85213cbc <Sec_verifyDigest.part.0+0x820>
852134dc:	e3a03000 	mov	r3, #0
852134e0:	e58d300c 	str	r3, [sp, #12]
852134e4:	e59f27d4 	ldr	r2, [pc, #2004]	; 85213cc0 <Sec_verifyDigest.part.0+0x824>
852134e8:	e59f07cc 	ldr	r0, [pc, #1996]	; 85213cbc <Sec_verifyDigest.part.0+0x820>
852134ec:	ebffff5e 	bl	8521326c <mpmul>
852134f0:	e3a03000 	mov	r3, #0
852134f4:	e58d3034 	str	r3, [sp, #52]	; 0x34
852134f8:	e3a02001 	mov	r2, #1
852134fc:	e59f37b4 	ldr	r3, [pc, #1972]	; 85213cb8 <Sec_verifyDigest.part.0+0x81c>
85213500:	e59f17b0 	ldr	r1, [pc, #1968]	; 85213cb8 <Sec_verifyDigest.part.0+0x81c>
85213504:	e58d2030 	str	r2, [sp, #48]	; 0x30
85213508:	e5933000 	ldr	r3, [r3]
8521350c:	e7911103 	ldr	r1, [r1, r3, lsl #2]
85213510:	e3a0301f 	mov	r3, #31
85213514:	e0110312 	ands	r0, r1, r2, lsl r3
85213518:	1263301f 	rsbne	r3, r3, #31
8521351c:	1a000002 	bne	8521352c <Sec_verifyDigest.part.0+0x90>
85213520:	e2533001 	subs	r3, r3, #1
85213524:	2afffffa 	bcs	85213514 <Sec_verifyDigest.part.0+0x78>
85213528:	e3a03020 	mov	r3, #32
8521352c:	e2433002 	sub	r3, r3, #2
85213530:	e28d4e17 	add	r4, sp, #368	; 0x170
85213534:	e59f0784 	ldr	r0, [pc, #1924]	; 85213cc0 <Sec_verifyDigest.part.0+0x824>
85213538:	e1a01003 	mov	r1, r3
8521353c:	e1a02004 	mov	r2, r4
85213540:	e58d3008 	str	r3, [sp, #8]
85213544:	ebffff83 	bl	85213358 <mplshift>
85213548:	e28d2050 	add	r2, sp, #80	; 0x50
8521354c:	e59d1008 	ldr	r1, [sp, #8]
85213550:	e59f0760 	ldr	r0, [pc, #1888]	; 85213cb8 <Sec_verifyDigest.part.0+0x81c>
85213554:	ebffff7f 	bl	85213358 <mplshift>
85213558:	e59d3050 	ldr	r3, [sp, #80]	; 0x50
8521355c:	e59d5170 	ldr	r5, [sp, #368]	; 0x170
85213560:	e58d3004 	str	r3, [sp, #4]
85213564:	e2453001 	sub	r3, r5, #1
85213568:	e58d3010 	str	r3, [sp, #16]
8521356c:	e59d3004 	ldr	r3, [sp, #4]
85213570:	e2433001 	sub	r3, r3, #1
85213574:	e58d3014 	str	r3, [sp, #20]
85213578:	e59d2014 	ldr	r2, [sp, #20]
8521357c:	e2453001 	sub	r3, r5, #1
85213580:	e1530002 	cmp	r3, r2
85213584:	2a000007 	bcs	852135a8 <Sec_verifyDigest.part.0+0x10c>
85213588:	e59f0730 	ldr	r0, [pc, #1840]	; 85213cc0 <Sec_verifyDigest.part.0+0x824>
8521358c:	ebffffb7 	bl	85213470 <mpcopy.constprop.5>
85213590:	e59f2728 	ldr	r2, [pc, #1832]	; 85213cc0 <Sec_verifyDigest.part.0+0x824>
85213594:	e3a03001 	mov	r3, #1
85213598:	e5823000 	str	r3, [r2]
8521359c:	e3a03000 	mov	r3, #0
852135a0:	e5823004 	str	r3, [r2, #4]
852135a4:	ea000112 	b	852139f4 <Sec_verifyDigest.part.0+0x558>
852135a8:	e59d2014 	ldr	r2, [sp, #20]
852135ac:	e2453001 	sub	r3, r5, #1
852135b0:	e0621003 	rsb	r1, r2, r3
852135b4:	e3a03000 	mov	r3, #0
852135b8:	e2817001 	add	r7, r1, #1
852135bc:	e1a02003 	mov	r2, r3
852135c0:	e59f06f8 	ldr	r0, [pc, #1784]	; 85213cc0 <Sec_verifyDigest.part.0+0x824>
852135c4:	e7802103 	str	r2, [r0, r3, lsl #2]
852135c8:	e2833001 	add	r3, r3, #1
852135cc:	e1570003 	cmp	r7, r3
852135d0:	2afffffa 	bcs	852135c0 <Sec_verifyDigest.part.0+0x124>
852135d4:	e28d2fee 	add	r2, sp, #952	; 0x3b8
852135d8:	e28d0050 	add	r0, sp, #80	; 0x50
852135dc:	ebffff0c 	bl	85213214 <mpclshift>
852135e0:	e59f66d8 	ldr	r6, [pc, #1752]	; 85213cc0 <Sec_verifyDigest.part.0+0x824>
852135e4:	e0866107 	add	r6, r6, r7, lsl #2
852135e8:	e28d1fee 	add	r1, sp, #952	; 0x3b8
852135ec:	e1a00004 	mov	r0, r4
852135f0:	ebfffec1 	bl	852130fc <mpcompare>
852135f4:	e3500000 	cmp	r0, #0
852135f8:	ba000007 	blt	8521361c <Sec_verifyDigest.part.0+0x180>
852135fc:	e5963000 	ldr	r3, [r6]
85213600:	e1a02004 	mov	r2, r4
85213604:	e28d1fee 	add	r1, sp, #952	; 0x3b8
85213608:	e1a00004 	mov	r0, r4
8521360c:	e2833001 	add	r3, r3, #1
85213610:	e5863000 	str	r3, [r6]
85213614:	ebfffee0 	bl	8521319c <mpsub>
85213618:	eafffff2 	b	852135e8 <Sec_verifyDigest.part.0+0x14c>
8521361c:	e59d3004 	ldr	r3, [sp, #4]
85213620:	e28d2050 	add	r2, sp, #80	; 0x50
85213624:	e243310b 	sub	r3, r3, #-1073741822	; 0xc0000002
85213628:	e0823103 	add	r3, r2, r3, lsl #2
8521362c:	e58d301c 	str	r3, [sp, #28]
85213630:	e59d3004 	ldr	r3, [sp, #4]
85213634:	e0636005 	rsb	r6, r3, r5
85213638:	e59f3680 	ldr	r3, [pc, #1664]	; 85213cc0 <Sec_verifyDigest.part.0+0x824>
8521363c:	e0845105 	add	r5, r4, r5, lsl #2
85213640:	e0836106 	add	r6, r3, r6, lsl #2
85213644:	e59d3004 	ldr	r3, [sp, #4]
85213648:	e2855004 	add	r5, r5, #4
8521364c:	e1a03103 	lsl	r3, r3, #2
85213650:	e58d3018 	str	r3, [sp, #24]
85213654:	e59d2018 	ldr	r2, [sp, #24]
85213658:	e28d3d21 	add	r3, sp, #2112	; 0x840
8521365c:	e2833008 	add	r3, r3, #8
85213660:	e0833002 	add	r3, r3, r2
85213664:	e58d3020 	str	r3, [sp, #32]
85213668:	e59d3004 	ldr	r3, [sp, #4]
8521366c:	e59d2010 	ldr	r2, [sp, #16]
85213670:	e1530002 	cmp	r3, r2
85213674:	8a0000ac 	bhi	8521392c <Sec_verifyDigest.part.0+0x490>
85213678:	e59d2020 	ldr	r2, [sp, #32]
8521367c:	e2459004 	sub	r9, r5, #4
85213680:	e5153004 	ldr	r3, [r5, #-4]
85213684:	e51217f8 	ldr	r1, [r2, #-2040]	; 0xfffff808
85213688:	e1530001 	cmp	r3, r1
8521368c:	03e03103 	mvneq	r3, #-1073741824	; 0xc0000000
85213690:	05863000 	streq	r3, [r6]
85213694:	0a000029 	beq	85213740 <Sec_verifyDigest.part.0+0x2a4>
85213698:	e3510000 	cmp	r1, #0
8521369c:	0a0000d2 	beq	852139ec <Sec_verifyDigest.part.0+0x550>
852136a0:	e3530000 	cmp	r3, #0
852136a4:	e5192004 	ldr	r2, [r9, #-4]
852136a8:	13a0c000 	movne	ip, #0
852136ac:	13a0a03c 	movne	sl, #60	; 0x3c
852136b0:	0a00001f 	beq	85213734 <Sec_verifyDigest.part.0+0x298>
852136b4:	e7e00ed3 	ubfx	r0, r3, #29, #1
852136b8:	e180008c 	orr	r0, r0, ip, lsl #1
852136bc:	e1510000 	cmp	r1, r0
852136c0:	9a000008 	bls	852136e8 <Sec_verifyDigest.part.0+0x24c>
852136c4:	e1a02082 	lsl	r2, r2, #1
852136c8:	e1a03083 	lsl	r3, r3, #1
852136cc:	e3720107 	cmn	r2, #-1073741823	; 0xc0000001
852136d0:	e3c33103 	bic	r3, r3, #-1073741824	; 0xc0000000
852136d4:	83833001 	orrhi	r3, r3, #1
852136d8:	83c22103 	bichi	r2, r2, #-1073741824	; 0xc0000000
852136dc:	e24aa001 	sub	sl, sl, #1
852136e0:	e1a0c000 	mov	ip, r0
852136e4:	eafffff2 	b	852136b4 <Sec_verifyDigest.part.0+0x218>
852136e8:	e3a00000 	mov	r0, #0
852136ec:	e1a0e000 	mov	lr, r0
852136f0:	e15a000e 	cmp	sl, lr
852136f4:	0a000010 	beq	8521373c <Sec_verifyDigest.part.0+0x2a0>
852136f8:	e7e0bed3 	ubfx	fp, r3, #29, #1
852136fc:	e1a00080 	lsl	r0, r0, #1
85213700:	e18bc08c 	orr	ip, fp, ip, lsl #1
85213704:	e1a02082 	lsl	r2, r2, #1
85213708:	e151000c 	cmp	r1, ip
8521370c:	e3c00103 	bic	r0, r0, #-1073741824	; 0xc0000000
85213710:	e1a03083 	lsl	r3, r3, #1
85213714:	93800001 	orrls	r0, r0, #1
85213718:	9061c00c 	rsbls	ip, r1, ip
8521371c:	e3c33103 	bic	r3, r3, #-1073741824	; 0xc0000000
85213720:	e3720107 	cmn	r2, #-1073741823	; 0xc0000001
85213724:	e28ee001 	add	lr, lr, #1
85213728:	83833001 	orrhi	r3, r3, #1
8521372c:	83c22103 	bichi	r2, r2, #-1073741824	; 0xc0000000
85213730:	eaffffee 	b	852136f0 <Sec_verifyDigest.part.0+0x254>
85213734:	e1a00002 	mov	r0, r2
85213738:	ebffe51a 	bl	8520cba8 <__udivsi3>
8521373c:	e5860000 	str	r0, [r6]
85213740:	e59d3014 	ldr	r3, [sp, #20]
85213744:	e3530000 	cmp	r3, #0
85213748:	1a000021 	bne	852137d4 <Sec_verifyDigest.part.0+0x338>
8521374c:	e59d3010 	ldr	r3, [sp, #16]
85213750:	e28d2c06 	add	r2, sp, #1536	; 0x600
85213754:	e59d1004 	ldr	r1, [sp, #4]
85213758:	e28d0050 	add	r0, sp, #80	; 0x50
8521375c:	e0611003 	rsb	r1, r1, r3
85213760:	ebfffeab 	bl	85213214 <mpclshift>
85213764:	e4163004 	ldr	r3, [r6], #-4
85213768:	e28d2fee 	add	r2, sp, #952	; 0x3b8
8521376c:	e28d1030 	add	r1, sp, #48	; 0x30
85213770:	e28d0c06 	add	r0, sp, #1536	; 0x600
85213774:	e58d3034 	str	r3, [sp, #52]	; 0x34
85213778:	ebfffebb 	bl	8521326c <mpmul>
8521377c:	e1a01004 	mov	r1, r4
85213780:	e28d0fee 	add	r0, sp, #952	; 0x3b8
85213784:	ebfffe5c 	bl	852130fc <mpcompare>
85213788:	e3500000 	cmp	r0, #0
8521378c:	da00005d 	ble	85213908 <Sec_verifyDigest.part.0+0x46c>
85213790:	e28d1c06 	add	r1, sp, #1536	; 0x600
85213794:	e1a00004 	mov	r0, r4
85213798:	ebfffe57 	bl	852130fc <mpcompare>
8521379c:	e59d3170 	ldr	r3, [sp, #368]	; 0x170
852137a0:	e59dc600 	ldr	ip, [sp, #1536]	; 0x600
852137a4:	e3a01001 	mov	r1, #1
852137a8:	e3a0e000 	mov	lr, #0
852137ac:	e3500000 	cmp	r0, #0
852137b0:	a28dac06 	addge	sl, sp, #1536	; 0x600
852137b4:	a1a00003 	movge	r0, r3
852137b8:	b1a0000c 	movlt	r0, ip
852137bc:	a1a03004 	movge	r3, r4
852137c0:	b1a0c003 	movlt	ip, r3
852137c4:	b1a0a004 	movlt	sl, r4
852137c8:	b28d3c06 	addlt	r3, sp, #1536	; 0x600
852137cc:	e2805001 	add	r5, r0, #1
852137d0:	ea000032 	b	852138a0 <Sec_verifyDigest.part.0+0x404>
852137d4:	e59d3004 	ldr	r3, [sp, #4]
852137d8:	e2455010 	sub	r5, r5, #16
852137dc:	e243a002 	sub	sl, r3, #2
852137e0:	e28d3d21 	add	r3, sp, #2112	; 0x840
852137e4:	e2833008 	add	r3, r3, #8
852137e8:	e1a0a10a 	lsl	sl, sl, #2
852137ec:	e083b00a 	add	fp, r3, sl
852137f0:	e28d3d21 	add	r3, sp, #2112	; 0x840
852137f4:	e59d2018 	ldr	r2, [sp, #24]
852137f8:	e2833008 	add	r3, r3, #8
852137fc:	e28d1030 	add	r1, sp, #48	; 0x30
85213800:	e083300a 	add	r3, r3, sl
85213804:	e59d001c 	ldr	r0, [sp, #28]
85213808:	e51337f8 	ldr	r3, [r3, #-2040]	; 0xfffff808
8521380c:	e58d3024 	str	r3, [sp, #36]	; 0x24
85213810:	e28d3d21 	add	r3, sp, #2112	; 0x840
85213814:	e2833008 	add	r3, r3, #8
85213818:	e0832002 	add	r2, r3, r2
8521381c:	e51227f8 	ldr	r2, [r2, #-2040]	; 0xfffff808
85213820:	e3520000 	cmp	r2, #0
85213824:	03a02001 	moveq	r2, #1
85213828:	13a02002 	movne	r2, #2
8521382c:	e50b27f8 	str	r2, [fp, #-2040]	; 0xfffff808
85213830:	e5962000 	ldr	r2, [r6]
85213834:	e58d2034 	str	r2, [sp, #52]	; 0x34
85213838:	e28d2c06 	add	r2, sp, #1536	; 0x600
8521383c:	ebfffe8a 	bl	8521326c <mpmul>
85213840:	e59d3024 	ldr	r3, [sp, #36]	; 0x24
85213844:	e519200c 	ldr	r2, [r9, #-12]
85213848:	e50b37f8 	str	r3, [fp, #-2040]	; 0xfffff808
8521384c:	e5993000 	ldr	r3, [r9]
85213850:	e3530000 	cmp	r3, #0
85213854:	13a03003 	movne	r3, #3
85213858:	1a000003 	bne	8521386c <Sec_verifyDigest.part.0+0x3d0>
8521385c:	e5193004 	ldr	r3, [r9, #-4]
85213860:	e3530000 	cmp	r3, #0
85213864:	03a03001 	moveq	r3, #1
85213868:	13a03002 	movne	r3, #2
8521386c:	e509300c 	str	r3, [r9, #-12]
85213870:	e1a01005 	mov	r1, r5
85213874:	e28d0c06 	add	r0, sp, #1536	; 0x600
85213878:	e58d2024 	str	r2, [sp, #36]	; 0x24
8521387c:	ebfffe1e 	bl	852130fc <mpcompare>
85213880:	e59d2024 	ldr	r2, [sp, #36]	; 0x24
85213884:	e3500000 	cmp	r0, #0
85213888:	ca000097 	bgt	85213aec <Sec_verifyDigest.part.0+0x650>
8521388c:	e3a03000 	mov	r3, #0
85213890:	e3530000 	cmp	r3, #0
85213894:	e509200c 	str	r2, [r9, #-12]
85213898:	1affffd4 	bne	852137f0 <Sec_verifyDigest.part.0+0x354>
8521389c:	eaffffaa 	b	8521374c <Sec_verifyDigest.part.0+0x2b0>
852138a0:	e1550001 	cmp	r5, r1
852138a4:	0a00000e 	beq	852138e4 <Sec_verifyDigest.part.0+0x448>
852138a8:	e2412001 	sub	r2, r1, #1
852138ac:	e15c0002 	cmp	ip, r2
852138b0:	e7932101 	ldr	r2, [r3, r1, lsl #2]
852138b4:	879ab101 	ldrhi	fp, [sl, r1, lsl #2]
852138b8:	e08e2002 	add	r2, lr, r2
852138bc:	93a0b000 	movls	fp, #0
852138c0:	e082200b 	add	r2, r2, fp
852138c4:	e3720107 	cmn	r2, #-1073741823	; 0xc0000001
852138c8:	97842101 	strls	r2, [r4, r1, lsl #2]
852138cc:	82822103 	addhi	r2, r2, #-1073741824	; 0xc0000000
852138d0:	87842101 	strhi	r2, [r4, r1, lsl #2]
852138d4:	93a0e000 	movls	lr, #0
852138d8:	83a0e001 	movhi	lr, #1
852138dc:	e2811001 	add	r1, r1, #1
852138e0:	eaffffee 	b	852138a0 <Sec_verifyDigest.part.0+0x404>
852138e4:	e35e0000 	cmp	lr, #0
852138e8:	e28d3f5d 	add	r3, sp, #372	; 0x174
852138ec:	13a02001 	movne	r2, #1
852138f0:	17832100 	strne	r2, [r3, r0, lsl #2]
852138f4:	e5963004 	ldr	r3, [r6, #4]
852138f8:	11a00005 	movne	r0, r5
852138fc:	e58d0170 	str	r0, [sp, #368]	; 0x170
85213900:	e2433001 	sub	r3, r3, #1
85213904:	e5863004 	str	r3, [r6, #4]
85213908:	e1a02004 	mov	r2, r4
8521390c:	e28d1fee 	add	r1, sp, #952	; 0x3b8
85213910:	e1a00004 	mov	r0, r4
85213914:	e1a05009 	mov	r5, r9
85213918:	ebfffe1f 	bl	8521319c <mpsub>
8521391c:	e59d3010 	ldr	r3, [sp, #16]
85213920:	e2433001 	sub	r3, r3, #1
85213924:	e58d3010 	str	r3, [sp, #16]
85213928:	eaffff4e 	b	85213668 <Sec_verifyDigest.part.0+0x1cc>
8521392c:	e59d2008 	ldr	r2, [sp, #8]
85213930:	e28d1f5d 	add	r1, sp, #372	; 0x174
85213934:	e59d3170 	ldr	r3, [sp, #368]	; 0x170
85213938:	e3a00001 	mov	r0, #1
8521393c:	e262c01e 	rsb	ip, r2, #30
85213940:	e1530000 	cmp	r3, r0
85213944:	9a000008 	bls	8521396c <Sec_verifyDigest.part.0+0x4d0>
85213948:	e5912004 	ldr	r2, [r1, #4]
8521394c:	e2800001 	add	r0, r0, #1
85213950:	e591e000 	ldr	lr, [r1]
85213954:	e59d5008 	ldr	r5, [sp, #8]
85213958:	e1a02c12 	lsl	r2, r2, ip
8521395c:	e3c22103 	bic	r2, r2, #-1073741824	; 0xc0000000
85213960:	e182253e 	orr	r2, r2, lr, lsr r5
85213964:	e4812004 	str	r2, [r1], #4
85213968:	eafffff4 	b	85213940 <Sec_verifyDigest.part.0+0x4a4>
8521396c:	e5912000 	ldr	r2, [r1]
85213970:	e3530001 	cmp	r3, #1
85213974:	e59d0008 	ldr	r0, [sp, #8]
85213978:	e1a02032 	lsr	r2, r2, r0
8521397c:	e5812000 	str	r2, [r1]
85213980:	e16f2f12 	clz	r2, r2
85213984:	e1a022a2 	lsr	r2, r2, #5
85213988:	93a02000 	movls	r2, #0
8521398c:	e3520000 	cmp	r2, #0
85213990:	12433001 	subne	r3, r3, #1
85213994:	e58d3170 	str	r3, [sp, #368]	; 0x170
85213998:	e3570001 	cmp	r7, #1
8521399c:	8a000002 	bhi	852139ac <Sec_verifyDigest.part.0+0x510>
852139a0:	e59f2318 	ldr	r2, [pc, #792]	; 85213cc0 <Sec_verifyDigest.part.0+0x824>
852139a4:	e5827000 	str	r7, [r2]
852139a8:	ea000009 	b	852139d4 <Sec_verifyDigest.part.0+0x538>
852139ac:	e59f230c 	ldr	r2, [pc, #780]	; 85213cc0 <Sec_verifyDigest.part.0+0x824>
852139b0:	e7922107 	ldr	r2, [r2, r7, lsl #2]
852139b4:	e3520000 	cmp	r2, #0
852139b8:	1afffff8 	bne	852139a0 <Sec_verifyDigest.part.0+0x504>
852139bc:	e2477001 	sub	r7, r7, #1
852139c0:	eafffff4 	b	85213998 <Sec_verifyDigest.part.0+0x4fc>
852139c4:	e7942103 	ldr	r2, [r4, r3, lsl #2]
852139c8:	e3520000 	cmp	r2, #0
852139cc:	1a000002 	bne	852139dc <Sec_verifyDigest.part.0+0x540>
852139d0:	e2433001 	sub	r3, r3, #1
852139d4:	e3530001 	cmp	r3, #1
852139d8:	8afffff9 	bhi	852139c4 <Sec_verifyDigest.part.0+0x528>
852139dc:	e1a00004 	mov	r0, r4
852139e0:	e58d3170 	str	r3, [sp, #368]	; 0x170
852139e4:	ebfffea1 	bl	85213470 <mpcopy.constprop.5>
852139e8:	ea000001 	b	852139f4 <Sec_verifyDigest.part.0+0x558>
852139ec:	e3a00007 	mov	r0, #7
852139f0:	ea0000ac 	b	85213ca8 <Sec_verifyDigest.part.0+0x80c>
852139f4:	e59d300c 	ldr	r3, [sp, #12]
852139f8:	e2833001 	add	r3, r3, #1
852139fc:	e58d300c 	str	r3, [sp, #12]
85213a00:	e3530011 	cmp	r3, #17
85213a04:	0a000005 	beq	85213a20 <Sec_verifyDigest.part.0+0x584>
85213a08:	e59d200c 	ldr	r2, [sp, #12]
85213a0c:	e59f32a0 	ldr	r3, [pc, #672]	; 85213cb4 <Sec_verifyDigest.part.0+0x818>
85213a10:	e3520010 	cmp	r2, #16
85213a14:	e59f12a0 	ldr	r1, [pc, #672]	; 85213cbc <Sec_verifyDigest.part.0+0x820>
85213a18:	01a01003 	moveq	r1, r3
85213a1c:	eafffeb0 	b	852134e4 <Sec_verifyDigest.part.0+0x48>
85213a20:	e59f9294 	ldr	r9, [pc, #660]	; 85213cbc <Sec_verifyDigest.part.0+0x820>
85213a24:	e3a0301e 	mov	r3, #30
85213a28:	e3a02000 	mov	r2, #0
85213a2c:	e1a01002 	mov	r1, r2
85213a30:	e5996000 	ldr	r6, [r9]
85213a34:	e0030693 	mul	r3, r3, r6
85213a38:	e283301f 	add	r3, r3, #31
85213a3c:	e1a032a3 	lsr	r3, r3, #5
85213a40:	e2633040 	rsb	r3, r3, #64	; 0x40
85213a44:	e1530002 	cmp	r3, r2
85213a48:	c28d0fee 	addgt	r0, sp, #952	; 0x3b8
85213a4c:	c7801102 	strgt	r1, [r0, r2, lsl #2]
85213a50:	c2822001 	addgt	r2, r2, #1
85213a54:	cafffffa 	bgt	85213a44 <Sec_verifyDigest.part.0+0x5a8>
85213a58:	e3a01001 	mov	r1, #1
85213a5c:	e3a0703f 	mov	r7, #63	; 0x3f
85213a60:	e3a05002 	mov	r5, #2
85213a64:	e3a0201e 	mov	r2, #30
85213a68:	e1a0b001 	mov	fp, r1
85213a6c:	e1530007 	cmp	r3, r7
85213a70:	ca000022 	bgt	85213b00 <Sec_verifyDigest.part.0+0x664>
85213a74:	e3520000 	cmp	r2, #0
85213a78:	02811001 	addeq	r1, r1, #1
85213a7c:	e281a001 	add	sl, r1, #1
85213a80:	03a0201e 	moveq	r2, #30
85213a84:	03a05002 	moveq	r5, #2
85213a88:	e156000a 	cmp	r6, sl
85213a8c:	e1a0e51b 	lsl	lr, fp, r5
85213a90:	e7991101 	ldr	r1, [r9, r1, lsl #2]
85213a94:	2799c10a 	ldrcs	ip, [r9, sl, lsl #2]
85213a98:	e24ee001 	sub	lr, lr, #1
85213a9c:	33a0c000 	movcc	ip, #0
85213aa0:	e3c11103 	bic	r1, r1, #-1073741824	; 0xc0000000
85213aa4:	e00cc00e 	and	ip, ip, lr
85213aa8:	e262001e 	rsb	r0, r2, #30
85213aac:	e1a0c21c 	lsl	ip, ip, r2
85213ab0:	e18c0031 	orr	r0, ip, r1, lsr r0
85213ab4:	ebfffd8e 	bl	852130f4 <HTONL>
85213ab8:	e2901000 	adds	r1, r0, #0
85213abc:	13a01001 	movne	r1, #1
85213ac0:	e0111fa7 	ands	r1, r1, r7, lsr #31
85213ac4:	1a00000d 	bne	85213b00 <Sec_verifyDigest.part.0+0x664>
85213ac8:	e28d1fee 	add	r1, sp, #952	; 0x3b8
85213acc:	e2422002 	sub	r2, r2, #2
85213ad0:	e2855002 	add	r5, r5, #2
85213ad4:	e7810107 	str	r0, [r1, r7, lsl #2]
85213ad8:	e6ef2072 	uxtb	r2, r2
85213adc:	e6ef5075 	uxtb	r5, r5
85213ae0:	e2477001 	sub	r7, r7, #1
85213ae4:	e1a0100a 	mov	r1, sl
85213ae8:	eaffffdf 	b	85213a6c <Sec_verifyDigest.part.0+0x5d0>
85213aec:	e5963000 	ldr	r3, [r6]
85213af0:	e2433001 	sub	r3, r3, #1
85213af4:	e5863000 	str	r3, [r6]
85213af8:	e3a03001 	mov	r3, #1
85213afc:	eaffff63 	b	85213890 <Sec_verifyDigest.part.0+0x3f4>
85213b00:	e5dd34b7 	ldrb	r3, [sp, #1207]	; 0x4b7
85213b04:	e35300bc 	cmp	r3, #188	; 0xbc
85213b08:	13a0000a 	movne	r0, #10
85213b0c:	1a000065 	bne	85213ca8 <Sec_verifyDigest.part.0+0x80c>
85213b10:	e28d5fee 	add	r5, sp, #952	; 0x3b8
85213b14:	e3a02020 	mov	r2, #32
85213b18:	e28510df 	add	r1, r5, #223	; 0xdf
85213b1c:	e28d0050 	add	r0, sp, #80	; 0x50
85213b20:	eb0002c3 	bl	85214634 <lib_memcpy>
85213b24:	e3a07000 	mov	r7, #0
85213b28:	e1a09007 	mov	r9, r7
85213b2c:	e3a02004 	mov	r2, #4
85213b30:	e28d1030 	add	r1, sp, #48	; 0x30
85213b34:	e28d0070 	add	r0, sp, #112	; 0x70
85213b38:	e5cd7033 	strb	r7, [sp, #51]	; 0x33
85213b3c:	e5cd9030 	strb	r9, [sp, #48]	; 0x30
85213b40:	e28d6c06 	add	r6, sp, #1536	; 0x600
85213b44:	e5cd9031 	strb	r9, [sp, #49]	; 0x31
85213b48:	e5cd9032 	strb	r9, [sp, #50]	; 0x32
85213b4c:	eb0002b8 	bl	85214634 <lib_memcpy>
85213b50:	e1a02004 	mov	r2, r4
85213b54:	e3a01e12 	mov	r1, #288	; 0x120
85213b58:	e28d0050 	add	r0, sp, #80	; 0x50
85213b5c:	eb00017c 	bl	85214154 <Sec_sha256>
85213b60:	e0860287 	add	r0, r6, r7, lsl #5
85213b64:	e3a02020 	mov	r2, #32
85213b68:	e1a01004 	mov	r1, r4
85213b6c:	e2877001 	add	r7, r7, #1
85213b70:	eb0002af 	bl	85214634 <lib_memcpy>
85213b74:	e3570007 	cmp	r7, #7
85213b78:	1affffeb 	bne	85213b2c <Sec_verifyDigest.part.0+0x690>
85213b7c:	e3a020df 	mov	r2, #223	; 0xdf
85213b80:	e1a01006 	mov	r1, r6
85213b84:	e1a00004 	mov	r0, r4
85213b88:	eb0002a9 	bl	85214634 <lib_memcpy>
85213b8c:	e3a0c000 	mov	ip, #0
85213b90:	e18520dc 	ldrd	r2, [r5, ip]
85213b94:	e18400dc 	ldrd	r0, [r4, ip]
85213b98:	e0222000 	eor	r2, r2, r0
85213b9c:	e0233001 	eor	r3, r3, r1
85213ba0:	e18620fc 	strd	r2, [r6, ip]
85213ba4:	e28cc008 	add	ip, ip, #8
85213ba8:	e35c00d8 	cmp	ip, #216	; 0xd8
85213bac:	1afffff7 	bne	85213b90 <Sec_verifyDigest.part.0+0x6f4>
85213bb0:	e3a03000 	mov	r3, #0
85213bb4:	e0850003 	add	r0, r5, r3
85213bb8:	e0842003 	add	r2, r4, r3
85213bbc:	e0861003 	add	r1, r6, r3
85213bc0:	e2833001 	add	r3, r3, #1
85213bc4:	e5d000d8 	ldrb	r0, [r0, #216]	; 0xd8
85213bc8:	e3530007 	cmp	r3, #7
85213bcc:	e5d220d8 	ldrb	r2, [r2, #216]	; 0xd8
85213bd0:	e0222000 	eor	r2, r2, r0
85213bd4:	e5c120d8 	strb	r2, [r1, #216]	; 0xd8
85213bd8:	1afffff5 	bne	85213bb4 <Sec_verifyDigest.part.0+0x718>
85213bdc:	e5dd3600 	ldrb	r3, [sp, #1536]	; 0x600
85213be0:	e28d0d1b 	add	r0, sp, #1728	; 0x6c0
85213be4:	e203307f 	and	r3, r3, #127	; 0x7f
85213be8:	e5cd3600 	strb	r3, [sp, #1536]	; 0x600
85213bec:	e1a03006 	mov	r3, r6
85213bf0:	e1a02003 	mov	r2, r3
85213bf4:	e4d31001 	ldrb	r1, [r3], #1
85213bf8:	e3510000 	cmp	r1, #0
85213bfc:	1a000002 	bne	85213c0c <Sec_verifyDigest.part.0+0x770>
85213c00:	e1500003 	cmp	r0, r3
85213c04:	1afffff9 	bne	85213bf0 <Sec_verifyDigest.part.0+0x754>
85213c08:	ea000020 	b	85213c90 <Sec_verifyDigest.part.0+0x7f4>
85213c0c:	e3510001 	cmp	r1, #1
85213c10:	1a00001e 	bne	85213c90 <Sec_verifyDigest.part.0+0x7f4>
85213c14:	e28640bf 	add	r4, r6, #191	; 0xbf
85213c18:	e2823001 	add	r3, r2, #1
85213c1c:	e1540003 	cmp	r4, r3
85213c20:	1a00001a 	bne	85213c90 <Sec_verifyDigest.part.0+0x7f4>
85213c24:	e3a03000 	mov	r3, #0
85213c28:	e3a02000 	mov	r2, #0
85213c2c:	e28d1028 	add	r1, sp, #40	; 0x28
85213c30:	e1cd22f8 	strd	r2, [sp, #40]	; 0x28
85213c34:	e28d0050 	add	r0, sp, #80	; 0x50
85213c38:	e3a02008 	mov	r2, #8
85213c3c:	eb00027c 	bl	85214634 <lib_memcpy>
85213c40:	e3a02020 	mov	r2, #32
85213c44:	e59d1868 	ldr	r1, [sp, #2152]	; 0x868
85213c48:	e28d0058 	add	r0, sp, #88	; 0x58
85213c4c:	eb000278 	bl	85214634 <lib_memcpy>
85213c50:	e3a02020 	mov	r2, #32
85213c54:	e1a01004 	mov	r1, r4
85213c58:	e28d0078 	add	r0, sp, #120	; 0x78
85213c5c:	eb000274 	bl	85214634 <lib_memcpy>
85213c60:	e28d2030 	add	r2, sp, #48	; 0x30
85213c64:	e3a01d09 	mov	r1, #576	; 0x240
85213c68:	e28d0050 	add	r0, sp, #80	; 0x50
85213c6c:	eb000138 	bl	85214154 <Sec_sha256>
85213c70:	e3a02020 	mov	r2, #32
85213c74:	e28d1030 	add	r1, sp, #48	; 0x30
85213c78:	e28500df 	add	r0, r5, #223	; 0xdf
85213c7c:	eb00025b 	bl	852145f0 <lib_memcmp>
85213c80:	e3500000 	cmp	r0, #0
85213c84:	03a00000 	moveq	r0, #0
85213c88:	13a0000c 	movne	r0, #12
85213c8c:	ea000005 	b	85213ca8 <Sec_verifyDigest.part.0+0x80c>
85213c90:	e3a0000b 	mov	r0, #11
85213c94:	ea000003 	b	85213ca8 <Sec_verifyDigest.part.0+0x80c>
85213c98:	e3a00002 	mov	r0, #2
85213c9c:	e12fff1e 	bx	lr
85213ca0:	e3a00004 	mov	r0, #4
85213ca4:	e12fff1e 	bx	lr
85213ca8:	e28ddd21 	add	sp, sp, #2112	; 0x840
85213cac:	e28dd008 	add	sp, sp, #8
85213cb0:	e8bd8ef0 	pop	{r4, r5, r6, r7, r9, sl, fp, pc}
85213cb4:	85220810 	.word	0x85220810
85213cb8:	85220930 	.word	0x85220930
85213cbc:	852204a8 	.word	0x852204a8
85213cc0:	852205c8 	.word	0x852205c8

85213cc4 <Sec_verifyDigest>:
85213cc4:	e3510c01 	cmp	r1, #256	; 0x100
85213cc8:	e92d4010 	push	{r4, lr}
85213ccc:	e59de00c 	ldr	lr, [sp, #12]
85213cd0:	1a000006 	bne	85213cf0 <Sec_verifyDigest+0x2c>
85213cd4:	e3530c01 	cmp	r3, #256	; 0x100
85213cd8:	e1a04003 	mov	r4, r3
85213cdc:	1a000005 	bne	85213cf8 <Sec_verifyDigest+0x34>
85213ce0:	e35e0020 	cmp	lr, #32
85213ce4:	1a000005 	bne	85213d00 <Sec_verifyDigest+0x3c>
85213ce8:	e8bd4010 	pop	{r4, lr}
85213cec:	eafffdea 	b	8521349c <Sec_verifyDigest.part.0>
85213cf0:	e3a00002 	mov	r0, #2
85213cf4:	e8bd8010 	pop	{r4, pc}
85213cf8:	e3a00004 	mov	r0, #4
85213cfc:	e8bd8010 	pop	{r4, pc}
85213d00:	e3a00003 	mov	r0, #3
85213d04:	e8bd8010 	pop	{r4, pc}

85213d08 <Sec_verify>:
85213d08:	e92d42f0 	push	{r4, r5, r6, r7, r9, lr}
85213d0c:	e24dd028 	sub	sp, sp, #40	; 0x28
85213d10:	e59dc044 	ldr	ip, [sp, #68]	; 0x44
85213d14:	e35c0000 	cmp	ip, #0
85213d18:	b3a00001 	movlt	r0, #1
85213d1c:	ba000010 	blt	85213d64 <Sec_verify+0x5c>
85213d20:	e28d9008 	add	r9, sp, #8
85213d24:	e1a07003 	mov	r7, r3
85213d28:	e1a06002 	mov	r6, r2
85213d2c:	e1a05001 	mov	r5, r1
85213d30:	e1a04000 	mov	r4, r0
85213d34:	e1a02009 	mov	r2, r9
85213d38:	e1a0118c 	lsl	r1, ip, #3
85213d3c:	e59d0040 	ldr	r0, [sp, #64]	; 0x40
85213d40:	eb000103 	bl	85214154 <Sec_sha256>
85213d44:	e3a03020 	mov	r3, #32
85213d48:	e58d9000 	str	r9, [sp]
85213d4c:	e1a02006 	mov	r2, r6
85213d50:	e58d3004 	str	r3, [sp, #4]
85213d54:	e1a01005 	mov	r1, r5
85213d58:	e1a03007 	mov	r3, r7
85213d5c:	e1a00004 	mov	r0, r4
85213d60:	ebffffd7 	bl	85213cc4 <Sec_verifyDigest>
85213d64:	e28dd028 	add	sp, sp, #40	; 0x28
85213d68:	e8bd82f0 	pop	{r4, r5, r6, r7, r9, pc}

85213d6c <HTONL>:
85213d6c:	e6bf0f30 	rev	r0, r0
85213d70:	e12fff1e 	bx	lr

85213d74 <SHA256Transform>:
85213d74:	e92d4ef0 	push	{r4, r5, r6, r7, r9, sl, fp, lr}
85213d78:	e24ddf4a 	sub	sp, sp, #296	; 0x128
85213d7c:	e3a03000 	mov	r3, #0
85213d80:	e7912103 	ldr	r2, [r1, r3, lsl #2]
85213d84:	e28dc028 	add	ip, sp, #40	; 0x28
85213d88:	e78c2103 	str	r2, [ip, r3, lsl #2]
85213d8c:	e2833001 	add	r3, r3, #1
85213d90:	e3530010 	cmp	r3, #16
85213d94:	1afffff9 	bne	85213d80 <SHA256Transform+0xc>
85213d98:	e1a0e00c 	mov	lr, ip
85213d9c:	e1a0c003 	mov	ip, r3
85213da0:	e59e1004 	ldr	r1, [lr, #4]
85213da4:	e28cc001 	add	ip, ip, #1
85213da8:	e59e4038 	ldr	r4, [lr, #56]	; 0x38
85213dac:	e35c0040 	cmp	ip, #64	; 0x40
85213db0:	e59e3000 	ldr	r3, [lr]
85213db4:	e28ee004 	add	lr, lr, #4
85213db8:	e1a02961 	ror	r2, r1, #18
85213dbc:	e02223e1 	eor	r2, r2, r1, ror #7
85213dc0:	e02211a1 	eor	r1, r2, r1, lsr #3
85213dc4:	e59e2020 	ldr	r2, [lr, #32]
85213dc8:	e0833002 	add	r3, r3, r2
85213dcc:	e0812003 	add	r2, r1, r3
85213dd0:	e1a039e4 	ror	r3, r4, #19
85213dd4:	e02338e4 	eor	r3, r3, r4, ror #17
85213dd8:	e0233524 	eor	r3, r3, r4, lsr #10
85213ddc:	e0823003 	add	r3, r2, r3
85213de0:	e58e303c 	str	r3, [lr, #60]	; 0x3c
85213de4:	1affffed 	bne	85213da0 <SHA256Transform+0x2c>
85213de8:	e5903000 	ldr	r3, [r0]
85213dec:	e28d2010 	add	r2, sp, #16
85213df0:	e59fb150 	ldr	fp, [pc, #336]	; 85213f48 <SHA256Transform+0x1d4>
85213df4:	e3a04000 	mov	r4, #0
85213df8:	e58d3004 	str	r3, [sp, #4]
85213dfc:	e5903004 	ldr	r3, [r0, #4]
85213e00:	e58d3008 	str	r3, [sp, #8]
85213e04:	e5903008 	ldr	r3, [r0, #8]
85213e08:	e58d300c 	str	r3, [sp, #12]
85213e0c:	e590300c 	ldr	r3, [r0, #12]
85213e10:	e59dc00c 	ldr	ip, [sp, #12]
85213e14:	e58d3010 	str	r3, [sp, #16]
85213e18:	e5903010 	ldr	r3, [r0, #16]
85213e1c:	e58d3014 	str	r3, [sp, #20]
85213e20:	e5903014 	ldr	r3, [r0, #20]
85213e24:	e58d3018 	str	r3, [sp, #24]
85213e28:	e5903018 	ldr	r3, [r0, #24]
85213e2c:	e58d301c 	str	r3, [sp, #28]
85213e30:	e590301c 	ldr	r3, [r0, #28]
85213e34:	e59d701c 	ldr	r7, [sp, #28]
85213e38:	e58d3020 	str	r3, [sp, #32]
85213e3c:	e58d3000 	str	r3, [sp]
85213e40:	e892020c 	ldm	r2, {r2, r3, r9}
85213e44:	e58d2024 	str	r2, [sp, #36]	; 0x24
85213e48:	e99d4004 	ldmib	sp, {r2, lr}
85213e4c:	e1a016e2 	ror	r1, r2, #13
85213e50:	e02c600e 	eor	r6, ip, lr
85213e54:	e0211162 	eor	r1, r1, r2, ror #2
85213e58:	e0066002 	and	r6, r6, r2
85213e5c:	e0215b62 	eor	r5, r1, r2, ror #22
85213e60:	e00e100c 	and	r1, lr, ip
85213e64:	e0211006 	eor	r1, r1, r6
85213e68:	e1a065e3 	ror	r6, r3, #11
85213e6c:	e0851001 	add	r1, r5, r1
85213e70:	e1c7a003 	bic	sl, r7, r3
85213e74:	e0266363 	eor	r6, r6, r3, ror #6
85213e78:	e0035009 	and	r5, r3, r9
85213e7c:	e025500a 	eor	r5, r5, sl
85213e80:	e0266ce3 	eor	r6, r6, r3, ror #25
85213e84:	e0866005 	add	r6, r6, r5
85213e88:	e28d5028 	add	r5, sp, #40	; 0x28
85213e8c:	e795a104 	ldr	sl, [r5, r4, lsl #2]
85213e90:	e59d5000 	ldr	r5, [sp]
85213e94:	e086600a 	add	r6, r6, sl
85213e98:	e79ba104 	ldr	sl, [fp, r4, lsl #2]
85213e9c:	e2844001 	add	r4, r4, #1
85213ea0:	e58d7000 	str	r7, [sp]
85213ea4:	e086600a 	add	r6, r6, sl
85213ea8:	e3540040 	cmp	r4, #64	; 0x40
85213eac:	e0866005 	add	r6, r6, r5
85213eb0:	e59d5024 	ldr	r5, [sp, #36]	; 0x24
85213eb4:	e0811006 	add	r1, r1, r6
85213eb8:	e58dc024 	str	ip, [sp, #36]	; 0x24
85213ebc:	e0865005 	add	r5, r6, r5
85213ec0:	0a000006 	beq	85213ee0 <SHA256Transform+0x16c>
85213ec4:	e1a07009 	mov	r7, r9
85213ec8:	e1a0c00e 	mov	ip, lr
85213ecc:	e1a09003 	mov	r9, r3
85213ed0:	e1a0e002 	mov	lr, r2
85213ed4:	e1a03005 	mov	r3, r5
85213ed8:	e1a02001 	mov	r2, r1
85213edc:	eaffffda 	b	85213e4c <SHA256Transform+0xd8>
85213ee0:	e59d4004 	ldr	r4, [sp, #4]
85213ee4:	e0841001 	add	r1, r4, r1
85213ee8:	e5801000 	str	r1, [r0]
85213eec:	e59d1008 	ldr	r1, [sp, #8]
85213ef0:	e0812002 	add	r2, r1, r2
85213ef4:	e5802004 	str	r2, [r0, #4]
85213ef8:	e59d200c 	ldr	r2, [sp, #12]
85213efc:	e082e00e 	add	lr, r2, lr
85213f00:	e59d2010 	ldr	r2, [sp, #16]
85213f04:	e580e008 	str	lr, [r0, #8]
85213f08:	e082c00c 	add	ip, r2, ip
85213f0c:	e59d2014 	ldr	r2, [sp, #20]
85213f10:	e580c00c 	str	ip, [r0, #12]
85213f14:	e0825005 	add	r5, r2, r5
85213f18:	e59d2018 	ldr	r2, [sp, #24]
85213f1c:	e5805010 	str	r5, [r0, #16]
85213f20:	e0823003 	add	r3, r2, r3
85213f24:	e5803014 	str	r3, [r0, #20]
85213f28:	e59d301c 	ldr	r3, [sp, #28]
85213f2c:	e0839009 	add	r9, r3, r9
85213f30:	e59d3020 	ldr	r3, [sp, #32]
85213f34:	e5809018 	str	r9, [r0, #24]
85213f38:	e0837007 	add	r7, r3, r7
85213f3c:	e580701c 	str	r7, [r0, #28]
85213f40:	e28ddf4a 	add	sp, sp, #296	; 0x128
85213f44:	e8bd8ef0 	pop	{r4, r5, r6, r7, r9, sl, fp, pc}
85213f48:	8521ba28 	.word	0x8521ba28

85213f4c <Sec_sha256Init>:
85213f4c:	e59f3030 	ldr	r3, [pc, #48]	; 85213f84 <Sec_sha256Init+0x38>
85213f50:	e59f1030 	ldr	r1, [pc, #48]	; 85213f88 <Sec_sha256Init+0x3c>
85213f54:	e59f2030 	ldr	r2, [pc, #48]	; 85213f8c <Sec_sha256Init+0x40>
85213f58:	e59fc030 	ldr	ip, [pc, #48]	; 85213f90 <Sec_sha256Init+0x44>
85213f5c:	e880100e 	stm	r0, {r1, r2, r3, ip}
85213f60:	e59f302c 	ldr	r3, [pc, #44]	; 85213f94 <Sec_sha256Init+0x48>
85213f64:	e5803010 	str	r3, [r0, #16]
85213f68:	e59f3028 	ldr	r3, [pc, #40]	; 85213f98 <Sec_sha256Init+0x4c>
85213f6c:	e5803014 	str	r3, [r0, #20]
85213f70:	e59f3024 	ldr	r3, [pc, #36]	; 85213f9c <Sec_sha256Init+0x50>
85213f74:	e5803018 	str	r3, [r0, #24]
85213f78:	e59f3020 	ldr	r3, [pc, #32]	; 85213fa0 <Sec_sha256Init+0x54>
85213f7c:	e580301c 	str	r3, [r0, #28]
85213f80:	e12fff1e 	bx	lr
85213f84:	3c6ef372 	.word	0x3c6ef372
85213f88:	6a09e667 	.word	0x6a09e667
85213f8c:	bb67ae85 	.word	0xbb67ae85
85213f90:	a54ff53a 	.word	0xa54ff53a
85213f94:	510e527f 	.word	0x510e527f
85213f98:	9b05688c 	.word	0x9b05688c
85213f9c:	1f83d9ab 	.word	0x1f83d9ab
85213fa0:	5be0cd19 	.word	0x5be0cd19

85213fa4 <Sec_sha256Update>:
85213fa4:	e92d4070 	push	{r4, r5, r6, lr}
85213fa8:	e24dd040 	sub	sp, sp, #64	; 0x40
85213fac:	e1a06000 	mov	r6, r0
85213fb0:	e1a05001 	mov	r5, r1
85213fb4:	e1a04002 	mov	r4, r2
85213fb8:	e3540c02 	cmp	r4, #512	; 0x200
85213fbc:	ba00000c 	blt	85213ff4 <Sec_sha256Update+0x50>
85213fc0:	e3a03000 	mov	r3, #0
85213fc4:	e7950103 	ldr	r0, [r5, r3, lsl #2]
85213fc8:	ebffff67 	bl	85213d6c <HTONL>
85213fcc:	e78d0103 	str	r0, [sp, r3, lsl #2]
85213fd0:	e2833001 	add	r3, r3, #1
85213fd4:	e3530010 	cmp	r3, #16
85213fd8:	1afffff9 	bne	85213fc4 <Sec_sha256Update+0x20>
85213fdc:	e1a0100d 	mov	r1, sp
85213fe0:	e1a00006 	mov	r0, r6
85213fe4:	e2855040 	add	r5, r5, #64	; 0x40
85213fe8:	ebffff61 	bl	85213d74 <SHA256Transform>
85213fec:	e2444c02 	sub	r4, r4, #512	; 0x200
85213ff0:	eafffff0 	b	85213fb8 <Sec_sha256Update+0x14>
85213ff4:	e1a00004 	mov	r0, r4
85213ff8:	e28dd040 	add	sp, sp, #64	; 0x40
85213ffc:	e8bd8070 	pop	{r4, r5, r6, pc}

85214000 <Sec_sha256Final>:
85214000:	e92d40f0 	push	{r4, r5, r6, r7, lr}
85214004:	e1a05002 	mov	r5, r2
85214008:	e24dd044 	sub	sp, sp, #68	; 0x44
8521400c:	e1a02003 	mov	r2, r3
85214010:	e1a06001 	mov	r6, r1
85214014:	e1a07003 	mov	r7, r3
85214018:	e1a04000 	mov	r4, r0
8521401c:	ebffffe0 	bl	85213fa4 <Sec_sha256Update>
85214020:	e0603007 	rsb	r3, r0, r7
85214024:	e280701f 	add	r7, r0, #31
85214028:	e2832007 	add	r2, r3, #7
8521402c:	e3530000 	cmp	r3, #0
85214030:	b1a03002 	movlt	r3, r2
85214034:	e3500000 	cmp	r0, #0
85214038:	e08631c3 	add	r3, r6, r3, asr #3
8521403c:	e2806007 	add	r6, r0, #7
85214040:	a1a07000 	movge	r7, r0
85214044:	e3a02000 	mov	r2, #0
85214048:	b1a00006 	movlt	r0, r6
8521404c:	e1a072c7 	asr	r7, r7, #5
85214050:	e7e161d0 	ubfx	r6, r0, #3, #2
85214054:	e1520007 	cmp	r2, r7
85214058:	aa000004 	bge	85214070 <Sec_sha256Final+0x70>
8521405c:	e7930102 	ldr	r0, [r3, r2, lsl #2]
85214060:	ebffff41 	bl	85213d6c <HTONL>
85214064:	e78d0102 	str	r0, [sp, r2, lsl #2]
85214068:	e2822001 	add	r2, r2, #1
8521406c:	eafffff8 	b	85214054 <Sec_sha256Final+0x54>
85214070:	e1c71fc7 	bic	r1, r7, r7, asr #31
85214074:	e3560002 	cmp	r6, #2
85214078:	e0830101 	add	r0, r3, r1, lsl #2
8521407c:	0a000009 	beq	852140a8 <Sec_sha256Final+0xa8>
85214080:	e3560003 	cmp	r6, #3
85214084:	0a000004 	beq	8521409c <Sec_sha256Final+0x9c>
85214088:	e3560001 	cmp	r6, #1
8521408c:	13a03000 	movne	r3, #0
85214090:	1a000009 	bne	852140bc <Sec_sha256Final+0xbc>
85214094:	e3a02000 	mov	r2, #0
85214098:	ea000005 	b	852140b4 <Sec_sha256Final+0xb4>
8521409c:	e5d02002 	ldrb	r2, [r0, #2]
852140a0:	e1a02402 	lsl	r2, r2, #8
852140a4:	ea000000 	b	852140ac <Sec_sha256Final+0xac>
852140a8:	e3a02000 	mov	r2, #0
852140ac:	e5d00001 	ldrb	r0, [r0, #1]
852140b0:	e1822800 	orr	r2, r2, r0, lsl #16
852140b4:	e7d33101 	ldrb	r3, [r3, r1, lsl #2]
852140b8:	e1823c03 	orr	r3, r2, r3, lsl #24
852140bc:	e2872001 	add	r2, r7, #1
852140c0:	e28d1040 	add	r1, sp, #64	; 0x40
852140c4:	e2666003 	rsb	r6, r6, #3
852140c8:	e0817107 	add	r7, r1, r7, lsl #2
852140cc:	e352000e 	cmp	r2, #14
852140d0:	e3a01080 	mov	r1, #128	; 0x80
852140d4:	e1a06186 	lsl	r6, r6, #3
852140d8:	e1833611 	orr	r3, r3, r1, lsl r6
852140dc:	e5073040 	str	r3, [r7, #-64]	; 0xffffffc0
852140e0:	da000006 	ble	85214100 <Sec_sha256Final+0x100>
852140e4:	e352000f 	cmp	r2, #15
852140e8:	e1a0100d 	mov	r1, sp
852140ec:	e1a00004 	mov	r0, r4
852140f0:	03a03000 	moveq	r3, #0
852140f4:	058d303c 	streq	r3, [sp, #60]	; 0x3c
852140f8:	ebffff1d 	bl	85213d74 <SHA256Transform>
852140fc:	e3a02000 	mov	r2, #0
85214100:	e1a03002 	mov	r3, r2
85214104:	e3a02000 	mov	r2, #0
85214108:	e353000e 	cmp	r3, #14
8521410c:	178d2103 	strne	r2, [sp, r3, lsl #2]
85214110:	12833001 	addne	r3, r3, #1
85214114:	1afffffb 	bne	85214108 <Sec_sha256Final+0x108>
85214118:	e1a00004 	mov	r0, r4
8521411c:	e1a0100d 	mov	r1, sp
85214120:	e3a03000 	mov	r3, #0
85214124:	e58d503c 	str	r5, [sp, #60]	; 0x3c
85214128:	e58d3038 	str	r3, [sp, #56]	; 0x38
8521412c:	ebffff10 	bl	85213d74 <SHA256Transform>
85214130:	e2443004 	sub	r3, r4, #4
85214134:	e284401c 	add	r4, r4, #28
85214138:	e5b30004 	ldr	r0, [r3, #4]!
8521413c:	ebffff0a 	bl	85213d6c <HTONL>
85214140:	e1540003 	cmp	r4, r3
85214144:	e5830000 	str	r0, [r3]
85214148:	1afffffa 	bne	85214138 <Sec_sha256Final+0x138>
8521414c:	e28dd044 	add	sp, sp, #68	; 0x44
85214150:	e8bd80f0 	pop	{r4, r5, r6, r7, pc}

85214154 <Sec_sha256>:
85214154:	e92d4070 	push	{r4, r5, r6, lr}
85214158:	e1a05001 	mov	r5, r1
8521415c:	e1a04002 	mov	r4, r2
85214160:	e1a06000 	mov	r6, r0
85214164:	e1a00002 	mov	r0, r2
85214168:	ebffff77 	bl	85213f4c <Sec_sha256Init>
8521416c:	e1a02005 	mov	r2, r5
85214170:	e1a01006 	mov	r1, r6
85214174:	e1a00004 	mov	r0, r4
85214178:	ebffff89 	bl	85213fa4 <Sec_sha256Update>
8521417c:	e0601005 	rsb	r1, r0, r5
85214180:	e1a03000 	mov	r3, r0
85214184:	e2812007 	add	r2, r1, #7
85214188:	e3510000 	cmp	r1, #0
8521418c:	e1a00004 	mov	r0, r4
85214190:	b1a01002 	movlt	r1, r2
85214194:	e1a02005 	mov	r2, r5
85214198:	e08611c1 	add	r1, r6, r1, asr #3
8521419c:	e8bd4070 	pop	{r4, r5, r6, lr}
852141a0:	eaffff96 	b	85214000 <Sec_sha256Final>

852141a4 <sec_verify_sha256>:
852141a4:	e92d4010 	push	{r4, lr}
852141a8:	e24dd020 	sub	sp, sp, #32
852141ac:	e1a04002 	mov	r4, r2
852141b0:	e1a01181 	lsl	r1, r1, #3
852141b4:	e1a0200d 	mov	r2, sp
852141b8:	ebffffe5 	bl	85214154 <Sec_sha256>
852141bc:	e3a02020 	mov	r2, #32
852141c0:	e1a0100d 	mov	r1, sp
852141c4:	e1a00004 	mov	r0, r4
852141c8:	eb000108 	bl	852145f0 <lib_memcmp>
852141cc:	e28dd020 	add	sp, sp, #32
852141d0:	e8bd8010 	pop	{r4, pc}

852141d4 <die>:
852141d4:	e59f3008 	ldr	r3, [pc, #8]	; 852141e4 <die+0x10>
852141d8:	e3a00000 	mov	r0, #0
852141dc:	e5830c70 	str	r0, [r3, #3184]	; 0xc70
852141e0:	eaffe34c 	b	8520cf18 <cfe_launch>
852141e4:	ff800000 	.word	0xff800000

852141e8 <sec_verify_signature>:
852141e8:	e92d4007 	push	{r0, r1, r2, lr}
852141ec:	e1a0c002 	mov	ip, r2
852141f0:	e1a02003 	mov	r2, r3
852141f4:	e3a03c01 	mov	r3, #256	; 0x100
852141f8:	e88d0003 	stm	sp, {r0, r1}
852141fc:	e1a01003 	mov	r1, r3
85214200:	e1a0000c 	mov	r0, ip
85214204:	ebfffebf 	bl	85213d08 <Sec_verify>
85214208:	e28dd00c 	add	sp, sp, #12
8521420c:	e49df004 	pop	{pc}		; (ldr pc, [sp], #4)

85214210 <armv7_l1cache_enable_d>:
85214210:	ee110f10 	mrc	15, 0, r0, cr1, cr0, {0}
85214214:	e3800004 	orr	r0, r0, #4
85214218:	ee010f10 	mcr	15, 0, r0, cr1, cr0, {0}
8521421c:	f57ff06f 	isb	sy
85214220:	e1a0f00e 	mov	pc, lr

85214224 <armv7_l1cache_disable_i>:
85214224:	ee110f10 	mrc	15, 0, r0, cr1, cr0, {0}
85214228:	e3c00a01 	bic	r0, r0, #4096	; 0x1000
8521422c:	e3c00b02 	bic	r0, r0, #2048	; 0x800
85214230:	ee010f10 	mcr	15, 0, r0, cr1, cr0, {0}
85214234:	f57ff06f 	isb	sy
85214238:	e1a0f00e 	mov	pc, lr

8521423c <armv7_l1cache_disable_d>:
8521423c:	ee110f10 	mrc	15, 0, r0, cr1, cr0, {0}
85214240:	e3c00004 	bic	r0, r0, #4
85214244:	ee010f10 	mcr	15, 0, r0, cr1, cr0, {0}
85214248:	f57ff06f 	isb	sy
8521424c:	e1a0f00e 	mov	pc, lr

85214250 <armv7_l1cache_inval_i>:
85214250:	e3a00000 	mov	r0, #0
85214254:	ee070f15 	mcr	15, 0, r0, cr7, cr5, {0}
85214258:	f57ff06f 	isb	sy
8521425c:	e1a0f00e 	mov	pc, lr

85214260 <armv7_l1cache_inval_d>:
85214260:	ee300f30 	mrc	15, 1, r0, cr0, cr0, {1}
85214264:	e2103407 	ands	r3, r0, #117440512	; 0x7000000
85214268:	e1a03ba3 	lsr	r3, r3, #23
8521426c:	0a00001a 	beq	852142dc <invfinished>
85214270:	e3a0a000 	mov	sl, #0

85214274 <invloop1>:
85214274:	e08a20aa 	add	r2, sl, sl, lsr #1
85214278:	e1a01230 	lsr	r1, r0, r2
8521427c:	e2011007 	and	r1, r1, #7
85214280:	e3510002 	cmp	r1, #2
85214284:	ba000011 	blt	852142d0 <invskip>
85214288:	ee40af10 	mcr	15, 2, sl, cr0, cr0, {0}
8521428c:	f57ff06f 	isb	sy
85214290:	ee301f10 	mrc	15, 1, r1, cr0, cr0, {0}
85214294:	e2012007 	and	r2, r1, #7
85214298:	e2822004 	add	r2, r2, #4
8521429c:	e59f4048 	ldr	r4, [pc, #72]	; 852142ec <invfinished+0x10>
852142a0:	e01441a1 	ands	r4, r4, r1, lsr #3
852142a4:	e16f5f14 	clz	r5, r4
852142a8:	e59f7040 	ldr	r7, [pc, #64]	; 852142f0 <invfinished+0x14>
852142ac:	e01776a1 	ands	r7, r7, r1, lsr #13

852142b0 <invloop2>:
852142b0:	e1a09004 	mov	r9, r4

852142b4 <invloop3>:
852142b4:	e18a6519 	orr	r6, sl, r9, lsl r5
852142b8:	e1866217 	orr	r6, r6, r7, lsl r2
852142bc:	ee076f56 	mcr	15, 0, r6, cr7, cr6, {2}
852142c0:	e2599001 	subs	r9, r9, #1
852142c4:	aafffffa 	bge	852142b4 <invloop3>
852142c8:	e2577001 	subs	r7, r7, #1
852142cc:	aafffff7 	bge	852142b0 <invloop2>

852142d0 <invskip>:
852142d0:	e28aa002 	add	sl, sl, #2
852142d4:	e153000a 	cmp	r3, sl
852142d8:	caffffe5 	bgt	85214274 <invloop1>

852142dc <invfinished>:
852142dc:	e3a0a000 	mov	sl, #0
852142e0:	ee40af10 	mcr	15, 2, sl, cr0, cr0, {0}
852142e4:	f57ff06f 	isb	sy
852142e8:	e1a0f00e 	mov	pc, lr
852142ec:	000003ff 	.word	0x000003ff
852142f0:	00007fff 	.word	0x00007fff

852142f4 <armv7_l1cache_flush_d>:
852142f4:	ee300f30 	mrc	15, 1, r0, cr0, cr0, {1}
852142f8:	e2103407 	ands	r3, r0, #117440512	; 0x7000000
852142fc:	e1a03ba3 	lsr	r3, r3, #23
85214300:	0a00001a 	beq	85214370 <finished>
85214304:	e3a0a000 	mov	sl, #0

85214308 <loop1>:
85214308:	e08a20aa 	add	r2, sl, sl, lsr #1
8521430c:	e1a01230 	lsr	r1, r0, r2
85214310:	e2011007 	and	r1, r1, #7
85214314:	e3510002 	cmp	r1, #2
85214318:	ba000011 	blt	85214364 <skip>
8521431c:	ee40af10 	mcr	15, 2, sl, cr0, cr0, {0}
85214320:	f57ff06f 	isb	sy
85214324:	ee301f10 	mrc	15, 1, r1, cr0, cr0, {0}
85214328:	e2012007 	and	r2, r1, #7
8521432c:	e2822004 	add	r2, r2, #4
85214330:	e59f4048 	ldr	r4, [pc, #72]	; 85214380 <finished+0x10>
85214334:	e01441a1 	ands	r4, r4, r1, lsr #3
85214338:	e16f5f14 	clz	r5, r4
8521433c:	e59f7040 	ldr	r7, [pc, #64]	; 85214384 <finished+0x14>
85214340:	e01776a1 	ands	r7, r7, r1, lsr #13

85214344 <loop2>:
85214344:	e1a09004 	mov	r9, r4

85214348 <loop3>:
85214348:	e18a6519 	orr	r6, sl, r9, lsl r5
8521434c:	e1866217 	orr	r6, r6, r7, lsl r2
85214350:	ee076f5e 	mcr	15, 0, r6, cr7, cr14, {2}
85214354:	e2599001 	subs	r9, r9, #1
85214358:	aafffffa 	bge	85214348 <loop3>
8521435c:	e2577001 	subs	r7, r7, #1
85214360:	aafffff7 	bge	85214344 <loop2>

85214364 <skip>:
85214364:	e28aa002 	add	sl, sl, #2
85214368:	e153000a 	cmp	r3, sl
8521436c:	caffffe5 	bgt	85214308 <loop1>

85214370 <finished>:
85214370:	e3a0a000 	mov	sl, #0
85214374:	ee40af10 	mcr	15, 2, sl, cr0, cr0, {0}
85214378:	f57ff06f 	isb	sy
8521437c:	e1a0f00e 	mov	pc, lr
85214380:	000003ff 	.word	0x000003ff
85214384:	00007fff 	.word	0x00007fff

85214388 <armv7_l1cache_inval_range_d>:
85214388:	ee100f30 	mrc	15, 0, r0, cr0, cr0, {1}
8521438c:	e1a00820 	lsr	r0, r0, #16
85214390:	e200000f 	and	r0, r0, #15
85214394:	e3a03004 	mov	r3, #4
85214398:	e1a03013 	lsl	r3, r3, r0
8521439c:	e2430001 	sub	r0, r3, #1
852143a0:	e1110000 	tst	r1, r0
852143a4:	e1c11000 	bic	r1, r1, r0
852143a8:	1e071f3e 	mcrne	15, 0, r1, cr7, cr14, {1}
852143ac:	e1120000 	tst	r2, r0
852143b0:	e1c22000 	bic	r2, r2, r0
852143b4:	1e072f3e 	mcrne	15, 0, r2, cr7, cr14, {1}
852143b8:	ee071f36 	mcr	15, 0, r1, cr7, cr6, {1}
852143bc:	e0811003 	add	r1, r1, r3
852143c0:	e1510002 	cmp	r1, r2
852143c4:	3afffffb 	bcc	852143b8 <armv7_l1cache_inval_range_d+0x30>
852143c8:	f57ff06f 	isb	sy
852143cc:	e1a0f00e 	mov	pc, lr

852143d0 <armv7_l1cache_flush_range_d>:
852143d0:	ee100f30 	mrc	15, 0, r0, cr0, cr0, {1}
852143d4:	e1a00820 	lsr	r0, r0, #16
852143d8:	e200000f 	and	r0, r0, #15
852143dc:	e3a03004 	mov	r3, #4
852143e0:	e1a03013 	lsl	r3, r3, r0
852143e4:	e2430001 	sub	r0, r3, #1
852143e8:	e1c11000 	bic	r1, r1, r0
852143ec:	ee071f3e 	mcr	15, 0, r1, cr7, cr14, {1}
852143f0:	e0811003 	add	r1, r1, r3
852143f4:	e1510002 	cmp	r1, r2
852143f8:	3afffffb 	bcc	852143ec <armv7_l1cache_flush_range_d+0x1c>
852143fc:	f57ff06f 	isb	sy
85214400:	e1a0f00e 	mov	pc, lr

85214404 <armv7_cacheops>:
85214404:	e1a0c00e 	mov	ip, lr
85214408:	e1a04000 	mov	r4, r0
8521440c:	e1a05001 	mov	r5, r1
85214410:	e1a06002 	mov	r6, r2
85214414:	e3540000 	cmp	r4, #0
85214418:	1a000000 	bne	85214420 <armv7_cacheops+0x1c>
8521441c:	e3a04003 	mov	r4, #3
85214420:	e3140002 	tst	r4, #2
85214424:	0a000000 	beq	8521442c <armv7_cacheops+0x28>
85214428:	ebffff88 	bl	85214250 <armv7_l1cache_inval_i>
8521442c:	e3140020 	tst	r4, #32
85214430:	0a000002 	beq	85214440 <armv7_cacheops+0x3c>
85214434:	e1a01005 	mov	r1, r5
85214438:	e1a02006 	mov	r2, r6
8521443c:	ebffffd1 	bl	85214388 <armv7_l1cache_inval_range_d>
85214440:	e3140040 	tst	r4, #64	; 0x40
85214444:	0a000002 	beq	85214454 <armv7_cacheops+0x50>
85214448:	e1a01005 	mov	r1, r5
8521444c:	e1a02006 	mov	r2, r6
85214450:	ebffffde 	bl	852143d0 <armv7_l1cache_flush_range_d>
85214454:	e3140004 	tst	r4, #4
85214458:	0a000002 	beq	85214468 <armv7_cacheops+0x64>
8521445c:	e1a0b004 	mov	fp, r4
85214460:	ebffff7e 	bl	85214260 <armv7_l1cache_inval_d>
85214464:	e1a0400b 	mov	r4, fp
85214468:	e3140001 	tst	r4, #1
8521446c:	0a000002 	beq	8521447c <armv7_cacheops+0x78>
85214470:	e1a0b004 	mov	fp, r4
85214474:	ebffff9e 	bl	852142f4 <armv7_l1cache_flush_d>
85214478:	e1a0400b 	mov	r4, fp
8521447c:	e1a0e00c 	mov	lr, ip
85214480:	e1a0f00e 	mov	pc, lr

85214484 <armv7_cpuinit>:
85214484:	e1a0c00e 	mov	ip, lr
85214488:	e3a00000 	mov	r0, #0
8521448c:	ee080f17 	mcr	15, 0, r0, cr8, cr7, {0}
85214490:	ee070f15 	mcr	15, 0, r0, cr7, cr5, {0}
85214494:	ee070fd5 	mcr	15, 0, r0, cr7, cr5, {6}
85214498:	ee110f10 	mrc	15, 0, r0, cr1, cr0, {0}
8521449c:	e3c00007 	bic	r0, r0, #7
852144a0:	e3800a02 	orr	r0, r0, #8192	; 0x2000
852144a4:	e3800002 	orr	r0, r0, #2
852144a8:	e3800b02 	orr	r0, r0, #2048	; 0x800
852144ac:	e3800a01 	orr	r0, r0, #4096	; 0x1000
852144b0:	ee010f10 	mcr	15, 0, r0, cr1, cr0, {0}
852144b4:	f57ff06f 	isb	sy
852144b8:	ee111f30 	mrc	15, 0, r1, cr1, cr0, {1}
852144bc:	e3811040 	orr	r1, r1, #64	; 0x40
852144c0:	ee011f30 	mcr	15, 0, r1, cr1, cr0, {1}
852144c4:	e1a0e00c 	mov	lr, ip
852144c8:	e1a0f00e 	mov	pc, lr

852144cc <armv7_enable_mmu>:
852144cc:	ee110f10 	mrc	15, 0, r0, cr1, cr0, {0}
852144d0:	e3800001 	orr	r0, r0, #1
852144d4:	ee010f10 	mcr	15, 0, r0, cr1, cr0, {0}
852144d8:	f57ff06f 	isb	sy
852144dc:	e1a0f00e 	mov	pc, lr

852144e0 <armv7_disable_mmu>:
852144e0:	ee110f10 	mrc	15, 0, r0, cr1, cr0, {0}
852144e4:	e3c00001 	bic	r0, r0, #1
852144e8:	ee010f10 	mcr	15, 0, r0, cr1, cr0, {0}
852144ec:	f57ff06f 	isb	sy
852144f0:	e1a0f00e 	mov	pc, lr

852144f4 <armv7_enable_tick>:
852144f4:	ee191f1c 	mrc	15, 0, r1, cr9, cr12, {0}
852144f8:	e3a02005 	mov	r2, #5
852144fc:	e1811002 	orr	r1, r1, r2
85214500:	ee091f1c 	mcr	15, 0, r1, cr9, cr12, {0}
85214504:	e3a01102 	mov	r1, #-2147483648	; 0x80000000
85214508:	ee091f3c 	mcr	15, 0, r1, cr9, cr12, {1}
8521450c:	e1a0f00e 	mov	pc, lr

85214510 <_getticks>:
85214510:	ee190f1d 	mrc	15, 0, r0, cr9, cr13, {0}
85214514:	e1a0f00e 	mov	pc, lr

85214518 <mmu_init_table>:
85214518:	e0811000 	add	r1, r1, r0
8521451c:	e3a02000 	mov	r2, #0
85214520:	e5802000 	str	r2, [r0]
85214524:	e2800004 	add	r0, r0, #4
85214528:	e1500001 	cmp	r0, r1
8521452c:	bafffffb 	blt	85214520 <mmu_init_table+0x8>
85214530:	e1a0f00e 	mov	pc, lr

85214534 <mmu_set_ttbr>:
85214534:	e59f1010 	ldr	r1, [pc, #16]	; 8521454c <mmu_set_ttbr+0x18>
85214538:	ee031f10 	mcr	15, 0, r1, cr3, cr0, {0}
8521453c:	ee020f10 	mcr	15, 0, r0, cr2, cr0, {0}
85214540:	f57ff06f 	isb	sy
85214544:	f57ff04f 	dsb	sy
85214548:	e1a0f00e 	mov	pc, lr
8521454c:	55555555 	.word	0x55555555

85214550 <mmu_invalidate_tlb>:
85214550:	e3a00000 	mov	r0, #0
85214554:	ee080f17 	mcr	15, 0, r0, cr8, cr7, {0}
85214558:	f57ff06f 	isb	sy
8521455c:	f57ff04f 	dsb	sy
85214560:	e1a0f00e 	mov	pc, lr

85214564 <mmu_set_scn>:
85214564:	e3a05000 	mov	r5, #0
85214568:	e1a01a21 	lsr	r1, r1, #20
8521456c:	e1a04a24 	lsr	r4, r4, #20
85214570:	e7df3a1f 	bfc	r3, #20, #12
85214574:	e0812002 	add	r2, r1, r2
85214578:	e1520006 	cmp	r2, r6
8521457c:	ba000000 	blt	85214584 <mmu_set_scn+0x20>
85214580:	e1a02006 	mov	r2, r6
85214584:	e1835a04 	orr	r5, r3, r4, lsl #20
85214588:	e7805101 	str	r5, [r0, r1, lsl #2]
8521458c:	e2844001 	add	r4, r4, #1
85214590:	e2811001 	add	r1, r1, #1
85214594:	e1510002 	cmp	r1, r2
85214598:	1afffff9 	bne	85214584 <mmu_set_scn+0x20>
8521459c:	e1a0f00e 	mov	pc, lr

852145a0 <lib_strncpy>:
852145a0:	e2411001 	sub	r1, r1, #1
852145a4:	e1a03000 	mov	r3, r0
852145a8:	e5f1c001 	ldrb	ip, [r1, #1]!
852145ac:	e35c0000 	cmp	ip, #0
852145b0:	0a000004 	beq	852145c8 <lib_strncpy+0x28>
852145b4:	e3520000 	cmp	r2, #0
852145b8:	14c3c001 	strbne	ip, [r3], #1
852145bc:	12422001 	subne	r2, r2, #1
852145c0:	1afffff8 	bne	852145a8 <lib_strncpy+0x8>
852145c4:	e12fff1e 	bx	lr
852145c8:	e3520000 	cmp	r2, #0
852145cc:	15c3c000 	strbne	ip, [r3]
852145d0:	e12fff1e 	bx	lr

852145d4 <lib_strlen>:
852145d4:	e1a02000 	mov	r2, r0
852145d8:	e1a03000 	mov	r3, r0
852145dc:	e0620003 	rsb	r0, r2, r3
852145e0:	e4d31001 	ldrb	r1, [r3], #1
852145e4:	e3510000 	cmp	r1, #0
852145e8:	1afffffb 	bne	852145dc <lib_strlen+0x8>
852145ec:	e12fff1e 	bx	lr

852145f0 <lib_memcmp>:
852145f0:	e2400001 	sub	r0, r0, #1
852145f4:	e0812002 	add	r2, r1, r2
852145f8:	e1510002 	cmp	r1, r2
852145fc:	0a000006 	beq	8521461c <lib_memcmp+0x2c>
85214600:	e5f0c001 	ldrb	ip, [r0, #1]!
85214604:	e5d13000 	ldrb	r3, [r1]
85214608:	e15c0003 	cmp	ip, r3
8521460c:	3a000004 	bcc	85214624 <lib_memcmp+0x34>
85214610:	8a000005 	bhi	8521462c <lib_memcmp+0x3c>
85214614:	e2811001 	add	r1, r1, #1
85214618:	eafffff6 	b	852145f8 <lib_memcmp+0x8>
8521461c:	e3a00000 	mov	r0, #0
85214620:	e12fff1e 	bx	lr
85214624:	e3e00000 	mvn	r0, #0
85214628:	e12fff1e 	bx	lr
8521462c:	e3a00001 	mov	r0, #1
85214630:	e12fff1e 	bx	lr

85214634 <lib_memcpy>:
85214634:	e1803001 	orr	r3, r0, r1
85214638:	e3130003 	tst	r3, #3
8521463c:	e52de004 	push	{lr}		; (str lr, [sp, #-4]!)
85214640:	01a0c001 	moveq	ip, r1
85214644:	0240e004 	subeq	lr, r0, #4
85214648:	0a000003 	beq	8521465c <lib_memcpy+0x28>
8521464c:	e1a03000 	mov	r3, r0
85214650:	e2433001 	sub	r3, r3, #1
85214654:	e0812002 	add	r2, r1, r2
85214658:	ea00000b 	b	8521468c <lib_memcpy+0x58>
8521465c:	e06c3002 	rsb	r3, ip, r2
85214660:	e0813003 	add	r3, r1, r3
85214664:	e3530003 	cmp	r3, #3
85214668:	849c3004 	ldrhi	r3, [ip], #4
8521466c:	85ae3004 	strhi	r3, [lr, #4]!
85214670:	8afffff9 	bhi	8521465c <lib_memcpy+0x28>
85214674:	e1a0c122 	lsr	ip, r2, #2
85214678:	e042210c 	sub	r2, r2, ip, lsl #2
8521467c:	e1a0c10c 	lsl	ip, ip, #2
85214680:	e080300c 	add	r3, r0, ip
85214684:	e081100c 	add	r1, r1, ip
85214688:	eafffff0 	b	85214650 <lib_memcpy+0x1c>
8521468c:	e1510002 	cmp	r1, r2
85214690:	14d1c001 	ldrbne	ip, [r1], #1
85214694:	15e3c001 	strbne	ip, [r3, #1]!
85214698:	1afffffb 	bne	8521468c <lib_memcpy+0x58>
8521469c:	e49df004 	pop	{pc}		; (ldr pc, [sp], #4)

852146a0 <memcpy>:
852146a0:	eaffffe3 	b	85214634 <lib_memcpy>

852146a4 <lib_memset>:
852146a4:	e0802002 	add	r2, r0, r2
852146a8:	e1500002 	cmp	r0, r2
852146ac:	14c01001 	strbne	r1, [r0], #1
852146b0:	1afffffc 	bne	852146a8 <lib_memset+0x4>
852146b4:	e12fff1e 	bx	lr

852146b8 <lib_get_crc32>:
852146b8:	e59fc028 	ldr	ip, [pc, #40]	; 852146e8 <lib_get_crc32+0x30>
852146bc:	e0801001 	add	r1, r0, r1
852146c0:	e1500001 	cmp	r0, r1
852146c4:	0a000005 	beq	852146e0 <lib_get_crc32+0x28>
852146c8:	e4d03001 	ldrb	r3, [r0], #1
852146cc:	e0233002 	eor	r3, r3, r2
852146d0:	e6ef3073 	uxtb	r3, r3
852146d4:	e79c3103 	ldr	r3, [ip, r3, lsl #2]
852146d8:	e0232422 	eor	r2, r3, r2, lsr #8
852146dc:	eafffff7 	b	852146c0 <lib_get_crc32+0x8>
852146e0:	e1a00002 	mov	r0, r2
852146e4:	e12fff1e 	bx	lr
852146e8:	8521bb28 	.word	0x8521bb28

852146ec <__atox>:
852146ec:	e92d4eff 	push	{r0, r1, r2, r3, r4, r5, r6, r7, r9, sl, fp, lr}
852146f0:	e1a06000 	mov	r6, r0
852146f4:	e1a07001 	mov	r7, r1
852146f8:	e1a0a002 	mov	sl, r2
852146fc:	e1a05003 	mov	r5, r3
85214700:	e1a0400d 	mov	r4, sp
85214704:	e1a0900d 	mov	r9, sp
85214708:	e1a00007 	mov	r0, r7
8521470c:	e1a0100a 	mov	r1, sl
85214710:	ebffe14e 	bl	8520cc50 <__aeabi_uidivmod>
85214714:	e59d3030 	ldr	r3, [sp, #48]	; 0x30
85214718:	e1a00007 	mov	r0, r7
8521471c:	e7d33001 	ldrb	r3, [r3, r1]
85214720:	e1a0100a 	mov	r1, sl
85214724:	e4c43001 	strb	r3, [r4], #1
85214728:	ebffe11e 	bl	8520cba8 <__udivsi3>
8521472c:	e069b004 	rsb	fp, r9, r4
85214730:	e2507000 	subs	r7, r0, #0
85214734:	1afffff3 	bne	85214708 <__atox+0x1c>
85214738:	e3550000 	cmp	r5, #0
8521473c:	1155000b 	cmpne	r5, fp
85214740:	da000006 	ble	85214760 <__atox+0x74>
85214744:	e06b5005 	rsb	r5, fp, r5
85214748:	e3a01030 	mov	r1, #48	; 0x30
8521474c:	e0842005 	add	r2, r4, r5
85214750:	e4c41001 	strb	r1, [r4], #1
85214754:	e1540002 	cmp	r4, r2
85214758:	1afffffc 	bne	85214750 <__atox+0x64>
8521475c:	e085b00b 	add	fp, r5, fp
85214760:	e2466001 	sub	r6, r6, #1
85214764:	e1540009 	cmp	r4, r9
85214768:	15742001 	ldrbne	r2, [r4, #-1]!
8521476c:	15e62001 	strbne	r2, [r6, #1]!
85214770:	1afffffb 	bne	85214764 <__atox+0x78>
85214774:	e1a0000b 	mov	r0, fp
85214778:	e28dd010 	add	sp, sp, #16
8521477c:	e8bd8ef0 	pop	{r4, r5, r6, r7, r9, sl, fp, pc}

85214780 <__llatox>:
85214780:	e92d4eff 	push	{r0, r1, r2, r3, r4, r5, r6, r7, r9, sl, fp, lr}
85214784:	e1a0a000 	mov	sl, r0
85214788:	e59d5034 	ldr	r5, [sp, #52]	; 0x34
8521478c:	e1a06002 	mov	r6, r2
85214790:	e1a07003 	mov	r7, r3
85214794:	e1a0400d 	mov	r4, sp
85214798:	e1a0b00d 	mov	fp, sp
8521479c:	e1a00006 	mov	r0, r6
852147a0:	e1a01007 	mov	r1, r7
852147a4:	e59d2030 	ldr	r2, [sp, #48]	; 0x30
852147a8:	e3a03000 	mov	r3, #0
852147ac:	ebffe16e 	bl	8520cd6c <__aeabi_uldivmod>
852147b0:	e59d3038 	ldr	r3, [sp, #56]	; 0x38
852147b4:	e1a00006 	mov	r0, r6
852147b8:	e1a01007 	mov	r1, r7
852147bc:	e7d33002 	ldrb	r3, [r3, r2]
852147c0:	e59d2030 	ldr	r2, [sp, #48]	; 0x30
852147c4:	e4c43001 	strb	r3, [r4], #1
852147c8:	e3a03000 	mov	r3, #0
852147cc:	ebffe166 	bl	8520cd6c <__aeabi_uldivmod>
852147d0:	e06b9004 	rsb	r9, fp, r4
852147d4:	e1a06000 	mov	r6, r0
852147d8:	e1a07001 	mov	r7, r1
852147dc:	e1963007 	orrs	r3, r6, r7
852147e0:	1affffed 	bne	8521479c <__llatox+0x1c>
852147e4:	e3550000 	cmp	r5, #0
852147e8:	11550009 	cmpne	r5, r9
852147ec:	da000006 	ble	8521480c <__llatox+0x8c>
852147f0:	e0695005 	rsb	r5, r9, r5
852147f4:	e3a02030 	mov	r2, #48	; 0x30
852147f8:	e0843005 	add	r3, r4, r5
852147fc:	e4c42001 	strb	r2, [r4], #1
85214800:	e1540003 	cmp	r4, r3
85214804:	1afffffc 	bne	852147fc <__llatox+0x7c>
85214808:	e0859009 	add	r9, r5, r9
8521480c:	e24aa001 	sub	sl, sl, #1
85214810:	e154000b 	cmp	r4, fp
85214814:	15743001 	ldrbne	r3, [r4, #-1]!
85214818:	15ea3001 	strbne	r3, [sl, #1]!
8521481c:	1afffffb 	bne	85214810 <__llatox+0x90>
85214820:	e1a00009 	mov	r0, r9
85214824:	e28dd010 	add	sp, sp, #16
85214828:	e8bd8ef0 	pop	{r4, r5, r6, r7, r9, sl, fp, pc}

8521482c <xvsprintf>:
8521482c:	e92d4ef0 	push	{r4, r5, r6, r7, r9, sl, fp, lr}
85214830:	e24dd018 	sub	sp, sp, #24
85214834:	e59f64a8 	ldr	r6, [pc, #1192]	; 85214ce4 <xvsprintf+0x4b8>
85214838:	e3a0b000 	mov	fp, #0
8521483c:	e58d0010 	str	r0, [sp, #16]
85214840:	e1a00002 	mov	r0, r2
85214844:	e59d4010 	ldr	r4, [sp, #16]
85214848:	e5d13000 	ldrb	r3, [r1]
8521484c:	e3530000 	cmp	r3, #0
85214850:	0a00011e 	beq	85214cd0 <xvsprintf+0x4a4>
85214854:	e3530025 	cmp	r3, #37	; 0x25
85214858:	15c43000 	strbne	r3, [r4]
8521485c:	12811001 	addne	r1, r1, #1
85214860:	12844001 	addne	r4, r4, #1
85214864:	1afffff7 	bne	85214848 <xvsprintf+0x1c>
85214868:	e5d13001 	ldrb	r3, [r1, #1]
8521486c:	e3a0e000 	mov	lr, #0
85214870:	e3530023 	cmp	r3, #35	; 0x23
85214874:	02815002 	addeq	r5, r1, #2
85214878:	12815001 	addne	r5, r1, #1
8521487c:	e3a0100a 	mov	r1, #10
85214880:	e5d53000 	ldrb	r3, [r5]
85214884:	e353002d 	cmp	r3, #45	; 0x2d
85214888:	02855001 	addeq	r5, r5, #1
8521488c:	e5d53000 	ldrb	r3, [r5]
85214890:	e2432030 	sub	r2, r3, #48	; 0x30
85214894:	e6efc072 	uxtb	ip, r2
85214898:	e35c0009 	cmp	ip, #9
8521489c:	8a000005 	bhi	852148b8 <xvsprintf+0x8c>
852148a0:	e5f53001 	ldrb	r3, [r5, #1]!
852148a4:	e08ee002 	add	lr, lr, r2
852148a8:	e2433030 	sub	r3, r3, #48	; 0x30
852148ac:	e3530009 	cmp	r3, #9
852148b0:	900e0e91 	mulls	lr, r1, lr
852148b4:	eafffff4 	b	8521488c <xvsprintf+0x60>
852148b8:	e353002e 	cmp	r3, #46	; 0x2e
852148bc:	02855001 	addeq	r5, r5, #1
852148c0:	03a0b000 	moveq	fp, #0
852148c4:	03a0200a 	moveq	r2, #10
852148c8:	1a00000a 	bne	852148f8 <xvsprintf+0xcc>
852148cc:	e5d53000 	ldrb	r3, [r5]
852148d0:	e2433030 	sub	r3, r3, #48	; 0x30
852148d4:	e6ef1073 	uxtb	r1, r3
852148d8:	e3510009 	cmp	r1, #9
852148dc:	8a000005 	bhi	852148f8 <xvsprintf+0xcc>
852148e0:	e08bb003 	add	fp, fp, r3
852148e4:	e5f53001 	ldrb	r3, [r5, #1]!
852148e8:	e2433030 	sub	r3, r3, #48	; 0x30
852148ec:	e3530009 	cmp	r3, #9
852148f0:	900b0b92 	mulls	fp, r2, fp
852148f4:	eafffff4 	b	852148cc <xvsprintf+0xa0>
852148f8:	e5d53000 	ldrb	r3, [r5]
852148fc:	e353006c 	cmp	r3, #108	; 0x6c
85214900:	02855001 	addeq	r5, r5, #1
85214904:	03a03001 	moveq	r3, #1
85214908:	13a03000 	movne	r3, #0
8521490c:	e5d52000 	ldrb	r2, [r5]
85214910:	e352006c 	cmp	r2, #108	; 0x6c
85214914:	02855001 	addeq	r5, r5, #1
85214918:	02833001 	addeq	r3, r3, #1
8521491c:	e5d5c000 	ldrb	ip, [r5]
85214920:	e35c0063 	cmp	ip, #99	; 0x63
85214924:	0a0000df 	beq	85214ca8 <xvsprintf+0x47c>
85214928:	8a000010 	bhi	85214970 <xvsprintf+0x144>
8521492c:	e35c0058 	cmp	ip, #88	; 0x58
85214930:	0a0000ae 	beq	85214bf0 <xvsprintf+0x3c4>
85214934:	8a000003 	bhi	85214948 <xvsprintf+0x11c>
85214938:	e35c0049 	cmp	ip, #73	; 0x49
8521493c:	0a000021 	beq	852149c8 <xvsprintf+0x19c>
85214940:	e35c0050 	cmp	ip, #80	; 0x50
85214944:	ea00000f 	b	85214988 <xvsprintf+0x15c>
85214948:	e35c0061 	cmp	ip, #97	; 0x61
8521494c:	0a000060 	beq	85214ad4 <xvsprintf+0x2a8>
85214950:	8a0000c1 	bhi	85214c5c <xvsprintf+0x430>
85214954:	e35c005a 	cmp	ip, #90	; 0x5a
85214958:	1a0000d6 	bne	85214cb8 <xvsprintf+0x48c>
8521495c:	e5909004 	ldr	r9, [r0, #4]
85214960:	e2807008 	add	r7, r0, #8
85214964:	e590a000 	ldr	sl, [r0]
85214968:	e089a00a 	add	sl, r9, sl
8521496c:	ea0000c3 	b	85214c80 <xvsprintf+0x454>
85214970:	e35c0073 	cmp	ip, #115	; 0x73
85214974:	0a00003b 	beq	85214a68 <xvsprintf+0x23c>
85214978:	8a00000b 	bhi	852149ac <xvsprintf+0x180>
8521497c:	e35c0064 	cmp	ip, #100	; 0x64
85214980:	0a00006a 	beq	85214b30 <xvsprintf+0x304>
85214984:	e35c0070 	cmp	ip, #112	; 0x70
85214988:	1a0000ca 	bne	85214cb8 <xvsprintf+0x48c>
8521498c:	e59f3354 	ldr	r3, [pc, #852]	; 85214ce8 <xvsprintf+0x4bc>
85214990:	e35c0050 	cmp	ip, #80	; 0x50
85214994:	e5901000 	ldr	r1, [r0]
85214998:	e2807004 	add	r7, r0, #4
8521499c:	01a03006 	moveq	r3, r6
852149a0:	e58d3000 	str	r3, [sp]
852149a4:	e3a03008 	mov	r3, #8
852149a8:	ea0000af 	b	85214c6c <xvsprintf+0x440>
852149ac:	e35c0077 	cmp	ip, #119	; 0x77
852149b0:	0a0000a4 	beq	85214c48 <xvsprintf+0x41c>
852149b4:	e35c0078 	cmp	ip, #120	; 0x78
852149b8:	0a00008c 	beq	85214bf0 <xvsprintf+0x3c4>
852149bc:	e35c0075 	cmp	ip, #117	; 0x75
852149c0:	0a000077 	beq	85214ba4 <xvsprintf+0x378>
852149c4:	ea0000bb 	b	85214cb8 <xvsprintf+0x48c>
852149c8:	e590a000 	ldr	sl, [r0]
852149cc:	e3a03000 	mov	r3, #0
852149d0:	e3a0200a 	mov	r2, #10
852149d4:	e2807004 	add	r7, r0, #4
852149d8:	e1a00004 	mov	r0, r4
852149dc:	e5da1000 	ldrb	r1, [sl]
852149e0:	e58d6000 	str	r6, [sp]
852149e4:	ebffff40 	bl	852146ec <__atox>
852149e8:	e3a0302e 	mov	r3, #46	; 0x2e
852149ec:	e3a0200a 	mov	r2, #10
852149f0:	e2809001 	add	r9, r0, #1
852149f4:	e7c43000 	strb	r3, [r4, r0]
852149f8:	e0849009 	add	r9, r4, r9
852149fc:	e5da1001 	ldrb	r1, [sl, #1]
85214a00:	e3a03000 	mov	r3, #0
85214a04:	e58d6000 	str	r6, [sp]
85214a08:	e1a00009 	mov	r0, r9
85214a0c:	ebffff36 	bl	852146ec <__atox>
85214a10:	e3a0302e 	mov	r3, #46	; 0x2e
85214a14:	e3a0200a 	mov	r2, #10
85214a18:	e2804001 	add	r4, r0, #1
85214a1c:	e7c93000 	strb	r3, [r9, r0]
85214a20:	e0894004 	add	r4, r9, r4
85214a24:	e5da1002 	ldrb	r1, [sl, #2]
85214a28:	e3a03000 	mov	r3, #0
85214a2c:	e58d6000 	str	r6, [sp]
85214a30:	e1a00004 	mov	r0, r4
85214a34:	ebffff2c 	bl	852146ec <__atox>
85214a38:	e3a0302e 	mov	r3, #46	; 0x2e
85214a3c:	e3a0200a 	mov	r2, #10
85214a40:	e2809001 	add	r9, r0, #1
85214a44:	e7c43000 	strb	r3, [r4, r0]
85214a48:	e0849009 	add	r9, r4, r9
85214a4c:	e5da1003 	ldrb	r1, [sl, #3]
85214a50:	e3a03000 	mov	r3, #0
85214a54:	e58d6000 	str	r6, [sp]
85214a58:	e1a00009 	mov	r0, r9
85214a5c:	ebffff22 	bl	852146ec <__atox>
85214a60:	e0894000 	add	r4, r9, r0
85214a64:	ea000096 	b	85214cc4 <xvsprintf+0x498>
85214a68:	e5903000 	ldr	r3, [r0]
85214a6c:	e2807004 	add	r7, r0, #4
85214a70:	e59f2274 	ldr	r2, [pc, #628]	; 85214cec <xvsprintf+0x4c0>
85214a74:	e3530000 	cmp	r3, #0
85214a78:	01a03002 	moveq	r3, r2
85214a7c:	e19e200b 	orrs	r2, lr, fp
85214a80:	e2433001 	sub	r3, r3, #1
85214a84:	1a000009 	bne	85214ab0 <xvsprintf+0x284>
85214a88:	e5f32001 	ldrb	r2, [r3, #1]!
85214a8c:	e3520000 	cmp	r2, #0
85214a90:	0a00008b 	beq	85214cc4 <xvsprintf+0x498>
85214a94:	e4c42001 	strb	r2, [r4], #1
85214a98:	eafffffa 	b	85214a88 <xvsprintf+0x25c>
85214a9c:	e5f32001 	ldrb	r2, [r3, #1]!
85214aa0:	e3520000 	cmp	r2, #0
85214aa4:	0a000004 	beq	85214abc <xvsprintf+0x290>
85214aa8:	e24ee001 	sub	lr, lr, #1
85214aac:	e4c42001 	strb	r2, [r4], #1
85214ab0:	e35e0000 	cmp	lr, #0
85214ab4:	1afffff8 	bne	85214a9c <xvsprintf+0x270>
85214ab8:	ea000081 	b	85214cc4 <xvsprintf+0x498>
85214abc:	e084e00e 	add	lr, r4, lr
85214ac0:	e3a03020 	mov	r3, #32
85214ac4:	e4c43001 	strb	r3, [r4], #1
85214ac8:	e15e0004 	cmp	lr, r4
85214acc:	1afffffc 	bne	85214ac4 <xvsprintf+0x298>
85214ad0:	ea00007b 	b	85214cc4 <xvsprintf+0x498>
85214ad4:	e5909000 	ldr	r9, [r0]
85214ad8:	e2807004 	add	r7, r0, #4
85214adc:	e2893005 	add	r3, r9, #5
85214ae0:	e58d3014 	str	r3, [sp, #20]
85214ae4:	e1a0a009 	mov	sl, r9
85214ae8:	e4da1001 	ldrb	r1, [sl], #1
85214aec:	e3a03002 	mov	r3, #2
85214af0:	e3a02010 	mov	r2, #16
85214af4:	e1a00004 	mov	r0, r4
85214af8:	e58d6000 	str	r6, [sp]
85214afc:	ebfffefa 	bl	852146ec <__atox>
85214b00:	e3a0202d 	mov	r2, #45	; 0x2d
85214b04:	e0843000 	add	r3, r4, r0
85214b08:	e2800001 	add	r0, r0, #1
85214b0c:	e0844000 	add	r4, r4, r0
85214b10:	e5c32000 	strb	r2, [r3]
85214b14:	e59d3014 	ldr	r3, [sp, #20]
85214b18:	e153000a 	cmp	r3, sl
85214b1c:	1afffff1 	bne	85214ae8 <xvsprintf+0x2bc>
85214b20:	e59f31bc 	ldr	r3, [pc, #444]	; 85214ce4 <xvsprintf+0x4b8>
85214b24:	e5d91005 	ldrb	r1, [r9, #5]
85214b28:	e58d3000 	str	r3, [sp]
85214b2c:	ea00004d 	b	85214c68 <xvsprintf+0x43c>
85214b30:	e3530002 	cmp	r3, #2
85214b34:	0a00000a 	beq	85214b64 <xvsprintf+0x338>
85214b38:	e5901000 	ldr	r1, [r0]
85214b3c:	e2807004 	add	r7, r0, #4
85214b40:	e3a0200a 	mov	r2, #10
85214b44:	e3510000 	cmp	r1, #0
85214b48:	b2611000 	rsblt	r1, r1, #0
85214b4c:	b3a0302d 	movlt	r3, #45	; 0x2d
85214b50:	b5c43000 	strblt	r3, [r4]
85214b54:	b2844001 	addlt	r4, r4, #1
85214b58:	e58d6000 	str	r6, [sp]
85214b5c:	e1a0300e 	mov	r3, lr
85214b60:	ea000042 	b	85214c70 <xvsprintf+0x444>
85214b64:	e2800007 	add	r0, r0, #7
85214b68:	e3c00007 	bic	r0, r0, #7
85214b6c:	e2807008 	add	r7, r0, #8
85214b70:	e1c020d0 	ldrd	r2, [r0]
85214b74:	e3520000 	cmp	r2, #0
85214b78:	e2d31000 	sbcs	r1, r3, #0
85214b7c:	aa000004 	bge	85214b94 <xvsprintf+0x368>
85214b80:	e2722000 	rsbs	r2, r2, #0
85214b84:	e3a0102d 	mov	r1, #45	; 0x2d
85214b88:	e2e33000 	rsc	r3, r3, #0
85214b8c:	e5c41000 	strb	r1, [r4]
85214b90:	e2844001 	add	r4, r4, #1
85214b94:	e58d6008 	str	r6, [sp, #8]
85214b98:	e3a0100a 	mov	r1, #10
85214b9c:	e58de004 	str	lr, [sp, #4]
85214ba0:	ea000026 	b	85214c40 <xvsprintf+0x414>
85214ba4:	e3530002 	cmp	r3, #2
85214ba8:	0a000005 	beq	85214bc4 <xvsprintf+0x398>
85214bac:	e58d6000 	str	r6, [sp]
85214bb0:	e2807004 	add	r7, r0, #4
85214bb4:	e1a0300e 	mov	r3, lr
85214bb8:	e3a0200a 	mov	r2, #10
85214bbc:	e5901000 	ldr	r1, [r0]
85214bc0:	ea00002a 	b	85214c70 <xvsprintf+0x444>
85214bc4:	e2800007 	add	r0, r0, #7
85214bc8:	e3a0300a 	mov	r3, #10
85214bcc:	e3c00007 	bic	r0, r0, #7
85214bd0:	e58d6008 	str	r6, [sp, #8]
85214bd4:	e58de004 	str	lr, [sp, #4]
85214bd8:	e2807008 	add	r7, r0, #8
85214bdc:	e58d3000 	str	r3, [sp]
85214be0:	e1c020d0 	ldrd	r2, [r0]
85214be4:	e1a00004 	mov	r0, r4
85214be8:	ebfffee4 	bl	85214780 <__llatox>
85214bec:	ea000021 	b	85214c78 <xvsprintf+0x44c>
85214bf0:	e3530002 	cmp	r3, #2
85214bf4:	0a000007 	beq	85214c18 <xvsprintf+0x3ec>
85214bf8:	e59f30e8 	ldr	r3, [pc, #232]	; 85214ce8 <xvsprintf+0x4bc>
85214bfc:	e35c0058 	cmp	ip, #88	; 0x58
85214c00:	e5901000 	ldr	r1, [r0]
85214c04:	e2807004 	add	r7, r0, #4
85214c08:	01a03006 	moveq	r3, r6
85214c0c:	e58d3000 	str	r3, [sp]
85214c10:	e1a0300e 	mov	r3, lr
85214c14:	ea000014 	b	85214c6c <xvsprintf+0x440>
85214c18:	e59f10c8 	ldr	r1, [pc, #200]	; 85214ce8 <xvsprintf+0x4bc>
85214c1c:	e2800007 	add	r0, r0, #7
85214c20:	e3c00007 	bic	r0, r0, #7
85214c24:	e35c0058 	cmp	ip, #88	; 0x58
85214c28:	e2807008 	add	r7, r0, #8
85214c2c:	e1c020d0 	ldrd	r2, [r0]
85214c30:	01a01006 	moveq	r1, r6
85214c34:	e58d1008 	str	r1, [sp, #8]
85214c38:	e3a01010 	mov	r1, #16
85214c3c:	e58de004 	str	lr, [sp, #4]
85214c40:	e58d1000 	str	r1, [sp]
85214c44:	eaffffe6 	b	85214be4 <xvsprintf+0x3b8>
85214c48:	e1d010b0 	ldrh	r1, [r0]
85214c4c:	e2807004 	add	r7, r0, #4
85214c50:	e58d6000 	str	r6, [sp]
85214c54:	e3a03004 	mov	r3, #4
85214c58:	ea000003 	b	85214c6c <xvsprintf+0x440>
85214c5c:	e2807004 	add	r7, r0, #4
85214c60:	e5d01000 	ldrb	r1, [r0]
85214c64:	e58d6000 	str	r6, [sp]
85214c68:	e3a03002 	mov	r3, #2
85214c6c:	e3a02010 	mov	r2, #16
85214c70:	e1a00004 	mov	r0, r4
85214c74:	ebfffe9c 	bl	852146ec <__atox>
85214c78:	e0844000 	add	r4, r4, r0
85214c7c:	ea000010 	b	85214cc4 <xvsprintf+0x498>
85214c80:	e159000a 	cmp	r9, sl
85214c84:	0a00000e 	beq	85214cc4 <xvsprintf+0x498>
85214c88:	e4d91001 	ldrb	r1, [r9], #1
85214c8c:	e1a00004 	mov	r0, r4
85214c90:	e58d6000 	str	r6, [sp]
85214c94:	e3a03002 	mov	r3, #2
85214c98:	e3a02010 	mov	r2, #16
85214c9c:	ebfffe92 	bl	852146ec <__atox>
85214ca0:	e0844000 	add	r4, r4, r0
85214ca4:	eafffff5 	b	85214c80 <xvsprintf+0x454>
85214ca8:	e5903000 	ldr	r3, [r0]
85214cac:	e2807004 	add	r7, r0, #4
85214cb0:	e5c43000 	strb	r3, [r4]
85214cb4:	ea000001 	b	85214cc0 <xvsprintf+0x494>
85214cb8:	e1a07000 	mov	r7, r0
85214cbc:	e5c4c000 	strb	ip, [r4]
85214cc0:	e2844001 	add	r4, r4, #1
85214cc4:	e2851001 	add	r1, r5, #1
85214cc8:	e1a00007 	mov	r0, r7
85214ccc:	eafffedd 	b	85214848 <xvsprintf+0x1c>
85214cd0:	e5c43000 	strb	r3, [r4]
85214cd4:	e59d3010 	ldr	r3, [sp, #16]
85214cd8:	e0630004 	rsb	r0, r3, r4
85214cdc:	e28dd018 	add	sp, sp, #24
85214ce0:	e8bd8ef0 	pop	{r4, r5, r6, r7, r9, sl, fp, pc}
85214ce4:	8521bf40 	.word	0x8521bf40
85214ce8:	8521bf28 	.word	0x8521bf28
85214cec:	8521bf39 	.word	0x8521bf39

85214cf0 <xprintf>:
85214cf0:	e92d000f 	push	{r0, r1, r2, r3}
85214cf4:	e92d4037 	push	{r0, r1, r2, r4, r5, lr}
85214cf8:	e59f4064 	ldr	r4, [pc, #100]	; 85214d64 <xprintf+0x74>
85214cfc:	e5d43000 	ldrb	r3, [r4]
85214d00:	e3530000 	cmp	r3, #0
85214d04:	13e00000 	mvnne	r0, #0
85214d08:	1a000011 	bne	85214d54 <xprintf+0x64>
85214d0c:	e28d201c 	add	r2, sp, #28
85214d10:	e59d1018 	ldr	r1, [sp, #24]
85214d14:	e59f004c 	ldr	r0, [pc, #76]	; 85214d68 <xprintf+0x78>
85214d18:	e3a03001 	mov	r3, #1
85214d1c:	e58d2004 	str	r2, [sp, #4]
85214d20:	e5c43000 	strb	r3, [r4]
85214d24:	ebfffec0 	bl	8521482c <xvsprintf>
85214d28:	e59f303c 	ldr	r3, [pc, #60]	; 85214d6c <xprintf+0x7c>
85214d2c:	e5933000 	ldr	r3, [r3]
85214d30:	e3530000 	cmp	r3, #0
85214d34:	e1a05000 	mov	r5, r0
85214d38:	0a000001 	beq	85214d44 <xprintf+0x54>
85214d3c:	e59f0024 	ldr	r0, [pc, #36]	; 85214d68 <xprintf+0x78>
85214d40:	e12fff33 	blx	r3
85214d44:	e5d43000 	ldrb	r3, [r4]
85214d48:	e1a00005 	mov	r0, r5
85214d4c:	e2433001 	sub	r3, r3, #1
85214d50:	e5c43000 	strb	r3, [r4]
85214d54:	e28dd00c 	add	sp, sp, #12
85214d58:	e8bd4030 	pop	{r4, r5, lr}
85214d5c:	e28dd010 	add	sp, sp, #16
85214d60:	e12fff1e 	bx	lr
85214d64:	85220e54 	.word	0x85220e54
85214d68:	85220a50 	.word	0x85220a50
85214d6c:	85220e50 	.word	0x85220e50

85214d70 <memsys_top>:
85214d70:	e92d4ef0 	push	{r4, r5, r6, r7, r9, sl, fp, lr}
85214d74:	e24dd048 	sub	sp, sp, #72	; 0x48
85214d78:	e5903014 	ldr	r3, [r0, #20]
85214d7c:	e2806030 	add	r6, r0, #48	; 0x30
85214d80:	e5905024 	ldr	r5, [r0, #36]	; 0x24
85214d84:	e1a04000 	mov	r4, r0
85214d88:	e5907018 	ldr	r7, [r0, #24]
85214d8c:	e58d3000 	str	r3, [sp]
85214d90:	e5953038 	ldr	r3, [r5, #56]	; 0x38
85214d94:	e590202c 	ldr	r2, [r0, #44]	; 0x2c
85214d98:	e590a01c 	ldr	sl, [r0, #28]
85214d9c:	e58d3008 	str	r3, [sp, #8]
85214da0:	e59f34ac 	ldr	r3, [pc, #1196]	; 85215254 <memsys_top+0x4e4>
85214da4:	e5909004 	ldr	r9, [r0, #4]
85214da8:	e5807020 	str	r7, [r0, #32]
85214dac:	e5830000 	str	r0, [r3]
85214db0:	e1a00006 	mov	r0, r6
85214db4:	e59f349c 	ldr	r3, [pc, #1180]	; 85215258 <memsys_top+0x4e8>
85214db8:	e5832000 	str	r2, [r3]
85214dbc:	eb000a47 	bl	852176e0 <memsys_init_error>
85214dc0:	e594302c 	ldr	r3, [r4, #44]	; 0x2c
85214dc4:	e3530000 	cmp	r3, #0
85214dc8:	0a000002 	beq	85214dd8 <memsys_top+0x68>
85214dcc:	e5933000 	ldr	r3, [r3]
85214dd0:	e3530000 	cmp	r3, #0
85214dd4:	1a000001 	bne	85214de0 <memsys_top+0x70>
85214dd8:	e3a0203f 	mov	r2, #63	; 0x3f
85214ddc:	ea000005 	b	85214df8 <memsys_top+0x88>
85214de0:	e28db020 	add	fp, sp, #32
85214de4:	e1a0000b 	mov	r0, fp
85214de8:	ebfff324 	bl	85211a80 <memsys_register_flow_control_user_callbacks>
85214dec:	e3500000 	cmp	r0, #0
85214df0:	0a000007 	beq	85214e14 <memsys_top+0xa4>
85214df4:	e3a02041 	mov	r2, #65	; 0x41
85214df8:	e3a01000 	mov	r1, #0
85214dfc:	e1a00006 	mov	r0, r6
85214e00:	eb000a0f 	bl	85217644 <memsys_set_error>
85214e04:	e1a00004 	mov	r0, r4
85214e08:	eb000a4c 	bl	85217740 <memsys_cleanup>
85214e0c:	e3a00001 	mov	r0, #1
85214e10:	ea00010d 	b	8521524c <memsys_top+0x4dc>
85214e14:	e59f3440 	ldr	r3, [pc, #1088]	; 8521525c <memsys_top+0x4ec>
85214e18:	e583b000 	str	fp, [r3]
85214e1c:	e2193001 	ands	r3, r9, #1
85214e20:	e58d3004 	str	r3, [sp, #4]
85214e24:	1a00002a 	bne	85214ed4 <memsys_top+0x164>
85214e28:	e28d0010 	add	r0, sp, #16
85214e2c:	eb000a33 	bl	85217700 <memsys_get_version>
85214e30:	e59f0428 	ldr	r0, [pc, #1064]	; 85215260 <memsys_top+0x4f0>
85214e34:	eb0008b9 	bl	85217120 <shmoo28_print_str>
85214e38:	e59d001c 	ldr	r0, [sp, #28]
85214e3c:	eb0008b7 	bl	85217120 <shmoo28_print_str>
85214e40:	e3a00020 	mov	r0, #32
85214e44:	eb0009ce 	bl	85217584 <PUTCHAR>
85214e48:	e3a01008 	mov	r1, #8
85214e4c:	e59f0410 	ldr	r0, [pc, #1040]	; 85215264 <memsys_top+0x4f4>
85214e50:	eb0008ba 	bl	85217140 <shmoo28_print_hex>
85214e54:	e59f040c 	ldr	r0, [pc, #1036]	; 85215268 <memsys_top+0x4f8>
85214e58:	eb0008b0 	bl	85217120 <shmoo28_print_str>
85214e5c:	e5950034 	ldr	r0, [r5, #52]	; 0x34
85214e60:	eb0009e7 	bl	85217604 <memsys_init_get_ddr_type_str>
85214e64:	eb0008ad 	bl	85217120 <shmoo28_print_str>
85214e68:	e59f03f8 	ldr	r0, [pc, #1016]	; 85215268 <memsys_top+0x4f8>
85214e6c:	eb0008ab 	bl	85217120 <shmoo28_print_str>
85214e70:	e3a01008 	mov	r1, #8
85214e74:	e1a00005 	mov	r0, r5
85214e78:	eb0008b0 	bl	85217140 <shmoo28_print_hex>
85214e7c:	e3a00020 	mov	r0, #32
85214e80:	eb0009bf 	bl	85217584 <PUTCHAR>
85214e84:	e3a01008 	mov	r1, #8
85214e88:	e59d0000 	ldr	r0, [sp]
85214e8c:	eb0008ab 	bl	85217140 <shmoo28_print_hex>
85214e90:	e3a00020 	mov	r0, #32
85214e94:	eb0009ba 	bl	85217584 <PUTCHAR>
85214e98:	e3a01008 	mov	r1, #8
85214e9c:	e1a00007 	mov	r0, r7
85214ea0:	eb0008a6 	bl	85217140 <shmoo28_print_hex>
85214ea4:	e3a00020 	mov	r0, #32
85214ea8:	eb0009b5 	bl	85217584 <PUTCHAR>
85214eac:	e3a01008 	mov	r1, #8
85214eb0:	e1a0000a 	mov	r0, sl
85214eb4:	eb0008a1 	bl	85217140 <shmoo28_print_hex>
85214eb8:	e3a00020 	mov	r0, #32
85214ebc:	eb0009b0 	bl	85217584 <PUTCHAR>
85214ec0:	e1a00009 	mov	r0, r9
85214ec4:	e3a01008 	mov	r1, #8
85214ec8:	eb00089c 	bl	85217140 <shmoo28_print_hex>
85214ecc:	e3a00020 	mov	r0, #32
85214ed0:	eb0009ab 	bl	85217584 <PUTCHAR>
85214ed4:	e5d43003 	ldrb	r3, [r4, #3]
85214ed8:	e3530003 	cmp	r3, #3
85214edc:	13a0203e 	movne	r2, #62	; 0x3e
85214ee0:	1affffc4 	bne	85214df8 <memsys_top+0x88>
85214ee4:	e5952000 	ldr	r2, [r5]
85214ee8:	e59f337c 	ldr	r3, [pc, #892]	; 8521526c <memsys_top+0x4fc>
85214eec:	e1520003 	cmp	r2, r3
85214ef0:	1a000006 	bne	85214f10 <memsys_top+0x1a0>
85214ef4:	e5953008 	ldr	r3, [r5, #8]
85214ef8:	e2133001 	ands	r3, r3, #1
85214efc:	1a000003 	bne	85214f10 <memsys_top+0x1a0>
85214f00:	e1d511b0 	ldrh	r1, [r5, #16]
85214f04:	e3002501 	movw	r2, #1281	; 0x501
85214f08:	e1510002 	cmp	r1, r2
85214f0c:	0a000001 	beq	85214f18 <memsys_top+0x1a8>
85214f10:	e3a02001 	mov	r2, #1
85214f14:	eaffffb7 	b	85214df8 <memsys_top+0x88>
85214f18:	e285200c 	add	r2, r5, #12
85214f1c:	e2851f97 	add	r1, r5, #604	; 0x25c
85214f20:	e5b20004 	ldr	r0, [r2, #4]!
85214f24:	e1520001 	cmp	r2, r1
85214f28:	e0833000 	add	r3, r3, r0
85214f2c:	1afffffb 	bne	85214f20 <memsys_top+0x1b0>
85214f30:	e595200c 	ldr	r2, [r5, #12]
85214f34:	e1530002 	cmp	r3, r2
85214f38:	13a02002 	movne	r2, #2
85214f3c:	1affffad 	bne	85214df8 <memsys_top+0x88>
85214f40:	e59d3004 	ldr	r3, [sp, #4]
85214f44:	e3530000 	cmp	r3, #0
85214f48:	1a000016 	bne	85214fa8 <memsys_top+0x238>
85214f4c:	e3a01008 	mov	r1, #8
85214f50:	e5950018 	ldr	r0, [r5, #24]
85214f54:	eb000879 	bl	85217140 <shmoo28_print_hex>
85214f58:	e59f0310 	ldr	r0, [pc, #784]	; 85215270 <memsys_top+0x500>
85214f5c:	eb00086f 	bl	85217120 <shmoo28_print_str>
85214f60:	e3a01008 	mov	r1, #8
85214f64:	e5950010 	ldr	r0, [r5, #16]
85214f68:	eb000874 	bl	85217140 <shmoo28_print_hex>
85214f6c:	e595a018 	ldr	sl, [r5, #24]
85214f70:	e59f02fc 	ldr	r0, [pc, #764]	; 85215274 <memsys_top+0x504>
85214f74:	eb000869 	bl	85217120 <shmoo28_print_str>
85214f78:	e3a01005 	mov	r1, #5
85214f7c:	e7f3005a 	ubfx	r0, sl, #0, #20
85214f80:	eb00086e 	bl	85217140 <shmoo28_print_hex>
85214f84:	e59f02ec 	ldr	r0, [pc, #748]	; 85215278 <memsys_top+0x508>
85214f88:	eb000864 	bl	85217120 <shmoo28_print_str>
85214f8c:	e3a01003 	mov	r1, #3
85214f90:	e1a00a2a 	lsr	r0, sl, #20
85214f94:	eb000869 	bl	85217140 <shmoo28_print_hex>
85214f98:	e1a00005 	mov	r0, r5
85214f9c:	eb000a15 	bl	852177f8 <memsys_init_print_dram_timing>
85214fa0:	e59f02c0 	ldr	r0, [pc, #704]	; 85215268 <memsys_top+0x4f8>
85214fa4:	eb00085d 	bl	85217120 <shmoo28_print_str>
85214fa8:	e5950034 	ldr	r0, [r5, #52]	; 0x34
85214fac:	eb0009a1 	bl	85217638 <memsys_init_validate_ddr_type>
85214fb0:	e250a000 	subs	sl, r0, #0
85214fb4:	13a0204b 	movne	r2, #75	; 0x4b
85214fb8:	1affff8e 	bne	85214df8 <memsys_top+0x88>
85214fbc:	e59d3020 	ldr	r3, [sp, #32]
85214fc0:	e3530000 	cmp	r3, #0
85214fc4:	0a000005 	beq	85214fe0 <memsys_top+0x270>
85214fc8:	e1a0100a 	mov	r1, sl
85214fcc:	e1a00004 	mov	r0, r4
85214fd0:	e12fff33 	blx	r3
85214fd4:	e3500000 	cmp	r0, #0
85214fd8:	13a02042 	movne	r2, #66	; 0x42
85214fdc:	1a000058 	bne	85215144 <memsys_top+0x3d4>
85214fe0:	e2191080 	ands	r1, r9, #128	; 0x80
85214fe4:	e209b004 	and	fp, r9, #4
85214fe8:	1a000040 	bne	852150f0 <memsys_top+0x380>
85214fec:	e5953008 	ldr	r3, [r5, #8]
85214ff0:	e3130002 	tst	r3, #2
85214ff4:	13a02003 	movne	r2, #3
85214ff8:	1affff7f 	bne	85214dfc <memsys_top+0x8c>
85214ffc:	e5972000 	ldr	r2, [r7]
85215000:	e597a008 	ldr	sl, [r7, #8]
85215004:	e7e71452 	ubfx	r1, r2, #8, #8
85215008:	e7e021da 	ubfx	r2, sl, #3, #1
8521500c:	e7e133da 	ubfx	r3, sl, #7, #2
85215010:	e3510047 	cmp	r1, #71	; 0x47
85215014:	13822001 	orrne	r2, r2, #1
85215018:	e7e2025a 	ubfx	r0, sl, #4, #3
8521501c:	e3520000 	cmp	r2, #0
85215020:	1a000004 	bne	85215038 <memsys_top+0x2c8>
85215024:	e3530000 	cmp	r3, #0
85215028:	03500002 	cmpeq	r0, #2
8521502c:	13a03001 	movne	r3, #1
85215030:	03a03000 	moveq	r3, #0
85215034:	0a000001 	beq	85215040 <memsys_top+0x2d0>
85215038:	e3a02049 	mov	r2, #73	; 0x49
8521503c:	eaffff6d 	b	85214df8 <memsys_top+0x88>
85215040:	e20aa007 	and	sl, sl, #7
85215044:	e5950038 	ldr	r0, [r5, #56]	; 0x38
85215048:	e58d300c 	str	r3, [sp, #12]
8521504c:	e1a0100a 	mov	r1, sl
85215050:	eb000a4d 	bl	8521798c <memsys_init_validate_ddr_width>
85215054:	e59d300c 	ldr	r3, [sp, #12]
85215058:	e2501000 	subs	r1, r0, #0
8521505c:	13a0204c 	movne	r2, #76	; 0x4c
85215060:	1a00002c 	bne	85215118 <memsys_top+0x3a8>
85215064:	e5d53021 	ldrb	r3, [r5, #33]	; 0x21
85215068:	e3530047 	cmp	r3, #71	; 0x47
8521506c:	13a02004 	movne	r2, #4
85215070:	1affff61 	bne	85214dfc <memsys_top+0x8c>
85215074:	e35b0000 	cmp	fp, #0
85215078:	e5953048 	ldr	r3, [r5, #72]	; 0x48
8521507c:	e1a00004 	mov	r0, r4
85215080:	03a01000 	moveq	r1, #0
85215084:	13a01401 	movne	r1, #16777216	; 0x1000000
85215088:	e1811003 	orr	r1, r1, r3
8521508c:	eb0001a4 	bl	85215724 <ddr34_phy_init>
85215090:	e2502000 	subs	r2, r0, #0
85215094:	1a000043 	bne	852151a8 <memsys_top+0x438>
85215098:	e1a01005 	mov	r1, r5
8521509c:	e1a00007 	mov	r0, r7
852150a0:	eb000901 	bl	852174ac <shmoo28_dpfe_sequence_setup>
852150a4:	e35b0000 	cmp	fp, #0
852150a8:	1a000010 	bne	852150f0 <memsys_top+0x380>
852150ac:	e59d3008 	ldr	r3, [sp, #8]
852150b0:	e1a01007 	mov	r1, r7
852150b4:	e1a00005 	mov	r0, r5
852150b8:	e2432004 	sub	r2, r3, #4
852150bc:	e59d3004 	ldr	r3, [sp, #4]
852150c0:	e16f2f12 	clz	r2, r2
852150c4:	e3530000 	cmp	r3, #0
852150c8:	e1a022a2 	lsr	r2, r2, #5
852150cc:	13822201 	orrne	r2, r2, #268435456	; 0x10000000
852150d0:	eb00030a 	bl	85215d00 <ddr34_phy_init_extension>
852150d4:	e2502000 	subs	r2, r0, #0
852150d8:	13a01003 	movne	r1, #3
852150dc:	1affff46 	bne	85214dfc <memsys_top+0x8c>
852150e0:	e1a0200a 	mov	r2, sl
852150e4:	e1a01005 	mov	r1, r5
852150e8:	e1a00007 	mov	r0, r7
852150ec:	eb000a39 	bl	852179d8 <memsys_init_save_ddr_info>
852150f0:	e2191040 	ands	r1, r9, #64	; 0x40
852150f4:	1a00001b 	bne	85215168 <memsys_top+0x3f8>
852150f8:	e595a008 	ldr	sl, [r5, #8]
852150fc:	e21aa004 	ands	sl, sl, #4
85215100:	13a02005 	movne	r2, #5
85215104:	1affff3c 	bne	85214dfc <memsys_top+0x8c>
85215108:	e59d3000 	ldr	r3, [sp]
8521510c:	e3530000 	cmp	r3, #0
85215110:	1a000002 	bne	85215120 <memsys_top+0x3b0>
85215114:	e3a02006 	mov	r2, #6
85215118:	e1a01003 	mov	r1, r3
8521511c:	eaffff36 	b	85214dfc <memsys_top+0x8c>
85215120:	e59d3024 	ldr	r3, [sp, #36]	; 0x24
85215124:	e3530000 	cmp	r3, #0
85215128:	0a000007 	beq	8521514c <memsys_top+0x3dc>
8521512c:	e1a0100a 	mov	r1, sl
85215130:	e1a00004 	mov	r0, r4
85215134:	e12fff33 	blx	r3
85215138:	e3500000 	cmp	r0, #0
8521513c:	0a000002 	beq	8521514c <memsys_top+0x3dc>
85215140:	e3a02043 	mov	r2, #67	; 0x43
85215144:	e1a0100a 	mov	r1, sl
85215148:	eaffff2b 	b	85214dfc <memsys_top+0x8c>
8521514c:	e3a01000 	mov	r1, #0
85215150:	e1a00004 	mov	r0, r4
85215154:	e59d3028 	ldr	r3, [sp, #40]	; 0x28
85215158:	e12fff33 	blx	r3
8521515c:	e3500000 	cmp	r0, #0
85215160:	15840030 	strne	r0, [r4, #48]	; 0x30
85215164:	1affff26 	bne	85214e04 <memsys_top+0x94>
85215168:	e3190c01 	tst	r9, #256	; 0x100
8521516c:	1a00000f 	bne	852151b0 <memsys_top+0x440>
85215170:	e5971008 	ldr	r1, [r7, #8]
85215174:	e1a02007 	mov	r2, r7
85215178:	e5950038 	ldr	r0, [r5, #56]	; 0x38
8521517c:	e2011007 	and	r1, r1, #7
85215180:	eb00097d 	bl	8521777c <memsys_init_power_down_unused_lanes>
85215184:	e35b0000 	cmp	fp, #0
85215188:	1a000008 	bne	852151b0 <memsys_top+0x440>
8521518c:	e1a02007 	mov	r2, r7
85215190:	e1a0300b 	mov	r3, fp
85215194:	e1a0100b 	mov	r1, fp
85215198:	e1a00005 	mov	r0, r5
8521519c:	eb000275 	bl	85215b78 <ddr34_phy_dram_init>
852151a0:	e2502000 	subs	r2, r0, #0
852151a4:	0a000001 	beq	852151b0 <memsys_top+0x440>
852151a8:	e3a01001 	mov	r1, #1
852151ac:	eaffff12 	b	85214dfc <memsys_top+0x8c>
852151b0:	e1a00007 	mov	r0, r7
852151b4:	eb000972 	bl	85217784 <memsys_init_update_ldo_bias>
852151b8:	e59d302c 	ldr	r3, [sp, #44]	; 0x2c
852151bc:	e3530000 	cmp	r3, #0
852151c0:	0a000005 	beq	852151dc <memsys_top+0x46c>
852151c4:	e3a01000 	mov	r1, #0
852151c8:	e1a00004 	mov	r0, r4
852151cc:	e12fff33 	blx	r3
852151d0:	e3500000 	cmp	r0, #0
852151d4:	13a02044 	movne	r2, #68	; 0x44
852151d8:	1affff06 	bne	85214df8 <memsys_top+0x88>
852151dc:	e3a02000 	mov	r2, #0
852151e0:	e28d1010 	add	r1, sp, #16
852151e4:	e3a00001 	mov	r0, #1
852151e8:	e2099010 	and	r9, r9, #16
852151ec:	eb000694 	bl	85216c44 <shmoo28_acquire_dfi>
852151f0:	e199300b 	orrs	r3, r9, fp
852151f4:	1a000003 	bne	85215208 <memsys_top+0x498>
852151f8:	e1a00004 	mov	r0, r4
852151fc:	eb0009b2 	bl	852178cc <memsys_dispatch_shmoo>
85215200:	e3500000 	cmp	r0, #0
85215204:	1afffefe 	bne	85214e04 <memsys_top+0x94>
85215208:	e1a00007 	mov	r0, r7
8521520c:	eb0008d7 	bl	85217570 <dpfe_sequencer_refresh_disable>
85215210:	e3a00000 	mov	r0, #0
85215214:	eb00067a 	bl	85216c04 <shmoo28_release_all_dfi>
85215218:	e59d3030 	ldr	r3, [sp, #48]	; 0x30
8521521c:	e3530000 	cmp	r3, #0
85215220:	0a000005 	beq	8521523c <memsys_top+0x4cc>
85215224:	e3a01000 	mov	r1, #0
85215228:	e1a00004 	mov	r0, r4
8521522c:	e12fff33 	blx	r3
85215230:	e3500000 	cmp	r0, #0
85215234:	13a02045 	movne	r2, #69	; 0x45
85215238:	1afffeee 	bne	85214df8 <memsys_top+0x88>
8521523c:	e1a00004 	mov	r0, r4
85215240:	eb00093e 	bl	85217740 <memsys_cleanup>
85215244:	e1a00006 	mov	r0, r6
85215248:	eb00091a 	bl	852176b8 <memsys_has_error>
8521524c:	e28dd048 	add	sp, sp, #72	; 0x48
85215250:	e8bd8ef0 	pop	{r4, r5, r6, r7, r9, sl, fp, pc}
85215254:	85220e58 	.word	0x85220e58
85215258:	85220e60 	.word	0x85220e60
8521525c:	85220e5c 	.word	0x85220e5c
85215260:	8521bf51 	.word	0x8521bf51
85215264:	20180919 	.word	0x20180919
85215268:	8521c29f 	.word	0x8521c29f
8521526c:	0132a6ef 	.word	0x0132a6ef
85215270:	8521bf6c 	.word	0x8521bf6c
85215274:	8521bf79 	.word	0x8521bf79
85215278:	8521bf84 	.word	0x8521bf84

8521527c <ddr34_phy_poll_reg>:
8521527c:	e92d4ef0 	push	{r4, r5, r6, r7, r9, sl, fp, lr}
85215280:	e1a07002 	mov	r7, r2
85215284:	e59d6020 	ldr	r6, [sp, #32]
85215288:	e1a04003 	mov	r4, r3
8521528c:	e59f2050 	ldr	r2, [pc, #80]	; 852152e4 <ddr34_phy_poll_reg+0x68>
85215290:	e1a09001 	mov	r9, r1
85215294:	e2863ff9 	add	r3, r6, #996	; 0x3e4
85215298:	e5901000 	ldr	r1, [r0]
8521529c:	e2833003 	add	r3, r3, #3
852152a0:	e1a05000 	mov	r5, r0
852152a4:	e0832293 	umull	r2, r3, r3, r2
852152a8:	e1a0a323 	lsr	sl, r3, #6
852152ac:	e3540000 	cmp	r4, #0
852152b0:	0a000009 	beq	852152dc <ddr34_phy_poll_reg+0x60>
852152b4:	e0011009 	and	r1, r1, r9
852152b8:	e1510007 	cmp	r1, r7
852152bc:	0a000006 	beq	852152dc <ddr34_phy_poll_reg+0x60>
852152c0:	e3560ffa 	cmp	r6, #1000	; 0x3e8
852152c4:	e2444001 	sub	r4, r4, #1
852152c8:	81a0000a 	movhi	r0, sl
852152cc:	93a00001 	movls	r0, #1
852152d0:	eb0008c6 	bl	852175f0 <DELAY_US>
852152d4:	e5951000 	ldr	r1, [r5]
852152d8:	eafffff3 	b	852152ac <ddr34_phy_poll_reg+0x30>
852152dc:	e1a00004 	mov	r0, r4
852152e0:	e8bd8ef0 	pop	{r4, r5, r6, r7, r9, sl, fp, pc}
852152e4:	10624dd3 	.word	0x10624dd3

852152e8 <ddr34_phy_setup_pll>:
852152e8:	e5913010 	ldr	r3, [r1, #16]
852152ec:	e92d4037 	push	{r0, r1, r2, r4, r5, lr}
852152f0:	e3c33802 	bic	r3, r3, #131072	; 0x20000
852152f4:	e3c33001 	bic	r3, r3, #1
852152f8:	e3a02001 	mov	r2, #1
852152fc:	e3833801 	orr	r3, r3, #65536	; 0x10000
85215300:	e1a04001 	mov	r4, r1
85215304:	e3833012 	orr	r3, r3, #18
85215308:	e5813010 	str	r3, [r1, #16]
8521530c:	e59030e0 	ldr	r3, [r0, #224]	; 0xe0
85215310:	e1a05000 	mov	r5, r0
85215314:	e5813020 	str	r3, [r1, #32]
85215318:	e59030e4 	ldr	r3, [r0, #228]	; 0xe4
8521531c:	e5813024 	str	r3, [r1, #36]	; 0x24
85215320:	e59030dc 	ldr	r3, [r0, #220]	; 0xdc
85215324:	e5813018 	str	r3, [r1, #24]
85215328:	e59030d4 	ldr	r3, [r0, #212]	; 0xd4
8521532c:	e284000c 	add	r0, r4, #12
85215330:	e5813014 	str	r3, [r1, #20]
85215334:	e5913010 	ldr	r3, [r1, #16]
85215338:	e3c33012 	bic	r3, r3, #18
8521533c:	e5813010 	str	r3, [r1, #16]
85215340:	e3a03ffa 	mov	r3, #1000	; 0x3e8
85215344:	e1a01002 	mov	r1, r2
85215348:	e58d3000 	str	r3, [sp]
8521534c:	ebffffca 	bl	8521527c <ddr34_phy_poll_reg>
85215350:	e3500000 	cmp	r0, #0
85215354:	15943010 	ldrne	r3, [r4, #16]
85215358:	13a00000 	movne	r0, #0
8521535c:	03a00002 	moveq	r0, #2
85215360:	13c33010 	bicne	r3, r3, #16
85215364:	15843010 	strne	r3, [r4, #16]
85215368:	159530ec 	ldrne	r3, [r5, #236]	; 0xec
8521536c:	1584302c 	strne	r3, [r4, #44]	; 0x2c
85215370:	159530e8 	ldrne	r3, [r5, #232]	; 0xe8
85215374:	13c33001 	bicne	r3, r3, #1
85215378:	15843028 	strne	r3, [r4, #40]	; 0x28
8521537c:	159530e8 	ldrne	r3, [r5, #232]	; 0xe8
85215380:	15843028 	strne	r3, [r4, #40]	; 0x28
85215384:	e28dd00c 	add	sp, sp, #12
85215388:	e8bd8030 	pop	{r4, r5, pc}

8521538c <ddr34_phy_vdl_normal>:
8521538c:	e92d4037 	push	{r0, r1, r2, r4, r5, lr}
85215390:	e3a02001 	mov	r2, #1
85215394:	e1a04001 	mov	r4, r1
85215398:	e3a03000 	mov	r3, #0
8521539c:	e1a05000 	mov	r5, r0
852153a0:	e5813068 	str	r3, [r1, #104]	; 0x68
852153a4:	e284006c 	add	r0, r4, #108	; 0x6c
852153a8:	e3a03019 	mov	r3, #25
852153ac:	e5813068 	str	r3, [r1, #104]	; 0x68
852153b0:	e3a03ffa 	mov	r3, #1000	; 0x3e8
852153b4:	e1a01002 	mov	r1, r2
852153b8:	e58d3000 	str	r3, [sp]
852153bc:	ebffffae 	bl	8521527c <ddr34_phy_poll_reg>
852153c0:	e3500000 	cmp	r0, #0
852153c4:	0a00000f 	beq	85215408 <ddr34_phy_vdl_normal+0x7c>
852153c8:	e594306c 	ldr	r3, [r4, #108]	; 0x6c
852153cc:	e3130020 	tst	r3, #32
852153d0:	13a00005 	movne	r0, #5
852153d4:	1a00000c 	bne	8521540c <ddr34_phy_vdl_normal+0x80>
852153d8:	e3130004 	tst	r3, #4
852153dc:	1a000003 	bne	852153f0 <ddr34_phy_vdl_normal+0x64>
852153e0:	e3130002 	tst	r3, #2
852153e4:	1a000001 	bne	852153f0 <ddr34_phy_vdl_normal+0x64>
852153e8:	e3150101 	tst	r5, #1073741824	; 0x40000000
852153ec:	0a000005 	beq	85215408 <ddr34_phy_vdl_normal+0x7c>
852153f0:	e5943070 	ldr	r3, [r4, #112]	; 0x70
852153f4:	e3a00000 	mov	r0, #0
852153f8:	e594306c 	ldr	r3, [r4, #108]	; 0x6c
852153fc:	e5943068 	ldr	r3, [r4, #104]	; 0x68
85215400:	e5840068 	str	r0, [r4, #104]	; 0x68
85215404:	ea000000 	b	8521540c <ddr34_phy_vdl_normal+0x80>
85215408:	e3a00001 	mov	r0, #1
8521540c:	e28dd00c 	add	sp, sp, #12
85215410:	e8bd8030 	pop	{r4, r5, pc}

85215414 <ddr34_phy_vtt_on>:
85215414:	e92d4007 	push	{r0, r1, r2, lr}
85215418:	e59020f0 	ldr	r2, [r0, #240]	; 0xf0
8521541c:	e590c048 	ldr	ip, [r0, #72]	; 0x48
85215420:	e581218c 	str	r2, [r1, #396]	; 0x18c
85215424:	e59030f4 	ldr	r3, [r0, #244]	; 0xf4
85215428:	e5813190 	str	r3, [r1, #400]	; 0x190
8521542c:	e59030f8 	ldr	r3, [r0, #248]	; 0xf8
85215430:	e5813184 	str	r3, [r1, #388]	; 0x184
85215434:	e59f3044 	ldr	r3, [pc, #68]	; 85215480 <ddr34_phy_vtt_on+0x6c>
85215438:	e003300c 	and	r3, r3, ip
8521543c:	e3520000 	cmp	r2, #0
85215440:	13530000 	cmpne	r3, #0
85215444:	0a00000a 	beq	85215474 <ddr34_phy_vtt_on+0x60>
85215448:	e3a02001 	mov	r2, #1
8521544c:	e1a00001 	mov	r0, r1
85215450:	e3a03ffa 	mov	r3, #1000	; 0x3e8
85215454:	e1a01002 	mov	r1, r2
85215458:	e58d3000 	str	r3, [sp]
8521545c:	e2800f62 	add	r0, r0, #392	; 0x188
85215460:	e3003bb8 	movw	r3, #3000	; 0xbb8
85215464:	ebffff84 	bl	8521527c <ddr34_phy_poll_reg>
85215468:	e3500000 	cmp	r0, #0
8521546c:	03a00007 	moveq	r0, #7
85215470:	0a000000 	beq	85215478 <ddr34_phy_vtt_on+0x64>
85215474:	e3a00000 	mov	r0, #0
85215478:	e28dd00c 	add	sp, sp, #12
8521547c:	e49df004 	pop	{pc}		; (ldr pc, [sp], #4)
85215480:	00300100 	.word	0x00300100

85215484 <ddr34_phy_calib_zq>:
85215484:	e59f305c 	ldr	r3, [pc, #92]	; 852154e8 <ddr34_phy_calib_zq+0x64>
85215488:	e2812e4b 	add	r2, r1, #1200	; 0x4b0
8521548c:	e590c038 	ldr	ip, [r0, #56]	; 0x38
85215490:	e3a00000 	mov	r0, #0
85215494:	e5813040 	str	r3, [r1, #64]	; 0x40
85215498:	e5813044 	str	r3, [r1, #68]	; 0x44
8521549c:	e58131c4 	str	r3, [r1, #452]	; 0x1c4
852154a0:	e150000c 	cmp	r0, ip
852154a4:	0a000005 	beq	852154c0 <ddr34_phy_calib_zq+0x3c>
852154a8:	e5823000 	str	r3, [r2]
852154ac:	e2800001 	add	r0, r0, #1
852154b0:	e5823004 	str	r3, [r2, #4]
852154b4:	e2822c02 	add	r2, r2, #512	; 0x200
852154b8:	e50231f8 	str	r3, [r2, #-504]	; 0xfffffe08
852154bc:	eafffff7 	b	852154a0 <ddr34_phy_calib_zq+0x1c>
852154c0:	e2811e4b 	add	r1, r1, #1200	; 0x4b0
852154c4:	e3a03000 	mov	r3, #0
852154c8:	e281100c 	add	r1, r1, #12
852154cc:	e30023ff 	movw	r2, #1023	; 0x3ff
852154d0:	e153000c 	cmp	r3, ip
852154d4:	14812200 	strne	r2, [r1], #512	; 0x200
852154d8:	12833001 	addne	r3, r3, #1
852154dc:	1afffffb 	bne	852154d0 <ddr34_phy_calib_zq+0x4c>
852154e0:	e3a00000 	mov	r0, #0
852154e4:	e12fff1e 	bx	lr
852154e8:	00031bff 	.word	0x00031bff

852154ec <ddr34_phy_force_tmode>:
852154ec:	e3a0301c 	mov	r3, #28
852154f0:	e5803068 	str	r3, [r0, #104]	; 0x68
852154f4:	e3a00001 	mov	r0, #1
852154f8:	ea00083c 	b	852175f0 <DELAY_US>

852154fc <ddr34_phy_rdly_odt>:
852154fc:	e52de004 	push	{lr}		; (str lr, [sp, #-4]!)
85215500:	e3a03b06 	mov	r3, #6144	; 0x1800
85215504:	e591e038 	ldr	lr, [r1, #56]	; 0x38
85215508:	e2820e4d 	add	r0, r2, #1232	; 0x4d0
8521550c:	e58231a8 	str	r3, [r2, #424]	; 0x1a8
85215510:	e2800004 	add	r0, r0, #4
85215514:	e5913064 	ldr	r3, [r1, #100]	; 0x64
85215518:	e3a0c000 	mov	ip, #0
8521551c:	e3530000 	cmp	r3, #0
85215520:	03a03f8f 	moveq	r3, #572	; 0x23c
85215524:	e15c000e 	cmp	ip, lr
85215528:	14803200 	strne	r3, [r0], #512	; 0x200
8521552c:	128cc001 	addne	ip, ip, #1
85215530:	1afffffb 	bne	85215524 <ddr34_phy_rdly_odt+0x28>
85215534:	e591308c 	ldr	r3, [r1, #140]	; 0x8c
85215538:	e2822e4a 	add	r2, r2, #1184	; 0x4a0
8521553c:	e50232a0 	str	r3, [r2, #-672]	; 0xfffffd60
85215540:	e2822008 	add	r2, r2, #8
85215544:	e3a03000 	mov	r3, #0
85215548:	e153000e 	cmp	r3, lr
8521554c:	15910088 	ldrne	r0, [r1, #136]	; 0x88
85215550:	12833001 	addne	r3, r3, #1
85215554:	14820200 	strne	r0, [r2], #512	; 0x200
85215558:	1afffffa 	bne	85215548 <ddr34_phy_rdly_odt+0x4c>
8521555c:	e49df004 	pop	{pc}		; (ldr pc, [sp], #4)

85215560 <ddr34_phy_ddr3_misc>:
85215560:	e592304c 	ldr	r3, [r2, #76]	; 0x4c
85215564:	e92d42f0 	push	{r4, r5, r6, r7, r9, lr}
85215568:	e1a04002 	mov	r4, r2
8521556c:	e5912048 	ldr	r2, [r1, #72]	; 0x48
85215570:	e5915038 	ldr	r5, [r1, #56]	; 0x38
85215574:	e3120202 	tst	r2, #536870912	; 0x20000000
85215578:	e59f210c 	ldr	r2, [pc, #268]	; 8521568c <ddr34_phy_ddr3_misc+0x12c>
8521557c:	13833201 	orrne	r3, r3, #268435456	; 0x10000000
85215580:	e3c33f7f 	bic	r3, r3, #508	; 0x1fc
85215584:	e38330e8 	orr	r3, r3, #232	; 0xe8
85215588:	e584304c 	str	r3, [r4, #76]	; 0x4c
8521558c:	e3a030e8 	mov	r3, #232	; 0xe8
85215590:	e5843050 	str	r3, [r4, #80]	; 0x50
85215594:	e594e1b0 	ldr	lr, [r4, #432]	; 0x1b0
85215598:	e591c0bc 	ldr	ip, [r1, #188]	; 0xbc
8521559c:	e002200e 	and	r2, r2, lr
852155a0:	e7e3345c 	ubfx	r3, ip, #8, #4
852155a4:	e20c600f 	and	r6, ip, #15
852155a8:	e38220e8 	orr	r2, r2, #232	; 0xe8
852155ac:	e20cc007 	and	ip, ip, #7
852155b0:	e1822c83 	orr	r2, r2, r3, lsl #25
852155b4:	e3c2e507 	bic	lr, r2, #29360128	; 0x1c00000
852155b8:	e1a02b06 	lsl	r2, r6, #22
852155bc:	e2022507 	and	r2, r2, #29360128	; 0x1c00000
852155c0:	e182200e 	orr	r2, r2, lr
852155c4:	e58421b0 	str	r2, [r4, #432]	; 0x1b0
852155c8:	e594e058 	ldr	lr, [r4, #88]	; 0x58
852155cc:	e3ceeb0f 	bic	lr, lr, #15360	; 0x3c00
852155d0:	e18e2503 	orr	r2, lr, r3, lsl #10
852155d4:	e1a0e386 	lsl	lr, r6, #7
852155d8:	e20e7d0e 	and	r7, lr, #896	; 0x380
852155dc:	e3c2effe 	bic	lr, r2, #1016	; 0x3f8
852155e0:	e18ee007 	orr	lr, lr, r7
852155e4:	e18ee183 	orr	lr, lr, r3, lsl #3
852155e8:	e3cee007 	bic	lr, lr, #7
852155ec:	e18cc00e 	orr	ip, ip, lr
852155f0:	e584c058 	str	ip, [r4, #88]	; 0x58
852155f4:	e59424c4 	ldr	r2, [r4, #1220]	; 0x4c4
852155f8:	e284cd13 	add	ip, r4, #1216	; 0x4c0
852155fc:	e28cc004 	add	ip, ip, #4
85215600:	e3c2281e 	bic	r2, r2, #1966080	; 0x1e0000
85215604:	e1823883 	orr	r3, r2, r3, lsl #17
85215608:	e3c32907 	bic	r2, r3, #114688	; 0x1c000
8521560c:	e1a03706 	lsl	r3, r6, #14
85215610:	e2033907 	and	r3, r3, #114688	; 0x1c000
85215614:	e1833002 	orr	r3, r3, r2
85215618:	e3a02000 	mov	r2, #0
8521561c:	e1520005 	cmp	r2, r5
85215620:	0a000005 	beq	8521563c <ddr34_phy_ddr3_misc+0xdc>
85215624:	e58c3000 	str	r3, [ip]
85215628:	e2822001 	add	r2, r2, #1
8521562c:	e58c3004 	str	r3, [ip, #4]
85215630:	e28ccc02 	add	ip, ip, #512	; 0x200
85215634:	e50c31f8 	str	r3, [ip, #-504]	; 0xfffffe08
85215638:	eafffff7 	b	8521561c <ddr34_phy_ddr3_misc+0xbc>
8521563c:	e1a02004 	mov	r2, r4
85215640:	ebffffad 	bl	852154fc <ddr34_phy_rdly_odt>
85215644:	e59434c0 	ldr	r3, [r4, #1216]	; 0x4c0
85215648:	e2841d13 	add	r1, r4, #1216	; 0x4c0
8521564c:	e3a02000 	mov	r2, #0
85215650:	e3c33e3f 	bic	r3, r3, #1008	; 0x3f0
85215654:	e3c33001 	bic	r3, r3, #1
85215658:	e3833e1d 	orr	r3, r3, #464	; 0x1d0
8521565c:	e1520005 	cmp	r2, r5
85215660:	14813200 	strne	r3, [r1], #512	; 0x200
85215664:	12822001 	addne	r2, r2, #1
85215668:	1afffffb 	bne	8521565c <ddr34_phy_ddr3_misc+0xfc>
8521566c:	e59f201c 	ldr	r2, [pc, #28]	; 85215690 <ddr34_phy_ddr3_misc+0x130>
85215670:	e2844e4d 	add	r4, r4, #1232	; 0x4d0
85215674:	e3a03000 	mov	r3, #0
85215678:	e1530005 	cmp	r3, r5
8521567c:	14842200 	strne	r2, [r4], #512	; 0x200
85215680:	12833001 	addne	r3, r3, #1
85215684:	1afffffb 	bne	85215678 <ddr34_phy_ddr3_misc+0x118>
85215688:	e8bd82f0 	pop	{r4, r5, r6, r7, r9, pc}
8521568c:	e1fffe06 	.word	0xe1fffe06
85215690:	001241c2 	.word	0x001241c2

85215694 <ddr34_phy_autoidle_on>:
85215694:	e3110040 	tst	r1, #64	; 0x40
85215698:	e2800e4a 	add	r0, r0, #1184	; 0x4a0
8521569c:	e92d4010 	push	{r4, lr}
852156a0:	03a03000 	moveq	r3, #0
852156a4:	13a03002 	movne	r3, #2
852156a8:	e7e049d1 	ubfx	r4, r1, #19, #1
852156ac:	e3110a02 	tst	r1, #8192	; 0x2000
852156b0:	e0844003 	add	r4, r4, r3
852156b4:	e7e012d1 	ubfx	r1, r1, #5, #1
852156b8:	03a03000 	moveq	r3, #0
852156bc:	13a03002 	movne	r3, #2
852156c0:	e0811003 	add	r1, r1, r3
852156c4:	e590300c 	ldr	r3, [r0, #12]
852156c8:	e1a0e904 	lsl	lr, r4, #18
852156cc:	e3540000 	cmp	r4, #0
852156d0:	e3c3380f 	bic	r3, r3, #983040	; 0xf0000
852156d4:	e20ee703 	and	lr, lr, #786432	; 0xc0000
852156d8:	e183c00e 	orr	ip, r3, lr
852156dc:	e1a03801 	lsl	r3, r1, #16
852156e0:	e2033803 	and	r3, r3, #196608	; 0x30000
852156e4:	e280000c 	add	r0, r0, #12
852156e8:	e183300c 	orr	r3, r3, ip
852156ec:	03a0c000 	moveq	ip, #0
852156f0:	13a0c602 	movne	ip, #2097152	; 0x200000
852156f4:	e3c33603 	bic	r3, r3, #3145728	; 0x300000
852156f8:	e3510000 	cmp	r1, #0
852156fc:	e183300c 	orr	r3, r3, ip
85215700:	03a01000 	moveq	r1, #0
85215704:	13a01601 	movne	r1, #1048576	; 0x100000
85215708:	e1813003 	orr	r3, r1, r3
8521570c:	e3a01000 	mov	r1, #0
85215710:	e1510002 	cmp	r1, r2
85215714:	14803200 	strne	r3, [r0], #512	; 0x200
85215718:	12811001 	addne	r1, r1, #1
8521571c:	1afffffb 	bne	85215710 <ddr34_phy_autoidle_on+0x7c>
85215720:	e8bd8010 	pop	{r4, pc}

85215724 <ddr34_phy_init>:
85215724:	e92d4ef0 	push	{r4, r5, r6, r7, r9, sl, fp, lr}
85215728:	e24dd030 	sub	sp, sp, #48	; 0x30
8521572c:	e5906024 	ldr	r6, [r0, #36]	; 0x24
85215730:	e5904018 	ldr	r4, [r0, #24]
85215734:	e5963038 	ldr	r3, [r6, #56]	; 0x38
85215738:	e5965048 	ldr	r5, [r6, #72]	; 0x48
8521573c:	e58d3004 	str	r3, [sp, #4]
85215740:	e1815005 	orr	r5, r1, r5
85215744:	e5963030 	ldr	r3, [r6, #48]	; 0x30
85215748:	e215a008 	ands	sl, r5, #8
8521574c:	13a0a000 	movne	sl, #0
85215750:	e58d300c 	str	r3, [sp, #12]
85215754:	e3a03001 	mov	r3, #1
85215758:	e58431a4 	str	r3, [r4, #420]	; 0x1a4
8521575c:	e5963070 	ldr	r3, [r6, #112]	; 0x70
85215760:	e3c33cff 	bic	r3, r3, #65280	; 0xff00
85215764:	e3c330f0 	bic	r3, r3, #240	; 0xf0
85215768:	e584305c 	str	r3, [r4, #92]	; 0x5c
8521576c:	e5963078 	ldr	r3, [r6, #120]	; 0x78
85215770:	e5843060 	str	r3, [r4, #96]	; 0x60
85215774:	e596307c 	ldr	r3, [r6, #124]	; 0x7c
85215778:	e1a03a23 	lsr	r3, r3, #20
8521577c:	e1a03a03 	lsl	r3, r3, #20
85215780:	e5843064 	str	r3, [r4, #100]	; 0x64
85215784:	1a0000b7 	bne	85215a68 <ddr34_phy_init+0x344>
85215788:	e3150014 	tst	r5, #20
8521578c:	0a000008 	beq	852157b4 <ddr34_phy_init+0x90>
85215790:	e5943198 	ldr	r3, [r4, #408]	; 0x198
85215794:	e3a02000 	mov	r2, #0
85215798:	e3c33001 	bic	r3, r3, #1
8521579c:	e5843198 	str	r3, [r4, #408]	; 0x198
852157a0:	e596306c 	ldr	r3, [r6, #108]	; 0x6c
852157a4:	e5843194 	str	r3, [r4, #404]	; 0x194
852157a8:	e2843e4d 	add	r3, r4, #1232	; 0x4d0
852157ac:	e2833008 	add	r3, r3, #8
852157b0:	ea000006 	b	852157d0 <ddr34_phy_init+0xac>
852157b4:	e1a01004 	mov	r1, r4
852157b8:	e1a00006 	mov	r0, r6
852157bc:	ebfffec9 	bl	852152e8 <ddr34_phy_setup_pll>
852157c0:	e3500000 	cmp	r0, #0
852157c4:	13a0a002 	movne	sl, #2
852157c8:	1a0000a6 	bne	85215a68 <ddr34_phy_init+0x344>
852157cc:	eaffffef 	b	85215790 <ddr34_phy_init+0x6c>
852157d0:	e59d1004 	ldr	r1, [sp, #4]
852157d4:	e1520001 	cmp	r2, r1
852157d8:	15931000 	ldrne	r1, [r3]
852157dc:	12822001 	addne	r2, r2, #1
852157e0:	13811c01 	orrne	r1, r1, #256	; 0x100
852157e4:	14831200 	strne	r1, [r3], #512	; 0x200
852157e8:	1afffff8 	bne	852157d0 <ddr34_phy_init+0xac>
852157ec:	e2053401 	and	r3, r5, #16777216	; 0x1000000
852157f0:	e58d301c 	str	r3, [sp, #28]
852157f4:	e5943204 	ldr	r3, [r4, #516]	; 0x204
852157f8:	e3150004 	tst	r5, #4
852157fc:	e3833202 	orr	r3, r3, #536870912	; 0x20000000
85215800:	e5843204 	str	r3, [r4, #516]	; 0x204
85215804:	e5943198 	ldr	r3, [r4, #408]	; 0x198
85215808:	e3c32008 	bic	r2, r3, #8
8521580c:	e3c3300a 	bic	r3, r3, #10
85215810:	e5842198 	str	r2, [r4, #408]	; 0x198
85215814:	e3833004 	orr	r3, r3, #4
85215818:	e5843198 	str	r3, [r4, #408]	; 0x198
8521581c:	0a000002 	beq	8521582c <ddr34_phy_init+0x108>
85215820:	e1a00004 	mov	r0, r4
85215824:	ebffff30 	bl	852154ec <ddr34_phy_force_tmode>
85215828:	ea000069 	b	852159d4 <ddr34_phy_init+0x2b0>
8521582c:	e3150201 	tst	r5, #268435456	; 0x10000000
85215830:	0a000005 	beq	8521584c <ddr34_phy_init+0x128>
85215834:	e1a01004 	mov	r1, r4
85215838:	e1a00006 	mov	r0, r6
8521583c:	ebfffef4 	bl	85215414 <ddr34_phy_vtt_on>
85215840:	e3500000 	cmp	r0, #0
85215844:	0a000062 	beq	852159d4 <ddr34_phy_init+0x2b0>
85215848:	ea000085 	b	85215a64 <ddr34_phy_init+0x340>
8521584c:	e2053401 	and	r3, r5, #16777216	; 0x1000000
85215850:	e3530000 	cmp	r3, #0
85215854:	0a00001c 	beq	852158cc <ddr34_phy_init+0x1a8>
85215858:	e2053401 	and	r3, r5, #16777216	; 0x1000000
8521585c:	e3550000 	cmp	r5, #0
85215860:	a3530000 	cmpge	r3, #0
85215864:	1afffff2 	bne	85215834 <ddr34_phy_init+0x110>
85215868:	e59d100c 	ldr	r1, [sp, #12]
8521586c:	e59f0200 	ldr	r0, [pc, #512]	; 85215a74 <ddr34_phy_init+0x350>
85215870:	ebffdccc 	bl	8520cba8 <__udivsi3>
85215874:	e594106c 	ldr	r1, [r4, #108]	; 0x6c
85215878:	e3110004 	tst	r1, #4
8521587c:	17e91451 	ubfxne	r1, r1, #8, #10
85215880:	05941070 	ldreq	r1, [r4, #112]	; 0x70
85215884:	07e91051 	ubfxeq	r1, r1, #0, #10
85215888:	02811040 	addeq	r1, r1, #64	; 0x40
8521588c:	e1a0b0a1 	lsr	fp, r1, #1
85215890:	e080000b 	add	r0, r0, fp
85215894:	ebffdcc3 	bl	8520cba8 <__udivsi3>
85215898:	e7e03755 	ubfx	r3, r5, #14, #1
8521589c:	e3a02000 	mov	r2, #0
852158a0:	e58d2008 	str	r2, [sp, #8]
852158a4:	e1a03403 	lsl	r3, r3, #8
852158a8:	e3833801 	orr	r3, r3, #65536	; 0x10000
852158ac:	e58d3024 	str	r3, [sp, #36]	; 0x24
852158b0:	e286304e 	add	r3, r6, #78	; 0x4e
852158b4:	e58d3014 	str	r3, [sp, #20]
852158b8:	e28630fa 	add	r3, r6, #250	; 0xfa
852158bc:	e58d3018 	str	r3, [sp, #24]
852158c0:	e1a03004 	mov	r3, r4
852158c4:	e58d0010 	str	r0, [sp, #16]
852158c8:	ea000005 	b	852158e4 <ddr34_phy_init+0x1c0>
852158cc:	e1a01004 	mov	r1, r4
852158d0:	e1a00005 	mov	r0, r5
852158d4:	ebfffeac 	bl	8521538c <ddr34_phy_vdl_normal>
852158d8:	e3500000 	cmp	r0, #0
852158dc:	0affffdd 	beq	85215858 <ddr34_phy_init+0x134>
852158e0:	ea00005f 	b	85215a64 <ddr34_phy_init+0x340>
852158e4:	e2832c02 	add	r2, r3, #512	; 0x200
852158e8:	e58d2020 	str	r2, [sp, #32]
852158ec:	e99d0006 	ldmib	sp, {r1, r2}
852158f0:	e1520001 	cmp	r2, r1
852158f4:	0affffce 	beq	85215834 <ddr34_phy_init+0x110>
852158f8:	e5939478 	ldr	r9, [r3, #1144]	; 0x478
852158fc:	e58d302c 	str	r3, [sp, #44]	; 0x2c
85215900:	e593747c 	ldr	r7, [r3, #1148]	; 0x47c
85215904:	e59d3014 	ldr	r3, [sp, #20]
85215908:	e6ef9079 	uxtb	r9, r9
8521590c:	e59d1010 	ldr	r1, [sp, #16]
85215910:	e2899020 	add	r9, r9, #32
85215914:	e6ef7077 	uxtb	r7, r7
85215918:	e1f300b2 	ldrh	r0, [r3, #2]!
8521591c:	e2877020 	add	r7, r7, #32
85215920:	e58d3014 	str	r3, [sp, #20]
85215924:	ebffdc9f 	bl	8520cba8 <__udivsi3>
85215928:	e59d3018 	ldr	r3, [sp, #24]
8521592c:	e59d1010 	ldr	r1, [sp, #16]
85215930:	e0809009 	add	r9, r0, r9
85215934:	e1f300b2 	ldrh	r0, [r3, #2]!
85215938:	e58d3018 	str	r3, [sp, #24]
8521593c:	ebffdc99 	bl	8520cba8 <__udivsi3>
85215940:	e1a0100b 	mov	r1, fp
85215944:	e0877000 	add	r7, r7, r0
85215948:	e1a00007 	mov	r0, r7
8521594c:	ebffdc95 	bl	8520cba8 <__udivsi3>
85215950:	e1a0100b 	mov	r1, fp
85215954:	e1a00200 	lsl	r0, r0, #4
85215958:	e6ef2070 	uxtb	r2, r0
8521595c:	e1a00009 	mov	r0, r9
85215960:	e58d2028 	str	r2, [sp, #40]	; 0x28
85215964:	ebffdc8f 	bl	8520cba8 <__udivsi3>
85215968:	e59d3024 	ldr	r3, [sp, #36]	; 0x24
8521596c:	e1a0100b 	mov	r1, fp
85215970:	e59d2028 	ldr	r2, [sp, #40]	; 0x28
85215974:	e200000f 	and	r0, r0, #15
85215978:	e1800003 	orr	r0, r0, r3
8521597c:	e59d302c 	ldr	r3, [sp, #44]	; 0x2c
85215980:	e1822000 	orr	r2, r2, r0
85215984:	e1a00009 	mov	r0, r9
85215988:	e5832488 	str	r2, [r3, #1160]	; 0x488
8521598c:	e58d3028 	str	r3, [sp, #40]	; 0x28
85215990:	ebffdcae 	bl	8520cc50 <__aeabi_uidivmod>
85215994:	e59d3028 	ldr	r3, [sp, #40]	; 0x28
85215998:	e1a00007 	mov	r0, r7
8521599c:	e6ef1071 	uxtb	r1, r1
852159a0:	e3811801 	orr	r1, r1, #65536	; 0x10000
852159a4:	e5831478 	str	r1, [r3, #1144]	; 0x478
852159a8:	e1a0100b 	mov	r1, fp
852159ac:	ebffdca7 	bl	8520cc50 <__aeabi_uidivmod>
852159b0:	e59d3028 	ldr	r3, [sp, #40]	; 0x28
852159b4:	e6ef1071 	uxtb	r1, r1
852159b8:	e3811801 	orr	r1, r1, #65536	; 0x10000
852159bc:	e583147c 	str	r1, [r3, #1148]	; 0x47c
852159c0:	e59d3008 	ldr	r3, [sp, #8]
852159c4:	e2833001 	add	r3, r3, #1
852159c8:	e58d3008 	str	r3, [sp, #8]
852159cc:	e59d3020 	ldr	r3, [sp, #32]
852159d0:	eaffffc3 	b	852158e4 <ddr34_phy_init+0x1c0>
852159d4:	e2151402 	ands	r1, r5, #33554432	; 0x2000000
852159d8:	e59621fc 	ldr	r2, [r6, #508]	; 0x1fc
852159dc:	13a03000 	movne	r3, #0
852159e0:	03a03020 	moveq	r3, #32
852159e4:	e3520000 	cmp	r2, #0
852159e8:	17e20252 	ubfxne	r0, r2, #4, #3
852159ec:	03833017 	orreq	r3, r3, #23
852159f0:	11803003 	orrne	r3, r0, r3
852159f4:	e1912002 	orrs	r2, r1, r2
852159f8:	1a000006 	bne	85215a18 <ddr34_phy_init+0x2f4>
852159fc:	e59d301c 	ldr	r3, [sp, #28]
85215a00:	e3530000 	cmp	r3, #0
85215a04:	1a00000b 	bne	85215a38 <ddr34_phy_init+0x314>
85215a08:	e1a01004 	mov	r1, r4
85215a0c:	e1a00006 	mov	r0, r6
85215a10:	ebfffe9b 	bl	85215484 <ddr34_phy_calib_zq>
85215a14:	ea000007 	b	85215a38 <ddr34_phy_init+0x314>
85215a18:	e2841e49 	add	r1, r4, #1168	; 0x490
85215a1c:	e3a02000 	mov	r2, #0
85215a20:	e59d0004 	ldr	r0, [sp, #4]
85215a24:	e1520000 	cmp	r2, r0
85215a28:	0afffff3 	beq	852159fc <ddr34_phy_init+0x2d8>
85215a2c:	e4813200 	str	r3, [r1], #512	; 0x200
85215a30:	e2822001 	add	r2, r2, #1
85215a34:	eafffff9 	b	85215a20 <ddr34_phy_init+0x2fc>
85215a38:	e1a02004 	mov	r2, r4
85215a3c:	e1a01006 	mov	r1, r6
85215a40:	e59d000c 	ldr	r0, [sp, #12]
85215a44:	ebfffec5 	bl	85215560 <ddr34_phy_ddr3_misc>
85215a48:	e1a00004 	mov	r0, r4
85215a4c:	e59d2004 	ldr	r2, [sp, #4]
85215a50:	e1a01005 	mov	r1, r5
85215a54:	ebffff0e 	bl	85215694 <ddr34_phy_autoidle_on>
85215a58:	e3a00f7d 	mov	r0, #500	; 0x1f4
85215a5c:	eb0006e3 	bl	852175f0 <DELAY_US>
85215a60:	ea000000 	b	85215a68 <ddr34_phy_init+0x344>
85215a64:	e1a0a000 	mov	sl, r0
85215a68:	e1a0000a 	mov	r0, sl
85215a6c:	e28dd030 	add	sp, sp, #48	; 0x30
85215a70:	e8bd8ef0 	pop	{r4, r5, r6, r7, r9, sl, fp, pc}
85215a74:	000f4240 	.word	0x000f4240

85215a78 <ddr34_phy_get_aux_from_addr>:
85215a78:	e3520000 	cmp	r2, #0
85215a7c:	0a000021 	beq	85215b08 <ddr34_phy_get_aux_from_addr+0x90>
85215a80:	e3520001 	cmp	r2, #1
85215a84:	1a000007 	bne	85215aa8 <ddr34_phy_get_aux_from_addr+0x30>
85215a88:	e3110040 	tst	r1, #64	; 0x40
85215a8c:	13a00004 	movne	r0, #4
85215a90:	03a00000 	moveq	r0, #0
85215a94:	e3110020 	tst	r1, #32
85215a98:	e7e011d1 	ubfx	r1, r1, #3, #1
85215a9c:	13a03002 	movne	r3, #2
85215aa0:	03a03000 	moveq	r3, #0
85215aa4:	ea000008 	b	85215acc <ddr34_phy_get_aux_from_addr+0x54>
85215aa8:	e3520002 	cmp	r2, #2
85215aac:	1a000009 	bne	85215ad8 <ddr34_phy_get_aux_from_addr+0x60>
85215ab0:	e3110040 	tst	r1, #64	; 0x40
85215ab4:	13a00004 	movne	r0, #4
85215ab8:	03a00000 	moveq	r0, #0
85215abc:	e3110020 	tst	r1, #32
85215ac0:	e7e01251 	ubfx	r1, r1, #4, #1
85215ac4:	13a03002 	movne	r3, #2
85215ac8:	03a03000 	moveq	r3, #0
85215acc:	e1811000 	orr	r1, r1, r0
85215ad0:	e1810003 	orr	r0, r1, r3
85215ad4:	e12fff1e 	bx	lr
85215ad8:	e3520004 	cmp	r2, #4
85215adc:	1a00000b 	bne	85215b10 <ddr34_phy_get_aux_from_addr+0x98>
85215ae0:	e3110040 	tst	r1, #64	; 0x40
85215ae4:	e7e00150 	ubfx	r0, r0, #2, #1
85215ae8:	13a02004 	movne	r2, #4
85215aec:	03a02000 	moveq	r2, #0
85215af0:	e3110020 	tst	r1, #32
85215af4:	e1800002 	orr	r0, r0, r2
85215af8:	13a03002 	movne	r3, #2
85215afc:	03a03000 	moveq	r3, #0
85215b00:	e1800003 	orr	r0, r0, r3
85215b04:	e12fff1e 	bx	lr
85215b08:	e1a00002 	mov	r0, r2
85215b0c:	e12fff1e 	bx	lr
85215b10:	e3a00000 	mov	r0, #0
85215b14:	e12fff1e 	bx	lr

85215b18 <ddr34_phy_write_mrs>:
85215b18:	e92d42f0 	push	{r4, r5, r6, r7, r9, lr}
85215b1c:	e1a05003 	mov	r5, r3
85215b20:	e5936184 	ldr	r6, [r3, #388]	; 0x184
85215b24:	e1a04800 	lsl	r4, r0, #16
85215b28:	e204480f 	and	r4, r4, #983040	; 0xf0000
85215b2c:	e2167007 	ands	r7, r6, #7
85215b30:	13863006 	orrne	r3, r6, #6
85215b34:	15853184 	strne	r3, [r5, #388]	; 0x184
85215b38:	e6ff3071 	uxth	r3, r1
85215b3c:	e3833502 	orr	r3, r3, #8388608	; 0x800000
85215b40:	e1844003 	orr	r4, r4, r3
85215b44:	ebffffcb 	bl	85215a78 <ddr34_phy_get_aux_from_addr>
85215b48:	e3570000 	cmp	r7, #0
85215b4c:	e1a00c00 	lsl	r0, r0, #24
85215b50:	e200041f 	and	r0, r0, #520093696	; 0x1f000000
85215b54:	e1800004 	orr	r0, r0, r4
85215b58:	e380320e 	orr	r3, r0, #-536870912	; 0xe0000000
85215b5c:	e5853128 	str	r3, [r5, #296]	; 0x128
85215b60:	e3803102 	orr	r3, r0, #-2147483648	; 0x80000000
85215b64:	e3800206 	orr	r0, r0, #1610612736	; 0x60000000
85215b68:	e5853130 	str	r3, [r5, #304]	; 0x130
85215b6c:	e5850138 	str	r0, [r5, #312]	; 0x138
85215b70:	15856184 	strne	r6, [r5, #388]	; 0x184
85215b74:	e8bd82f0 	pop	{r4, r5, r6, r7, r9, pc}

85215b78 <ddr34_phy_dram_init>:
85215b78:	e2033003 	and	r3, r3, #3
85215b7c:	e3530001 	cmp	r3, #1
85215b80:	e92d40f0 	push	{r4, r5, r6, r7, lr}
85215b84:	e1a04002 	mov	r4, r2
85215b88:	e24dd02c 	sub	sp, sp, #44	; 0x2c
85215b8c:	e5907034 	ldr	r7, [r0, #52]	; 0x34
85215b90:	e5906068 	ldr	r6, [r0, #104]	; 0x68
85215b94:	1a00000c 	bne	85215bcc <ddr34_phy_dram_init+0x54>
85215b98:	e2823f52 	add	r3, r2, #328	; 0x148
85215b9c:	e2820f59 	add	r0, r2, #356	; 0x164
85215ba0:	e5931000 	ldr	r1, [r3]
85215ba4:	e0642003 	rsb	r2, r4, r3
85215ba8:	e28dc00c 	add	ip, sp, #12
85215bac:	e2833004 	add	r3, r3, #4
85215bb0:	e08c2002 	add	r2, ip, r2
85215bb4:	e1500003 	cmp	r0, r3
85215bb8:	e3c11801 	bic	r1, r1, #65536	; 0x10000
85215bbc:	e5021148 	str	r1, [r2, #-328]	; 0xfffffeb8
85215bc0:	1afffff6 	bne	85215ba0 <ddr34_phy_dram_init+0x28>
85215bc4:	e1a0500c 	mov	r5, ip
85215bc8:	ea000002 	b	85215bd8 <ddr34_phy_dram_init+0x60>
85215bcc:	e3530002 	cmp	r3, #2
85215bd0:	e1a05001 	mov	r5, r1
85215bd4:	12805090 	addne	r5, r0, #144	; 0x90
85215bd8:	e3a02000 	mov	r2, #0
85215bdc:	e28d1004 	add	r1, sp, #4
85215be0:	e3a00001 	mov	r0, #1
85215be4:	eb000416 	bl	85216c44 <shmoo28_acquire_dfi>
85215be8:	e3500000 	cmp	r0, #0
85215bec:	1a000040 	bne	85215cf4 <ddr34_phy_dram_init+0x17c>
85215bf0:	e5943204 	ldr	r3, [r4, #516]	; 0x204
85215bf4:	e3a000c8 	mov	r0, #200	; 0xc8
85215bf8:	e2477001 	sub	r7, r7, #1
85215bfc:	e3c3330a 	bic	r3, r3, #671088640	; 0x28000000
85215c00:	e3833406 	orr	r3, r3, #100663296	; 0x6000000
85215c04:	e5843204 	str	r3, [r4, #516]	; 0x204
85215c08:	eb000678 	bl	852175f0 <DELAY_US>
85215c0c:	e5943204 	ldr	r3, [r4, #516]	; 0x204
85215c10:	e3a00f7d 	mov	r0, #500	; 0x1f4
85215c14:	e3833202 	orr	r3, r3, #536870912	; 0x20000000
85215c18:	e5843204 	str	r3, [r4, #516]	; 0x204
85215c1c:	eb000673 	bl	852175f0 <DELAY_US>
85215c20:	e5943204 	ldr	r3, [r4, #516]	; 0x204
85215c24:	e3a00001 	mov	r0, #1
85215c28:	e3833302 	orr	r3, r3, #134217728	; 0x8000000
85215c2c:	e5843204 	str	r3, [r4, #516]	; 0x204
85215c30:	eb00066e 	bl	852175f0 <DELAY_US>
85215c34:	e3570007 	cmp	r7, #7
85215c38:	8a000004 	bhi	85215c50 <ddr34_phy_dram_init+0xd8>
85215c3c:	e3a03099 	mov	r3, #153	; 0x99
85215c40:	e1a07733 	lsr	r7, r3, r7
85215c44:	e3170001 	tst	r7, #1
85215c48:	13a00001 	movne	r0, #1
85215c4c:	1a000028 	bne	85215cf4 <ddr34_phy_dram_init+0x17c>
85215c50:	e1a03004 	mov	r3, r4
85215c54:	e1a02006 	mov	r2, r6
85215c58:	e5951008 	ldr	r1, [r5, #8]
85215c5c:	e3a00002 	mov	r0, #2
85215c60:	ebffffac 	bl	85215b18 <ddr34_phy_write_mrs>
85215c64:	e3a00001 	mov	r0, #1
85215c68:	eb000660 	bl	852175f0 <DELAY_US>
85215c6c:	e1a03004 	mov	r3, r4
85215c70:	e1a02006 	mov	r2, r6
85215c74:	e595100c 	ldr	r1, [r5, #12]
85215c78:	e3a00003 	mov	r0, #3
85215c7c:	ebffffa5 	bl	85215b18 <ddr34_phy_write_mrs>
85215c80:	e3a00001 	mov	r0, #1
85215c84:	eb000659 	bl	852175f0 <DELAY_US>
85215c88:	e1a03004 	mov	r3, r4
85215c8c:	e1a02006 	mov	r2, r6
85215c90:	e5951004 	ldr	r1, [r5, #4]
85215c94:	e3a00001 	mov	r0, #1
85215c98:	ebffff9e 	bl	85215b18 <ddr34_phy_write_mrs>
85215c9c:	e3a00001 	mov	r0, #1
85215ca0:	eb000652 	bl	852175f0 <DELAY_US>
85215ca4:	e1a02006 	mov	r2, r6
85215ca8:	e5951000 	ldr	r1, [r5]
85215cac:	e1a03004 	mov	r3, r4
85215cb0:	e3a00000 	mov	r0, #0
85215cb4:	ebffff97 	bl	85215b18 <ddr34_phy_write_mrs>
85215cb8:	e3a00001 	mov	r0, #1
85215cbc:	eb00064b 	bl	852175f0 <DELAY_US>
85215cc0:	e59f3034 	ldr	r3, [pc, #52]	; 85215cfc <ddr34_phy_dram_init+0x184>
85215cc4:	e3a0000a 	mov	r0, #10
85215cc8:	e5843128 	str	r3, [r4, #296]	; 0x128
85215ccc:	e283320a 	add	r3, r3, #-1610612736	; 0xa0000000
85215cd0:	e5843130 	str	r3, [r4, #304]	; 0x130
85215cd4:	e283320e 	add	r3, r3, #-536870912	; 0xe0000000
85215cd8:	e5843138 	str	r3, [r4, #312]	; 0x138
85215cdc:	eb000643 	bl	852175f0 <DELAY_US>
85215ce0:	e3a02000 	mov	r2, #0
85215ce4:	e28d1008 	add	r1, sp, #8
85215ce8:	e59d0004 	ldr	r0, [sp, #4]
85215cec:	eb0003d4 	bl	85216c44 <shmoo28_acquire_dfi>
85215cf0:	e3a00000 	mov	r0, #0
85215cf4:	e28dd02c 	add	sp, sp, #44	; 0x2c
85215cf8:	e8bd80f0 	pop	{r4, r5, r6, r7, pc}
85215cfc:	e0300400 	.word	0xe0300400

85215d00 <ddr34_phy_init_extension>:
85215d00:	e92d40f7 	push	{r0, r1, r2, r4, r5, r6, r7, lr}
85215d04:	e1a04001 	mov	r4, r1
85215d08:	e1a06000 	mov	r6, r0
85215d0c:	e1a01000 	mov	r1, r0
85215d10:	e1a00004 	mov	r0, r4
85215d14:	e1a05002 	mov	r5, r2
85215d18:	eb00002c 	bl	85215dd0 <shmoo28_address_control_alignment>
85215d1c:	e2501000 	subs	r1, r0, #0
85215d20:	11a00001 	movne	r0, r1
85215d24:	1a000027 	bne	85215dc8 <ddr34_phy_init_extension+0xc8>
85215d28:	e594304c 	ldr	r3, [r4, #76]	; 0x4c
85215d2c:	e1a02006 	mov	r2, r6
85215d30:	e1a00004 	mov	r0, r4
85215d34:	e3c33004 	bic	r3, r3, #4
85215d38:	e584304c 	str	r3, [r4, #76]	; 0x4c
85215d3c:	e59431b0 	ldr	r3, [r4, #432]	; 0x1b0
85215d40:	e3c33c01 	bic	r3, r3, #256	; 0x100
85215d44:	e3c33001 	bic	r3, r3, #1
85215d48:	e58431b0 	str	r3, [r4, #432]	; 0x1b0
85215d4c:	e59431b8 	ldr	r3, [r4, #440]	; 0x1b8
85215d50:	e3c33c01 	bic	r3, r3, #256	; 0x100
85215d54:	e58431b8 	str	r3, [r4, #440]	; 0x1b8
85215d58:	e5947194 	ldr	r7, [r4, #404]	; 0x194
85215d5c:	e3c7303f 	bic	r3, r7, #63	; 0x3f
85215d60:	e3833020 	orr	r3, r3, #32
85215d64:	e5843194 	str	r3, [r4, #404]	; 0x194
85215d68:	e1a03005 	mov	r3, r5
85215d6c:	eb000311 	bl	852169b8 <shmoo28_hp_rx_trim>
85215d70:	e3500000 	cmp	r0, #0
85215d74:	1a000013 	bne	85215dc8 <ddr34_phy_init_extension+0xc8>
85215d78:	e58d6000 	str	r6, [sp]
85215d7c:	e1a03005 	mov	r3, r5
85215d80:	e3a02078 	mov	r2, #120	; 0x78
85215d84:	e30015dc 	movw	r1, #1500	; 0x5dc
85215d88:	e1a00004 	mov	r0, r4
85215d8c:	eb0000aa 	bl	8521603c <shmoo28_zq_calibration>
85215d90:	e3500000 	cmp	r0, #0
85215d94:	1a00000b 	bne	85215dc8 <ddr34_phy_init_extension+0xc8>
85215d98:	e5847194 	str	r7, [r4, #404]	; 0x194
85215d9c:	e7e02e55 	ubfx	r2, r5, #28, #1
85215da0:	e5961028 	ldr	r1, [r6, #40]	; 0x28
85215da4:	e1a00004 	mov	r0, r4
85215da8:	eb00041d 	bl	85216e24 <shmoo28_ddr3_adjust_clk>
85215dac:	e3500000 	cmp	r0, #0
85215db0:	1a000004 	bne	85215dc8 <ddr34_phy_init_extension+0xc8>
85215db4:	e1a01005 	mov	r1, r5
85215db8:	e1a00004 	mov	r0, r4
85215dbc:	e28dd00c 	add	sp, sp, #12
85215dc0:	e8bd40f0 	pop	{r4, r5, r6, r7, lr}
85215dc4:	ea0004a7 	b	85217068 <shmoo28_ddr3_adjust_bytelane_lde>
85215dc8:	e28dd00c 	add	sp, sp, #12
85215dcc:	e8bd80f0 	pop	{r4, r5, r6, r7, pc}

85215dd0 <shmoo28_address_control_alignment>:
85215dd0:	e92d4ef0 	push	{r4, r5, r6, r7, r9, sl, fp, lr}
85215dd4:	e2129201 	ands	r9, r2, #268435456	; 0x10000000
85215dd8:	e24dd018 	sub	sp, sp, #24
85215ddc:	e3a03000 	mov	r3, #0
85215de0:	e1a0a000 	mov	sl, r0
85215de4:	e1a0b001 	mov	fp, r1
85215de8:	e58d3010 	str	r3, [sp, #16]
85215dec:	e58d3014 	str	r3, [sp, #20]
85215df0:	1a000001 	bne	85215dfc <shmoo28_address_control_alignment+0x2c>
85215df4:	e59f01c4 	ldr	r0, [pc, #452]	; 85215fc0 <shmoo28_address_control_alignment+0x1f0>
85215df8:	eb0004c8 	bl	85217120 <shmoo28_print_str>
85215dfc:	e3a03000 	mov	r3, #0
85215e00:	e28d2014 	add	r2, sp, #20
85215e04:	e28d1010 	add	r1, sp, #16
85215e08:	e1a0000a 	mov	r0, sl
85215e0c:	eb0004a8 	bl	852170b4 <shmoo28_compute_vdl_per_data_ui>
85215e10:	e2503000 	subs	r3, r0, #0
85215e14:	e58d3000 	str	r3, [sp]
85215e18:	1a000065 	bne	85215fb4 <shmoo28_address_control_alignment+0x1e4>
85215e1c:	e59b41d8 	ldr	r4, [fp, #472]	; 0x1d8
85215e20:	e6ff3074 	uxth	r3, r4
85215e24:	e3530000 	cmp	r3, #0
85215e28:	1a000004 	bne	85215e40 <shmoo28_address_control_alignment+0x70>
85215e2c:	e3590000 	cmp	r9, #0
85215e30:	1a00005f 	bne	85215fb4 <shmoo28_address_control_alignment+0x1e4>
85215e34:	e59f0188 	ldr	r0, [pc, #392]	; 85215fc4 <shmoo28_address_control_alignment+0x1f4>
85215e38:	eb0004b8 	bl	85217120 <shmoo28_print_str>
85215e3c:	ea00005c 	b	85215fb4 <shmoo28_address_control_alignment+0x1e4>
85215e40:	e59d6010 	ldr	r6, [sp, #16]
85215e44:	e3590000 	cmp	r9, #0
85215e48:	e1a06086 	lsl	r6, r6, #1
85215e4c:	1a00000b 	bne	85215e80 <shmoo28_address_control_alignment+0xb0>
85215e50:	e59f0170 	ldr	r0, [pc, #368]	; 85215fc8 <shmoo28_address_control_alignment+0x1f8>
85215e54:	eb0004b1 	bl	85217120 <shmoo28_print_str>
85215e58:	e3a01003 	mov	r1, #3
85215e5c:	e1a00004 	mov	r0, r4
85215e60:	eb0004b6 	bl	85217140 <shmoo28_print_hex>
85215e64:	e59f0160 	ldr	r0, [pc, #352]	; 85215fcc <shmoo28_address_control_alignment+0x1fc>
85215e68:	eb0004ac 	bl	85217120 <shmoo28_print_str>
85215e6c:	e1a00006 	mov	r0, r6
85215e70:	e3a01003 	mov	r1, #3
85215e74:	eb0004b1 	bl	85217140 <shmoo28_print_hex>
85215e78:	e59f0150 	ldr	r0, [pc, #336]	; 85215fd0 <shmoo28_address_control_alignment+0x200>
85215e7c:	eb0004a7 	bl	85217120 <shmoo28_print_str>
85215e80:	e0040496 	mul	r4, r6, r4
85215e84:	e59f2148 	ldr	r2, [pc, #328]	; 85215fd4 <shmoo28_address_control_alignment+0x204>
85215e88:	e3a05090 	mov	r5, #144	; 0x90
85215e8c:	e3a07000 	mov	r7, #0
85215e90:	e1a04504 	lsl	r4, r4, #10
85215e94:	e1a041a4 	lsr	r4, r4, #3
85215e98:	e0832294 	umull	r2, r3, r4, r2
85215e9c:	e1a03123 	lsr	r3, r3, #2
85215ea0:	e2833c02 	add	r3, r3, #512	; 0x200
85215ea4:	e1a03523 	lsr	r3, r3, #10
85215ea8:	e58d3004 	str	r3, [sp, #4]
85215eac:	e1a03127 	lsr	r3, r7, #2
85215eb0:	e2833077 	add	r3, r3, #119	; 0x77
85215eb4:	e79b4103 	ldr	r4, [fp, r3, lsl #2]
85215eb8:	e2073003 	and	r3, r7, #3
85215ebc:	e3530002 	cmp	r3, #2
85215ec0:	01a04404 	lsleq	r4, r4, #8
85215ec4:	0a000004 	beq	85215edc <shmoo28_address_control_alignment+0x10c>
85215ec8:	e3530003 	cmp	r3, #3
85215ecc:	0a000002 	beq	85215edc <shmoo28_address_control_alignment+0x10c>
85215ed0:	e3530001 	cmp	r3, #1
85215ed4:	11a04c04 	lslne	r4, r4, #24
85215ed8:	01a04804 	lsleq	r4, r4, #16
85215edc:	e1b04c44 	asrs	r4, r4, #24
85215ee0:	0a00002d 	beq	85215f9c <shmoo28_address_control_alignment+0x1cc>
85215ee4:	e0000694 	mul	r0, r4, r6
85215ee8:	e3a01f5a 	mov	r1, #360	; 0x168
85215eec:	e1a00500 	lsl	r0, r0, #10
85215ef0:	ebffdb5e 	bl	8520cc70 <__divsi3>
85215ef4:	e59d2004 	ldr	r2, [sp, #4]
85215ef8:	e2803e5f 	add	r3, r0, #1520	; 0x5f0
85215efc:	e2900c02 	adds	r0, r0, #512	; 0x200
85215f00:	e283300f 	add	r3, r3, #15
85215f04:	51a03000 	movpl	r3, r0
85215f08:	e3590000 	cmp	r9, #0
85215f0c:	e0823543 	add	r3, r2, r3, asr #10
85215f10:	e08a2005 	add	r2, sl, r5
85215f14:	e7e83053 	ubfx	r3, r3, #0, #9
85215f18:	e3831801 	orr	r1, r3, #65536	; 0x10000
85215f1c:	e78a1005 	str	r1, [sl, r5]
85215f20:	1a00001d 	bne	85215f9c <shmoo28_address_control_alignment+0x1cc>
85215f24:	e59f00ac 	ldr	r0, [pc, #172]	; 85215fd8 <shmoo28_address_control_alignment+0x208>
85215f28:	e58d3008 	str	r3, [sp, #8]
85215f2c:	e58d200c 	str	r2, [sp, #12]
85215f30:	eb00047a 	bl	85217120 <shmoo28_print_str>
85215f34:	e59d200c 	ldr	r2, [sp, #12]
85215f38:	e3a01008 	mov	r1, #8
85215f3c:	e1a00002 	mov	r0, r2
85215f40:	eb00047e 	bl	85217140 <shmoo28_print_hex>
85215f44:	e59f0090 	ldr	r0, [pc, #144]	; 85215fdc <shmoo28_address_control_alignment+0x20c>
85215f48:	eb000474 	bl	85217120 <shmoo28_print_str>
85215f4c:	e59d3008 	ldr	r3, [sp, #8]
85215f50:	e3a01003 	mov	r1, #3
85215f54:	e1a00003 	mov	r0, r3
85215f58:	eb000478 	bl	85217140 <shmoo28_print_hex>
85215f5c:	e59f007c 	ldr	r0, [pc, #124]	; 85215fe0 <shmoo28_address_control_alignment+0x210>
85215f60:	eb00046e 	bl	85217120 <shmoo28_print_str>
85215f64:	e3540000 	cmp	r4, #0
85215f68:	ba000004 	blt	85215f80 <shmoo28_address_control_alignment+0x1b0>
85215f6c:	e59f0070 	ldr	r0, [pc, #112]	; 85215fe4 <shmoo28_address_control_alignment+0x214>
85215f70:	eb00046a 	bl	85217120 <shmoo28_print_str>
85215f74:	e3a01002 	mov	r1, #2
85215f78:	e1a00004 	mov	r0, r4
85215f7c:	ea000003 	b	85215f90 <shmoo28_address_control_alignment+0x1c0>
85215f80:	e59f0060 	ldr	r0, [pc, #96]	; 85215fe8 <shmoo28_address_control_alignment+0x218>
85215f84:	eb000465 	bl	85217120 <shmoo28_print_str>
85215f88:	e2640000 	rsb	r0, r4, #0
85215f8c:	e3a01002 	mov	r1, #2
85215f90:	eb00046a 	bl	85217140 <shmoo28_print_hex>
85215f94:	e59f0050 	ldr	r0, [pc, #80]	; 85215fec <shmoo28_address_control_alignment+0x21c>
85215f98:	eb000460 	bl	85217120 <shmoo28_print_str>
85215f9c:	e3550c01 	cmp	r5, #256	; 0x100
85215fa0:	e2877001 	add	r7, r7, #1
85215fa4:	03a05f41 	moveq	r5, #260	; 0x104
85215fa8:	e2855004 	add	r5, r5, #4
85215fac:	e3550f43 	cmp	r5, #268	; 0x10c
85215fb0:	9affffbd 	bls	85215eac <shmoo28_address_control_alignment+0xdc>
85215fb4:	e59d0000 	ldr	r0, [sp]
85215fb8:	e28dd018 	add	sp, sp, #24
85215fbc:	e8bd8ef0 	pop	{r4, r5, r6, r7, r9, sl, fp, pc}
85215fc0:	8521bf90 	.word	0x8521bf90
85215fc4:	8521bfa4 	.word	0x8521bfa4
85215fc8:	8521bfb4 	.word	0x8521bfb4
85215fcc:	8521bfc2 	.word	0x8521bfc2
85215fd0:	8521c328 	.word	0x8521c328
85215fd4:	16c16c17 	.word	0x16c16c17
85215fd8:	8521bfd5 	.word	0x8521bfd5
85215fdc:	8521bfdc 	.word	0x8521bfdc
85215fe0:	8521bfeb 	.word	0x8521bfeb
85215fe4:	8521c2b1 	.word	0x8521c2b1
85215fe8:	8521bffb 	.word	0x8521bffb
85215fec:	8521bfff 	.word	0x8521bfff

85215ff0 <find_median>:
85215ff0:	e92d4010 	push	{r4, lr}
85215ff4:	e1a03000 	mov	r3, r0
85215ff8:	e3a0c001 	mov	ip, #1
85215ffc:	e3a02000 	mov	r2, #0
85216000:	e15c0001 	cmp	ip, r1
85216004:	2a000007 	bcs	85216028 <find_median+0x38>
85216008:	e5b3e004 	ldr	lr, [r3, #4]!
8521600c:	e28cc001 	add	ip, ip, #1
85216010:	e5134004 	ldr	r4, [r3, #-4]
85216014:	e15e0004 	cmp	lr, r4
85216018:	8503e004 	strhi	lr, [r3, #-4]
8521601c:	85834000 	strhi	r4, [r3]
85216020:	82822001 	addhi	r2, r2, #1
85216024:	eafffff5 	b	85216000 <find_median+0x10>
85216028:	e3520000 	cmp	r2, #0
8521602c:	1afffff0 	bne	85215ff4 <find_median+0x4>
85216030:	e1a010a1 	lsr	r1, r1, #1
85216034:	e7900101 	ldr	r0, [r0, r1, lsl #2]
85216038:	e8bd8010 	pop	{r4, pc}

8521603c <shmoo28_zq_calibration>:
8521603c:	e7e03e53 	ubfx	r3, r3, #28, #1
85216040:	e92d4ef0 	push	{r4, r5, r6, r7, r9, sl, fp, lr}
85216044:	e3530000 	cmp	r3, #0
85216048:	e24ddf72 	sub	sp, sp, #456	; 0x1c8
8521604c:	e1a04000 	mov	r4, r0
85216050:	e58d1004 	str	r1, [sp, #4]
85216054:	e58d200c 	str	r2, [sp, #12]
85216058:	e58d3010 	str	r3, [sp, #16]
8521605c:	1a000005 	bne	85216078 <shmoo28_zq_calibration+0x3c>
85216060:	e59f0924 	ldr	r0, [pc, #2340]	; 8521698c <shmoo28_zq_calibration+0x950>
85216064:	eb00042d 	bl	85217120 <shmoo28_print_str>
85216068:	e3a0000a 	mov	r0, #10
8521606c:	eb000544 	bl	85217584 <PUTCHAR>
85216070:	e3a0000d 	mov	r0, #13
85216074:	eb000542 	bl	85217584 <PUTCHAR>
85216078:	e59431b0 	ldr	r3, [r4, #432]	; 0x1b0
8521607c:	e2845e1b 	add	r5, r4, #432	; 0x1b0
85216080:	e2846f65 	add	r6, r4, #404	; 0x194
85216084:	e3a09000 	mov	r9, #0
85216088:	e3a0bffa 	mov	fp, #1000	; 0x3e8
8521608c:	e58d3030 	str	r3, [sp, #48]	; 0x30
85216090:	e59d3030 	ldr	r3, [sp, #48]	; 0x30
85216094:	e3c33601 	bic	r3, r3, #1048576	; 0x100000
85216098:	e58d3030 	str	r3, [sp, #48]	; 0x30
8521609c:	e59d3030 	ldr	r3, [sp, #48]	; 0x30
852160a0:	e3c33702 	bic	r3, r3, #524288	; 0x80000
852160a4:	e58d3030 	str	r3, [sp, #48]	; 0x30
852160a8:	e59d3030 	ldr	r3, [sp, #48]	; 0x30
852160ac:	e3c33602 	bic	r3, r3, #2097152	; 0x200000
852160b0:	e58d3030 	str	r3, [sp, #48]	; 0x30
852160b4:	e59d3030 	ldr	r3, [sp, #48]	; 0x30
852160b8:	e58431b0 	str	r3, [r4, #432]	; 0x1b0
852160bc:	e5943194 	ldr	r3, [r4, #404]	; 0x194
852160c0:	e58d301c 	str	r3, [sp, #28]
852160c4:	e59d3004 	ldr	r3, [sp, #4]
852160c8:	e1a033a3 	lsr	r3, r3, #7
852160cc:	e58d3014 	str	r3, [sp, #20]
852160d0:	e5963000 	ldr	r3, [r6]
852160d4:	e3a00001 	mov	r0, #1
852160d8:	e3a0701f 	mov	r7, #31
852160dc:	e58d3030 	str	r3, [sp, #48]	; 0x30
852160e0:	e59d3030 	ldr	r3, [sp, #48]	; 0x30
852160e4:	e3c3303f 	bic	r3, r3, #63	; 0x3f
852160e8:	e3833020 	orr	r3, r3, #32
852160ec:	e58d3030 	str	r3, [sp, #48]	; 0x30
852160f0:	e59d3030 	ldr	r3, [sp, #48]	; 0x30
852160f4:	e5863000 	str	r3, [r6]
852160f8:	eb00053c 	bl	852175f0 <DELAY_US>
852160fc:	e5953000 	ldr	r3, [r5]
85216100:	e58d3030 	str	r3, [sp, #48]	; 0x30
85216104:	e59d3030 	ldr	r3, [sp, #48]	; 0x30
85216108:	e3c3391f 	bic	r3, r3, #507904	; 0x7c000
8521610c:	e58d3030 	str	r3, [sp, #48]	; 0x30
85216110:	e59d3030 	ldr	r3, [sp, #48]	; 0x30
85216114:	e1a02487 	lsl	r2, r7, #9
85216118:	e2022c3e 	and	r2, r2, #15872	; 0x3e00
8521611c:	e3a00001 	mov	r0, #1
85216120:	e3c33c3e 	bic	r3, r3, #15872	; 0x3e00
85216124:	e1823003 	orr	r3, r2, r3
85216128:	e58d3030 	str	r3, [sp, #48]	; 0x30
8521612c:	e59d3030 	ldr	r3, [sp, #48]	; 0x30
85216130:	e3c33602 	bic	r3, r3, #2097152	; 0x200000
85216134:	e58d3030 	str	r3, [sp, #48]	; 0x30
85216138:	e59d3030 	ldr	r3, [sp, #48]	; 0x30
8521613c:	e5853000 	str	r3, [r5]
85216140:	eb00052a 	bl	852175f0 <DELAY_US>
85216144:	e5953000 	ldr	r3, [r5]
85216148:	e58d3030 	str	r3, [sp, #48]	; 0x30
8521614c:	e59d3030 	ldr	r3, [sp, #48]	; 0x30
85216150:	e7e03ad3 	ubfx	r3, r3, #21, #1
85216154:	e58d3034 	str	r3, [sp, #52]	; 0x34
85216158:	e59d3034 	ldr	r3, [sp, #52]	; 0x34
8521615c:	e3530000 	cmp	r3, #0
85216160:	1a000003 	bne	85216174 <shmoo28_zq_calibration+0x138>
85216164:	e3770001 	cmn	r7, #1
85216168:	0a0001fa 	beq	85216958 <shmoo28_zq_calibration+0x91c>
8521616c:	e3a0a024 	mov	sl, #36	; 0x24
85216170:	ea000006 	b	85216190 <shmoo28_zq_calibration+0x154>
85216174:	e3770001 	cmn	r7, #1
85216178:	0a0001f6 	beq	85216958 <shmoo28_zq_calibration+0x91c>
8521617c:	e2477001 	sub	r7, r7, #1
85216180:	eaffffe2 	b	85216110 <shmoo28_zq_calibration+0xd4>
85216184:	e37a0001 	cmn	sl, #1
85216188:	0a0001f4 	beq	85216960 <shmoo28_zq_calibration+0x924>
8521618c:	e24aa001 	sub	sl, sl, #1
85216190:	e5963000 	ldr	r3, [r6]
85216194:	e3a00001 	mov	r0, #1
85216198:	e58d3030 	str	r3, [sp, #48]	; 0x30
8521619c:	e59d3030 	ldr	r3, [sp, #48]	; 0x30
852161a0:	e3c3203f 	bic	r2, r3, #63	; 0x3f
852161a4:	e20a303f 	and	r3, sl, #63	; 0x3f
852161a8:	e1823003 	orr	r3, r2, r3
852161ac:	e58d3030 	str	r3, [sp, #48]	; 0x30
852161b0:	e59d3030 	ldr	r3, [sp, #48]	; 0x30
852161b4:	e5863000 	str	r3, [r6]
852161b8:	eb00050c 	bl	852175f0 <DELAY_US>
852161bc:	e5953000 	ldr	r3, [r5]
852161c0:	e58d3030 	str	r3, [sp, #48]	; 0x30
852161c4:	e59d3030 	ldr	r3, [sp, #48]	; 0x30
852161c8:	e7e03ad3 	ubfx	r3, r3, #21, #1
852161cc:	e58d3034 	str	r3, [sp, #52]	; 0x34
852161d0:	e59d3034 	ldr	r3, [sp, #52]	; 0x34
852161d4:	e3530001 	cmp	r3, #1
852161d8:	1affffe9 	bne	85216184 <shmoo28_zq_calibration+0x148>
852161dc:	e37a0001 	cmn	sl, #1
852161e0:	0a0001de 	beq	85216960 <shmoo28_zq_calibration+0x924>
852161e4:	e59d3004 	ldr	r3, [sp, #4]
852161e8:	e28d2038 	add	r2, sp, #56	; 0x38
852161ec:	e59d100c 	ldr	r1, [sp, #12]
852161f0:	e58d2018 	str	r2, [sp, #24]
852161f4:	e0000a93 	mul	r0, r3, sl
852161f8:	e59d3014 	ldr	r3, [sp, #20]
852161fc:	e3a0affa 	mov	sl, #1000	; 0x3e8
85216200:	e0830320 	add	r0, r3, r0, lsr #6
85216204:	e59d3004 	ldr	r3, [sp, #4]
85216208:	e0603003 	rsb	r3, r0, r3
8521620c:	e000009b 	mul	r0, fp, r0
85216210:	e003039b 	mul	r3, fp, r3
85216214:	e58d3008 	str	r3, [sp, #8]
85216218:	ebffda62 	bl	8520cba8 <__udivsi3>
8521621c:	e59d3008 	ldr	r3, [sp, #8]
85216220:	e1a01000 	mov	r1, r0
85216224:	e1a00003 	mov	r0, r3
85216228:	ebffda5e 	bl	8520cba8 <__udivsi3>
8521622c:	e59d2018 	ldr	r2, [sp, #24]
85216230:	e3590063 	cmp	r9, #99	; 0x63
85216234:	e0000097 	mul	r0, r7, r0
85216238:	e7820109 	str	r0, [r2, r9, lsl #2]
8521623c:	12899001 	addne	r9, r9, #1
85216240:	1affffa2 	bne	852160d0 <shmoo28_zq_calibration+0x94>
85216244:	e3a01064 	mov	r1, #100	; 0x64
85216248:	e1a00002 	mov	r0, r2
8521624c:	ebffff67 	bl	85215ff0 <find_median>
85216250:	e59d100c 	ldr	r1, [sp, #12]
85216254:	e3a09000 	mov	r9, #0
85216258:	e58d0008 	str	r0, [sp, #8]
8521625c:	e1a00500 	lsl	r0, r0, #10
85216260:	ebffda50 	bl	8520cba8 <__udivsi3>
85216264:	e58da028 	str	sl, [sp, #40]	; 0x28
85216268:	e2800c02 	add	r0, r0, #512	; 0x200
8521626c:	e1a00520 	lsr	r0, r0, #10
85216270:	e1a03080 	lsl	r3, r0, #1
85216274:	e1a00500 	lsl	r0, r0, #10
85216278:	e58d3018 	str	r3, [sp, #24]
8521627c:	e2003c3e 	and	r3, r0, #15872	; 0x3e00
85216280:	e58d3020 	str	r3, [sp, #32]
85216284:	e59d3018 	ldr	r3, [sp, #24]
85216288:	e003039a 	mul	r3, sl, r3
8521628c:	e58d3024 	str	r3, [sp, #36]	; 0x24
85216290:	e59d3018 	ldr	r3, [sp, #24]
85216294:	e353003f 	cmp	r3, #63	; 0x3f
85216298:	8a0001b2 	bhi	85216968 <shmoo28_zq_calibration+0x92c>
8521629c:	e5963000 	ldr	r3, [r6]
852162a0:	e3a00001 	mov	r0, #1
852162a4:	e3a0701f 	mov	r7, #31
852162a8:	e58d3030 	str	r3, [sp, #48]	; 0x30
852162ac:	e59d3030 	ldr	r3, [sp, #48]	; 0x30
852162b0:	e3c3303f 	bic	r3, r3, #63	; 0x3f
852162b4:	e3833020 	orr	r3, r3, #32
852162b8:	e58d3030 	str	r3, [sp, #48]	; 0x30
852162bc:	e59d3030 	ldr	r3, [sp, #48]	; 0x30
852162c0:	e5863000 	str	r3, [r6]
852162c4:	eb0004c9 	bl	852175f0 <DELAY_US>
852162c8:	e5953000 	ldr	r3, [r5]
852162cc:	e59d2020 	ldr	r2, [sp, #32]
852162d0:	e58d3030 	str	r3, [sp, #48]	; 0x30
852162d4:	e59d3030 	ldr	r3, [sp, #48]	; 0x30
852162d8:	e3c33c3e 	bic	r3, r3, #15872	; 0x3e00
852162dc:	e1833002 	orr	r3, r3, r2
852162e0:	e58d3030 	str	r3, [sp, #48]	; 0x30
852162e4:	e59d3030 	ldr	r3, [sp, #48]	; 0x30
852162e8:	e1a02707 	lsl	r2, r7, #14
852162ec:	e202291f 	and	r2, r2, #507904	; 0x7c000
852162f0:	e3a00001 	mov	r0, #1
852162f4:	e3c3391f 	bic	r3, r3, #507904	; 0x7c000
852162f8:	e1823003 	orr	r3, r2, r3
852162fc:	e58d3030 	str	r3, [sp, #48]	; 0x30
85216300:	e59d3030 	ldr	r3, [sp, #48]	; 0x30
85216304:	e3c33602 	bic	r3, r3, #2097152	; 0x200000
85216308:	e58d3030 	str	r3, [sp, #48]	; 0x30
8521630c:	e59d3030 	ldr	r3, [sp, #48]	; 0x30
85216310:	e5853000 	str	r3, [r5]
85216314:	eb0004b5 	bl	852175f0 <DELAY_US>
85216318:	e5953000 	ldr	r3, [r5]
8521631c:	e58d3030 	str	r3, [sp, #48]	; 0x30
85216320:	e59d3030 	ldr	r3, [sp, #48]	; 0x30
85216324:	e7e03ad3 	ubfx	r3, r3, #21, #1
85216328:	e58d3034 	str	r3, [sp, #52]	; 0x34
8521632c:	e59d3034 	ldr	r3, [sp, #52]	; 0x34
85216330:	e3530001 	cmp	r3, #1
85216334:	1a000003 	bne	85216348 <shmoo28_zq_calibration+0x30c>
85216338:	e3770001 	cmn	r7, #1
8521633c:	0a00018b 	beq	85216970 <shmoo28_zq_calibration+0x934>
85216340:	e3a0a01c 	mov	sl, #28
85216344:	ea000006 	b	85216364 <shmoo28_zq_calibration+0x328>
85216348:	e3770001 	cmn	r7, #1
8521634c:	0a000187 	beq	85216970 <shmoo28_zq_calibration+0x934>
85216350:	e2477001 	sub	r7, r7, #1
85216354:	eaffffe2 	b	852162e4 <shmoo28_zq_calibration+0x2a8>
85216358:	e35a0040 	cmp	sl, #64	; 0x40
8521635c:	0a000185 	beq	85216978 <shmoo28_zq_calibration+0x93c>
85216360:	e28aa001 	add	sl, sl, #1
85216364:	e5963000 	ldr	r3, [r6]
85216368:	e3a00001 	mov	r0, #1
8521636c:	e58d3030 	str	r3, [sp, #48]	; 0x30
85216370:	e59d3030 	ldr	r3, [sp, #48]	; 0x30
85216374:	e3c3203f 	bic	r2, r3, #63	; 0x3f
85216378:	e20a303f 	and	r3, sl, #63	; 0x3f
8521637c:	e1823003 	orr	r3, r2, r3
85216380:	e58d3030 	str	r3, [sp, #48]	; 0x30
85216384:	e59d3030 	ldr	r3, [sp, #48]	; 0x30
85216388:	e5863000 	str	r3, [r6]
8521638c:	eb000497 	bl	852175f0 <DELAY_US>
85216390:	e5953000 	ldr	r3, [r5]
85216394:	e58d3030 	str	r3, [sp, #48]	; 0x30
85216398:	e59d3030 	ldr	r3, [sp, #48]	; 0x30
8521639c:	e7e03ad3 	ubfx	r3, r3, #21, #1
852163a0:	e58d3034 	str	r3, [sp, #52]	; 0x34
852163a4:	e59d3034 	ldr	r3, [sp, #52]	; 0x34
852163a8:	e3530000 	cmp	r3, #0
852163ac:	1affffe9 	bne	85216358 <shmoo28_zq_calibration+0x31c>
852163b0:	e35a0040 	cmp	sl, #64	; 0x40
852163b4:	0a00016f 	beq	85216978 <shmoo28_zq_calibration+0x93c>
852163b8:	e59d3004 	ldr	r3, [sp, #4]
852163bc:	e28db038 	add	fp, sp, #56	; 0x38
852163c0:	e59d1008 	ldr	r1, [sp, #8]
852163c4:	e000039a 	mul	r0, sl, r3
852163c8:	e59d3014 	ldr	r3, [sp, #20]
852163cc:	e0630320 	rsb	r0, r3, r0, lsr #6
852163d0:	e59d3028 	ldr	r3, [sp, #40]	; 0x28
852163d4:	e00a0093 	mul	sl, r3, r0
852163d8:	e59d3004 	ldr	r3, [sp, #4]
852163dc:	e0600003 	rsb	r0, r0, r3
852163e0:	e59d3024 	ldr	r3, [sp, #36]	; 0x24
852163e4:	e0000093 	mul	r0, r3, r0
852163e8:	ebffd9ee 	bl	8520cba8 <__udivsi3>
852163ec:	e59d100c 	ldr	r1, [sp, #12]
852163f0:	e58d002c 	str	r0, [sp, #44]	; 0x2c
852163f4:	e1a0000a 	mov	r0, sl
852163f8:	ebffd9ea 	bl	8520cba8 <__udivsi3>
852163fc:	e59d302c 	ldr	r3, [sp, #44]	; 0x2c
85216400:	e0601003 	rsb	r1, r0, r3
85216404:	e1a0000a 	mov	r0, sl
85216408:	ebffd9e6 	bl	8520cba8 <__udivsi3>
8521640c:	e3590063 	cmp	r9, #99	; 0x63
85216410:	e0000097 	mul	r0, r7, r0
85216414:	e78b0109 	str	r0, [fp, r9, lsl #2]
85216418:	12899001 	addne	r9, r9, #1
8521641c:	1affff9b 	bne	85216290 <shmoo28_zq_calibration+0x254>
85216420:	e1a0000b 	mov	r0, fp
85216424:	e3a01064 	mov	r1, #100	; 0x64
85216428:	ebfffef0 	bl	85215ff0 <find_median>
8521642c:	e59d3008 	ldr	r3, [sp, #8]
85216430:	e3a09ffa 	mov	r9, #1000	; 0x3e8
85216434:	e59f2554 	ldr	r2, [pc, #1364]	; 85216990 <shmoo28_zq_calibration+0x954>
85216438:	e3a07ffa 	mov	r7, #1000	; 0x3e8
8521643c:	e0090399 	mul	r9, r9, r3
85216440:	e58d000c 	str	r0, [sp, #12]
85216444:	e0810299 	umull	r0, r1, r9, r2
85216448:	e1a00321 	lsr	r0, r1, #6
8521644c:	e2803f7d 	add	r3, r0, #500	; 0x1f4
85216450:	e3530c7d 	cmp	r3, #32000	; 0x7d00
85216454:	359f0538 	ldrcc	r0, [pc, #1336]	; 85216994 <shmoo28_zq_calibration+0x958>
85216458:	23a0b01f 	movcs	fp, #31
8521645c:	30810093 	umullcc	r0, r1, r3, r0
85216460:	e59d300c 	ldr	r3, [sp, #12]
85216464:	e0070397 	mul	r7, r7, r3
85216468:	31a0b321 	lsrcc	fp, r1, #6
8521646c:	e0832297 	umull	r2, r3, r7, r2
85216470:	e1a02323 	lsr	r2, r3, #6
85216474:	e2823f7d 	add	r3, r2, #500	; 0x1f4
85216478:	e3530c7d 	cmp	r3, #32000	; 0x7d00
8521647c:	359f2510 	ldrcc	r2, [pc, #1296]	; 85216994 <shmoo28_zq_calibration+0x958>
85216480:	23a0301f 	movcs	r3, #31
85216484:	30832293 	umullcc	r2, r3, r3, r2
85216488:	e59f2508 	ldr	r2, [pc, #1288]	; 85216998 <shmoo28_zq_calibration+0x95c>
8521648c:	e0810299 	umull	r0, r1, r9, r2
85216490:	31a03323 	lsrcc	r3, r3, #6
85216494:	e58d3004 	str	r3, [sp, #4]
85216498:	e1a002a1 	lsr	r0, r1, #5
8521649c:	e2803f7d 	add	r3, r0, #500	; 0x1f4
852164a0:	e3530c7d 	cmp	r3, #32000	; 0x7d00
852164a4:	359f04e8 	ldrcc	r0, [pc, #1256]	; 85216994 <shmoo28_zq_calibration+0x958>
852164a8:	23a0a01f 	movcs	sl, #31
852164ac:	30810093 	umullcc	r0, r1, r3, r0
852164b0:	e0832297 	umull	r2, r3, r7, r2
852164b4:	31a0a321 	lsrcc	sl, r1, #6
852164b8:	e1a0178b 	lsl	r1, fp, #15
852164bc:	e201193e 	and	r1, r1, #1015808	; 0xf8000
852164c0:	e1a0528a 	lsl	r5, sl, #5
852164c4:	e08ac08a 	add	ip, sl, sl, lsl #1
852164c8:	e1a022a3 	lsr	r2, r3, #5
852164cc:	e2055e3e 	and	r5, r5, #992	; 0x3e0
852164d0:	e2823f7d 	add	r3, r2, #500	; 0x1f4
852164d4:	e1a0c18c 	lsl	ip, ip, #3
852164d8:	e3530c7d 	cmp	r3, #32000	; 0x7d00
852164dc:	e20cce3e 	and	ip, ip, #992	; 0x3e0
852164e0:	359f24ac 	ldrcc	r2, [pc, #1196]	; 85216994 <shmoo28_zq_calibration+0x958>
852164e4:	23a0601f 	movcs	r6, #31
852164e8:	30832293 	umullcc	r2, r3, r3, r2
852164ec:	31a06323 	lsrcc	r6, r3, #6
852164f0:	e3a03000 	mov	r3, #0
852164f4:	e58d3030 	str	r3, [sp, #48]	; 0x30
852164f8:	e59d2030 	ldr	r2, [sp, #48]	; 0x30
852164fc:	e3c2243e 	bic	r2, r2, #1040187392	; 0x3e000000
85216500:	e58d2030 	str	r2, [sp, #48]	; 0x30
85216504:	e59d2030 	ldr	r2, [sp, #48]	; 0x30
85216508:	e3c2261f 	bic	r2, r2, #32505856	; 0x1f00000
8521650c:	e58d2030 	str	r2, [sp, #48]	; 0x30
85216510:	e59d2030 	ldr	r2, [sp, #48]	; 0x30
85216514:	e3c2293e 	bic	r2, r2, #1015808	; 0xf8000
85216518:	e1822001 	orr	r2, r2, r1
8521651c:	e58d2030 	str	r2, [sp, #48]	; 0x30
85216520:	e59d2004 	ldr	r2, [sp, #4]
85216524:	e59d0030 	ldr	r0, [sp, #48]	; 0x30
85216528:	e1a02502 	lsl	r2, r2, #10
8521652c:	e3c00b1f 	bic	r0, r0, #31744	; 0x7c00
85216530:	e2022b1f 	and	r2, r2, #31744	; 0x7c00
85216534:	e1800002 	orr	r0, r0, r2
85216538:	e58d0030 	str	r0, [sp, #48]	; 0x30
8521653c:	e59d0030 	ldr	r0, [sp, #48]	; 0x30
85216540:	e3c00e3e 	bic	r0, r0, #992	; 0x3e0
85216544:	e1800005 	orr	r0, r0, r5
85216548:	e58d0030 	str	r0, [sp, #48]	; 0x30
8521654c:	e59d0030 	ldr	r0, [sp, #48]	; 0x30
85216550:	e3c0001f 	bic	r0, r0, #31
85216554:	e1800006 	orr	r0, r0, r6
85216558:	e58d0030 	str	r0, [sp, #48]	; 0x30
8521655c:	e59d0030 	ldr	r0, [sp, #48]	; 0x30
85216560:	e5840040 	str	r0, [r4, #64]	; 0x40
85216564:	e58d3030 	str	r3, [sp, #48]	; 0x30
85216568:	e59d0030 	ldr	r0, [sp, #48]	; 0x30
8521656c:	e3c0043e 	bic	r0, r0, #1040187392	; 0x3e000000
85216570:	e58d0030 	str	r0, [sp, #48]	; 0x30
85216574:	e59d0030 	ldr	r0, [sp, #48]	; 0x30
85216578:	e3c0061f 	bic	r0, r0, #32505856	; 0x1f00000
8521657c:	e58d0030 	str	r0, [sp, #48]	; 0x30
85216580:	e59d0030 	ldr	r0, [sp, #48]	; 0x30
85216584:	e3c0093e 	bic	r0, r0, #1015808	; 0xf8000
85216588:	e1800001 	orr	r0, r0, r1
8521658c:	e58d0030 	str	r0, [sp, #48]	; 0x30
85216590:	e59d0030 	ldr	r0, [sp, #48]	; 0x30
85216594:	e3c00b1f 	bic	r0, r0, #31744	; 0x7c00
85216598:	e1800002 	orr	r0, r0, r2
8521659c:	e58d0030 	str	r0, [sp, #48]	; 0x30
852165a0:	e59d0030 	ldr	r0, [sp, #48]	; 0x30
852165a4:	e3c00e3e 	bic	r0, r0, #992	; 0x3e0
852165a8:	e1800005 	orr	r0, r0, r5
852165ac:	e58d0030 	str	r0, [sp, #48]	; 0x30
852165b0:	e59d0030 	ldr	r0, [sp, #48]	; 0x30
852165b4:	e3c0001f 	bic	r0, r0, #31
852165b8:	e1800006 	orr	r0, r0, r6
852165bc:	e58d0030 	str	r0, [sp, #48]	; 0x30
852165c0:	e59d0030 	ldr	r0, [sp, #48]	; 0x30
852165c4:	e58d1020 	str	r1, [sp, #32]
852165c8:	e58d2018 	str	r2, [sp, #24]
852165cc:	e5840044 	str	r0, [r4, #68]	; 0x44
852165d0:	e58d3030 	str	r3, [sp, #48]	; 0x30
852165d4:	e59d0030 	ldr	r0, [sp, #48]	; 0x30
852165d8:	e58d3014 	str	r3, [sp, #20]
852165dc:	e3c0043e 	bic	r0, r0, #1040187392	; 0x3e000000
852165e0:	e58d0030 	str	r0, [sp, #48]	; 0x30
852165e4:	e59d0030 	ldr	r0, [sp, #48]	; 0x30
852165e8:	e3c0061f 	bic	r0, r0, #32505856	; 0x1f00000
852165ec:	e58d0030 	str	r0, [sp, #48]	; 0x30
852165f0:	e59d0030 	ldr	r0, [sp, #48]	; 0x30
852165f4:	e3c0093e 	bic	r0, r0, #1015808	; 0xf8000
852165f8:	e1800001 	orr	r0, r0, r1
852165fc:	e58d0030 	str	r0, [sp, #48]	; 0x30
85216600:	e59d0030 	ldr	r0, [sp, #48]	; 0x30
85216604:	e3c00b1f 	bic	r0, r0, #31744	; 0x7c00
85216608:	e1800002 	orr	r0, r0, r2
8521660c:	e58d0030 	str	r0, [sp, #48]	; 0x30
85216610:	e59d0030 	ldr	r0, [sp, #48]	; 0x30
85216614:	e3c00e3e 	bic	r0, r0, #992	; 0x3e0
85216618:	e1800005 	orr	r0, r0, r5
8521661c:	e58d0030 	str	r0, [sp, #48]	; 0x30
85216620:	e59d0030 	ldr	r0, [sp, #48]	; 0x30
85216624:	e3c0001f 	bic	r0, r0, #31
85216628:	e1800006 	orr	r0, r0, r6
8521662c:	e58d0030 	str	r0, [sp, #48]	; 0x30
85216630:	e59d0030 	ldr	r0, [sp, #48]	; 0x30
85216634:	e58401c4 	str	r0, [r4, #452]	; 0x1c4
85216638:	e58d3030 	str	r3, [sp, #48]	; 0x30
8521663c:	e59d0030 	ldr	r0, [sp, #48]	; 0x30
85216640:	e3c00e3e 	bic	r0, r0, #992	; 0x3e0
85216644:	e18c0000 	orr	r0, ip, r0
85216648:	e58d0030 	str	r0, [sp, #48]	; 0x30
8521664c:	e59d0030 	ldr	r0, [sp, #48]	; 0x30
85216650:	e5840048 	str	r0, [r4, #72]	; 0x48
85216654:	e59d01e8 	ldr	r0, [sp, #488]	; 0x1e8
85216658:	e5900038 	ldr	r0, [r0, #56]	; 0x38
8521665c:	eb000491 	bl	852178a8 <shmoo28_get_bytes_to_tune>
85216660:	e59d3014 	ldr	r3, [sp, #20]
85216664:	e59d2018 	ldr	r2, [sp, #24]
85216668:	e59d1020 	ldr	r1, [sp, #32]
8521666c:	e3500000 	cmp	r0, #0
85216670:	03a0004c 	moveq	r0, #76	; 0x4c
85216674:	0a0000c2 	beq	85216984 <shmoo28_zq_calibration+0x948>
85216678:	e58d3030 	str	r3, [sp, #48]	; 0x30
8521667c:	e59dc030 	ldr	ip, [sp, #48]	; 0x30
85216680:	e3ccc43e 	bic	ip, ip, #1040187392	; 0x3e000000
85216684:	e58dc030 	str	ip, [sp, #48]	; 0x30
85216688:	e59dc030 	ldr	ip, [sp, #48]	; 0x30
8521668c:	e3ccc61f 	bic	ip, ip, #32505856	; 0x1f00000
85216690:	e58dc030 	str	ip, [sp, #48]	; 0x30
85216694:	e59dc030 	ldr	ip, [sp, #48]	; 0x30
85216698:	e3ccc93e 	bic	ip, ip, #1015808	; 0xf8000
8521669c:	e18cc001 	orr	ip, ip, r1
852166a0:	e58dc030 	str	ip, [sp, #48]	; 0x30
852166a4:	e59dc030 	ldr	ip, [sp, #48]	; 0x30
852166a8:	e3cccb1f 	bic	ip, ip, #31744	; 0x7c00
852166ac:	e18cc002 	orr	ip, ip, r2
852166b0:	e58dc030 	str	ip, [sp, #48]	; 0x30
852166b4:	e59dc030 	ldr	ip, [sp, #48]	; 0x30
852166b8:	e3ccce3e 	bic	ip, ip, #992	; 0x3e0
852166bc:	e18cc005 	orr	ip, ip, r5
852166c0:	e58dc030 	str	ip, [sp, #48]	; 0x30
852166c4:	e59dc030 	ldr	ip, [sp, #48]	; 0x30
852166c8:	e3ccc01f 	bic	ip, ip, #31
852166cc:	e18cc006 	orr	ip, ip, r6
852166d0:	e58dc030 	str	ip, [sp, #48]	; 0x30
852166d4:	e284ce4b 	add	ip, r4, #1200	; 0x4b0
852166d8:	e59de030 	ldr	lr, [sp, #48]	; 0x30
852166dc:	e2833001 	add	r3, r3, #1
852166e0:	e1500003 	cmp	r0, r3
852166e4:	e48ce200 	str	lr, [ip], #512	; 0x200
852166e8:	1afffffa 	bne	852166d8 <shmoo28_zq_calibration+0x69c>
852166ec:	e3a03000 	mov	r3, #0
852166f0:	e58d3030 	str	r3, [sp, #48]	; 0x30
852166f4:	e59dc030 	ldr	ip, [sp, #48]	; 0x30
852166f8:	e3ccce3e 	bic	ip, ip, #992	; 0x3e0
852166fc:	e18cc005 	orr	ip, ip, r5
85216700:	e58dc030 	str	ip, [sp, #48]	; 0x30
85216704:	e59dc030 	ldr	ip, [sp, #48]	; 0x30
85216708:	e3ccc01f 	bic	ip, ip, #31
8521670c:	e18cc006 	orr	ip, ip, r6
85216710:	e58dc030 	str	ip, [sp, #48]	; 0x30
85216714:	e284ce4b 	add	ip, r4, #1200	; 0x4b0
85216718:	e28cc00c 	add	ip, ip, #12
8521671c:	e59de030 	ldr	lr, [sp, #48]	; 0x30
85216720:	e2833001 	add	r3, r3, #1
85216724:	e1500003 	cmp	r0, r3
85216728:	e48ce200 	str	lr, [ip], #512	; 0x200
8521672c:	1afffffa 	bne	8521671c <shmoo28_zq_calibration+0x6e0>
85216730:	e3a03000 	mov	r3, #0
85216734:	e58d3030 	str	r3, [sp, #48]	; 0x30
85216738:	e59dc030 	ldr	ip, [sp, #48]	; 0x30
8521673c:	e3ccc43e 	bic	ip, ip, #1040187392	; 0x3e000000
85216740:	e58dc030 	str	ip, [sp, #48]	; 0x30
85216744:	e59dc030 	ldr	ip, [sp, #48]	; 0x30
85216748:	e3ccc61f 	bic	ip, ip, #32505856	; 0x1f00000
8521674c:	e58dc030 	str	ip, [sp, #48]	; 0x30
85216750:	e59dc030 	ldr	ip, [sp, #48]	; 0x30
85216754:	e3ccc93e 	bic	ip, ip, #1015808	; 0xf8000
85216758:	e18c1001 	orr	r1, ip, r1
8521675c:	e58d1030 	str	r1, [sp, #48]	; 0x30
85216760:	e59d1030 	ldr	r1, [sp, #48]	; 0x30
85216764:	e3c11b1f 	bic	r1, r1, #31744	; 0x7c00
85216768:	e1812002 	orr	r2, r1, r2
8521676c:	e58d2030 	str	r2, [sp, #48]	; 0x30
85216770:	e59d2030 	ldr	r2, [sp, #48]	; 0x30
85216774:	e3c22e3e 	bic	r2, r2, #992	; 0x3e0
85216778:	e1825005 	orr	r5, r2, r5
8521677c:	e58d5030 	str	r5, [sp, #48]	; 0x30
85216780:	e59d2030 	ldr	r2, [sp, #48]	; 0x30
85216784:	e3c2201f 	bic	r2, r2, #31
85216788:	e1822006 	orr	r2, r2, r6
8521678c:	e58d2030 	str	r2, [sp, #48]	; 0x30
85216790:	e2842e4b 	add	r2, r4, #1200	; 0x4b0
85216794:	e2822004 	add	r2, r2, #4
85216798:	e59d1030 	ldr	r1, [sp, #48]	; 0x30
8521679c:	e2833001 	add	r3, r3, #1
852167a0:	e1500003 	cmp	r0, r3
852167a4:	e2822c02 	add	r2, r2, #512	; 0x200
852167a8:	e5021200 	str	r1, [r2, #-512]	; 0xfffffe00
852167ac:	e59d1030 	ldr	r1, [sp, #48]	; 0x30
852167b0:	e50211fc 	str	r1, [r2, #-508]	; 0xfffffe04
852167b4:	1afffff7 	bne	85216798 <shmoo28_zq_calibration+0x75c>
852167b8:	e59d301c 	ldr	r3, [sp, #28]
852167bc:	e3a00001 	mov	r0, #1
852167c0:	e5843194 	str	r3, [r4, #404]	; 0x194
852167c4:	eb000389 	bl	852175f0 <DELAY_US>
852167c8:	e59431b0 	ldr	r3, [r4, #432]	; 0x1b0
852167cc:	e58d3030 	str	r3, [sp, #48]	; 0x30
852167d0:	e59d3030 	ldr	r3, [sp, #48]	; 0x30
852167d4:	e3833601 	orr	r3, r3, #1048576	; 0x100000
852167d8:	e58d3030 	str	r3, [sp, #48]	; 0x30
852167dc:	e59d3030 	ldr	r3, [sp, #48]	; 0x30
852167e0:	e3833702 	orr	r3, r3, #524288	; 0x80000
852167e4:	e58d3030 	str	r3, [sp, #48]	; 0x30
852167e8:	e59d3030 	ldr	r3, [sp, #48]	; 0x30
852167ec:	e3c33c3e 	bic	r3, r3, #15872	; 0x3e00
852167f0:	e58d3030 	str	r3, [sp, #48]	; 0x30
852167f4:	e59d3030 	ldr	r3, [sp, #48]	; 0x30
852167f8:	e3c3391f 	bic	r3, r3, #507904	; 0x7c000
852167fc:	e58d3030 	str	r3, [sp, #48]	; 0x30
85216800:	e59d3030 	ldr	r3, [sp, #48]	; 0x30
85216804:	e3c33602 	bic	r3, r3, #2097152	; 0x200000
85216808:	e58d3030 	str	r3, [sp, #48]	; 0x30
8521680c:	e59d3030 	ldr	r3, [sp, #48]	; 0x30
85216810:	e58431b0 	str	r3, [r4, #432]	; 0x1b0
85216814:	e59d3010 	ldr	r3, [sp, #16]
85216818:	e3530000 	cmp	r3, #0
8521681c:	1a000057 	bne	85216980 <shmoo28_zq_calibration+0x944>
85216820:	e59f0174 	ldr	r0, [pc, #372]	; 8521699c <shmoo28_zq_calibration+0x960>
85216824:	eb00023d 	bl	85217120 <shmoo28_print_str>
85216828:	e59f0170 	ldr	r0, [pc, #368]	; 852169a0 <shmoo28_zq_calibration+0x964>
8521682c:	eb00023b 	bl	85217120 <shmoo28_print_str>
85216830:	e3a01003 	mov	r1, #3
85216834:	e59d0008 	ldr	r0, [sp, #8]
85216838:	eb000240 	bl	85217140 <shmoo28_print_hex>
8521683c:	e35b0000 	cmp	fp, #0
85216840:	e59f414c 	ldr	r4, [pc, #332]	; 85216994 <shmoo28_zq_calibration+0x958>
85216844:	0a00000a 	beq	85216874 <shmoo28_zq_calibration+0x838>
85216848:	e1a0100b 	mov	r1, fp
8521684c:	e1a00009 	mov	r0, r9
85216850:	ebffd8d4 	bl	8520cba8 <__udivsi3>
85216854:	e2805f7d 	add	r5, r0, #500	; 0x1f4
85216858:	e59f0144 	ldr	r0, [pc, #324]	; 852169a4 <shmoo28_zq_calibration+0x968>
8521685c:	eb00022f 	bl	85217120 <shmoo28_print_str>
85216860:	e3a01002 	mov	r1, #2
85216864:	e0832495 	umull	r2, r3, r5, r4
85216868:	e1a00323 	lsr	r0, r3, #6
8521686c:	eb000233 	bl	85217140 <shmoo28_print_hex>
85216870:	ea000001 	b	8521687c <shmoo28_zq_calibration+0x840>
85216874:	e59f012c 	ldr	r0, [pc, #300]	; 852169a8 <shmoo28_zq_calibration+0x96c>
85216878:	eb000228 	bl	85217120 <shmoo28_print_str>
8521687c:	e1a0100a 	mov	r1, sl
85216880:	e1a00009 	mov	r0, r9
85216884:	ebffd8c7 	bl	8520cba8 <__udivsi3>
85216888:	e2805f7d 	add	r5, r0, #500	; 0x1f4
8521688c:	e59f0118 	ldr	r0, [pc, #280]	; 852169ac <shmoo28_zq_calibration+0x970>
85216890:	eb000222 	bl	85217120 <shmoo28_print_str>
85216894:	e3a01002 	mov	r1, #2
85216898:	e0832495 	umull	r2, r3, r5, r4
8521689c:	e1a00323 	lsr	r0, r3, #6
852168a0:	eb000226 	bl	85217140 <shmoo28_print_hex>
852168a4:	e3a0000a 	mov	r0, #10
852168a8:	eb000335 	bl	85217584 <PUTCHAR>
852168ac:	e3a0000d 	mov	r0, #13
852168b0:	eb000333 	bl	85217584 <PUTCHAR>
852168b4:	e59f00f4 	ldr	r0, [pc, #244]	; 852169b0 <shmoo28_zq_calibration+0x974>
852168b8:	eb000218 	bl	85217120 <shmoo28_print_str>
852168bc:	e3a01003 	mov	r1, #3
852168c0:	e59d000c 	ldr	r0, [sp, #12]
852168c4:	eb00021d 	bl	85217140 <shmoo28_print_hex>
852168c8:	e59d3004 	ldr	r3, [sp, #4]
852168cc:	e3530000 	cmp	r3, #0
852168d0:	0a00000b 	beq	85216904 <shmoo28_zq_calibration+0x8c8>
852168d4:	e1a01003 	mov	r1, r3
852168d8:	e1a00007 	mov	r0, r7
852168dc:	ebffd8b1 	bl	8520cba8 <__udivsi3>
852168e0:	e2805f7d 	add	r5, r0, #500	; 0x1f4
852168e4:	e59f00b8 	ldr	r0, [pc, #184]	; 852169a4 <shmoo28_zq_calibration+0x968>
852168e8:	eb00020c 	bl	85217120 <shmoo28_print_str>
852168ec:	e59f20a0 	ldr	r2, [pc, #160]	; 85216994 <shmoo28_zq_calibration+0x958>
852168f0:	e3a01002 	mov	r1, #2
852168f4:	e0832295 	umull	r2, r3, r5, r2
852168f8:	e1a00323 	lsr	r0, r3, #6
852168fc:	eb00020f 	bl	85217140 <shmoo28_print_hex>
85216900:	ea000001 	b	8521690c <shmoo28_zq_calibration+0x8d0>
85216904:	e59f00a8 	ldr	r0, [pc, #168]	; 852169b4 <shmoo28_zq_calibration+0x978>
85216908:	eb000204 	bl	85217120 <shmoo28_print_str>
8521690c:	e1a01006 	mov	r1, r6
85216910:	e1a00007 	mov	r0, r7
85216914:	ebffd8a3 	bl	8520cba8 <__udivsi3>
85216918:	e2805f7d 	add	r5, r0, #500	; 0x1f4
8521691c:	e59f0088 	ldr	r0, [pc, #136]	; 852169ac <shmoo28_zq_calibration+0x970>
85216920:	eb0001fe 	bl	85217120 <shmoo28_print_str>
85216924:	e3a01002 	mov	r1, #2
85216928:	e0854495 	umull	r4, r5, r5, r4
8521692c:	e1a00325 	lsr	r0, r5, #6
85216930:	eb000202 	bl	85217140 <shmoo28_print_hex>
85216934:	e3a0000a 	mov	r0, #10
85216938:	eb000311 	bl	85217584 <PUTCHAR>
8521693c:	e3a0000d 	mov	r0, #13
85216940:	eb00030f 	bl	85217584 <PUTCHAR>
85216944:	e3a0000a 	mov	r0, #10
85216948:	eb00030d 	bl	85217584 <PUTCHAR>
8521694c:	e3a0000d 	mov	r0, #13
85216950:	eb00030b 	bl	85217584 <PUTCHAR>
85216954:	ea000009 	b	85216980 <shmoo28_zq_calibration+0x944>
85216958:	e3a00010 	mov	r0, #16
8521695c:	ea000008 	b	85216984 <shmoo28_zq_calibration+0x948>
85216960:	e3a00011 	mov	r0, #17
85216964:	ea000006 	b	85216984 <shmoo28_zq_calibration+0x948>
85216968:	e3a00014 	mov	r0, #20
8521696c:	ea000004 	b	85216984 <shmoo28_zq_calibration+0x948>
85216970:	e3a00012 	mov	r0, #18
85216974:	ea000002 	b	85216984 <shmoo28_zq_calibration+0x948>
85216978:	e3a00013 	mov	r0, #19
8521697c:	ea000000 	b	85216984 <shmoo28_zq_calibration+0x948>
85216980:	e3a00000 	mov	r0, #0
85216984:	e28ddf72 	add	sp, sp, #456	; 0x1c8
85216988:	e8bd8ef0 	pop	{r4, r5, r6, r7, r9, sl, fp, pc}
8521698c:	8521c006 	.word	0x8521c006
85216990:	88888889 	.word	0x88888889
85216994:	10624dd3 	.word	0x10624dd3
85216998:	cccccccd 	.word	0xcccccccd
8521699c:	8521c016 	.word	0x8521c016
852169a0:	8521c022 	.word	0x8521c022
852169a4:	8521c030 	.word	0x8521c030
852169a8:	8521c039 	.word	0x8521c039
852169ac:	8521c049 	.word	0x8521c049
852169b0:	8521c051 	.word	0x8521c051
852169b4:	8521c05f 	.word	0x8521c05f

852169b8 <shmoo28_hp_rx_trim>:
852169b8:	e3130001 	tst	r3, #1
852169bc:	e92d4ef0 	push	{r4, r5, r6, r7, r9, sl, fp, lr}
852169c0:	13a09004 	movne	r9, #4
852169c4:	03a09002 	moveq	r9, #2
852169c8:	e2137201 	ands	r7, r3, #268435456	; 0x10000000
852169cc:	e1a04000 	mov	r4, r0
852169d0:	e1a06001 	mov	r6, r1
852169d4:	e1a05002 	mov	r5, r2
852169d8:	1a000001 	bne	852169e4 <shmoo28_hp_rx_trim+0x2c>
852169dc:	e59f01d4 	ldr	r0, [pc, #468]	; 85216bb8 <shmoo28_hp_rx_trim+0x200>
852169e0:	eb0001ce 	bl	85217120 <shmoo28_print_str>
852169e4:	e5953034 	ldr	r3, [r5, #52]	; 0x34
852169e8:	e0849489 	add	r9, r4, r9, lsl #9
852169ec:	e3530001 	cmp	r3, #1
852169f0:	e59431b0 	ldr	r3, [r4, #432]	; 0x1b0
852169f4:	13a05000 	movne	r5, #0
852169f8:	03a05003 	moveq	r5, #3
852169fc:	e3560000 	cmp	r6, #0
85216a00:	e3c3361e 	bic	r3, r3, #31457280	; 0x1e00000
85216a04:	a1a05006 	movge	r5, r6
85216a08:	e1a06004 	mov	r6, r4
85216a0c:	e1a02b05 	lsl	r2, r5, #22
85216a10:	e2022507 	and	r2, r2, #29360128	; 0x1c00000
85216a14:	e1833002 	orr	r3, r3, r2
85216a18:	e58431b0 	str	r3, [r4, #432]	; 0x1b0
85216a1c:	e5941058 	ldr	r1, [r4, #88]	; 0x58
85216a20:	e1a03385 	lsl	r3, r5, #7
85216a24:	e2032d0e 	and	r2, r3, #896	; 0x380
85216a28:	e3c13fe1 	bic	r3, r1, #900	; 0x384
85216a2c:	e3c33003 	bic	r3, r3, #3
85216a30:	e1833002 	orr	r3, r3, r2
85216a34:	e2052007 	and	r2, r5, #7
85216a38:	e1823003 	orr	r3, r2, r3
85216a3c:	e5843058 	str	r3, [r4, #88]	; 0x58
85216a40:	e59434c4 	ldr	r3, [r4, #1220]	; 0x4c4
85216a44:	e3c32907 	bic	r2, r3, #114688	; 0x1c000
85216a48:	e1a03705 	lsl	r3, r5, #14
85216a4c:	e2033907 	and	r3, r3, #114688	; 0x1c000
85216a50:	e1833002 	orr	r3, r3, r2
85216a54:	e1a02004 	mov	r2, r4
85216a58:	e58234c4 	str	r3, [r2, #1220]	; 0x4c4
85216a5c:	e2822c02 	add	r2, r2, #512	; 0x200
85216a60:	e58232c8 	str	r3, [r2, #712]	; 0x2c8
85216a64:	e58232cc 	str	r3, [r2, #716]	; 0x2cc
85216a68:	e1520009 	cmp	r2, r9
85216a6c:	1afffff9 	bne	85216a58 <shmoo28_hp_rx_trim+0xa0>
85216a70:	e3570000 	cmp	r7, #0
85216a74:	1a000008 	bne	85216a9c <shmoo28_hp_rx_trim+0xe4>
85216a78:	e59f013c 	ldr	r0, [pc, #316]	; 85216bbc <shmoo28_hp_rx_trim+0x204>
85216a7c:	eb0001a7 	bl	85217120 <shmoo28_print_str>
85216a80:	e3a01001 	mov	r1, #1
85216a84:	e1a00005 	mov	r0, r5
85216a88:	eb0001ac 	bl	85217140 <shmoo28_print_hex>
85216a8c:	e3a0000a 	mov	r0, #10
85216a90:	eb0002bb 	bl	85217584 <PUTCHAR>
85216a94:	e3a0000d 	mov	r0, #13
85216a98:	eb0002b9 	bl	85217584 <PUTCHAR>
85216a9c:	e59431b8 	ldr	r3, [r4, #440]	; 0x1b8
85216aa0:	e1a05085 	lsl	r5, r5, #1
85216aa4:	e205200e 	and	r2, r5, #14
85216aa8:	e3a0000a 	mov	r0, #10
85216aac:	e3c35b0e 	bic	r5, r3, #14336	; 0x3800
85216ab0:	e284af6e 	add	sl, r4, #440	; 0x1b8
85216ab4:	e3c5500f 	bic	r5, r5, #15
85216ab8:	e1855002 	orr	r5, r5, r2
85216abc:	e58451b8 	str	r5, [r4, #440]	; 0x1b8
85216ac0:	eb0002ca 	bl	852175f0 <DELAY_US>
85216ac4:	e59431b8 	ldr	r3, [r4, #440]	; 0x1b8
85216ac8:	e3130a01 	tst	r3, #4096	; 0x1000
85216acc:	0a000037 	beq	85216bb0 <shmoo28_hp_rx_trim+0x1f8>
85216ad0:	e3a05000 	mov	r5, #0
85216ad4:	e59a3000 	ldr	r3, [sl]
85216ad8:	e3a00001 	mov	r0, #1
85216adc:	e3c330f0 	bic	r3, r3, #240	; 0xf0
85216ae0:	e1833205 	orr	r3, r3, r5, lsl #4
85216ae4:	e3c33a03 	bic	r3, r3, #12288	; 0x3000
85216ae8:	e58a3000 	str	r3, [sl]
85216aec:	eb0002bf 	bl	852175f0 <DELAY_US>
85216af0:	e59ab000 	ldr	fp, [sl]
85216af4:	e7e0b6db 	ubfx	fp, fp, #13, #1
85216af8:	e35b0001 	cmp	fp, #1
85216afc:	0a000004 	beq	85216b14 <shmoo28_hp_rx_trim+0x15c>
85216b00:	e2855001 	add	r5, r5, #1
85216b04:	e3550010 	cmp	r5, #16
85216b08:	1afffff1 	bne	85216ad4 <shmoo28_hp_rx_trim+0x11c>
85216b0c:	e3a0003b 	mov	r0, #59	; 0x3b
85216b10:	e8bd8ef0 	pop	{r4, r5, r6, r7, r9, sl, fp, pc}
85216b14:	e3570000 	cmp	r7, #0
85216b18:	1a000008 	bne	85216b40 <shmoo28_hp_rx_trim+0x188>
85216b1c:	e59f009c 	ldr	r0, [pc, #156]	; 85216bc0 <shmoo28_hp_rx_trim+0x208>
85216b20:	eb00017e 	bl	85217120 <shmoo28_print_str>
85216b24:	e1a0100b 	mov	r1, fp
85216b28:	e1a00005 	mov	r0, r5
85216b2c:	eb000183 	bl	85217140 <shmoo28_print_hex>
85216b30:	e3a0000a 	mov	r0, #10
85216b34:	eb000292 	bl	85217584 <PUTCHAR>
85216b38:	e3a0000d 	mov	r0, #13
85216b3c:	eb000290 	bl	85217584 <PUTCHAR>
85216b40:	e5943058 	ldr	r3, [r4, #88]	; 0x58
85216b44:	e1a01505 	lsl	r1, r5, #10
85216b48:	e2011b0f 	and	r1, r1, #15360	; 0x3c00
85216b4c:	e3c33df1 	bic	r3, r3, #15424	; 0x3c40
85216b50:	e3c33038 	bic	r3, r3, #56	; 0x38
85216b54:	e1832001 	orr	r2, r3, r1
85216b58:	e1a03185 	lsl	r3, r5, #3
85216b5c:	e2033078 	and	r3, r3, #120	; 0x78
85216b60:	e1a05885 	lsl	r5, r5, #17
85216b64:	e1833002 	orr	r3, r3, r2
85216b68:	e5843058 	str	r3, [r4, #88]	; 0x58
85216b6c:	e59434c4 	ldr	r3, [r4, #1220]	; 0x4c4
85216b70:	e205581e 	and	r5, r5, #1966080	; 0x1e0000
85216b74:	e3c3381e 	bic	r3, r3, #1966080	; 0x1e0000
85216b78:	e1855003 	orr	r5, r5, r3
85216b7c:	e58654c4 	str	r5, [r6, #1220]	; 0x4c4
85216b80:	e2866c02 	add	r6, r6, #512	; 0x200
85216b84:	e58652c8 	str	r5, [r6, #712]	; 0x2c8
85216b88:	e58652cc 	str	r5, [r6, #716]	; 0x2cc
85216b8c:	e1560009 	cmp	r6, r9
85216b90:	1afffff9 	bne	85216b7c <shmoo28_hp_rx_trim+0x1c4>
85216b94:	e59431b8 	ldr	r3, [r4, #440]	; 0x1b8
85216b98:	e3a00000 	mov	r0, #0
85216b9c:	e3c33a03 	bic	r3, r3, #12288	; 0x3000
85216ba0:	e3833b02 	orr	r3, r3, #2048	; 0x800
85216ba4:	e3833001 	orr	r3, r3, #1
85216ba8:	e58431b8 	str	r3, [r4, #440]	; 0x1b8
85216bac:	e8bd8ef0 	pop	{r4, r5, r6, r7, r9, sl, fp, pc}
85216bb0:	e3a0003a 	mov	r0, #58	; 0x3a
85216bb4:	e8bd8ef0 	pop	{r4, r5, r6, r7, r9, sl, fp, pc}
85216bb8:	8521c06f 	.word	0x8521c06f
85216bbc:	8521c07c 	.word	0x8521c07c
85216bc0:	8521c087 	.word	0x8521c087

85216bc4 <shmoo28_who_owns_dfi>:
85216bc4:	e59f3034 	ldr	r3, [pc, #52]	; 85216c00 <shmoo28_who_owns_dfi+0x3c>
85216bc8:	e5933000 	ldr	r3, [r3]
85216bcc:	e5932018 	ldr	r2, [r3, #24]
85216bd0:	e3a03000 	mov	r3, #0
85216bd4:	e5803000 	str	r3, [r0]
85216bd8:	e59231a4 	ldr	r3, [r2, #420]	; 0x1a4
85216bdc:	e2822801 	add	r2, r2, #65536	; 0x10000
85216be0:	e2033001 	and	r3, r3, #1
85216be4:	e5803000 	str	r3, [r0]
85216be8:	e5922050 	ldr	r2, [r2, #80]	; 0x50
85216bec:	e3520000 	cmp	r2, #0
85216bf0:	b3833002 	orrlt	r3, r3, #2
85216bf4:	b5803000 	strlt	r3, [r0]
85216bf8:	e3a00000 	mov	r0, #0
85216bfc:	e12fff1e 	bx	lr
85216c00:	85220e58 	.word	0x85220e58

85216c04 <shmoo28_release_all_dfi>:
85216c04:	e59f3034 	ldr	r3, [pc, #52]	; 85216c40 <shmoo28_release_all_dfi+0x3c>
85216c08:	e92d4010 	push	{r4, lr}
85216c0c:	e5932000 	ldr	r2, [r3]
85216c10:	e5923018 	ldr	r3, [r2, #24]
85216c14:	e5920014 	ldr	r0, [r2, #20]
85216c18:	e59321a4 	ldr	r2, [r3, #420]	; 0x1a4
85216c1c:	e3c22003 	bic	r2, r2, #3
85216c20:	e58321a4 	str	r2, [r3, #420]	; 0x1a4
85216c24:	e2833801 	add	r3, r3, #65536	; 0x10000
85216c28:	e5932050 	ldr	r2, [r3, #80]	; 0x50
85216c2c:	e3c22102 	bic	r2, r2, #-2147483648	; 0x80000000
85216c30:	e5832050 	str	r2, [r3, #80]	; 0x50
85216c34:	eb000264 	bl	852175cc <RESTORE_ALL_MEMC_CLIENT_REQS>
85216c38:	e3a00000 	mov	r0, #0
85216c3c:	e8bd8010 	pop	{r4, pc}
85216c40:	85220e58 	.word	0x85220e58

85216c44 <shmoo28_acquire_dfi>:
85216c44:	e59f30c0 	ldr	r3, [pc, #192]	; 85216d0c <shmoo28_acquire_dfi+0xc8>
85216c48:	e92d40f7 	push	{r0, r1, r2, r4, r5, r6, r7, lr}
85216c4c:	e1a05000 	mov	r5, r0
85216c50:	e5933000 	ldr	r3, [r3]
85216c54:	e28d0004 	add	r0, sp, #4
85216c58:	e1a06002 	mov	r6, r2
85216c5c:	e5934018 	ldr	r4, [r3, #24]
85216c60:	e5937014 	ldr	r7, [r3, #20]
85216c64:	ebffffd6 	bl	85216bc4 <shmoo28_who_owns_dfi>
85216c68:	e59d3004 	ldr	r3, [sp, #4]
85216c6c:	e3500000 	cmp	r0, #0
85216c70:	e5813000 	str	r3, [r1]
85216c74:	1a000022 	bne	85216d04 <shmoo28_acquire_dfi+0xc0>
85216c78:	e2032003 	and	r2, r3, #3
85216c7c:	e3520003 	cmp	r2, #3
85216c80:	03a00001 	moveq	r0, #1
85216c84:	0a00001e 	beq	85216d04 <shmoo28_acquire_dfi+0xc0>
85216c88:	e1530005 	cmp	r3, r5
85216c8c:	0a00001b 	beq	85216d00 <shmoo28_acquire_dfi+0xbc>
85216c90:	e3530000 	cmp	r3, #0
85216c94:	1a000001 	bne	85216ca0 <shmoo28_acquire_dfi+0x5c>
85216c98:	e1a00007 	mov	r0, r7
85216c9c:	eb000241 	bl	852175a8 <DISABLE_ALL_MEMC_CLIENT_REQS>
85216ca0:	e3550000 	cmp	r5, #0
85216ca4:	1a000002 	bne	85216cb4 <shmoo28_acquire_dfi+0x70>
85216ca8:	e1a00006 	mov	r0, r6
85216cac:	ebffffd4 	bl	85216c04 <shmoo28_release_all_dfi>
85216cb0:	ea000013 	b	85216d04 <shmoo28_acquire_dfi+0xc0>
85216cb4:	e3550001 	cmp	r5, #1
85216cb8:	1a000007 	bne	85216cdc <shmoo28_acquire_dfi+0x98>
85216cbc:	e59431a4 	ldr	r3, [r4, #420]	; 0x1a4
85216cc0:	e3833001 	orr	r3, r3, #1
85216cc4:	e58431a4 	str	r3, [r4, #420]	; 0x1a4
85216cc8:	e2844801 	add	r4, r4, #65536	; 0x10000
85216ccc:	e5943050 	ldr	r3, [r4, #80]	; 0x50
85216cd0:	e3c33102 	bic	r3, r3, #-2147483648	; 0x80000000
85216cd4:	e5843050 	str	r3, [r4, #80]	; 0x50
85216cd8:	ea000008 	b	85216d00 <shmoo28_acquire_dfi+0xbc>
85216cdc:	e3550002 	cmp	r5, #2
85216ce0:	1a000006 	bne	85216d00 <shmoo28_acquire_dfi+0xbc>
85216ce4:	e2842801 	add	r2, r4, #65536	; 0x10000
85216ce8:	e5923050 	ldr	r3, [r2, #80]	; 0x50
85216cec:	e3833102 	orr	r3, r3, #-2147483648	; 0x80000000
85216cf0:	e5823050 	str	r3, [r2, #80]	; 0x50
85216cf4:	e59431a4 	ldr	r3, [r4, #420]	; 0x1a4
85216cf8:	e3c33003 	bic	r3, r3, #3
85216cfc:	e58431a4 	str	r3, [r4, #420]	; 0x1a4
85216d00:	e3a00000 	mov	r0, #0
85216d04:	e28dd00c 	add	sp, sp, #12
85216d08:	e8bd80f0 	pop	{r4, r5, r6, r7, pc}
85216d0c:	85220e58 	.word	0x85220e58

85216d10 <shmoo28_compute_phy_pll_clock>:
85216d10:	e371021f 	cmn	r1, #-268435455	; 0xf0000001
85216d14:	e92d4ef3 	push	{r0, r1, r4, r5, r6, r7, r9, sl, fp, lr}
85216d18:	e1a0a001 	mov	sl, r1
85216d1c:	e1a06002 	mov	r6, r2
85216d20:	e1a04003 	mov	r4, r3
85216d24:	9a000015 	bls	85216d80 <shmoo28_compute_phy_pll_clock+0x70>
85216d28:	e59d3028 	ldr	r3, [sp, #40]	; 0x28
85216d2c:	e3530000 	cmp	r3, #0
85216d30:	1a00000d 	bne	85216d6c <shmoo28_compute_phy_pll_clock+0x5c>
85216d34:	e59f00dc 	ldr	r0, [pc, #220]	; 85216e18 <shmoo28_compute_phy_pll_clock+0x108>
85216d38:	eb0000f8 	bl	85217120 <shmoo28_print_str>
85216d3c:	e3a01008 	mov	r1, #8
85216d40:	e1a0000a 	mov	r0, sl
85216d44:	eb0000fd 	bl	85217140 <shmoo28_print_hex>
85216d48:	e59f00cc 	ldr	r0, [pc, #204]	; 85216e1c <shmoo28_compute_phy_pll_clock+0x10c>
85216d4c:	eb0000f3 	bl	85217120 <shmoo28_print_str>
85216d50:	e3a01008 	mov	r1, #8
85216d54:	e3a00201 	mov	r0, #268435456	; 0x10000000
85216d58:	eb0000f8 	bl	85217140 <shmoo28_print_hex>
85216d5c:	e3a0000a 	mov	r0, #10
85216d60:	eb000207 	bl	85217584 <PUTCHAR>
85216d64:	e3a0000d 	mov	r0, #13
85216d68:	eb000205 	bl	85217584 <PUTCHAR>
85216d6c:	e3a03000 	mov	r3, #0
85216d70:	e3a00001 	mov	r0, #1
85216d74:	e5863000 	str	r3, [r6]
85216d78:	e5843000 	str	r3, [r4]
85216d7c:	ea000023 	b	85216e10 <shmoo28_compute_phy_pll_clock+0x100>
85216d80:	e59f5098 	ldr	r5, [pc, #152]	; 85216e20 <shmoo28_compute_phy_pll_clock+0x110>
85216d84:	e5909020 	ldr	r9, [r0, #32]
85216d88:	e5903024 	ldr	r3, [r0, #36]	; 0x24
85216d8c:	e08ba59a 	umull	sl, fp, sl, r5
85216d90:	e7e92059 	ubfx	r2, r9, #0, #10
85216d94:	e7e3a659 	ubfx	sl, r9, #12, #4
85216d98:	e58d3004 	str	r3, [sp, #4]
85216d9c:	e1a00302 	lsl	r0, r2, #6
85216da0:	e1a0100a 	mov	r1, sl
85216da4:	e1a0c32b 	lsr	ip, fp, #6
85216da8:	e000009c 	mul	r0, ip, r0
85216dac:	ebffd77d 	bl	8520cba8 <__udivsi3>
85216db0:	e59d3004 	ldr	r3, [sp, #4]
85216db4:	e1a0100a 	mov	r1, sl
85216db8:	e2807020 	add	r7, r0, #32
85216dbc:	e7f30053 	ubfx	r0, r3, #0, #20
85216dc0:	e1a0362b 	lsr	r3, fp, #12
85216dc4:	e1a07327 	lsr	r7, r7, #6
85216dc8:	e0000093 	mul	r0, r3, r0
85216dcc:	e280000d 	add	r0, r0, #13
85216dd0:	e1a00720 	lsr	r0, r0, #14
85216dd4:	ebffd773 	bl	8520cba8 <__udivsi3>
85216dd8:	e7e71a59 	ubfx	r1, r9, #20, #8
85216ddc:	e0870000 	add	r0, r7, r0
85216de0:	e1a00300 	lsl	r0, r0, #6
85216de4:	ebffd76f 	bl	8520cba8 <__udivsi3>
85216de8:	e2800020 	add	r0, r0, #32
85216dec:	e1a000a0 	lsr	r0, r0, #1
85216df0:	e2800020 	add	r0, r0, #32
85216df4:	e1a00320 	lsr	r0, r0, #6
85216df8:	e5860000 	str	r0, [r6]
85216dfc:	e2800f7d 	add	r0, r0, #500	; 0x1f4
85216e00:	e0832590 	umull	r2, r3, r0, r5
85216e04:	e3a00000 	mov	r0, #0
85216e08:	e1a03323 	lsr	r3, r3, #6
85216e0c:	e5843000 	str	r3, [r4]
85216e10:	e28dd008 	add	sp, sp, #8
85216e14:	e8bd8ef0 	pop	{r4, r5, r6, r7, r9, sl, fp, pc}
85216e18:	8521c093 	.word	0x8521c093
85216e1c:	8521c0a3 	.word	0x8521c0a3
85216e20:	10624dd3 	.word	0x10624dd3

85216e24 <shmoo28_ddr3_adjust_clk>:
85216e24:	e59f3210 	ldr	r3, [pc, #528]	; 8521703c <shmoo28_ddr3_adjust_clk+0x218>
85216e28:	e92d4ef0 	push	{r4, r5, r6, r7, r9, sl, fp, lr}
85216e2c:	e24dd018 	sub	sp, sp, #24
85216e30:	e5933000 	ldr	r3, [r3]
85216e34:	e1a0a002 	mov	sl, r2
85216e38:	e590706c 	ldr	r7, [r0, #108]	; 0x6c
85216e3c:	e3a02000 	mov	r2, #0
85216e40:	e1a09000 	mov	r9, r0
85216e44:	e58d100c 	str	r1, [sp, #12]
85216e48:	e5933024 	ldr	r3, [r3, #36]	; 0x24
85216e4c:	e593520c 	ldr	r5, [r3, #524]	; 0x20c
85216e50:	e2053003 	and	r3, r5, #3
85216e54:	e58d3008 	str	r3, [sp, #8]
85216e58:	e28d3018 	add	r3, sp, #24
85216e5c:	e5232004 	str	r2, [r3, #-4]!
85216e60:	e28d2010 	add	r2, sp, #16
85216e64:	e58da000 	str	sl, [sp]
85216e68:	ebffffa8 	bl	85216d10 <shmoo28_compute_phy_pll_clock>
85216e6c:	e2053003 	and	r3, r5, #3
85216e70:	e3530000 	cmp	r3, #0
85216e74:	e1a0b000 	mov	fp, r0
85216e78:	0a000004 	beq	85216e90 <shmoo28_ddr3_adjust_clk+0x6c>
85216e7c:	e7e95155 	ubfx	r5, r5, #2, #10
85216e80:	e3550000 	cmp	r5, #0
85216e84:	03a0004d 	moveq	r0, #77	; 0x4d
85216e88:	0a000069 	beq	85217034 <shmoo28_ddr3_adjust_clk+0x210>
85216e8c:	ea000000 	b	85216e94 <shmoo28_ddr3_adjust_clk+0x70>
85216e90:	e3a050c8 	mov	r5, #200	; 0xc8
85216e94:	e59d1014 	ldr	r1, [sp, #20]
85216e98:	e3510000 	cmp	r1, #0
85216e9c:	01a00001 	moveq	r0, r1
85216ea0:	0a000001 	beq	85216eac <shmoo28_ddr3_adjust_clk+0x88>
85216ea4:	e59f0194 	ldr	r0, [pc, #404]	; 85217040 <shmoo28_ddr3_adjust_clk+0x21c>
85216ea8:	ebffd770 	bl	8520cc70 <__divsi3>
85216eac:	e0800fa0 	add	r0, r0, r0, lsr #31
85216eb0:	e7e874d7 	ubfx	r7, r7, #9, #9
85216eb4:	e1a040c0 	asr	r4, r0, #1
85216eb8:	e1a01007 	mov	r1, r7
85216ebc:	e1a00504 	lsl	r0, r4, #10
85216ec0:	ebffd76a 	bl	8520cc70 <__divsi3>
85216ec4:	e2501000 	subs	r1, r0, #0
85216ec8:	01a00001 	moveq	r0, r1
85216ecc:	0a000001 	beq	85216ed8 <shmoo28_ddr3_adjust_clk+0xb4>
85216ed0:	e1a00885 	lsl	r0, r5, #17
85216ed4:	ebffd765 	bl	8520cc70 <__divsi3>
85216ed8:	e2906040 	adds	r6, r0, #64	; 0x40
85216edc:	428000bf 	addmi	r0, r0, #191	; 0xbf
85216ee0:	51a00006 	movpl	r0, r6
85216ee4:	e35a0000 	cmp	sl, #0
85216ee8:	e1a063c0 	asr	r6, r0, #7
85216eec:	1a000013 	bne	85216f40 <shmoo28_ddr3_adjust_clk+0x11c>
85216ef0:	e59f014c 	ldr	r0, [pc, #332]	; 85217044 <shmoo28_ddr3_adjust_clk+0x220>
85216ef4:	eb000089 	bl	85217120 <shmoo28_print_str>
85216ef8:	e3a01008 	mov	r1, #8
85216efc:	e59d000c 	ldr	r0, [sp, #12]
85216f00:	eb00008e 	bl	85217140 <shmoo28_print_hex>
85216f04:	e59f013c 	ldr	r0, [pc, #316]	; 85217048 <shmoo28_ddr3_adjust_clk+0x224>
85216f08:	eb000084 	bl	85217120 <shmoo28_print_str>
85216f0c:	e3a01003 	mov	r1, #3
85216f10:	e1a00007 	mov	r0, r7
85216f14:	eb000089 	bl	85217140 <shmoo28_print_hex>
85216f18:	e3a0000a 	mov	r0, #10
85216f1c:	eb000198 	bl	85217584 <PUTCHAR>
85216f20:	e3a0000d 	mov	r0, #13
85216f24:	eb000196 	bl	85217584 <PUTCHAR>
85216f28:	e35b0000 	cmp	fp, #0
85216f2c:	0a000006 	beq	85216f4c <shmoo28_ddr3_adjust_clk+0x128>
85216f30:	e59f0114 	ldr	r0, [pc, #276]	; 8521704c <shmoo28_ddr3_adjust_clk+0x228>
85216f34:	e3a0501c 	mov	r5, #28
85216f38:	eb000078 	bl	85217120 <shmoo28_print_str>
85216f3c:	ea000022 	b	85216fcc <shmoo28_ddr3_adjust_clk+0x1a8>
85216f40:	e35b0000 	cmp	fp, #0
85216f44:	13a0501c 	movne	r5, #28
85216f48:	1a000030 	bne	85217010 <shmoo28_ddr3_adjust_clk+0x1ec>
85216f4c:	e59934e8 	ldr	r3, [r9, #1256]	; 0x4e8
85216f50:	e35a0000 	cmp	sl, #0
85216f54:	e59d2014 	ldr	r2, [sp, #20]
85216f58:	e3c33eff 	bic	r3, r3, #4080	; 0xff0
85216f5c:	e3c3300f 	bic	r3, r3, #15
85216f60:	e7eb2052 	ubfx	r2, r2, #0, #12
85216f64:	e1823003 	orr	r3, r2, r3
85216f68:	e58934e8 	str	r3, [r9, #1256]	; 0x4e8
85216f6c:	1a000013 	bne	85216fc0 <shmoo28_ddr3_adjust_clk+0x19c>
85216f70:	e59f00d8 	ldr	r0, [pc, #216]	; 85217050 <shmoo28_ddr3_adjust_clk+0x22c>
85216f74:	eb000069 	bl	85217120 <shmoo28_print_str>
85216f78:	e3a01003 	mov	r1, #3
85216f7c:	e59d0014 	ldr	r0, [sp, #20]
85216f80:	eb00006e 	bl	85217140 <shmoo28_print_hex>
85216f84:	e59f00c8 	ldr	r0, [pc, #200]	; 85217054 <shmoo28_ddr3_adjust_clk+0x230>
85216f88:	eb000064 	bl	85217120 <shmoo28_print_str>
85216f8c:	e3a01003 	mov	r1, #3
85216f90:	e1a00005 	mov	r0, r5
85216f94:	eb000069 	bl	85217140 <shmoo28_print_hex>
85216f98:	e59d3008 	ldr	r3, [sp, #8]
85216f9c:	e3530001 	cmp	r3, #1
85216fa0:	1a000001 	bne	85216fac <shmoo28_ddr3_adjust_clk+0x188>
85216fa4:	e59f00ac 	ldr	r0, [pc, #172]	; 85217058 <shmoo28_ddr3_adjust_clk+0x234>
85216fa8:	eb00005c 	bl	85217120 <shmoo28_print_str>
85216fac:	e59f00a8 	ldr	r0, [pc, #168]	; 8521705c <shmoo28_ddr3_adjust_clk+0x238>
85216fb0:	eb00005a 	bl	85217120 <shmoo28_print_str>
85216fb4:	e3a01003 	mov	r1, #3
85216fb8:	e1a00004 	mov	r0, r4
85216fbc:	eb00005f 	bl	85217140 <shmoo28_print_hex>
85216fc0:	e35a0000 	cmp	sl, #0
85216fc4:	e1a05006 	mov	r5, r6
85216fc8:	1a000010 	bne	85217010 <shmoo28_ddr3_adjust_clk+0x1ec>
85216fcc:	e59f008c 	ldr	r0, [pc, #140]	; 85217060 <shmoo28_ddr3_adjust_clk+0x23c>
85216fd0:	eb000052 	bl	85217120 <shmoo28_print_str>
85216fd4:	e3a00ffa 	mov	r0, #1000	; 0x3e8
85216fd8:	e1a01007 	mov	r1, r7
85216fdc:	e0000490 	mul	r0, r0, r4
85216fe0:	ebffd722 	bl	8520cc70 <__divsi3>
85216fe4:	e3a01004 	mov	r1, #4
85216fe8:	eb000054 	bl	85217140 <shmoo28_print_hex>
85216fec:	e59f0070 	ldr	r0, [pc, #112]	; 85217064 <shmoo28_ddr3_adjust_clk+0x240>
85216ff0:	eb00004a 	bl	85217120 <shmoo28_print_str>
85216ff4:	e3a01003 	mov	r1, #3
85216ff8:	e1a00006 	mov	r0, r6
85216ffc:	eb00004f 	bl	85217140 <shmoo28_print_hex>
85217000:	e3a0000a 	mov	r0, #10
85217004:	eb00015e 	bl	85217584 <PUTCHAR>
85217008:	e3a0000d 	mov	r0, #13
8521700c:	eb00015c 	bl	85217584 <PUTCHAR>
85217010:	e7e83055 	ubfx	r3, r5, #0, #9
85217014:	e1a01005 	mov	r1, r5
85217018:	e3833801 	orr	r3, r3, #65536	; 0x10000
8521701c:	e2890f46 	add	r0, r9, #280	; 0x118
85217020:	e5893114 	str	r3, [r9, #276]	; 0x114
85217024:	eb000888 	bl	8521924c <shmoo28_ddr3_write_leveling_adjust_lde>
85217028:	e3a00ffa 	mov	r0, #1000	; 0x3e8
8521702c:	eb00016f 	bl	852175f0 <DELAY_US>
85217030:	e3a00000 	mov	r0, #0
85217034:	e28dd018 	add	sp, sp, #24
85217038:	e8bd8ef0 	pop	{r4, r5, r6, r7, r9, sl, fp, pc}
8521703c:	85220e58 	.word	0x85220e58
85217040:	000f4240 	.word	0x000f4240
85217044:	8521c0b6 	.word	0x8521c0b6
85217048:	8521c0c5 	.word	0x8521c0c5
8521704c:	8521c0d2 	.word	0x8521c0d2
85217050:	8521c0e2 	.word	0x8521c0e2
85217054:	8521c0f3 	.word	0x8521c0f3
85217058:	8521c106 	.word	0x8521c106
8521705c:	8521c112 	.word	0x8521c112
85217060:	8521c11f 	.word	0x8521c11f
85217064:	8521c12f 	.word	0x8521c12f

85217068 <shmoo28_ddr3_adjust_bytelane_lde>:
85217068:	e31100f0 	tst	r1, #240	; 0xf0
8521706c:	e92d4070 	push	{r4, r5, r6, lr}
85217070:	17e31251 	ubfxne	r1, r1, #4, #4
85217074:	1a000002 	bne	85217084 <shmoo28_ddr3_adjust_bytelane_lde+0x1c>
85217078:	e3110001 	tst	r1, #1
8521707c:	13a01004 	movne	r1, #4
85217080:	03a01002 	moveq	r1, #2
85217084:	e2805d12 	add	r5, r0, #1152	; 0x480
85217088:	e0854481 	add	r4, r5, r1, lsl #9
8521708c:	e1550004 	cmp	r5, r4
85217090:	0a000005 	beq	852170ac <shmoo28_ddr3_adjust_bytelane_lde+0x44>
85217094:	e1a00005 	mov	r0, r5
85217098:	e2855c02 	add	r5, r5, #512	; 0x200
8521709c:	e4901004 	ldr	r1, [r0], #4
852170a0:	e7e81051 	ubfx	r1, r1, #0, #9
852170a4:	eb000868 	bl	8521924c <shmoo28_ddr3_write_leveling_adjust_lde>
852170a8:	eafffff7 	b	8521708c <shmoo28_ddr3_adjust_bytelane_lde+0x24>
852170ac:	e3a00000 	mov	r0, #0
852170b0:	e8bd8070 	pop	{r4, r5, r6, pc}

852170b4 <shmoo28_compute_vdl_per_data_ui>:
852170b4:	e590006c 	ldr	r0, [r0, #108]	; 0x6c
852170b8:	e59f3028 	ldr	r3, [pc, #40]	; 852170e8 <shmoo28_compute_vdl_per_data_ui+0x34>
852170bc:	e0033000 	and	r3, r3, r0
852170c0:	e1a004a3 	lsr	r0, r3, #9
852170c4:	e1a036a3 	lsr	r3, r3, #13
852170c8:	e3530005 	cmp	r3, #5
852170cc:	e5810000 	str	r0, [r1]
852170d0:	e3a00000 	mov	r0, #0
852170d4:	33a03005 	movcc	r3, #5
852170d8:	e1a03083 	lsl	r3, r3, #1
852170dc:	e2833001 	add	r3, r3, #1
852170e0:	e5823000 	str	r3, [r2]
852170e4:	e12fff1e 	bx	lr
852170e8:	0003ff00 	.word	0x0003ff00

852170ec <shmoo28_set_clock_vdl>:
852170ec:	e3510f45 	cmp	r1, #276	; 0x114
852170f0:	e7e82052 	ubfx	r2, r2, #0, #9
852170f4:	e92d4010 	push	{r4, lr}
852170f8:	e3822801 	orr	r2, r2, #65536	; 0x10000
852170fc:	e7802001 	str	r2, [r0, r1]
85217100:	1a000002 	bne	85217110 <shmoo28_set_clock_vdl+0x24>
85217104:	e1a01002 	mov	r1, r2
85217108:	e2800f46 	add	r0, r0, #280	; 0x118
8521710c:	eb00084e 	bl	8521924c <shmoo28_ddr3_write_leveling_adjust_lde>
85217110:	e3a00001 	mov	r0, #1
85217114:	eb000135 	bl	852175f0 <DELAY_US>
85217118:	e3a00000 	mov	r0, #0
8521711c:	e8bd8010 	pop	{r4, pc}

85217120 <shmoo28_print_str>:
85217120:	e92d4010 	push	{r4, lr}
85217124:	e2404001 	sub	r4, r0, #1
85217128:	e5f40001 	ldrb	r0, [r4, #1]!
8521712c:	e3500000 	cmp	r0, #0
85217130:	0a000001 	beq	8521713c <shmoo28_print_str+0x1c>
85217134:	eb000112 	bl	85217584 <PUTCHAR>
85217138:	eafffffa 	b	85217128 <shmoo28_print_str+0x8>
8521713c:	e8bd8010 	pop	{r4, pc}

85217140 <shmoo28_print_hex>:
85217140:	e92d4070 	push	{r4, r5, r6, lr}
85217144:	e2414001 	sub	r4, r1, #1
85217148:	e1a06000 	mov	r6, r0
8521714c:	e1a05104 	lsl	r5, r4, #2
85217150:	e3540000 	cmp	r4, #0
85217154:	ba000008 	blt	8521717c <shmoo28_print_hex+0x3c>
85217158:	e1a00536 	lsr	r0, r6, r5
8521715c:	e2444001 	sub	r4, r4, #1
85217160:	e200000f 	and	r0, r0, #15
85217164:	e2455004 	sub	r5, r5, #4
85217168:	e3500009 	cmp	r0, #9
8521716c:	d2800030 	addle	r0, r0, #48	; 0x30
85217170:	c2800037 	addgt	r0, r0, #55	; 0x37
85217174:	eb000102 	bl	85217584 <PUTCHAR>
85217178:	eafffff4 	b	85217150 <shmoo28_print_hex+0x10>
8521717c:	e8bd8070 	pop	{r4, r5, r6, pc}

85217180 <shmoo28_print_report>:
85217180:	e92d4ef3 	push	{r0, r1, r4, r5, r6, r7, r9, sl, fp, lr}
85217184:	e1a04003 	mov	r4, r3
85217188:	e59d502c 	ldr	r5, [sp, #44]	; 0x2c
8521718c:	e59d3028 	ldr	r3, [sp, #40]	; 0x28
85217190:	e353001f 	cmp	r3, #31
85217194:	d3550d05 	cmple	r5, #320	; 0x140
85217198:	a3a06001 	movge	r6, #1
8521719c:	b3a06000 	movlt	r6, #0
852171a0:	a3a00028 	movge	r0, #40	; 0x28
852171a4:	aa000078 	bge	8521738c <shmoo28_print_report+0x20c>
852171a8:	e3550063 	cmp	r5, #99	; 0x63
852171ac:	e1a0b000 	mov	fp, r0
852171b0:	e1a09001 	mov	r9, r1
852171b4:	e1a0a002 	mov	sl, r2
852171b8:	da00000f 	ble	852171fc <shmoo28_print_report+0x7c>
852171bc:	e59f01d0 	ldr	r0, [pc, #464]	; 85217394 <shmoo28_print_report+0x214>
852171c0:	ebffffd6 	bl	85217120 <shmoo28_print_str>
852171c4:	e3a01064 	mov	r1, #100	; 0x64
852171c8:	e1a00006 	mov	r0, r6
852171cc:	ebffd6a7 	bl	8520cc70 <__divsi3>
852171d0:	e2866001 	add	r6, r6, #1
852171d4:	e2800030 	add	r0, r0, #48	; 0x30
852171d8:	e6ef0070 	uxtb	r0, r0
852171dc:	eb0000e8 	bl	85217584 <PUTCHAR>
852171e0:	e1550006 	cmp	r5, r6
852171e4:	aafffff6 	bge	852171c4 <shmoo28_print_report+0x44>
852171e8:	e3a0000a 	mov	r0, #10
852171ec:	eb0000e4 	bl	85217584 <PUTCHAR>
852171f0:	e3a0000d 	mov	r0, #13
852171f4:	eb0000e2 	bl	85217584 <PUTCHAR>
852171f8:	ea000001 	b	85217204 <shmoo28_print_report+0x84>
852171fc:	e3550009 	cmp	r5, #9
85217200:	da000012 	ble	85217250 <shmoo28_print_report+0xd0>
85217204:	e59f0188 	ldr	r0, [pc, #392]	; 85217394 <shmoo28_print_report+0x214>
85217208:	e3a06000 	mov	r6, #0
8521720c:	ebffffc3 	bl	85217120 <shmoo28_print_str>
85217210:	e1a00006 	mov	r0, r6
85217214:	e3a01064 	mov	r1, #100	; 0x64
85217218:	ebffd6cb 	bl	8520cd4c <__aeabi_idivmod>
8521721c:	e2866001 	add	r6, r6, #1
85217220:	e1a00001 	mov	r0, r1
85217224:	e3a0100a 	mov	r1, #10
85217228:	ebffd690 	bl	8520cc70 <__divsi3>
8521722c:	e2800030 	add	r0, r0, #48	; 0x30
85217230:	e6ef0070 	uxtb	r0, r0
85217234:	eb0000d2 	bl	85217584 <PUTCHAR>
85217238:	e1550006 	cmp	r5, r6
8521723c:	aafffff3 	bge	85217210 <shmoo28_print_report+0x90>
85217240:	e3a0000a 	mov	r0, #10
85217244:	eb0000ce 	bl	85217584 <PUTCHAR>
85217248:	e3a0000d 	mov	r0, #13
8521724c:	eb0000cc 	bl	85217584 <PUTCHAR>
85217250:	e59f013c 	ldr	r0, [pc, #316]	; 85217394 <shmoo28_print_report+0x214>
85217254:	e3a06000 	mov	r6, #0
85217258:	ebffffb0 	bl	85217120 <shmoo28_print_str>
8521725c:	e1560005 	cmp	r6, r5
85217260:	ca000007 	bgt	85217284 <shmoo28_print_report+0x104>
85217264:	e1a00006 	mov	r0, r6
85217268:	e3a0100a 	mov	r1, #10
8521726c:	ebffd6b6 	bl	8520cd4c <__aeabi_idivmod>
85217270:	e2866001 	add	r6, r6, #1
85217274:	e2811030 	add	r1, r1, #48	; 0x30
85217278:	e6ef0071 	uxtb	r0, r1
8521727c:	eb0000c0 	bl	85217584 <PUTCHAR>
85217280:	eafffff5 	b	8521725c <shmoo28_print_report+0xdc>
85217284:	e3a0000a 	mov	r0, #10
85217288:	e3a06000 	mov	r6, #0
8521728c:	eb0000bc 	bl	85217584 <PUTCHAR>
85217290:	e3a0000d 	mov	r0, #13
85217294:	eb0000ba 	bl	85217584 <PUTCHAR>
85217298:	e58d6000 	str	r6, [sp]
8521729c:	e59d3028 	ldr	r3, [sp, #40]	; 0x28
852172a0:	e1540003 	cmp	r4, r3
852172a4:	ca000037 	bgt	85217388 <shmoo28_print_report+0x208>
852172a8:	e3590000 	cmp	r9, #0
852172ac:	e3a0100a 	mov	r1, #10
852172b0:	e1a00004 	mov	r0, r4
852172b4:	17997104 	ldrne	r7, [r9, r4, lsl #2]
852172b8:	17e93557 	ubfxne	r3, r7, #10, #10
852172bc:	158d3000 	strne	r3, [sp]
852172c0:	e35a0000 	cmp	sl, #0
852172c4:	e3a07000 	mov	r7, #0
852172c8:	179a6104 	ldrne	r6, [sl, r4, lsl #2]
852172cc:	17e96556 	ubfxne	r6, r6, #10, #10
852172d0:	ebffd666 	bl	8520cc70 <__divsi3>
852172d4:	e2800030 	add	r0, r0, #48	; 0x30
852172d8:	e6ef0070 	uxtb	r0, r0
852172dc:	eb0000a8 	bl	85217584 <PUTCHAR>
852172e0:	e3a0100a 	mov	r1, #10
852172e4:	e1a00004 	mov	r0, r4
852172e8:	ebffd697 	bl	8520cd4c <__aeabi_idivmod>
852172ec:	e2811030 	add	r1, r1, #48	; 0x30
852172f0:	e6ef0071 	uxtb	r0, r1
852172f4:	eb0000a2 	bl	85217584 <PUTCHAR>
852172f8:	e3a00020 	mov	r0, #32
852172fc:	eb0000a0 	bl	85217584 <PUTCHAR>
85217300:	e3a03001 	mov	r3, #1
85217304:	e1a03413 	lsl	r3, r3, r4
85217308:	e58d3004 	str	r3, [sp, #4]
8521730c:	e1570005 	cmp	r7, r5
85217310:	ca000016 	bgt	85217370 <shmoo28_print_report+0x1f0>
85217314:	e2992000 	adds	r2, r9, #0
85217318:	e59d3000 	ldr	r3, [sp]
8521731c:	13a02001 	movne	r2, #1
85217320:	e1570003 	cmp	r7, r3
85217324:	13a02000 	movne	r2, #0
85217328:	e3520000 	cmp	r2, #0
8521732c:	13a00058 	movne	r0, #88	; 0x58
85217330:	1a00000b 	bne	85217364 <shmoo28_print_report+0x1e4>
85217334:	e29a2000 	adds	r2, sl, #0
85217338:	13a02001 	movne	r2, #1
8521733c:	e1570006 	cmp	r7, r6
85217340:	13a02000 	movne	r2, #0
85217344:	e3520000 	cmp	r2, #0
85217348:	13a00053 	movne	r0, #83	; 0x53
8521734c:	1a000004 	bne	85217364 <shmoo28_print_report+0x1e4>
85217350:	e79b2107 	ldr	r2, [fp, r7, lsl #2]
85217354:	e59d3004 	ldr	r3, [sp, #4]
85217358:	e1130002 	tst	r3, r2
8521735c:	13a0002d 	movne	r0, #45	; 0x2d
85217360:	03a0002b 	moveq	r0, #43	; 0x2b
85217364:	eb000086 	bl	85217584 <PUTCHAR>
85217368:	e2877001 	add	r7, r7, #1
8521736c:	eaffffe6 	b	8521730c <shmoo28_print_report+0x18c>
85217370:	e3a0000a 	mov	r0, #10
85217374:	e2844001 	add	r4, r4, #1
85217378:	eb000081 	bl	85217584 <PUTCHAR>
8521737c:	e3a0000d 	mov	r0, #13
85217380:	eb00007f 	bl	85217584 <PUTCHAR>
85217384:	eaffffc4 	b	8521729c <shmoo28_print_report+0x11c>
85217388:	e3a00000 	mov	r0, #0
8521738c:	e28dd008 	add	sp, sp, #8
85217390:	e8bd8ef0 	pop	{r4, r5, r6, r7, r9, sl, fp, pc}
85217394:	8521c13b 	.word	0x8521c13b

85217398 <shmoo28_set_self_refresh>:
85217398:	e59031a4 	ldr	r3, [r0, #420]	; 0x1a4
8521739c:	e1a01401 	lsl	r1, r1, #8
852173a0:	e2011c01 	and	r1, r1, #256	; 0x100
852173a4:	e3c33c01 	bic	r3, r3, #256	; 0x100
852173a8:	e92d4010 	push	{r4, lr}
852173ac:	e1813003 	orr	r3, r1, r3
852173b0:	e58031a4 	str	r3, [r0, #420]	; 0x1a4
852173b4:	e3a00001 	mov	r0, #1
852173b8:	eb00008c 	bl	852175f0 <DELAY_US>
852173bc:	e3a00000 	mov	r0, #0
852173c0:	e8bd8010 	pop	{r4, pc}

852173c4 <shmoo28_cmd_inj_pall>:
852173c4:	e59f3018 	ldr	r3, [pc, #24]	; 852173e4 <shmoo28_cmd_inj_pall+0x20>
852173c8:	e5803128 	str	r3, [r0, #296]	; 0x128
852173cc:	e283320a 	add	r3, r3, #-1610612736	; 0xa0000000
852173d0:	e5803130 	str	r3, [r0, #304]	; 0x130
852173d4:	e283320e 	add	r3, r3, #-536870912	; 0xe0000000
852173d8:	e5803138 	str	r3, [r0, #312]	; 0x138
852173dc:	e3a00000 	mov	r0, #0
852173e0:	e12fff1e 	bx	lr
852173e4:	e0a00400 	.word	0xe0a00400

852173e8 <shmoo28_safe_clock_vdl_update>:
852173e8:	e92d4073 	push	{r0, r1, r4, r5, r6, lr}
852173ec:	e1a04000 	mov	r4, r0
852173f0:	e1a05002 	mov	r5, r2
852173f4:	e1a0100d 	mov	r1, sp
852173f8:	e3a02000 	mov	r2, #0
852173fc:	e3a00001 	mov	r0, #1
85217400:	e1a06003 	mov	r6, r3
85217404:	ebfffe0e 	bl	85216c44 <shmoo28_acquire_dfi>
85217408:	e3500000 	cmp	r0, #0
8521740c:	1a000024 	bne	852174a4 <shmoo28_safe_clock_vdl_update+0xbc>
85217410:	e1a00004 	mov	r0, r4
85217414:	ebffffea 	bl	852173c4 <shmoo28_cmd_inj_pall>
85217418:	e3a01001 	mov	r1, #1
8521741c:	e1a00004 	mov	r0, r4
85217420:	ebffffdc 	bl	85217398 <shmoo28_set_self_refresh>
85217424:	e59d3018 	ldr	r3, [sp, #24]
85217428:	e3130602 	tst	r3, #2097152	; 0x200000
8521742c:	1a000003 	bne	85217440 <shmoo28_safe_clock_vdl_update+0x58>
85217430:	e1a02006 	mov	r2, r6
85217434:	e1a01005 	mov	r1, r5
85217438:	e1a00004 	mov	r0, r4
8521743c:	ebffff2a 	bl	852170ec <shmoo28_set_clock_vdl>
85217440:	e3a01000 	mov	r1, #0
85217444:	e1a00004 	mov	r0, r4
85217448:	ebffffd2 	bl	85217398 <shmoo28_set_self_refresh>
8521744c:	e594014c 	ldr	r0, [r4, #332]	; 0x14c
85217450:	e3a02001 	mov	r2, #1
85217454:	e1a03004 	mov	r3, r4
85217458:	e30f1ffe 	movw	r1, #65534	; 0xfffe
8521745c:	e0011000 	and	r1, r1, r0
85217460:	e1a00002 	mov	r0, r2
85217464:	ebfff9ab 	bl	85215b18 <ddr34_phy_write_mrs>
85217468:	e3a00001 	mov	r0, #1
8521746c:	eb00005f 	bl	852175f0 <DELAY_US>
85217470:	e5941148 	ldr	r1, [r4, #328]	; 0x148
85217474:	e3a02001 	mov	r2, #1
85217478:	e1a03004 	mov	r3, r4
8521747c:	e3a00000 	mov	r0, #0
85217480:	e6ff1071 	uxth	r1, r1
85217484:	e3811c01 	orr	r1, r1, #256	; 0x100
85217488:	ebfff9a2 	bl	85215b18 <ddr34_phy_write_mrs>
8521748c:	e3a00001 	mov	r0, #1
85217490:	eb000056 	bl	852175f0 <DELAY_US>
85217494:	e3a02000 	mov	r2, #0
85217498:	e28d1004 	add	r1, sp, #4
8521749c:	e59d0000 	ldr	r0, [sp]
852174a0:	ebfffde7 	bl	85216c44 <shmoo28_acquire_dfi>
852174a4:	e28dd008 	add	sp, sp, #8
852174a8:	e8bd8070 	pop	{r4, r5, r6, pc}

852174ac <shmoo28_dpfe_sequence_setup>:
852174ac:	e59121ac 	ldr	r2, [r1, #428]	; 0x1ac
852174b0:	e2803801 	add	r3, r0, #65536	; 0x10000
852174b4:	e5832004 	str	r2, [r3, #4]
852174b8:	e59121d4 	ldr	r2, [r1, #468]	; 0x1d4
852174bc:	e583201c 	str	r2, [r3, #28]
852174c0:	e59121c8 	ldr	r2, [r1, #456]	; 0x1c8
852174c4:	e5832020 	str	r2, [r3, #32]
852174c8:	e5902000 	ldr	r2, [r0]
852174cc:	e7e72452 	ubfx	r2, r2, #8, #8
852174d0:	e3520047 	cmp	r2, #71	; 0x47
852174d4:	13a02000 	movne	r2, #0
852174d8:	1a000003 	bne	852174ec <shmoo28_dpfe_sequence_setup+0x40>
852174dc:	e590200c 	ldr	r2, [r0, #12]
852174e0:	e3120901 	tst	r2, #16384	; 0x4000
852174e4:	e59f2080 	ldr	r2, [pc, #128]	; 8521756c <shmoo28_dpfe_sequence_setup+0xc0>
852174e8:	03a02000 	moveq	r2, #0
852174ec:	e591c1b0 	ldr	ip, [r1, #432]	; 0x1b0
852174f0:	e082c00c 	add	ip, r2, ip
852174f4:	e583c038 	str	ip, [r3, #56]	; 0x38
852174f8:	e591c1b4 	ldr	ip, [r1, #436]	; 0x1b4
852174fc:	e082c00c 	add	ip, r2, ip
85217500:	e583c03c 	str	ip, [r3, #60]	; 0x3c
85217504:	e591c1b8 	ldr	ip, [r1, #440]	; 0x1b8
85217508:	e082200c 	add	r2, r2, ip
8521750c:	e5832040 	str	r2, [r3, #64]	; 0x40
85217510:	e59121bc 	ldr	r2, [r1, #444]	; 0x1bc
85217514:	e5832044 	str	r2, [r3, #68]	; 0x44
85217518:	e59121cc 	ldr	r2, [r1, #460]	; 0x1cc
8521751c:	e5832048 	str	r2, [r3, #72]	; 0x48
85217520:	e59121d0 	ldr	r2, [r1, #464]	; 0x1d0
85217524:	e583204c 	str	r2, [r3, #76]	; 0x4c
85217528:	e3a02000 	mov	r2, #0
8521752c:	e583202c 	str	r2, [r3, #44]	; 0x2c
85217530:	e59121c4 	ldr	r2, [r1, #452]	; 0x1c4
85217534:	e3c22102 	bic	r2, r2, #-2147483648	; 0x80000000
85217538:	e5832018 	str	r2, [r3, #24]
8521753c:	e59121c0 	ldr	r2, [r1, #448]	; 0x1c0
85217540:	e3c22101 	bic	r2, r2, #1073741824	; 0x40000000
85217544:	e5832050 	str	r2, [r3, #80]	; 0x50
85217548:	e2802b41 	add	r2, r0, #66560	; 0x10400
8521754c:	e2800b42 	add	r0, r0, #67584	; 0x10800
85217550:	e5923008 	ldr	r3, [r2, #8]
85217554:	e3c33102 	bic	r3, r3, #-2147483648	; 0x80000000
85217558:	e5823008 	str	r3, [r2, #8]
8521755c:	e5903008 	ldr	r3, [r0, #8]
85217560:	e3c33102 	bic	r3, r3, #-2147483648	; 0x80000000
85217564:	e5803008 	str	r3, [r0, #8]
85217568:	e12fff1e 	bx	lr
8521756c:	02020202 	.word	0x02020202

85217570 <dpfe_sequencer_refresh_disable>:
85217570:	e2800801 	add	r0, r0, #65536	; 0x10000
85217574:	e5903018 	ldr	r3, [r0, #24]
85217578:	e3c33102 	bic	r3, r3, #-2147483648	; 0x80000000
8521757c:	e5803018 	str	r3, [r0, #24]
85217580:	e12fff1e 	bx	lr

85217584 <PUTCHAR>:
85217584:	e59f3018 	ldr	r3, [pc, #24]	; 852175a4 <PUTCHAR+0x20>
85217588:	e5933000 	ldr	r3, [r3]
8521758c:	e5933004 	ldr	r3, [r3, #4]
85217590:	e3530000 	cmp	r3, #0
85217594:	0a000000 	beq	8521759c <PUTCHAR+0x18>
85217598:	e12fff13 	bx	r3
8521759c:	e1a00003 	mov	r0, r3
852175a0:	e12fff1e 	bx	lr
852175a4:	85220e60 	.word	0x85220e60

852175a8 <DISABLE_ALL_MEMC_CLIENT_REQS>:
852175a8:	e59f3014 	ldr	r3, [pc, #20]	; 852175c4 <DISABLE_ALL_MEMC_CLIENT_REQS+0x1c>
852175ac:	e3a01000 	mov	r1, #0
852175b0:	e59f2010 	ldr	r2, [pc, #16]	; 852175c8 <DISABLE_ALL_MEMC_CLIENT_REQS+0x20>
852175b4:	e5933000 	ldr	r3, [r3]
852175b8:	e5920000 	ldr	r0, [r2]
852175bc:	e5933014 	ldr	r3, [r3, #20]
852175c0:	e12fff13 	bx	r3
852175c4:	85220e5c 	.word	0x85220e5c
852175c8:	85220e58 	.word	0x85220e58

852175cc <RESTORE_ALL_MEMC_CLIENT_REQS>:
852175cc:	e59f3014 	ldr	r3, [pc, #20]	; 852175e8 <RESTORE_ALL_MEMC_CLIENT_REQS+0x1c>
852175d0:	e3a01000 	mov	r1, #0
852175d4:	e59f2010 	ldr	r2, [pc, #16]	; 852175ec <RESTORE_ALL_MEMC_CLIENT_REQS+0x20>
852175d8:	e5933000 	ldr	r3, [r3]
852175dc:	e5920000 	ldr	r0, [r2]
852175e0:	e5933018 	ldr	r3, [r3, #24]
852175e4:	e12fff13 	bx	r3
852175e8:	85220e5c 	.word	0x85220e5c
852175ec:	85220e58 	.word	0x85220e58

852175f0 <DELAY_US>:
852175f0:	e59f3008 	ldr	r3, [pc, #8]	; 85217600 <DELAY_US+0x10>
852175f4:	e5933000 	ldr	r3, [r3]
852175f8:	e5933000 	ldr	r3, [r3]
852175fc:	e12fff13 	bx	r3
85217600:	85220e60 	.word	0x85220e60

85217604 <memsys_init_get_ddr_type_str>:
85217604:	e3500000 	cmp	r0, #0
85217608:	0a000005 	beq	85217624 <memsys_init_get_ddr_type_str+0x20>
8521760c:	e59f2018 	ldr	r2, [pc, #24]	; 8521762c <memsys_init_get_ddr_type_str+0x28>
85217610:	e3500001 	cmp	r0, #1
85217614:	e59f3014 	ldr	r3, [pc, #20]	; 85217630 <memsys_init_get_ddr_type_str+0x2c>
85217618:	11a00002 	movne	r0, r2
8521761c:	01a00003 	moveq	r0, r3
85217620:	e12fff1e 	bx	lr
85217624:	e59f0008 	ldr	r0, [pc, #8]	; 85217634 <memsys_init_get_ddr_type_str+0x30>
85217628:	e12fff1e 	bx	lr
8521762c:	8521c149 	.word	0x8521c149
85217630:	8521c144 	.word	0x8521c144
85217634:	8521c13f 	.word	0x8521c13f

85217638 <memsys_init_validate_ddr_type>:
85217638:	e2900000 	adds	r0, r0, #0
8521763c:	13a00001 	movne	r0, #1
85217640:	e12fff1e 	bx	lr

85217644 <memsys_set_error>:
85217644:	e3520000 	cmp	r2, #0
85217648:	0a000016 	beq	852176a8 <memsys_set_error+0x64>
8521764c:	e1a032a2 	lsr	r3, r2, #5
85217650:	e3a0c001 	mov	ip, #1
85217654:	e202201f 	and	r2, r2, #31
85217658:	e3510003 	cmp	r1, #3
8521765c:	979ff101 	ldrls	pc, [pc, r1, lsl #2]
85217660:	ea000012 	b	852176b0 <memsys_set_error+0x6c>
85217664:	85217674 	.word	0x85217674
85217668:	85217688 	.word	0x85217688
8521766c:	8521769c 	.word	0x8521769c
85217670:	85217674 	.word	0x85217674
85217674:	e0800103 	add	r0, r0, r3, lsl #2
85217678:	e5903008 	ldr	r3, [r0, #8]
8521767c:	e183221c 	orr	r2, r3, ip, lsl r2
85217680:	e5802008 	str	r2, [r0, #8]
85217684:	ea000007 	b	852176a8 <memsys_set_error+0x64>
85217688:	e0800103 	add	r0, r0, r3, lsl #2
8521768c:	e5903004 	ldr	r3, [r0, #4]
85217690:	e183221c 	orr	r2, r3, ip, lsl r2
85217694:	e5802004 	str	r2, [r0, #4]
85217698:	ea000002 	b	852176a8 <memsys_set_error+0x64>
8521769c:	e7901103 	ldr	r1, [r0, r3, lsl #2]
852176a0:	e181221c 	orr	r2, r1, ip, lsl r2
852176a4:	e7802103 	str	r2, [r0, r3, lsl #2]
852176a8:	e3a00000 	mov	r0, #0
852176ac:	e12fff1e 	bx	lr
852176b0:	e3a00001 	mov	r0, #1
852176b4:	e12fff1e 	bx	lr

852176b8 <memsys_has_error>:
852176b8:	e2402004 	sub	r2, r0, #4
852176bc:	e2803018 	add	r3, r0, #24
852176c0:	e5b20004 	ldr	r0, [r2, #4]!
852176c4:	e3500000 	cmp	r0, #0
852176c8:	1a000002 	bne	852176d8 <memsys_has_error+0x20>
852176cc:	e1520003 	cmp	r2, r3
852176d0:	1afffffa 	bne	852176c0 <memsys_has_error+0x8>
852176d4:	e12fff1e 	bx	lr
852176d8:	e3a00001 	mov	r0, #1
852176dc:	e12fff1e 	bx	lr

852176e0 <memsys_init_error>:
852176e0:	e2403004 	sub	r3, r0, #4
852176e4:	e2800018 	add	r0, r0, #24
852176e8:	e3a02000 	mov	r2, #0
852176ec:	e5a32004 	str	r2, [r3, #4]!
852176f0:	e1530000 	cmp	r3, r0
852176f4:	1afffffc 	bne	852176ec <memsys_init_error+0xc>
852176f8:	e3a00000 	mov	r0, #0
852176fc:	e12fff1e 	bx	lr

85217700 <memsys_get_version>:
85217700:	e3500000 	cmp	r0, #0
85217704:	159f3024 	ldrne	r3, [pc, #36]	; 85217730 <memsys_get_version+0x30>
85217708:	15803000 	strne	r3, [r0]
8521770c:	159f3020 	ldrne	r3, [pc, #32]	; 85217734 <memsys_get_version+0x34>
85217710:	15803004 	strne	r3, [r0, #4]
85217714:	159f301c 	ldrne	r3, [pc, #28]	; 85217738 <memsys_get_version+0x38>
85217718:	15803008 	strne	r3, [r0, #8]
8521771c:	159f3018 	ldrne	r3, [pc, #24]	; 8521773c <memsys_get_version+0x3c>
85217720:	1580300c 	strne	r3, [r0, #12]
85217724:	13a00000 	movne	r0, #0
85217728:	03a00001 	moveq	r0, #1
8521772c:	e12fff1e 	bx	lr
85217730:	03030100 	.word	0x03030100
85217734:	8521c15e 	.word	0x8521c15e
85217738:	8521c189 	.word	0x8521c189
8521773c:	8521c196 	.word	0x8521c196

85217740 <memsys_cleanup>:
85217740:	e5903018 	ldr	r3, [r0, #24]
85217744:	e3530000 	cmp	r3, #0
85217748:	012fff1e 	bxeq	lr
8521774c:	e5902024 	ldr	r2, [r0, #36]	; 0x24
85217750:	e2833b41 	add	r3, r3, #66560	; 0x10400
85217754:	e59f101c 	ldr	r1, [pc, #28]	; 85217778 <memsys_cleanup+0x38>
85217758:	e5831010 	str	r1, [r3, #16]
8521775c:	e5922018 	ldr	r2, [r2, #24]
85217760:	e5832018 	str	r2, [r3, #24]
85217764:	e5902038 	ldr	r2, [r0, #56]	; 0x38
85217768:	e5832020 	str	r2, [r3, #32]
8521776c:	e590203c 	ldr	r2, [r0, #60]	; 0x3c
85217770:	e58320d4 	str	r2, [r3, #212]	; 0xd4
85217774:	e12fff1e 	bx	lr
85217778:	03030100 	.word	0x03030100

8521777c <memsys_init_power_down_unused_lanes>:
8521777c:	e3a00000 	mov	r0, #0
85217780:	e12fff1e 	bx	lr

85217784 <memsys_init_update_ldo_bias>:
85217784:	e5903008 	ldr	r3, [r0, #8]
85217788:	e2033007 	and	r3, r3, #7
8521778c:	e2433001 	sub	r3, r3, #1
85217790:	e3530003 	cmp	r3, #3
85217794:	979ff103 	ldrls	pc, [pc, r3, lsl #2]
85217798:	ea000014 	b	852177f0 <memsys_init_update_ldo_bias+0x6c>
8521779c:	852177c4 	.word	0x852177c4
852177a0:	852177ac 	.word	0x852177ac
852177a4:	852177b4 	.word	0x852177b4
852177a8:	852177bc 	.word	0x852177bc
852177ac:	e3a03002 	mov	r3, #2
852177b0:	ea000004 	b	852177c8 <memsys_init_update_ldo_bias+0x44>
852177b4:	e3a03001 	mov	r3, #1
852177b8:	ea000002 	b	852177c8 <memsys_init_update_ldo_bias+0x44>
852177bc:	e3a03005 	mov	r3, #5
852177c0:	ea000000 	b	852177c8 <memsys_init_update_ldo_bias+0x44>
852177c4:	e3a03004 	mov	r3, #4
852177c8:	e2800e4d 	add	r0, r0, #1232	; 0x4d0
852177cc:	e2800008 	add	r0, r0, #8
852177d0:	e0803483 	add	r3, r0, r3, lsl #9
852177d4:	e5902000 	ldr	r2, [r0]
852177d8:	e3822003 	orr	r2, r2, #3
852177dc:	e4802200 	str	r2, [r0], #512	; 0x200
852177e0:	e1500003 	cmp	r0, r3
852177e4:	1afffffa 	bne	852177d4 <memsys_init_update_ldo_bias+0x50>
852177e8:	e3a00000 	mov	r0, #0
852177ec:	e12fff1e 	bx	lr
852177f0:	e3a00001 	mov	r0, #1
852177f4:	e12fff1e 	bx	lr

852177f8 <memsys_init_print_dram_timing>:
852177f8:	e5902034 	ldr	r2, [r0, #52]	; 0x34
852177fc:	e92d4ef0 	push	{r4, r5, r6, r7, r9, sl, fp, lr}
85217800:	e3520000 	cmp	r2, #0
85217804:	e5903090 	ldr	r3, [r0, #144]	; 0x90
85217808:	e3a07006 	mov	r7, #6
8521780c:	e5906074 	ldr	r6, [r0, #116]	; 0x74
85217810:	13a04000 	movne	r4, #0
85217814:	07e24253 	ubfxeq	r4, r3, #4, #3
85217818:	e59f5078 	ldr	r5, [pc, #120]	; 85217898 <memsys_init_print_dram_timing+0xa0>
8521781c:	07e03153 	ubfxeq	r3, r3, #2, #1
85217820:	e59f0074 	ldr	r0, [pc, #116]	; 8521789c <memsys_init_print_dram_timing+0xa4>
85217824:	e6efa076 	uxtb	sl, r6
85217828:	e7e76456 	ubfx	r6, r6, #8, #8
8521782c:	01843183 	orreq	r3, r4, r3, lsl #3
85217830:	02834004 	addeq	r4, r3, #4
85217834:	ebfffe39 	bl	85217120 <shmoo28_print_str>
85217838:	e083259a 	umull	r2, r3, sl, r5
8521783c:	e3a01002 	mov	r1, #2
85217840:	e6ef9076 	uxtb	r9, r6
85217844:	e7e701d3 	ubfx	r0, r3, #3, #8
85217848:	e020a097 	mla	r0, r7, r0, sl
8521784c:	ebfffe3b 	bl	85217140 <shmoo28_print_hex>
85217850:	e59f0048 	ldr	r0, [pc, #72]	; 852178a0 <memsys_init_print_dram_timing+0xa8>
85217854:	ebfffe31 	bl	85217120 <shmoo28_print_str>
85217858:	e0832599 	umull	r2, r3, r9, r5
8521785c:	e3a01002 	mov	r1, #2
85217860:	e7e701d3 	ubfx	r0, r3, #3, #8
85217864:	e0206097 	mla	r0, r7, r0, r6
85217868:	ebfffe34 	bl	85217140 <shmoo28_print_hex>
8521786c:	e59f002c 	ldr	r0, [pc, #44]	; 852178a0 <memsys_init_print_dram_timing+0xa8>
85217870:	ebfffe2a 	bl	85217120 <shmoo28_print_str>
85217874:	e0832594 	umull	r2, r3, r4, r5
85217878:	e3a01002 	mov	r1, #2
8521787c:	e7e701d3 	ubfx	r0, r3, #3, #8
85217880:	e0204097 	mla	r0, r7, r0, r4
85217884:	ebfffe2d 	bl	85217140 <shmoo28_print_hex>
85217888:	e59f0014 	ldr	r0, [pc, #20]	; 852178a4 <memsys_init_print_dram_timing+0xac>
8521788c:	ebfffe23 	bl	85217120 <shmoo28_print_str>
85217890:	e3a00000 	mov	r0, #0
85217894:	e8bd8ef0 	pop	{r4, r5, r6, r7, r9, sl, fp, pc}
85217898:	cccccccd 	.word	0xcccccccd
8521789c:	8521c19e 	.word	0x8521c19e
852178a0:	8521c1ad 	.word	0x8521c1ad
852178a4:	8521c29f 	.word	0x8521c29f

852178a8 <shmoo28_get_bytes_to_tune>:
852178a8:	e2503000 	subs	r3, r0, #0
852178ac:	ba000003 	blt	852178c0 <shmoo28_get_bytes_to_tune+0x18>
852178b0:	e3530004 	cmp	r3, #4
852178b4:	03a00004 	moveq	r0, #4
852178b8:	13a00002 	movne	r0, #2
852178bc:	e12fff1e 	bx	lr
852178c0:	e2130101 	ands	r0, r3, #1073741824	; 0x40000000
852178c4:	17e80053 	ubfxne	r0, r3, #0, #9
852178c8:	e12fff1e 	bx	lr

852178cc <memsys_dispatch_shmoo>:
852178cc:	e92d42f3 	push	{r0, r1, r4, r5, r6, r7, r9, lr}
852178d0:	e1a05000 	mov	r5, r0
852178d4:	e5907024 	ldr	r7, [r0, #36]	; 0x24
852178d8:	e3a02000 	mov	r2, #0
852178dc:	e5901004 	ldr	r1, [r0, #4]
852178e0:	e5909018 	ldr	r9, [r0, #24]
852178e4:	e5970038 	ldr	r0, [r7, #56]	; 0x38
852178e8:	e2011001 	and	r1, r1, #1
852178ec:	e58d2004 	str	r2, [sp, #4]
852178f0:	ebffffec 	bl	852178a8 <shmoo28_get_bytes_to_tune>
852178f4:	e2894e4a 	add	r4, r9, #1184	; 0x4a0
852178f8:	e2844008 	add	r4, r4, #8
852178fc:	e1a06000 	mov	r6, r0
85217900:	e1a03002 	mov	r3, r2
85217904:	e1a00004 	mov	r0, r4
85217908:	e5892200 	str	r2, [r9, #512]	; 0x200
8521790c:	e1530006 	cmp	r3, r6
85217910:	14802200 	strne	r2, [r0], #512	; 0x200
85217914:	12833001 	addne	r3, r3, #1
85217918:	1afffffb 	bne	8521790c <memsys_dispatch_shmoo+0x40>
8521791c:	e3560004 	cmp	r6, #4
85217920:	e1a00005 	mov	r0, r5
85217924:	059d3004 	ldreq	r3, [sp, #4]
85217928:	03833001 	orreq	r3, r3, #1
8521792c:	058d3004 	streq	r3, [sp, #4]
85217930:	e3510000 	cmp	r1, #0
85217934:	e28d1004 	add	r1, sp, #4
85217938:	159d3004 	ldrne	r3, [sp, #4]
8521793c:	13833201 	orrne	r3, r3, #268435456	; 0x10000000
85217940:	158d3004 	strne	r3, [sp, #4]
85217944:	e5953004 	ldr	r3, [r5, #4]
85217948:	e3130008 	tst	r3, #8
8521794c:	159d3004 	ldrne	r3, [sp, #4]
85217950:	13833202 	orrne	r3, r3, #536870912	; 0x20000000
85217954:	158d3004 	strne	r3, [sp, #4]
85217958:	eb00003c 	bl	85217a50 <shmoo28_top>
8521795c:	e597308c 	ldr	r3, [r7, #140]	; 0x8c
85217960:	e5893200 	str	r3, [r9, #512]	; 0x200
85217964:	e3a03000 	mov	r3, #0
85217968:	e1530006 	cmp	r3, r6
8521796c:	15972088 	ldrne	r2, [r7, #136]	; 0x88
85217970:	12833001 	addne	r3, r3, #1
85217974:	14842200 	strne	r2, [r4], #512	; 0x200
85217978:	1afffffa 	bne	85217968 <memsys_dispatch_shmoo+0x9c>
8521797c:	e2900000 	adds	r0, r0, #0
85217980:	13a00001 	movne	r0, #1
85217984:	e28dd008 	add	sp, sp, #8
85217988:	e8bd82f0 	pop	{r4, r5, r6, r7, r9, pc}

8521798c <memsys_init_validate_ddr_width>:
8521798c:	e92d4010 	push	{r4, lr}
85217990:	ebffffc4 	bl	852178a8 <shmoo28_get_bytes_to_tune>
85217994:	e3500000 	cmp	r0, #0
85217998:	0a00000a 	beq	852179c8 <memsys_init_validate_ddr_width+0x3c>
8521799c:	e3510003 	cmp	r1, #3
852179a0:	0a000005 	beq	852179bc <memsys_init_validate_ddr_width+0x30>
852179a4:	e3510005 	cmp	r1, #5
852179a8:	0a000008 	beq	852179d0 <memsys_init_validate_ddr_width+0x44>
852179ac:	e3510002 	cmp	r1, #2
852179b0:	1a000004 	bne	852179c8 <memsys_init_validate_ddr_width+0x3c>
852179b4:	e2500002 	subs	r0, r0, #2
852179b8:	ea000000 	b	852179c0 <memsys_init_validate_ddr_width+0x34>
852179bc:	e2500001 	subs	r0, r0, #1
852179c0:	13a00001 	movne	r0, #1
852179c4:	e8bd8010 	pop	{r4, pc}
852179c8:	e3a00001 	mov	r0, #1
852179cc:	e8bd8010 	pop	{r4, pc}
852179d0:	e3a00000 	mov	r0, #0
852179d4:	e8bd8010 	pop	{r4, pc}

852179d8 <memsys_init_save_ddr_info>:
852179d8:	e5913040 	ldr	r3, [r1, #64]	; 0x40
852179dc:	e2422001 	sub	r2, r2, #1
852179e0:	e1a03303 	lsl	r3, r3, #6
852179e4:	e203c8ff 	and	ip, r3, #16711680	; 0xff0000
852179e8:	e591303c 	ldr	r3, [r1, #60]	; 0x3c
852179ec:	e1a03c03 	lsl	r3, r3, #24
852179f0:	e2033403 	and	r3, r3, #50331648	; 0x3000000
852179f4:	e18c3003 	orr	r3, ip, r3
852179f8:	e3520003 	cmp	r2, #3
852179fc:	979ff102 	ldrls	pc, [pc, r2, lsl #2]
85217a00:	ea000010 	b	85217a48 <memsys_init_save_ddr_info+0x70>
85217a04:	85217a14 	.word	0x85217a14
85217a08:	85217a1c 	.word	0x85217a1c
85217a0c:	85217a2c 	.word	0x85217a2c
85217a10:	85217a24 	.word	0x85217a24
85217a14:	e3833a02 	orr	r3, r3, #8192	; 0x2000
85217a18:	ea000004 	b	85217a30 <memsys_init_save_ddr_info+0x58>
85217a1c:	e3833a01 	orr	r3, r3, #4096	; 0x1000
85217a20:	ea000002 	b	85217a30 <memsys_init_save_ddr_info+0x58>
85217a24:	e3833a03 	orr	r3, r3, #12288	; 0x3000
85217a28:	ea000000 	b	85217a30 <memsys_init_save_ddr_info+0x58>
85217a2c:	e3c33a03 	bic	r3, r3, #12288	; 0x3000
85217a30:	e5912030 	ldr	r2, [r1, #48]	; 0x30
85217a34:	e7eb2052 	ubfx	r2, r2, #0, #12
85217a38:	e1823003 	orr	r3, r2, r3
85217a3c:	e58034e8 	str	r3, [r0, #1256]	; 0x4e8
85217a40:	e3a00000 	mov	r0, #0
85217a44:	e12fff1e 	bx	lr
85217a48:	e3a00001 	mov	r0, #1
85217a4c:	e12fff1e 	bx	lr

85217a50 <shmoo28_top>:
85217a50:	e5903024 	ldr	r3, [r0, #36]	; 0x24
85217a54:	e92d4ef0 	push	{r4, r5, r6, r7, r9, sl, fp, lr}
85217a58:	e24dd058 	sub	sp, sp, #88	; 0x58
85217a5c:	e591a000 	ldr	sl, [r1]
85217a60:	e1a09000 	mov	r9, r0
85217a64:	e58d3014 	str	r3, [sp, #20]
85217a68:	e5903014 	ldr	r3, [r0, #20]
85217a6c:	e5904018 	ldr	r4, [r0, #24]
85217a70:	e5907020 	ldr	r7, [r0, #32]
85217a74:	e58d3018 	str	r3, [sp, #24]
85217a78:	e5903010 	ldr	r3, [r0, #16]
85217a7c:	e58d301c 	str	r3, [sp, #28]
85217a80:	e590300c 	ldr	r3, [r0, #12]
85217a84:	e58d3020 	str	r3, [sp, #32]
85217a88:	e7e03e5a 	ubfx	r3, sl, #28, #1
85217a8c:	e3530000 	cmp	r3, #0
85217a90:	e58d3034 	str	r3, [sp, #52]	; 0x34
85217a94:	1a00001c 	bne	85217b0c <shmoo28_top+0xbc>
85217a98:	e59f0444 	ldr	r0, [pc, #1092]	; 85217ee4 <shmoo28_top+0x494>
85217a9c:	ebfffd9f 	bl	85217120 <shmoo28_print_str>
85217aa0:	e3a01008 	mov	r1, #8
85217aa4:	e1a00004 	mov	r0, r4
85217aa8:	ebfffda4 	bl	85217140 <shmoo28_print_hex>
85217aac:	e3a00020 	mov	r0, #32
85217ab0:	ebfffeb3 	bl	85217584 <PUTCHAR>
85217ab4:	e3a01008 	mov	r1, #8
85217ab8:	e1a00007 	mov	r0, r7
85217abc:	ebfffd9f 	bl	85217140 <shmoo28_print_hex>
85217ac0:	e3a00020 	mov	r0, #32
85217ac4:	ebfffeae 	bl	85217584 <PUTCHAR>
85217ac8:	e3a01008 	mov	r1, #8
85217acc:	e59d001c 	ldr	r0, [sp, #28]
85217ad0:	ebfffd9a 	bl	85217140 <shmoo28_print_hex>
85217ad4:	e3a00020 	mov	r0, #32
85217ad8:	ebfffea9 	bl	85217584 <PUTCHAR>
85217adc:	e3a01008 	mov	r1, #8
85217ae0:	e59d0020 	ldr	r0, [sp, #32]
85217ae4:	ebfffd95 	bl	85217140 <shmoo28_print_hex>
85217ae8:	e3a00020 	mov	r0, #32
85217aec:	ebfffea4 	bl	85217584 <PUTCHAR>
85217af0:	e3a01008 	mov	r1, #8
85217af4:	e1a0000a 	mov	r0, sl
85217af8:	ebfffd90 	bl	85217140 <shmoo28_print_hex>
85217afc:	e3a0000a 	mov	r0, #10
85217b00:	ebfffe9f 	bl	85217584 <PUTCHAR>
85217b04:	e3a0000d 	mov	r0, #13
85217b08:	ebfffe9d 	bl	85217584 <PUTCHAR>
85217b0c:	e5991008 	ldr	r1, [r9, #8]
85217b10:	e1a00007 	mov	r0, r7
85217b14:	eb0009a3 	bl	8521a1a8 <shmoo28_disable_edis_clock_gating>
85217b18:	e59d3014 	ldr	r3, [sp, #20]
85217b1c:	e5930038 	ldr	r0, [r3, #56]	; 0x38
85217b20:	ebffff60 	bl	852178a8 <shmoo28_get_bytes_to_tune>
85217b24:	e2503000 	subs	r3, r0, #0
85217b28:	e58d3028 	str	r3, [sp, #40]	; 0x28
85217b2c:	0a0000e9 	beq	85217ed8 <shmoo28_top+0x488>
85217b30:	e20ab001 	and	fp, sl, #1
85217b34:	e1a0a82a 	lsr	sl, sl, #16
85217b38:	e59d2014 	ldr	r2, [sp, #20]
85217b3c:	e1a00004 	mov	r0, r4
85217b40:	e1a0a80a 	lsl	sl, sl, #16
85217b44:	e59d1018 	ldr	r1, [sp, #24]
85217b48:	e18b300a 	orr	r3, fp, sl
85217b4c:	e58d3024 	str	r3, [sp, #36]	; 0x24
85217b50:	e3833002 	orr	r3, r3, #2
85217b54:	e2896030 	add	r6, r9, #48	; 0x30
85217b58:	eb0005c4 	bl	85219270 <shmoo28_write_leveling>
85217b5c:	e3a01003 	mov	r1, #3
85217b60:	e2845e42 	add	r5, r4, #1056	; 0x420
85217b64:	e2855008 	add	r5, r5, #8
85217b68:	e1a02000 	mov	r2, r0
85217b6c:	e1a00006 	mov	r0, r6
85217b70:	ebfffeb3 	bl	85217644 <memsys_set_error>
85217b74:	e18b300a 	orr	r3, fp, sl
85217b78:	e58d3008 	str	r3, [sp, #8]
85217b7c:	e1a01007 	mov	r1, r7
85217b80:	e59d3014 	ldr	r3, [sp, #20]
85217b84:	e1a00004 	mov	r0, r4
85217b88:	e59d2018 	ldr	r2, [sp, #24]
85217b8c:	e58d3004 	str	r3, [sp, #4]
85217b90:	e3a03020 	mov	r3, #32
85217b94:	e58d3000 	str	r3, [sp]
85217b98:	e59d301c 	ldr	r3, [sp, #28]
85217b9c:	eb000266 	bl	8521853c <shmoo28_read_enable>
85217ba0:	e3a01003 	mov	r1, #3
85217ba4:	e1a02000 	mov	r2, r0
85217ba8:	e1a00006 	mov	r0, r6
85217bac:	ebfffea4 	bl	85217644 <memsys_set_error>
85217bb0:	e59431a8 	ldr	r3, [r4, #424]	; 0x1a8
85217bb4:	e1a02005 	mov	r2, r5
85217bb8:	e3833b06 	orr	r3, r3, #6144	; 0x1800
85217bbc:	e58431a8 	str	r3, [r4, #424]	; 0x1a8
85217bc0:	e3a03000 	mov	r3, #0
85217bc4:	e59d1028 	ldr	r1, [sp, #40]	; 0x28
85217bc8:	e1530001 	cmp	r3, r1
85217bcc:	aa00000d 	bge	85217c08 <shmoo28_top+0x1b8>
85217bd0:	e5921000 	ldr	r1, [r2]
85217bd4:	e28d0038 	add	r0, sp, #56	; 0x38
85217bd8:	e2822c02 	add	r2, r2, #512	; 0x200
85217bdc:	e6ef1071 	uxtb	r1, r1
85217be0:	e7801103 	str	r1, [r0, r3, lsl #2]
85217be4:	e51201b0 	ldr	r0, [r2, #-432]	; 0xfffffe50
85217be8:	e51211ac 	ldr	r1, [r2, #-428]	; 0xfffffe54
85217bec:	e6ef0070 	uxtb	r0, r0
85217bf0:	e6ef1071 	uxtb	r1, r1
85217bf4:	e1801501 	orr	r1, r0, r1, lsl #10
85217bf8:	e28d0048 	add	r0, sp, #72	; 0x48
85217bfc:	e7801103 	str	r1, [r0, r3, lsl #2]
85217c00:	e2833001 	add	r3, r3, #1
85217c04:	eaffffee 	b	85217bc4 <shmoo28_top+0x174>
85217c08:	e38b3070 	orr	r3, fp, #112	; 0x70
85217c0c:	e59d2018 	ldr	r2, [sp, #24]
85217c10:	e183300a 	orr	r3, r3, sl
85217c14:	e58d3008 	str	r3, [sp, #8]
85217c18:	e59d3020 	ldr	r3, [sp, #32]
85217c1c:	e1a01007 	mov	r1, r7
85217c20:	e1a00004 	mov	r0, r4
85217c24:	e58d3004 	str	r3, [sp, #4]
85217c28:	e59d3014 	ldr	r3, [sp, #20]
85217c2c:	e58d3000 	str	r3, [sp]
85217c30:	e59d301c 	ldr	r3, [sp, #28]
85217c34:	eb0000b1 	bl	85217f00 <shmoo28_read_dqs_dq>
85217c38:	e3a01003 	mov	r1, #3
85217c3c:	e1a02000 	mov	r2, r0
85217c40:	e1a00006 	mov	r0, r6
85217c44:	ebfffe7e 	bl	85217644 <memsys_set_error>
85217c48:	e38b3010 	orr	r3, fp, #16
85217c4c:	e183300a 	orr	r3, r3, sl
85217c50:	e58d3008 	str	r3, [sp, #8]
85217c54:	e59d3020 	ldr	r3, [sp, #32]
85217c58:	e1a01007 	mov	r1, r7
85217c5c:	e59d2018 	ldr	r2, [sp, #24]
85217c60:	e1a00004 	mov	r0, r4
85217c64:	e38bb020 	orr	fp, fp, #32
85217c68:	e58d3004 	str	r3, [sp, #4]
85217c6c:	e18ba00a 	orr	sl, fp, sl
85217c70:	e59d3014 	ldr	r3, [sp, #20]
85217c74:	e3a0b000 	mov	fp, #0
85217c78:	e58d3000 	str	r3, [sp]
85217c7c:	e59d301c 	ldr	r3, [sp, #28]
85217c80:	eb00009e 	bl	85217f00 <shmoo28_read_dqs_dq>
85217c84:	e3a01003 	mov	r1, #3
85217c88:	e1a02000 	mov	r2, r0
85217c8c:	e1a00006 	mov	r0, r6
85217c90:	ebfffe6b 	bl	85217644 <memsys_set_error>
85217c94:	e59d3020 	ldr	r3, [sp, #32]
85217c98:	e59d2018 	ldr	r2, [sp, #24]
85217c9c:	e1a01007 	mov	r1, r7
85217ca0:	e58da008 	str	sl, [sp, #8]
85217ca4:	e1a00004 	mov	r0, r4
85217ca8:	e58d3004 	str	r3, [sp, #4]
85217cac:	e59d3014 	ldr	r3, [sp, #20]
85217cb0:	e58d3000 	str	r3, [sp]
85217cb4:	e59d301c 	ldr	r3, [sp, #28]
85217cb8:	eb000090 	bl	85217f00 <shmoo28_read_dqs_dq>
85217cbc:	e3a01003 	mov	r1, #3
85217cc0:	e1a02000 	mov	r2, r0
85217cc4:	e1a00006 	mov	r0, r6
85217cc8:	ebfffe5d 	bl	85217644 <memsys_set_error>
85217ccc:	e59d3028 	ldr	r3, [sp, #40]	; 0x28
85217cd0:	e15b0003 	cmp	fp, r3
85217cd4:	aa000042 	bge	85217de4 <shmoo28_top+0x394>
85217cd8:	e5953000 	ldr	r3, [r5]
85217cdc:	e6ef3073 	uxtb	r3, r3
85217ce0:	e58d302c 	str	r3, [sp, #44]	; 0x2c
85217ce4:	e28d3038 	add	r3, sp, #56	; 0x38
85217ce8:	e793a10b 	ldr	sl, [r3, fp, lsl #2]
85217cec:	e59d302c 	ldr	r3, [sp, #44]	; 0x2c
85217cf0:	e06a3003 	rsb	r3, sl, r3
85217cf4:	e58d3030 	str	r3, [sp, #48]	; 0x30
85217cf8:	e59d3034 	ldr	r3, [sp, #52]	; 0x34
85217cfc:	e3530000 	cmp	r3, #0
85217d00:	1a000016 	bne	85217d60 <shmoo28_top+0x310>
85217d04:	e35b0000 	cmp	fp, #0
85217d08:	1a000001 	bne	85217d14 <shmoo28_top+0x2c4>
85217d0c:	e59f01d4 	ldr	r0, [pc, #468]	; 85217ee8 <shmoo28_top+0x498>
85217d10:	ebfffd02 	bl	85217120 <shmoo28_print_str>
85217d14:	e59f01d0 	ldr	r0, [pc, #464]	; 85217eec <shmoo28_top+0x49c>
85217d18:	ebfffd00 	bl	85217120 <shmoo28_print_str>
85217d1c:	e3a01001 	mov	r1, #1
85217d20:	e1a0000b 	mov	r0, fp
85217d24:	ebfffd05 	bl	85217140 <shmoo28_print_hex>
85217d28:	e59f01c0 	ldr	r0, [pc, #448]	; 85217ef0 <shmoo28_top+0x4a0>
85217d2c:	ebfffcfb 	bl	85217120 <shmoo28_print_str>
85217d30:	e3a01002 	mov	r1, #2
85217d34:	e1a0000a 	mov	r0, sl
85217d38:	ebfffd00 	bl	85217140 <shmoo28_print_hex>
85217d3c:	e59f01b0 	ldr	r0, [pc, #432]	; 85217ef4 <shmoo28_top+0x4a4>
85217d40:	ebfffcf6 	bl	85217120 <shmoo28_print_str>
85217d44:	e3a01002 	mov	r1, #2
85217d48:	e59d002c 	ldr	r0, [sp, #44]	; 0x2c
85217d4c:	ebfffcfb 	bl	85217140 <shmoo28_print_hex>
85217d50:	e3a0000a 	mov	r0, #10
85217d54:	ebfffe0a 	bl	85217584 <PUTCHAR>
85217d58:	e3a0000d 	mov	r0, #13
85217d5c:	ebfffe08 	bl	85217584 <PUTCHAR>
85217d60:	e28d3048 	add	r3, sp, #72	; 0x48
85217d64:	e6efa07a 	uxtb	sl, sl
85217d68:	e38aa801 	orr	sl, sl, #65536	; 0x10000
85217d6c:	e585a000 	str	sl, [r5]
85217d70:	e793310b 	ldr	r3, [r3, fp, lsl #2]
85217d74:	e585a004 	str	sl, [r5, #4]
85217d78:	e6ef1073 	uxtb	r1, r3
85217d7c:	e7e73553 	ubfx	r3, r3, #10, #8
85217d80:	e3833801 	orr	r3, r3, #65536	; 0x10000
85217d84:	e3811801 	orr	r1, r1, #65536	; 0x10000
85217d88:	e5851050 	str	r1, [r5, #80]	; 0x50
85217d8c:	e5853054 	str	r3, [r5, #84]	; 0x54
85217d90:	e59d3030 	ldr	r3, [sp, #48]	; 0x30
85217d94:	e3530000 	cmp	r3, #0
85217d98:	1a000002 	bne	85217da8 <shmoo28_top+0x358>
85217d9c:	e28bb001 	add	fp, fp, #1
85217da0:	e2855c02 	add	r5, r5, #512	; 0x200
85217da4:	eaffffc8 	b	85217ccc <shmoo28_top+0x27c>
85217da8:	e2850008 	add	r0, r5, #8
85217dac:	e285c048 	add	ip, r5, #72	; 0x48
85217db0:	e5901000 	ldr	r1, [r0]
85217db4:	e59d2030 	ldr	r2, [sp, #48]	; 0x30
85217db8:	e6ef3071 	uxtb	r3, r1
85217dbc:	e3c110ff 	bic	r1, r1, #255	; 0xff
85217dc0:	e0623003 	rsb	r3, r2, r3
85217dc4:	e3811801 	orr	r1, r1, #65536	; 0x10000
85217dc8:	e1c33fc3 	bic	r3, r3, r3, asr #31
85217dcc:	e6ef3073 	uxtb	r3, r3
85217dd0:	e1811003 	orr	r1, r1, r3
85217dd4:	e4801004 	str	r1, [r0], #4
85217dd8:	e150000c 	cmp	r0, ip
85217ddc:	1afffff3 	bne	85217db0 <shmoo28_top+0x360>
85217de0:	eaffffed 	b	85217d9c <shmoo28_top+0x34c>
85217de4:	e59d3024 	ldr	r3, [sp, #36]	; 0x24
85217de8:	e1a01007 	mov	r1, r7
85217dec:	e59d2018 	ldr	r2, [sp, #24]
85217df0:	e1a00004 	mov	r0, r4
85217df4:	e58d3008 	str	r3, [sp, #8]
85217df8:	e59d3020 	ldr	r3, [sp, #32]
85217dfc:	e58d3004 	str	r3, [sp, #4]
85217e00:	e59d3014 	ldr	r3, [sp, #20]
85217e04:	e58d3000 	str	r3, [sp]
85217e08:	e59d301c 	ldr	r3, [sp, #28]
85217e0c:	eb00039f 	bl	85218c90 <shmoo28_write_dqs_dq>
85217e10:	e3a01003 	mov	r1, #3
85217e14:	e1a02000 	mov	r2, r0
85217e18:	e1a00006 	mov	r0, r6
85217e1c:	ebfffe08 	bl	85217644 <memsys_set_error>
85217e20:	e59d3024 	ldr	r3, [sp, #36]	; 0x24
85217e24:	e59d2018 	ldr	r2, [sp, #24]
85217e28:	e1a01007 	mov	r1, r7
85217e2c:	e1a00004 	mov	r0, r4
85217e30:	e58d3008 	str	r3, [sp, #8]
85217e34:	e59d3020 	ldr	r3, [sp, #32]
85217e38:	e58d3004 	str	r3, [sp, #4]
85217e3c:	e59d3014 	ldr	r3, [sp, #20]
85217e40:	e58d3000 	str	r3, [sp]
85217e44:	e59d301c 	ldr	r3, [sp, #28]
85217e48:	eb00069a 	bl	852198b8 <shmoo28_write_dqs_dm>
85217e4c:	e3a01003 	mov	r1, #3
85217e50:	e1a02000 	mov	r2, r0
85217e54:	e1a00006 	mov	r0, r6
85217e58:	ebfffdf9 	bl	85217644 <memsys_set_error>
85217e5c:	e59d3024 	ldr	r3, [sp, #36]	; 0x24
85217e60:	e59d2018 	ldr	r2, [sp, #24]
85217e64:	e1a01007 	mov	r1, r7
85217e68:	e58d6008 	str	r6, [sp, #8]
85217e6c:	e1a00004 	mov	r0, r4
85217e70:	e58d3004 	str	r3, [sp, #4]
85217e74:	e59d3020 	ldr	r3, [sp, #32]
85217e78:	e58d3000 	str	r3, [sp]
85217e7c:	e59d301c 	ldr	r3, [sp, #28]
85217e80:	eb00001c 	bl	85217ef8 <shmoo28_addx_ctrl>
85217e84:	e3a01003 	mov	r1, #3
85217e88:	e1a02000 	mov	r2, r0
85217e8c:	e1a00006 	mov	r0, r6
85217e90:	ebfffdeb 	bl	85217644 <memsys_set_error>
85217e94:	e5943184 	ldr	r3, [r4, #388]	; 0x184
85217e98:	e3130007 	tst	r3, #7
85217e9c:	0a000006 	beq	85217ebc <shmoo28_top+0x46c>
85217ea0:	e5943188 	ldr	r3, [r4, #392]	; 0x188
85217ea4:	e3130001 	tst	r3, #1
85217ea8:	1a000003 	bne	85217ebc <shmoo28_top+0x46c>
85217eac:	e3a02040 	mov	r2, #64	; 0x40
85217eb0:	e3a01003 	mov	r1, #3
85217eb4:	e1a00006 	mov	r0, r6
85217eb8:	ebfffde1 	bl	85217644 <memsys_set_error>
85217ebc:	e5991008 	ldr	r1, [r9, #8]
85217ec0:	e1a00007 	mov	r0, r7
85217ec4:	eb0008c2 	bl	8521a1d4 <shmoo28_enable_edis_clock_gating>
85217ec8:	e1a00006 	mov	r0, r6
85217ecc:	e28dd058 	add	sp, sp, #88	; 0x58
85217ed0:	e8bd4ef0 	pop	{r4, r5, r6, r7, r9, sl, fp, lr}
85217ed4:	eafffdf7 	b	852176b8 <memsys_has_error>
85217ed8:	e3a0004c 	mov	r0, #76	; 0x4c
85217edc:	e28dd058 	add	sp, sp, #88	; 0x58
85217ee0:	e8bd8ef0 	pop	{r4, r5, r6, r7, r9, sl, fp, pc}
85217ee4:	8521c1af 	.word	0x8521c1af
85217ee8:	8521c1be 	.word	0x8521c1be
85217eec:	8521c1d7 	.word	0x8521c1d7
85217ef0:	8521c1da 	.word	0x8521c1da
85217ef4:	8521c1e6 	.word	0x8521c1e6

85217ef8 <shmoo28_addx_ctrl>:
85217ef8:	e3a00000 	mov	r0, #0
85217efc:	e12fff1e 	bx	lr

85217f00 <shmoo28_read_dqs_dq>:
85217f00:	e92d4ef0 	push	{r4, r5, r6, r7, r9, sl, fp, lr}
85217f04:	e24ddd0e 	sub	sp, sp, #896	; 0x380
85217f08:	e58d3034 	str	r3, [sp, #52]	; 0x34
85217f0c:	e3a03000 	mov	r3, #0
85217f10:	e58d3044 	str	r3, [sp, #68]	; 0x44
85217f14:	e58d3040 	str	r3, [sp, #64]	; 0x40
85217f18:	e59d33a0 	ldr	r3, [sp, #928]	; 0x3a0
85217f1c:	e58d0018 	str	r0, [sp, #24]
85217f20:	e58d102c 	str	r1, [sp, #44]	; 0x2c
85217f24:	e5930038 	ldr	r0, [r3, #56]	; 0x38
85217f28:	e58d2030 	str	r2, [sp, #48]	; 0x30
85217f2c:	e59d53a8 	ldr	r5, [sp, #936]	; 0x3a8
85217f30:	ebfffe5c 	bl	852178a8 <shmoo28_get_bytes_to_tune>
85217f34:	e2506000 	subs	r6, r0, #0
85217f38:	03a0004c 	moveq	r0, #76	; 0x4c
85217f3c:	0a000175 	beq	85218518 <shmoo28_read_dqs_dq+0x618>
85217f40:	e7e07e55 	ubfx	r7, r5, #28, #1
85217f44:	e7e032d5 	ubfx	r3, r5, #5, #1
85217f48:	e3570000 	cmp	r7, #0
85217f4c:	e58d3024 	str	r3, [sp, #36]	; 0x24
85217f50:	e7e03255 	ubfx	r3, r5, #4, #1
85217f54:	e58d3028 	str	r3, [sp, #40]	; 0x28
85217f58:	1a00000f 	bne	85217f9c <shmoo28_read_dqs_dq+0x9c>
85217f5c:	e59f05bc 	ldr	r0, [pc, #1468]	; 85218520 <shmoo28_read_dqs_dq+0x620>
85217f60:	ebfffc6e 	bl	85217120 <shmoo28_print_str>
85217f64:	e7e032d5 	ubfx	r3, r5, #5, #1
85217f68:	e3530000 	cmp	r3, #0
85217f6c:	0a000001 	beq	85217f78 <shmoo28_read_dqs_dq+0x78>
85217f70:	e3a0004e 	mov	r0, #78	; 0x4e
85217f74:	ebfffd82 	bl	85217584 <PUTCHAR>
85217f78:	e7e03255 	ubfx	r3, r5, #4, #1
85217f7c:	e3530000 	cmp	r3, #0
85217f80:	0a000001 	beq	85217f8c <shmoo28_read_dqs_dq+0x8c>
85217f84:	e3a00050 	mov	r0, #80	; 0x50
85217f88:	ebfffd7d 	bl	85217584 <PUTCHAR>
85217f8c:	e3a0000a 	mov	r0, #10
85217f90:	ebfffd7b 	bl	85217584 <PUTCHAR>
85217f94:	e3a0000d 	mov	r0, #13
85217f98:	ebfffd79 	bl	85217584 <PUTCHAR>
85217f9c:	e3a03000 	mov	r3, #0
85217fa0:	e28d204c 	add	r2, sp, #76	; 0x4c
85217fa4:	e28d1048 	add	r1, sp, #72	; 0x48
85217fa8:	e59d0018 	ldr	r0, [sp, #24]
85217fac:	ebfffc40 	bl	852170b4 <shmoo28_compute_vdl_per_data_ui>
85217fb0:	e3500000 	cmp	r0, #0
85217fb4:	1a000157 	bne	85218518 <shmoo28_read_dqs_dq+0x618>
85217fb8:	e3150802 	tst	r5, #131072	; 0x20000
85217fbc:	13a030a0 	movne	r3, #160	; 0xa0
85217fc0:	1a000004 	bne	85217fd8 <shmoo28_read_dqs_dq+0xd8>
85217fc4:	e59d204c 	ldr	r2, [sp, #76]	; 0x4c
85217fc8:	e59d3048 	ldr	r3, [sp, #72]	; 0x48
85217fcc:	e0833002 	add	r3, r3, r2
85217fd0:	e35300a0 	cmp	r3, #160	; 0xa0
85217fd4:	a3a030a0 	movge	r3, #160	; 0xa0
85217fd8:	e58d3048 	str	r3, [sp, #72]	; 0x48
85217fdc:	e3e01000 	mvn	r1, #0
85217fe0:	e3a03000 	mov	r3, #0
85217fe4:	e28d2c01 	add	r2, sp, #256	; 0x100
85217fe8:	e7821103 	str	r1, [r2, r3, lsl #2]
85217fec:	e2833001 	add	r3, r3, #1
85217ff0:	e35300a0 	cmp	r3, #160	; 0xa0
85217ff4:	1afffffa 	bne	85217fe4 <shmoo28_read_dqs_dq+0xe4>
85217ff8:	e3a03000 	mov	r3, #0
85217ffc:	e1a02003 	mov	r2, r3
85218000:	e28d1070 	add	r1, sp, #112	; 0x70
85218004:	e7812103 	str	r2, [r1, r3, lsl #2]
85218008:	e28d1060 	add	r1, sp, #96	; 0x60
8521800c:	e7812103 	str	r2, [r1, r3, lsl #2]
85218010:	e28d1050 	add	r1, sp, #80	; 0x50
85218014:	e7812103 	str	r2, [r1, r3, lsl #2]
85218018:	e2833001 	add	r3, r3, #1
8521801c:	e3530004 	cmp	r3, #4
85218020:	1afffff6 	bne	85218000 <shmoo28_read_dqs_dq+0x100>
85218024:	e59d3018 	ldr	r3, [sp, #24]
85218028:	e3a01000 	mov	r1, #0
8521802c:	e3a00801 	mov	r0, #65536	; 0x10000
85218030:	e2833e47 	add	r3, r3, #1136	; 0x470
85218034:	e2833004 	add	r3, r3, #4
85218038:	e58d3014 	str	r3, [sp, #20]
8521803c:	e1a02003 	mov	r2, r3
85218040:	e1510006 	cmp	r1, r6
85218044:	aa00000c 	bge	8521807c <shmoo28_read_dqs_dq+0x17c>
85218048:	e2423040 	sub	r3, r2, #64	; 0x40
8521804c:	e59dc028 	ldr	ip, [sp, #40]	; 0x28
85218050:	e2833008 	add	r3, r3, #8
85218054:	e35c0000 	cmp	ip, #0
85218058:	e59dc024 	ldr	ip, [sp, #36]	; 0x24
8521805c:	1503000c 	strne	r0, [r3, #-12]
85218060:	e35c0000 	cmp	ip, #0
85218064:	15030008 	strne	r0, [r3, #-8]
85218068:	e1530002 	cmp	r3, r2
8521806c:	1afffff6 	bne	8521804c <shmoo28_read_dqs_dq+0x14c>
85218070:	e2811001 	add	r1, r1, #1
85218074:	e2822c02 	add	r2, r2, #512	; 0x200
85218078:	eafffff0 	b	85218040 <shmoo28_read_dqs_dq+0x140>
8521807c:	e2053001 	and	r3, r5, #1
85218080:	e3831e31 	orr	r1, r3, #784	; 0x310
85218084:	e3832010 	orr	r2, r3, #16
85218088:	e3833c01 	orr	r3, r3, #256	; 0x100
8521808c:	e58d3020 	str	r3, [sp, #32]
85218090:	e59f348c 	ldr	r3, [pc, #1164]	; 85218524 <shmoo28_read_dqs_dq+0x624>
85218094:	e58d101c 	str	r1, [sp, #28]
85218098:	e5933000 	ldr	r3, [r3]
8521809c:	e5933024 	ldr	r3, [r3, #36]	; 0x24
852180a0:	e5d3319c 	ldrb	r3, [r3, #412]	; 0x19c
852180a4:	e3530000 	cmp	r3, #0
852180a8:	0a00000a 	beq	852180d8 <shmoo28_read_dqs_dq+0x1d8>
852180ac:	e3530020 	cmp	r3, #32
852180b0:	a3a03000 	movge	r3, #0
852180b4:	e1a03803 	lsl	r3, r3, #16
852180b8:	e203381f 	and	r3, r3, #2031616	; 0x1f0000
852180bc:	e3833502 	orr	r3, r3, #8388608	; 0x800000
852180c0:	e1811003 	orr	r1, r1, r3
852180c4:	e58d101c 	str	r1, [sp, #28]
852180c8:	e59d1020 	ldr	r1, [sp, #32]
852180cc:	e1822003 	orr	r2, r2, r3
852180d0:	e1813003 	orr	r3, r1, r3
852180d4:	e58d3020 	str	r3, [sp, #32]
852180d8:	e28d002c 	add	r0, sp, #44	; 0x2c
852180dc:	e28d3040 	add	r3, sp, #64	; 0x40
852180e0:	e28d9044 	add	r9, sp, #68	; 0x44
852180e4:	e88d000c 	stm	sp, {r2, r3}
852180e8:	e58d9008 	str	r9, [sp, #8]
852180ec:	e59d33a4 	ldr	r3, [sp, #932]	; 0x3a4
852180f0:	e8900007 	ldm	r0, {r0, r1, r2}
852180f4:	eb000797 	bl	85219f58 <shmoo28_mem_test>
852180f8:	e3500000 	cmp	r0, #0
852180fc:	0a000001 	beq	85218108 <shmoo28_read_dqs_dq+0x208>
85218100:	e3a0001a 	mov	r0, #26
85218104:	ea000103 	b	85218518 <shmoo28_read_dqs_dq+0x618>
85218108:	e3150040 	tst	r5, #64	; 0x40
8521810c:	1a000005 	bne	85218128 <shmoo28_read_dqs_dq+0x228>
85218110:	e59d5048 	ldr	r5, [sp, #72]	; 0x48
85218114:	e3560001 	cmp	r6, #1
85218118:	e0855fa5 	add	r5, r5, r5, lsr #31
8521811c:	e1a050c5 	asr	r5, r5, #1
85218120:	1a000085 	bne	8521833c <shmoo28_read_dqs_dq+0x43c>
85218124:	ea00008b 	b	85218358 <shmoo28_read_dqs_dq+0x458>
85218128:	e59d3018 	ldr	r3, [sp, #24]
8521812c:	e1a04000 	mov	r4, r0
85218130:	e58d903c 	str	r9, [sp, #60]	; 0x3c
85218134:	e2835e42 	add	r5, r3, #1056	; 0x420
85218138:	e285500c 	add	r5, r5, #12
8521813c:	e1540006 	cmp	r4, r6
85218140:	aa000056 	bge	852182a0 <shmoo28_read_dqs_dq+0x3a0>
85218144:	e5159004 	ldr	r9, [r5, #-4]
85218148:	e245a004 	sub	sl, r5, #4
8521814c:	e1a03184 	lsl	r3, r4, #3
85218150:	e58d3038 	str	r3, [sp, #56]	; 0x38
85218154:	e6ef9079 	uxtb	r9, r9
85218158:	e59d0048 	ldr	r0, [sp, #72]	; 0x48
8521815c:	e1590000 	cmp	r9, r0
85218160:	aa000046 	bge	85218280 <shmoo28_read_dqs_dq+0x380>
85218164:	e28d3060 	add	r3, sp, #96	; 0x60
85218168:	e793b104 	ldr	fp, [r3, r4, lsl #2]
8521816c:	e35b0000 	cmp	fp, #0
85218170:	1a00000f 	bne	852181b4 <shmoo28_read_dqs_dq+0x2b4>
85218174:	e1a01005 	mov	r1, r5
85218178:	e6ef3079 	uxtb	r3, r9
8521817c:	e3833801 	orr	r3, r3, #65536	; 0x10000
85218180:	e58a3000 	str	r3, [sl]
85218184:	e481304c 	str	r3, [r1], #76	; 0x4c
85218188:	e595204c 	ldr	r2, [r5, #76]	; 0x4c
8521818c:	e6ef3072 	uxtb	r3, r2
85218190:	e3c220ff 	bic	r2, r2, #255	; 0xff
85218194:	e2833001 	add	r3, r3, #1
85218198:	e3822801 	orr	r2, r2, #65536	; 0x10000
8521819c:	e1500003 	cmp	r0, r3
852181a0:	d2403001 	suble	r3, r0, #1
852181a4:	e6ef3073 	uxtb	r3, r3
852181a8:	e1833002 	orr	r3, r3, r2
852181ac:	e5813000 	str	r3, [r1]
852181b0:	e5853050 	str	r3, [r5, #80]	; 0x50
852181b4:	e59d303c 	ldr	r3, [sp, #60]	; 0x3c
852181b8:	e28d002c 	add	r0, sp, #44	; 0x2c
852181bc:	e58d3008 	str	r3, [sp, #8]
852181c0:	e28d3040 	add	r3, sp, #64	; 0x40
852181c4:	e58d3004 	str	r3, [sp, #4]
852181c8:	e59d3020 	ldr	r3, [sp, #32]
852181cc:	e58d3000 	str	r3, [sp]
852181d0:	e59d33a4 	ldr	r3, [sp, #932]	; 0x3a4
852181d4:	e8900007 	ldm	r0, {r0, r1, r2}
852181d8:	eb00075e 	bl	85219f58 <shmoo28_mem_test>
852181dc:	e3500000 	cmp	r0, #0
852181e0:	1affffc6 	bne	85218100 <shmoo28_read_dqs_dq+0x200>
852181e4:	e59d3040 	ldr	r3, [sp, #64]	; 0x40
852181e8:	e59d2038 	ldr	r2, [sp, #56]	; 0x38
852181ec:	e1a03233 	lsr	r3, r3, r2
852181f0:	e6ef3073 	uxtb	r3, r3
852181f4:	e35300ff 	cmp	r3, #255	; 0xff
852181f8:	e28d3070 	add	r3, sp, #112	; 0x70
852181fc:	07932104 	ldreq	r2, [r3, r4, lsl #2]
85218200:	17830104 	strne	r0, [r3, r4, lsl #2]
85218204:	02822001 	addeq	r2, r2, #1
85218208:	07832104 	streq	r2, [r3, r4, lsl #2]
8521820c:	e28d3070 	add	r3, sp, #112	; 0x70
85218210:	e7933104 	ldr	r3, [r3, r4, lsl #2]
85218214:	e3530002 	cmp	r3, #2
85218218:	da000014 	ble	85218270 <shmoo28_read_dqs_dq+0x370>
8521821c:	e35b0000 	cmp	fp, #0
85218220:	1a00001b 	bne	85218294 <shmoo28_read_dqs_dq+0x394>
85218224:	e28d3060 	add	r3, sp, #96	; 0x60
85218228:	e3a02001 	mov	r2, #1
8521822c:	e7832104 	str	r2, [r3, r4, lsl #2]
85218230:	e28d2050 	add	r2, sp, #80	; 0x50
85218234:	e59a3000 	ldr	r3, [sl]
85218238:	e6ef3073 	uxtb	r3, r3
8521823c:	e2433002 	sub	r3, r3, #2
85218240:	e7823104 	str	r3, [r2, r4, lsl #2]
85218244:	e6ef3073 	uxtb	r3, r3
85218248:	e3833801 	orr	r3, r3, #65536	; 0x10000
8521824c:	e58a3000 	str	r3, [sl]
85218250:	e5853000 	str	r3, [r5]
85218254:	e595304c 	ldr	r3, [r5, #76]	; 0x4c
85218258:	e2433002 	sub	r3, r3, #2
8521825c:	e20330ff 	and	r3, r3, #255	; 0xff
85218260:	e3833801 	orr	r3, r3, #65536	; 0x10000
85218264:	e585304c 	str	r3, [r5, #76]	; 0x4c
85218268:	e5853050 	str	r3, [r5, #80]	; 0x50
8521826c:	ea000003 	b	85218280 <shmoo28_read_dqs_dq+0x380>
85218270:	e35b0000 	cmp	fp, #0
85218274:	1a000006 	bne	85218294 <shmoo28_read_dqs_dq+0x394>
85218278:	e2899001 	add	r9, r9, #1
8521827c:	eaffffb5 	b	85218158 <shmoo28_read_dqs_dq+0x258>
85218280:	e28d3060 	add	r3, sp, #96	; 0x60
85218284:	e7933104 	ldr	r3, [r3, r4, lsl #2]
85218288:	e3530000 	cmp	r3, #0
8521828c:	028d3050 	addeq	r3, sp, #80	; 0x50
85218290:	07839104 	streq	r9, [r3, r4, lsl #2]
85218294:	e2844001 	add	r4, r4, #1
85218298:	e2855c02 	add	r5, r5, #512	; 0x200
8521829c:	eaffffa6 	b	8521813c <shmoo28_read_dqs_dq+0x23c>
852182a0:	e3570000 	cmp	r7, #0
852182a4:	1a000001 	bne	852182b0 <shmoo28_read_dqs_dq+0x3b0>
852182a8:	e59f0278 	ldr	r0, [pc, #632]	; 85218528 <shmoo28_read_dqs_dq+0x628>
852182ac:	ebfffb9b 	bl	85217120 <shmoo28_print_str>
852182b0:	e3a04000 	mov	r4, #0
852182b4:	e1540006 	cmp	r4, r6
852182b8:	aaffff94 	bge	85218110 <shmoo28_read_dqs_dq+0x210>
852182bc:	e3570000 	cmp	r7, #0
852182c0:	1a00000b 	bne	852182f4 <shmoo28_read_dqs_dq+0x3f4>
852182c4:	e59f0260 	ldr	r0, [pc, #608]	; 8521852c <shmoo28_read_dqs_dq+0x62c>
852182c8:	ebfffb94 	bl	85217120 <shmoo28_print_str>
852182cc:	e3a01001 	mov	r1, #1
852182d0:	e1a00004 	mov	r0, r4
852182d4:	ebfffb99 	bl	85217140 <shmoo28_print_hex>
852182d8:	e28d3050 	add	r3, sp, #80	; 0x50
852182dc:	e59f024c 	ldr	r0, [pc, #588]	; 85218530 <shmoo28_read_dqs_dq+0x630>
852182e0:	e7935104 	ldr	r5, [r3, r4, lsl #2]
852182e4:	ebfffb8d 	bl	85217120 <shmoo28_print_str>
852182e8:	e3a01002 	mov	r1, #2
852182ec:	e1a00005 	mov	r0, r5
852182f0:	ebfffb92 	bl	85217140 <shmoo28_print_hex>
852182f4:	e28d3060 	add	r3, sp, #96	; 0x60
852182f8:	e7933104 	ldr	r3, [r3, r4, lsl #2]
852182fc:	e3530000 	cmp	r3, #0
85218300:	0a000003 	beq	85218314 <shmoo28_read_dqs_dq+0x414>
85218304:	e3570000 	cmp	r7, #0
85218308:	059f0224 	ldreq	r0, [pc, #548]	; 85218534 <shmoo28_read_dqs_dq+0x634>
8521830c:	1a000008 	bne	85218334 <shmoo28_read_dqs_dq+0x434>
85218310:	ea000002 	b	85218320 <shmoo28_read_dqs_dq+0x420>
85218314:	e3570000 	cmp	r7, #0
85218318:	1a000005 	bne	85218334 <shmoo28_read_dqs_dq+0x434>
8521831c:	e59f0214 	ldr	r0, [pc, #532]	; 85218538 <shmoo28_read_dqs_dq+0x638>
85218320:	ebfffb7e 	bl	85217120 <shmoo28_print_str>
85218324:	e3a0000a 	mov	r0, #10
85218328:	ebfffc95 	bl	85217584 <PUTCHAR>
8521832c:	e3a0000d 	mov	r0, #13
85218330:	ebfffc93 	bl	85217584 <PUTCHAR>
85218334:	e2844001 	add	r4, r4, #1
85218338:	eaffffdd 	b	852182b4 <shmoo28_read_dqs_dq+0x3b4>
8521833c:	e3560002 	cmp	r6, #2
85218340:	030f9fff 	movweq	r9, #65535	; 0xffff
85218344:	0a000004 	beq	8521835c <shmoo28_read_dqs_dq+0x45c>
85218348:	e3560003 	cmp	r6, #3
8521834c:	13e09000 	mvnne	r9, #0
85218350:	03e094ff 	mvneq	r9, #-16777216	; 0xff000000
85218354:	ea000000 	b	8521835c <shmoo28_read_dqs_dq+0x45c>
85218358:	e3a090ff 	mov	r9, #255	; 0xff
8521835c:	e28da044 	add	sl, sp, #68	; 0x44
85218360:	e28db040 	add	fp, sp, #64	; 0x40
85218364:	e3a04000 	mov	r4, #0
85218368:	e59d3048 	ldr	r3, [sp, #72]	; 0x48
8521836c:	e1540003 	cmp	r4, r3
85218370:	aa000026 	bge	85218410 <shmoo28_read_dqs_dq+0x510>
85218374:	e6ef1074 	uxtb	r1, r4
85218378:	e59d2014 	ldr	r2, [sp, #20]
8521837c:	e3811801 	orr	r1, r1, #65536	; 0x10000
85218380:	e3a00000 	mov	r0, #0
85218384:	e1500006 	cmp	r0, r6
85218388:	aa00000c 	bge	852183c0 <shmoo28_read_dqs_dq+0x4c0>
8521838c:	e2423040 	sub	r3, r2, #64	; 0x40
85218390:	e59dc028 	ldr	ip, [sp, #40]	; 0x28
85218394:	e2833008 	add	r3, r3, #8
85218398:	e35c0000 	cmp	ip, #0
8521839c:	e59dc024 	ldr	ip, [sp, #36]	; 0x24
852183a0:	1503100c 	strne	r1, [r3, #-12]
852183a4:	e35c0000 	cmp	ip, #0
852183a8:	15031008 	strne	r1, [r3, #-8]
852183ac:	e1530002 	cmp	r3, r2
852183b0:	1afffff6 	bne	85218390 <shmoo28_read_dqs_dq+0x490>
852183b4:	e2800001 	add	r0, r0, #1
852183b8:	e2822c02 	add	r2, r2, #512	; 0x200
852183bc:	eafffff0 	b	85218384 <shmoo28_read_dqs_dq+0x484>
852183c0:	e59d301c 	ldr	r3, [sp, #28]
852183c4:	e28d002c 	add	r0, sp, #44	; 0x2c
852183c8:	e58da008 	str	sl, [sp, #8]
852183cc:	e58db004 	str	fp, [sp, #4]
852183d0:	e58d3000 	str	r3, [sp]
852183d4:	e59d33a4 	ldr	r3, [sp, #932]	; 0x3a4
852183d8:	e8900007 	ldm	r0, {r0, r1, r2}
852183dc:	eb0006dd 	bl	85219f58 <shmoo28_mem_test>
852183e0:	e3500000 	cmp	r0, #0
852183e4:	1affff45 	bne	85218100 <shmoo28_read_dqs_dq+0x200>
852183e8:	e59d3040 	ldr	r3, [sp, #64]	; 0x40
852183ec:	e28d2c01 	add	r2, sp, #256	; 0x100
852183f0:	e1540005 	cmp	r4, r5
852183f4:	e7823104 	str	r3, [r2, r4, lsl #2]
852183f8:	d3a02000 	movle	r2, #0
852183fc:	c3a02001 	movgt	r2, #1
85218400:	e1590003 	cmp	r9, r3
85218404:	13a02000 	movne	r2, #0
85218408:	e3520000 	cmp	r2, #0
8521840c:	0a000017 	beq	85218470 <shmoo28_read_dqs_dq+0x570>
85218410:	e1a04186 	lsl	r4, r6, #3
85218414:	e59d3048 	ldr	r3, [sp, #72]	; 0x48
85218418:	e2444001 	sub	r4, r4, #1
8521841c:	e3a02000 	mov	r2, #0
85218420:	e2433001 	sub	r3, r3, #1
85218424:	e58d2008 	str	r2, [sp, #8]
85218428:	e58d3000 	str	r3, [sp]
8521842c:	e28d1080 	add	r1, sp, #128	; 0x80
85218430:	e58d2004 	str	r2, [sp, #4]
85218434:	e1a03004 	mov	r3, r4
85218438:	e28d0c01 	add	r0, sp, #256	; 0x100
8521843c:	eb00076f 	bl	8521a200 <shmoo28_filter_find_largest>
85218440:	e3570000 	cmp	r7, #0
85218444:	1a00000b 	bne	85218478 <shmoo28_read_dqs_dq+0x578>
85218448:	e59d3048 	ldr	r3, [sp, #72]	; 0x48
8521844c:	e1a02007 	mov	r2, r7
85218450:	e58d4000 	str	r4, [sp]
85218454:	e28d1080 	add	r1, sp, #128	; 0x80
85218458:	e2433001 	sub	r3, r3, #1
8521845c:	e28d0c01 	add	r0, sp, #256	; 0x100
85218460:	e58d3004 	str	r3, [sp, #4]
85218464:	e1a03007 	mov	r3, r7
85218468:	ebfffb44 	bl	85217180 <shmoo28_print_report>
8521846c:	ea000001 	b	85218478 <shmoo28_read_dqs_dq+0x578>
85218470:	e2844001 	add	r4, r4, #1
85218474:	eaffffbb 	b	85218368 <shmoo28_read_dqs_dq+0x468>
85218478:	e59d3018 	ldr	r3, [sp, #24]
8521847c:	e3a01000 	mov	r1, #0
85218480:	e59d4048 	ldr	r4, [sp, #72]	; 0x48
85218484:	e1a0e001 	mov	lr, r1
85218488:	e2832e43 	add	r2, r3, #1072	; 0x430
8521848c:	e2445001 	sub	r5, r4, #1
85218490:	e2822004 	add	r2, r2, #4
85218494:	e15e0006 	cmp	lr, r6
85218498:	aa00001b 	bge	8521850c <shmoo28_read_dqs_dq+0x60c>
8521849c:	e28d3080 	add	r3, sp, #128	; 0x80
852184a0:	e1a0c002 	mov	ip, r2
852184a4:	e083728e 	add	r7, r3, lr, lsl #5
852184a8:	e3a00000 	mov	r0, #0
852184ac:	e7973100 	ldr	r3, [r7, r0, lsl #2]
852184b0:	e2800001 	add	r0, r0, #1
852184b4:	e59d9028 	ldr	r9, [sp, #40]	; 0x28
852184b8:	e28cc008 	add	ip, ip, #8
852184bc:	e7e93553 	ubfx	r3, r3, #10, #10
852184c0:	e1530004 	cmp	r3, r4
852184c4:	a1a03005 	movge	r3, r5
852184c8:	e353009f 	cmp	r3, #159	; 0x9f
852184cc:	13530000 	cmpne	r3, #0
852184d0:	02811001 	addeq	r1, r1, #1
852184d4:	e3590000 	cmp	r9, #0
852184d8:	16ef9073 	uxtbne	r9, r3
852184dc:	13899801 	orrne	r9, r9, #65536	; 0x10000
852184e0:	150c900c 	strne	r9, [ip, #-12]
852184e4:	e59d9024 	ldr	r9, [sp, #36]	; 0x24
852184e8:	e3590000 	cmp	r9, #0
852184ec:	16ef3073 	uxtbne	r3, r3
852184f0:	13833801 	orrne	r3, r3, #65536	; 0x10000
852184f4:	150c3008 	strne	r3, [ip, #-8]
852184f8:	e3500008 	cmp	r0, #8
852184fc:	1affffea 	bne	852184ac <shmoo28_read_dqs_dq+0x5ac>
85218500:	e28ee001 	add	lr, lr, #1
85218504:	e2822c02 	add	r2, r2, #512	; 0x200
85218508:	eaffffe1 	b	85218494 <shmoo28_read_dqs_dq+0x594>
8521850c:	e3510000 	cmp	r1, #0
85218510:	13a0001c 	movne	r0, #28
85218514:	03a00000 	moveq	r0, #0
85218518:	e28ddd0e 	add	sp, sp, #896	; 0x380
8521851c:	e8bd8ef0 	pop	{r4, r5, r6, r7, r9, sl, fp, pc}
85218520:	8521c1f1 	.word	0x8521c1f1
85218524:	85220e58 	.word	0x85220e58
85218528:	8521c200 	.word	0x8521c200
8521852c:	8521c263 	.word	0x8521c263
85218530:	8521c208 	.word	0x8521c208
85218534:	8521c20e 	.word	0x8521c20e
85218538:	8521c212 	.word	0x8521c212

8521853c <shmoo28_read_enable>:
8521853c:	e92d4ef0 	push	{r4, r5, r6, r7, r9, sl, fp, lr}
85218540:	e24ddc03 	sub	sp, sp, #768	; 0x300
85218544:	e1a04000 	mov	r4, r0
85218548:	e58d3048 	str	r3, [sp, #72]	; 0x48
8521854c:	e59d3324 	ldr	r3, [sp, #804]	; 0x324
85218550:	e58d1040 	str	r1, [sp, #64]	; 0x40
85218554:	e58d2044 	str	r2, [sp, #68]	; 0x44
85218558:	e5930038 	ldr	r0, [r3, #56]	; 0x38
8521855c:	ebfffcd1 	bl	852178a8 <shmoo28_get_bytes_to_tune>
85218560:	e2503000 	subs	r3, r0, #0
85218564:	e58d3018 	str	r3, [sp, #24]
85218568:	03a0004c 	moveq	r0, #76	; 0x4c
8521856c:	0a0001b9 	beq	85218c58 <shmoo28_read_enable+0x71c>
85218570:	e59d3328 	ldr	r3, [sp, #808]	; 0x328
85218574:	e7e03e53 	ubfx	r3, r3, #28, #1
85218578:	e58d3014 	str	r3, [sp, #20]
8521857c:	e3530000 	cmp	r3, #0
85218580:	1a000001 	bne	8521858c <shmoo28_read_enable+0x50>
85218584:	e59f06d4 	ldr	r0, [pc, #1748]	; 85218c60 <shmoo28_read_enable+0x724>
85218588:	ebfffae4 	bl	85217120 <shmoo28_print_str>
8521858c:	e3a03000 	mov	r3, #0
85218590:	e28d2054 	add	r2, sp, #84	; 0x54
85218594:	e28d1050 	add	r1, sp, #80	; 0x50
85218598:	e1a00004 	mov	r0, r4
8521859c:	ebfffac4 	bl	852170b4 <shmoo28_compute_vdl_per_data_ui>
852185a0:	e3500000 	cmp	r0, #0
852185a4:	1a0001ab 	bne	85218c58 <shmoo28_read_enable+0x71c>
852185a8:	e59d3050 	ldr	r3, [sp, #80]	; 0x50
852185ac:	e59d2054 	ldr	r2, [sp, #84]	; 0x54
852185b0:	e58d0058 	str	r0, [sp, #88]	; 0x58
852185b4:	e0832002 	add	r2, r3, r2
852185b8:	e58d005c 	str	r0, [sp, #92]	; 0x5c
852185bc:	e35200a0 	cmp	r2, #160	; 0xa0
852185c0:	a3a020a0 	movge	r2, #160	; 0xa0
852185c4:	e35300a0 	cmp	r3, #160	; 0xa0
852185c8:	e58d201c 	str	r2, [sp, #28]
852185cc:	e3e02000 	mvn	r2, #0
852185d0:	a3a030a0 	movge	r3, #160	; 0xa0
852185d4:	e58d3050 	str	r3, [sp, #80]	; 0x50
852185d8:	e59d3328 	ldr	r3, [sp, #808]	; 0x328
852185dc:	e7e03853 	ubfx	r3, r3, #16, #1
852185e0:	e58d3024 	str	r3, [sp, #36]	; 0x24
852185e4:	e28d3080 	add	r3, sp, #128	; 0x80
852185e8:	e7832100 	str	r2, [r3, r0, lsl #2]
852185ec:	e2800001 	add	r0, r0, #1
852185f0:	e35000a0 	cmp	r0, #160	; 0xa0
852185f4:	1afffffa 	bne	852185e4 <shmoo28_read_enable+0xa8>
852185f8:	e2842e4d 	add	r2, r4, #1232	; 0x4d0
852185fc:	e3a01f8f 	mov	r1, #572	; 0x23c
85218600:	e2822004 	add	r2, r2, #4
85218604:	e3a03000 	mov	r3, #0
85218608:	e58d3060 	str	r3, [sp, #96]	; 0x60
8521860c:	e58d3070 	str	r3, [sp, #112]	; 0x70
85218610:	e58d3064 	str	r3, [sp, #100]	; 0x64
85218614:	e58d3074 	str	r3, [sp, #116]	; 0x74
85218618:	e58d3068 	str	r3, [sp, #104]	; 0x68
8521861c:	e58d3078 	str	r3, [sp, #120]	; 0x78
85218620:	e58d306c 	str	r3, [sp, #108]	; 0x6c
85218624:	e58d307c 	str	r3, [sp, #124]	; 0x7c
85218628:	e59d0018 	ldr	r0, [sp, #24]
8521862c:	e1530000 	cmp	r3, r0
85218630:	b4821200 	strlt	r1, [r2], #512	; 0x200
85218634:	b2833001 	addlt	r3, r3, #1
85218638:	bafffffa 	blt	85218628 <shmoo28_read_enable+0xec>
8521863c:	e59431a8 	ldr	r3, [r4, #424]	; 0x1a8
85218640:	e3833b06 	orr	r3, r3, #6144	; 0x1800
85218644:	e58431a8 	str	r3, [r4, #424]	; 0x1a8
85218648:	e59d3014 	ldr	r3, [sp, #20]
8521864c:	e3530000 	cmp	r3, #0
85218650:	1a000008 	bne	85218678 <shmoo28_read_enable+0x13c>
85218654:	e59f0608 	ldr	r0, [pc, #1544]	; 85218c64 <shmoo28_read_enable+0x728>
85218658:	ebfffab0 	bl	85217120 <shmoo28_print_str>
8521865c:	e59401a8 	ldr	r0, [r4, #424]	; 0x1a8
85218660:	e3a01008 	mov	r1, #8
85218664:	ebfffab5 	bl	85217140 <shmoo28_print_hex>
85218668:	e3a0000a 	mov	r0, #10
8521866c:	ebfffbc4 	bl	85217584 <PUTCHAR>
85218670:	e3a0000d 	mov	r0, #13
85218674:	ebfffbc2 	bl	85217584 <PUTCHAR>
85218678:	e2843e4b 	add	r3, r4, #1200	; 0x4b0
8521867c:	e2833004 	add	r3, r3, #4
85218680:	e58d3034 	str	r3, [sp, #52]	; 0x34
85218684:	e59434b4 	ldr	r3, [r4, #1204]	; 0x4b4
85218688:	e58d3038 	str	r3, [sp, #56]	; 0x38
8521868c:	e59434b8 	ldr	r3, [r4, #1208]	; 0x4b8
85218690:	e58d3028 	str	r3, [sp, #40]	; 0x28
85218694:	e59d3014 	ldr	r3, [sp, #20]
85218698:	e3530000 	cmp	r3, #0
8521869c:	1a000005 	bne	852186b8 <shmoo28_read_enable+0x17c>
852186a0:	e59f05c0 	ldr	r0, [pc, #1472]	; 85218c68 <shmoo28_read_enable+0x72c>
852186a4:	ebfffa9d 	bl	85217120 <shmoo28_print_str>
852186a8:	e3a0000a 	mov	r0, #10
852186ac:	ebfffbb4 	bl	85217584 <PUTCHAR>
852186b0:	e3a0000d 	mov	r0, #13
852186b4:	ebfffbb2 	bl	85217584 <PUTCHAR>
852186b8:	e59d3038 	ldr	r3, [sp, #56]	; 0x38
852186bc:	e3a05000 	mov	r5, #0
852186c0:	e59d7034 	ldr	r7, [sp, #52]	; 0x34
852186c4:	e3c36b1f 	bic	r6, r3, #31744	; 0x7c00
852186c8:	e3866b0f 	orr	r6, r6, #15360	; 0x3c00
852186cc:	e59d3018 	ldr	r3, [sp, #24]
852186d0:	e1550003 	cmp	r5, r3
852186d4:	aa00001f 	bge	85218758 <shmoo28_read_enable+0x21c>
852186d8:	e59d3028 	ldr	r3, [sp, #40]	; 0x28
852186dc:	e5876000 	str	r6, [r7]
852186e0:	e3c3993e 	bic	r9, r3, #1015808	; 0xf8000
852186e4:	e59d3014 	ldr	r3, [sp, #20]
852186e8:	e389991e 	orr	r9, r9, #491520	; 0x78000
852186ec:	e5879004 	str	r9, [r7, #4]
852186f0:	e3530000 	cmp	r3, #0
852186f4:	1a000012 	bne	85218744 <shmoo28_read_enable+0x208>
852186f8:	e59f056c 	ldr	r0, [pc, #1388]	; 85218c6c <shmoo28_read_enable+0x730>
852186fc:	ebfffa87 	bl	85217120 <shmoo28_print_str>
85218700:	e3a01001 	mov	r1, #1
85218704:	e1a00005 	mov	r0, r5
85218708:	ebfffa8c 	bl	85217140 <shmoo28_print_hex>
8521870c:	e59f055c 	ldr	r0, [pc, #1372]	; 85218c70 <shmoo28_read_enable+0x734>
85218710:	ebfffa82 	bl	85217120 <shmoo28_print_str>
85218714:	e3a01008 	mov	r1, #8
85218718:	e59d0028 	ldr	r0, [sp, #40]	; 0x28
8521871c:	ebfffa87 	bl	85217140 <shmoo28_print_hex>
85218720:	e59f0548 	ldr	r0, [pc, #1352]	; 85218c70 <shmoo28_read_enable+0x734>
85218724:	ebfffa7d 	bl	85217120 <shmoo28_print_str>
85218728:	e3a01008 	mov	r1, #8
8521872c:	e1a00009 	mov	r0, r9
85218730:	ebfffa82 	bl	85217140 <shmoo28_print_hex>
85218734:	e3a0000a 	mov	r0, #10
85218738:	ebfffb91 	bl	85217584 <PUTCHAR>
8521873c:	e3a0000d 	mov	r0, #13
85218740:	ebfffb8f 	bl	85217584 <PUTCHAR>
85218744:	e3a0000a 	mov	r0, #10
85218748:	e2855001 	add	r5, r5, #1
8521874c:	ebfffba7 	bl	852175f0 <DELAY_US>
85218750:	e2877c02 	add	r7, r7, #512	; 0x200
85218754:	eaffffdc 	b	852186cc <shmoo28_read_enable+0x190>
85218758:	e2844e47 	add	r4, r4, #1136	; 0x470
8521875c:	e3a05000 	mov	r5, #0
85218760:	e2844008 	add	r4, r4, #8
85218764:	e1a07005 	mov	r7, r5
85218768:	e1a06005 	mov	r6, r5
8521876c:	e59d3018 	ldr	r3, [sp, #24]
85218770:	e1560003 	cmp	r6, r3
85218774:	aa000044 	bge	8521888c <shmoo28_read_enable+0x350>
85218778:	e3a03001 	mov	r3, #1
8521877c:	e3a0b000 	mov	fp, #0
85218780:	e1a03613 	lsl	r3, r3, r6
85218784:	e3a09001 	mov	r9, #1
85218788:	e1a0700b 	mov	r7, fp
8521878c:	e1a0a00b 	mov	sl, fp
85218790:	e58d3020 	str	r3, [sp, #32]
85218794:	e1e03003 	mvn	r3, r3
85218798:	e58d303c 	str	r3, [sp, #60]	; 0x3c
8521879c:	e2843010 	add	r3, r4, #16
852187a0:	e58d3030 	str	r3, [sp, #48]	; 0x30
852187a4:	e5943010 	ldr	r3, [r4, #16]
852187a8:	e38a2801 	orr	r2, sl, #65536	; 0x10000
852187ac:	e3c330f0 	bic	r3, r3, #240	; 0xf0
852187b0:	e183320a 	orr	r3, r3, sl, lsl #4
852187b4:	e3c3300f 	bic	r3, r3, #15
852187b8:	e1823003 	orr	r3, r2, r3
852187bc:	e5843010 	str	r3, [r4, #16]
852187c0:	e3a03000 	mov	r3, #0
852187c4:	e28d1080 	add	r1, sp, #128	; 0x80
852187c8:	e59d0020 	ldr	r0, [sp, #32]
852187cc:	e7912103 	ldr	r2, [r1, r3, lsl #2]
852187d0:	e1822000 	orr	r2, r2, r0
852187d4:	e7812103 	str	r2, [r1, r3, lsl #2]
852187d8:	e2833001 	add	r3, r3, #1
852187dc:	e35300a0 	cmp	r3, #160	; 0xa0
852187e0:	1afffff7 	bne	852187c4 <shmoo28_read_enable+0x288>
852187e4:	e3a05000 	mov	r5, #0
852187e8:	e59d301c 	ldr	r3, [sp, #28]
852187ec:	e1550003 	cmp	r5, r3
852187f0:	aa00009d 	bge	85218a6c <shmoo28_read_enable+0x530>
852187f4:	e3853801 	orr	r3, r5, #65536	; 0x10000
852187f8:	e28d0040 	add	r0, sp, #64	; 0x40
852187fc:	e5843000 	str	r3, [r4]
85218800:	e5843004 	str	r3, [r4, #4]
85218804:	e28d305c 	add	r3, sp, #92	; 0x5c
85218808:	e58d3008 	str	r3, [sp, #8]
8521880c:	e28d3058 	add	r3, sp, #88	; 0x58
85218810:	e58d3004 	str	r3, [sp, #4]
85218814:	e59d3328 	ldr	r3, [sp, #808]	; 0x328
85218818:	e58d502c 	str	r5, [sp, #44]	; 0x2c
8521881c:	e3833e11 	orr	r3, r3, #272	; 0x110
85218820:	e58d3000 	str	r3, [sp]
85218824:	e59d3320 	ldr	r3, [sp, #800]	; 0x320
85218828:	e8900007 	ldm	r0, {r0, r1, r2}
8521882c:	eb0005c9 	bl	85219f58 <shmoo28_mem_test>
85218830:	e58d004c 	str	r0, [sp, #76]	; 0x4c
85218834:	e3a00001 	mov	r0, #1
85218838:	ebfffb6c 	bl	852175f0 <DELAY_US>
8521883c:	e59d104c 	ldr	r1, [sp, #76]	; 0x4c
85218840:	e3510000 	cmp	r1, #0
85218844:	1a000074 	bne	85218a1c <shmoo28_read_enable+0x4e0>
85218848:	e5943028 	ldr	r3, [r4, #40]	; 0x28
8521884c:	e3a02001 	mov	r2, #1
85218850:	e584202c 	str	r2, [r4, #44]	; 0x2c
85218854:	e1a02105 	lsl	r2, r5, #2
85218858:	e2133003 	ands	r3, r3, #3
8521885c:	1a000070 	bne	85218a24 <shmoo28_read_enable+0x4e8>
85218860:	e28d1c03 	add	r1, sp, #768	; 0x300
85218864:	e59d003c 	ldr	r0, [sp, #60]	; 0x3c
85218868:	e0812002 	add	r2, r1, r2
8521886c:	e3590001 	cmp	r9, #1
85218870:	e5121280 	ldr	r1, [r2, #-640]	; 0xfffffd80
85218874:	e0011000 	and	r1, r1, r0
85218878:	e5021280 	str	r1, [r2, #-640]	; 0xfffffd80
8521887c:	1a0000a1 	bne	85218b08 <shmoo28_read_enable+0x5cc>
85218880:	e1a07003 	mov	r7, r3
85218884:	e3a09001 	mov	r9, #1
85218888:	ea000075 	b	85218a64 <shmoo28_read_enable+0x528>
8521888c:	e3a04000 	mov	r4, #0
85218890:	e59d3018 	ldr	r3, [sp, #24]
85218894:	e1540003 	cmp	r4, r3
85218898:	aa000042 	bge	852189a8 <shmoo28_read_enable+0x46c>
8521889c:	e28d0070 	add	r0, sp, #112	; 0x70
852188a0:	e28d1060 	add	r1, sp, #96	; 0x60
852188a4:	e59fc3c8 	ldr	ip, [pc, #968]	; 85218c74 <shmoo28_read_enable+0x738>
852188a8:	e790b104 	ldr	fp, [r0, r4, lsl #2]
852188ac:	e7919104 	ldr	r9, [r1, r4, lsl #2]
852188b0:	e7e93a5b 	ubfx	r3, fp, #20, #10
852188b4:	e085a003 	add	sl, r5, r3
852188b8:	e7e96a59 	ubfx	r6, r9, #20, #10
852188bc:	e1a0250a 	lsl	r2, sl, #10
852188c0:	e00cc002 	and	ip, ip, r2
852188c4:	e3cb2aff 	bic	r2, fp, #1044480	; 0xff000
852188c8:	e3c22b03 	bic	r2, r2, #3072	; 0xc00
852188cc:	e18c2002 	orr	r2, ip, r2
852188d0:	e7802104 	str	r2, [r0, r4, lsl #2]
852188d4:	e3c92aff 	bic	r2, r9, #1044480	; 0xff000
852188d8:	e3c22b03 	bic	r2, r2, #3072	; 0xc00
852188dc:	e1822506 	orr	r2, r2, r6, lsl #10
852188e0:	e7812104 	str	r2, [r1, r4, lsl #2]
852188e4:	e59d2014 	ldr	r2, [sp, #20]
852188e8:	e3520000 	cmp	r2, #0
852188ec:	1a00002b 	bne	852189a0 <shmoo28_read_enable+0x464>
852188f0:	e59f0380 	ldr	r0, [pc, #896]	; 85218c78 <shmoo28_read_enable+0x73c>
852188f4:	e58d3020 	str	r3, [sp, #32]
852188f8:	ebfffa08 	bl	85217120 <shmoo28_print_str>
852188fc:	e3a01001 	mov	r1, #1
85218900:	e1a00004 	mov	r0, r4
85218904:	ebfffa0d 	bl	85217140 <shmoo28_print_hex>
85218908:	e59f036c 	ldr	r0, [pc, #876]	; 85218c7c <shmoo28_read_enable+0x740>
8521890c:	ebfffa03 	bl	85217120 <shmoo28_print_str>
85218910:	e59d3020 	ldr	r3, [sp, #32]
85218914:	e3a01001 	mov	r1, #1
85218918:	e1a00003 	mov	r0, r3
8521891c:	ebfffa07 	bl	85217140 <shmoo28_print_hex>
85218920:	e59f0358 	ldr	r0, [pc, #856]	; 85218c80 <shmoo28_read_enable+0x744>
85218924:	ebfff9fd 	bl	85217120 <shmoo28_print_str>
85218928:	e3a01002 	mov	r1, #2
8521892c:	e1a00006 	mov	r0, r6
85218930:	ebfffa02 	bl	85217140 <shmoo28_print_hex>
85218934:	e59d3024 	ldr	r3, [sp, #36]	; 0x24
85218938:	e3530001 	cmp	r3, #1
8521893c:	1a000009 	bne	85218968 <shmoo28_read_enable+0x42c>
85218940:	e59f033c 	ldr	r0, [pc, #828]	; 85218c84 <shmoo28_read_enable+0x748>
85218944:	ebfff9f5 	bl	85217120 <shmoo28_print_str>
85218948:	e59d1024 	ldr	r1, [sp, #36]	; 0x24
8521894c:	e7e9005b 	ubfx	r0, fp, #0, #10
85218950:	ebfff9fa 	bl	85217140 <shmoo28_print_hex>
85218954:	e59f0324 	ldr	r0, [pc, #804]	; 85218c80 <shmoo28_read_enable+0x744>
85218958:	ebfff9f0 	bl	85217120 <shmoo28_print_str>
8521895c:	e3a01002 	mov	r1, #2
85218960:	e7e90059 	ubfx	r0, r9, #0, #10
85218964:	ebfff9f5 	bl	85217140 <shmoo28_print_hex>
85218968:	e59f0318 	ldr	r0, [pc, #792]	; 85218c88 <shmoo28_read_enable+0x74c>
8521896c:	ebfff9eb 	bl	85217120 <shmoo28_print_str>
85218970:	e3a01001 	mov	r1, #1
85218974:	e1a0000a 	mov	r0, sl
85218978:	ebfff9f0 	bl	85217140 <shmoo28_print_hex>
8521897c:	e59f02fc 	ldr	r0, [pc, #764]	; 85218c80 <shmoo28_read_enable+0x744>
85218980:	ebfff9e6 	bl	85217120 <shmoo28_print_str>
85218984:	e3a01002 	mov	r1, #2
85218988:	e1a00006 	mov	r0, r6
8521898c:	ebfff9eb 	bl	85217140 <shmoo28_print_hex>
85218990:	e3a0000a 	mov	r0, #10
85218994:	ebfffafa 	bl	85217584 <PUTCHAR>
85218998:	e3a0000d 	mov	r0, #13
8521899c:	ebfffaf8 	bl	85217584 <PUTCHAR>
852189a0:	e2844001 	add	r4, r4, #1
852189a4:	eaffffb9 	b	85218890 <shmoo28_read_enable+0x354>
852189a8:	e59d3034 	ldr	r3, [sp, #52]	; 0x34
852189ac:	e3a02000 	mov	r2, #0
852189b0:	e59d1018 	ldr	r1, [sp, #24]
852189b4:	e1520001 	cmp	r2, r1
852189b8:	aa000006 	bge	852189d8 <shmoo28_read_enable+0x49c>
852189bc:	e59d1038 	ldr	r1, [sp, #56]	; 0x38
852189c0:	e2822001 	add	r2, r2, #1
852189c4:	e2833c02 	add	r3, r3, #512	; 0x200
852189c8:	e5031200 	str	r1, [r3, #-512]	; 0xfffffe00
852189cc:	e59d1028 	ldr	r1, [sp, #40]	; 0x28
852189d0:	e50311fc 	str	r1, [r3, #-508]	; 0xfffffe04
852189d4:	eafffff5 	b	852189b0 <shmoo28_read_enable+0x474>
852189d8:	e59d3014 	ldr	r3, [sp, #20]
852189dc:	e3530000 	cmp	r3, #0
852189e0:	1a000009 	bne	85218a0c <shmoo28_read_enable+0x4d0>
852189e4:	e59d301c 	ldr	r3, [sp, #28]
852189e8:	e28d2070 	add	r2, sp, #112	; 0x70
852189ec:	e28d0080 	add	r0, sp, #128	; 0x80
852189f0:	e2433001 	sub	r3, r3, #1
852189f4:	e58d3004 	str	r3, [sp, #4]
852189f8:	e2413001 	sub	r3, r1, #1
852189fc:	e28d1060 	add	r1, sp, #96	; 0x60
85218a00:	e58d3000 	str	r3, [sp]
85218a04:	e59d3014 	ldr	r3, [sp, #20]
85218a08:	ebfff9dc 	bl	85217180 <shmoo28_print_report>
85218a0c:	e3570000 	cmp	r7, #0
85218a10:	03a00000 	moveq	r0, #0
85218a14:	13a00017 	movne	r0, #23
85218a18:	ea00008e 	b	85218c58 <shmoo28_read_enable+0x71c>
85218a1c:	e3a00018 	mov	r0, #24
85218a20:	ea00008c 	b	85218c58 <shmoo28_read_enable+0x71c>
85218a24:	e28d0c03 	add	r0, sp, #768	; 0x300
85218a28:	e59dc020 	ldr	ip, [sp, #32]
85218a2c:	e0802002 	add	r2, r0, r2
85218a30:	e3590001 	cmp	r9, #1
85218a34:	e5120280 	ldr	r0, [r2, #-640]	; 0xfffffd80
85218a38:	e180000c 	orr	r0, r0, ip
85218a3c:	e5020280 	str	r0, [r2, #-640]	; 0xfffffd80
85218a40:	1a000004 	bne	85218a58 <shmoo28_read_enable+0x51c>
85218a44:	e2877001 	add	r7, r7, #1
85218a48:	e3570004 	cmp	r7, #4
85218a4c:	c3a09002 	movgt	r9, #2
85218a50:	ca000002 	bgt	85218a60 <shmoo28_read_enable+0x524>
85218a54:	eaffff8a 	b	85218884 <shmoo28_read_enable+0x348>
85218a58:	e3590002 	cmp	r9, #2
85218a5c:	1a00002b 	bne	85218b10 <shmoo28_read_enable+0x5d4>
85218a60:	e1a07001 	mov	r7, r1
85218a64:	e2855001 	add	r5, r5, #1
85218a68:	eaffff5e 	b	852187e8 <shmoo28_read_enable+0x2ac>
85218a6c:	e28aa001 	add	sl, sl, #1
85218a70:	e59d301c 	ldr	r3, [sp, #28]
85218a74:	e35a0005 	cmp	sl, #5
85218a78:	e08bb003 	add	fp, fp, r3
85218a7c:	1affff46 	bne	8521879c <shmoo28_read_enable+0x260>
85218a80:	e3a07001 	mov	r7, #1
85218a84:	e28d3070 	add	r3, sp, #112	; 0x70
85218a88:	e59d1030 	ldr	r1, [sp, #48]	; 0x30
85218a8c:	e28d2060 	add	r2, sp, #96	; 0x60
85218a90:	e2844c02 	add	r4, r4, #512	; 0x200
85218a94:	e7933106 	ldr	r3, [r3, r6, lsl #2]
85218a98:	e3a05001 	mov	r5, #1
85218a9c:	e5911000 	ldr	r1, [r1]
85218aa0:	e7e93a53 	ubfx	r3, r3, #20, #10
85218aa4:	e7922106 	ldr	r2, [r2, r6, lsl #2]
85218aa8:	e2830001 	add	r0, r3, #1
85218aac:	e3c110ff 	bic	r1, r1, #255	; 0xff
85218ab0:	e200c00f 	and	ip, r0, #15
85218ab4:	e3500001 	cmp	r0, #1
85218ab8:	e181100c 	orr	r1, r1, ip
85218abc:	e1a0c200 	lsl	ip, r0, #4
85218ac0:	12433001 	subne	r3, r3, #1
85218ac4:	03a03000 	moveq	r3, #0
85218ac8:	e6efc07c 	uxtb	ip, ip
85218acc:	e7e72a52 	ubfx	r2, r2, #20, #8
85218ad0:	e38cc801 	orr	ip, ip, #65536	; 0x10000
85218ad4:	e1a03303 	lsl	r3, r3, #6
85218ad8:	e18c1001 	orr	r1, ip, r1
85218adc:	e59dc030 	ldr	ip, [sp, #48]	; 0x30
85218ae0:	e2033d07 	and	r3, r3, #448	; 0x1c0
85218ae4:	e3822801 	orr	r2, r2, #65536	; 0x10000
85218ae8:	e3833f86 	orr	r3, r3, #536	; 0x218
85218aec:	e2866001 	add	r6, r6, #1
85218af0:	e58c1000 	str	r1, [ip]
85218af4:	e3833003 	orr	r3, r3, #3
85218af8:	e5042200 	str	r2, [r4, #-512]	; 0xfffffe00
85218afc:	e50421fc 	str	r2, [r4, #-508]	; 0xfffffe04
85218b00:	e50431a4 	str	r3, [r4, #-420]	; 0xfffffe5c
85218b04:	eaffff18 	b	8521876c <shmoo28_read_enable+0x230>
85218b08:	e3590002 	cmp	r9, #2
85218b0c:	0a000015 	beq	85218b68 <shmoo28_read_enable+0x62c>
85218b10:	e3590003 	cmp	r9, #3
85218b14:	1affffd2 	bne	85218a64 <shmoo28_read_enable+0x528>
85218b18:	e3530000 	cmp	r3, #0
85218b1c:	01a07003 	moveq	r7, r3
85218b20:	0affffcf 	beq	85218a64 <shmoo28_read_enable+0x528>
85218b24:	e2877001 	add	r7, r7, #1
85218b28:	e3570005 	cmp	r7, #5
85218b2c:	1affffcc 	bne	85218a64 <shmoo28_read_enable+0x528>
85218b30:	e28d2070 	add	r2, sp, #112	; 0x70
85218b34:	e355000f 	cmp	r5, #15
85218b38:	c245300f 	subgt	r3, r5, #15
85218b3c:	c58d302c 	strgt	r3, [sp, #44]	; 0x2c
85218b40:	e7923106 	ldr	r3, [r2, r6, lsl #2]
85218b44:	e59d102c 	ldr	r1, [sp, #44]	; 0x2c
85218b48:	e183a00a 	orr	sl, r3, sl
85218b4c:	e782a106 	str	sl, [r2, r6, lsl #2]
85218b50:	e28d2060 	add	r2, sp, #96	; 0x60
85218b54:	e7923106 	ldr	r3, [r2, r6, lsl #2]
85218b58:	e183b001 	orr	fp, r3, r1
85218b5c:	e782b106 	str	fp, [r2, r6, lsl #2]
85218b60:	e3a07000 	mov	r7, #0
85218b64:	eaffffc6 	b	85218a84 <shmoo28_read_enable+0x548>
85218b68:	e2877001 	add	r7, r7, #1
85218b6c:	e58d302c 	str	r3, [sp, #44]	; 0x2c
85218b70:	e357000f 	cmp	r7, #15
85218b74:	1affffba 	bne	85218a64 <shmoo28_read_enable+0x528>
85218b78:	e085900b 	add	r9, r5, fp
85218b7c:	e59d101c 	ldr	r1, [sp, #28]
85218b80:	e249900f 	sub	r9, r9, #15
85218b84:	e1a00009 	mov	r0, r9
85218b88:	ebffd030 	bl	8520cc50 <__aeabi_uidivmod>
85218b8c:	e1a00009 	mov	r0, r9
85218b90:	e1a07001 	mov	r7, r1
85218b94:	e59d101c 	ldr	r1, [sp, #28]
85218b98:	ebffd002 	bl	8520cba8 <__udivsi3>
85218b9c:	e28dc070 	add	ip, sp, #112	; 0x70
85218ba0:	e59f20e4 	ldr	r2, [pc, #228]	; 85218c8c <shmoo28_read_enable+0x750>
85218ba4:	e79c1106 	ldr	r1, [ip, r6, lsl #2]
85218ba8:	e59d302c 	ldr	r3, [sp, #44]	; 0x2c
85218bac:	e3c115ff 	bic	r1, r1, #1069547520	; 0x3fc00000
85218bb0:	e3c11603 	bic	r1, r1, #3145728	; 0x300000
85218bb4:	e1a0ea00 	lsl	lr, r0, #20
85218bb8:	e002200e 	and	r2, r2, lr
85218bbc:	e1a0ea07 	lsl	lr, r7, #20
85218bc0:	e1812002 	orr	r2, r1, r2
85218bc4:	e78c2106 	str	r2, [ip, r6, lsl #2]
85218bc8:	e28dc060 	add	ip, sp, #96	; 0x60
85218bcc:	e59f20b8 	ldr	r2, [pc, #184]	; 85218c8c <shmoo28_read_enable+0x750>
85218bd0:	e79c1106 	ldr	r1, [ip, r6, lsl #2]
85218bd4:	e002200e 	and	r2, r2, lr
85218bd8:	e3c115ff 	bic	r1, r1, #1069547520	; 0x3fc00000
85218bdc:	e3c11603 	bic	r1, r1, #3145728	; 0x300000
85218be0:	e1812002 	orr	r2, r1, r2
85218be4:	e78c2106 	str	r2, [ip, r6, lsl #2]
85218be8:	e24a2001 	sub	r2, sl, #1
85218bec:	e1520000 	cmp	r2, r0
85218bf0:	01a05007 	moveq	r5, r7
85218bf4:	1a000011 	bne	85218c40 <shmoo28_read_enable+0x704>
85218bf8:	e1530007 	cmp	r3, r7
85218bfc:	0a000006 	beq	85218c1c <shmoo28_read_enable+0x6e0>
85218c00:	e28d1080 	add	r1, sp, #128	; 0x80
85218c04:	e59d0020 	ldr	r0, [sp, #32]
85218c08:	e7912103 	ldr	r2, [r1, r3, lsl #2]
85218c0c:	e1822000 	orr	r2, r2, r0
85218c10:	e7812103 	str	r2, [r1, r3, lsl #2]
85218c14:	e2833001 	add	r3, r3, #1
85218c18:	eafffff6 	b	85218bf8 <shmoo28_read_enable+0x6bc>
85218c1c:	e35500a0 	cmp	r5, #160	; 0xa0
85218c20:	0a000006 	beq	85218c40 <shmoo28_read_enable+0x704>
85218c24:	e28d2080 	add	r2, sp, #128	; 0x80
85218c28:	e59d103c 	ldr	r1, [sp, #60]	; 0x3c
85218c2c:	e7923105 	ldr	r3, [r2, r5, lsl #2]
85218c30:	e0033001 	and	r3, r3, r1
85218c34:	e7823105 	str	r3, [r2, r5, lsl #2]
85218c38:	e2855001 	add	r5, r5, #1
85218c3c:	eafffff6 	b	85218c1c <shmoo28_read_enable+0x6e0>
85218c40:	e59d3024 	ldr	r3, [sp, #36]	; 0x24
85218c44:	e3530000 	cmp	r3, #0
85218c48:	0affffc4 	beq	85218b60 <shmoo28_read_enable+0x624>
85218c4c:	e3a09003 	mov	r9, #3
85218c50:	e3a07000 	mov	r7, #0
85218c54:	eaffff82 	b	85218a64 <shmoo28_read_enable+0x528>
85218c58:	e28ddc03 	add	sp, sp, #768	; 0x300
85218c5c:	e8bd8ef0 	pop	{r4, r5, r6, r7, r9, sl, fp, pc}
85218c60:	8521c21b 	.word	0x8521c21b
85218c64:	8521c22b 	.word	0x8521c22b
85218c68:	8521c23e 	.word	0x8521c23e
85218c6c:	8521c262 	.word	0x8521c262
85218c70:	8521c13d 	.word	0x8521c13d
85218c74:	000ffc00 	.word	0x000ffc00
85218c78:	8521c263 	.word	0x8521c263
85218c7c:	8521c265 	.word	0x8521c265
85218c80:	8521c208 	.word	0x8521c208
85218c84:	8521c26f 	.word	0x8521c26f
85218c88:	8521c279 	.word	0x8521c279
85218c8c:	3ff00000 	.word	0x3ff00000

85218c90 <shmoo28_write_dqs_dq>:
85218c90:	e92d4ef0 	push	{r4, r5, r6, r7, r9, sl, fp, lr}
85218c94:	e24dde5f 	sub	sp, sp, #1520	; 0x5f0
85218c98:	e1a06000 	mov	r6, r0
85218c9c:	e3a04000 	mov	r4, #0
85218ca0:	e58d3028 	str	r3, [sp, #40]	; 0x28
85218ca4:	e59d3610 	ldr	r3, [sp, #1552]	; 0x610
85218ca8:	e58d1024 	str	r1, [sp, #36]	; 0x24
85218cac:	e58d201c 	str	r2, [sp, #28]
85218cb0:	e5930038 	ldr	r0, [r3, #56]	; 0x38
85218cb4:	e58d4040 	str	r4, [sp, #64]	; 0x40
85218cb8:	e58d4044 	str	r4, [sp, #68]	; 0x44
85218cbc:	ebfffaf9 	bl	852178a8 <shmoo28_get_bytes_to_tune>
85218cc0:	e2505000 	subs	r5, r0, #0
85218cc4:	03a0004c 	moveq	r0, #76	; 0x4c
85218cc8:	0a00015b 	beq	8521923c <shmoo28_write_dqs_dq+0x5ac>
85218ccc:	e59d3618 	ldr	r3, [sp, #1560]	; 0x618
85218cd0:	e3e01000 	mvn	r1, #0
85218cd4:	e7e03e53 	ubfx	r3, r3, #28, #1
85218cd8:	e58d3018 	str	r3, [sp, #24]
85218cdc:	e1a03004 	mov	r3, r4
85218ce0:	e28d20f0 	add	r2, sp, #240	; 0xf0
85218ce4:	e7821103 	str	r1, [r2, r3, lsl #2]
85218ce8:	e2833001 	add	r3, r3, #1
85218cec:	e3530d05 	cmp	r3, #320	; 0x140
85218cf0:	1afffffa 	bne	85218ce0 <shmoo28_write_dqs_dq+0x50>
85218cf4:	e59d3018 	ldr	r3, [sp, #24]
85218cf8:	e3530000 	cmp	r3, #0
85218cfc:	1a000001 	bne	85218d08 <shmoo28_write_dqs_dq+0x78>
85218d00:	e59f053c 	ldr	r0, [pc, #1340]	; 85219244 <shmoo28_write_dqs_dq+0x5b4>
85218d04:	ebfff905 	bl	85217120 <shmoo28_print_str>
85218d08:	e3a03000 	mov	r3, #0
85218d0c:	e28d2048 	add	r2, sp, #72	; 0x48
85218d10:	e28d104c 	add	r1, sp, #76	; 0x4c
85218d14:	e1a00006 	mov	r0, r6
85218d18:	ebfff8e5 	bl	852170b4 <shmoo28_compute_vdl_per_data_ui>
85218d1c:	e58d003c 	str	r0, [sp, #60]	; 0x3c
85218d20:	e59d303c 	ldr	r3, [sp, #60]	; 0x3c
85218d24:	e3530000 	cmp	r3, #0
85218d28:	159d003c 	ldrne	r0, [sp, #60]	; 0x3c
85218d2c:	1a000142 	bne	8521923c <shmoo28_write_dqs_dq+0x5ac>
85218d30:	e59d3618 	ldr	r3, [sp, #1560]	; 0x618
85218d34:	e3130802 	tst	r3, #131072	; 0x20000
85218d38:	13a03d05 	movne	r3, #320	; 0x140
85218d3c:	1a000004 	bne	85218d54 <shmoo28_write_dqs_dq+0xc4>
85218d40:	e59d2048 	ldr	r2, [sp, #72]	; 0x48
85218d44:	e59d304c 	ldr	r3, [sp, #76]	; 0x4c
85218d48:	e0833002 	add	r3, r3, r2
85218d4c:	e3530d05 	cmp	r3, #320	; 0x140
85218d50:	a3a03d05 	movge	r3, #320	; 0x140
85218d54:	e58d304c 	str	r3, [sp, #76]	; 0x4c
85218d58:	e2863b01 	add	r3, r6, #1024	; 0x400
85218d5c:	e2833004 	add	r3, r3, #4
85218d60:	e3a00000 	mov	r0, #0
85218d64:	e58d3020 	str	r3, [sp, #32]
85218d68:	e1a01003 	mov	r1, r3
85218d6c:	e281c020 	add	ip, r1, #32
85218d70:	e1a02001 	mov	r2, r1
85218d74:	e5923000 	ldr	r3, [r2]
85218d78:	e58d3038 	str	r3, [sp, #56]	; 0x38
85218d7c:	e59d3038 	ldr	r3, [sp, #56]	; 0x38
85218d80:	e3c33f7f 	bic	r3, r3, #508	; 0x1fc
85218d84:	e3c33003 	bic	r3, r3, #3
85218d88:	e58d3038 	str	r3, [sp, #56]	; 0x38
85218d8c:	e59d3038 	ldr	r3, [sp, #56]	; 0x38
85218d90:	e3833801 	orr	r3, r3, #65536	; 0x10000
85218d94:	e58d3038 	str	r3, [sp, #56]	; 0x38
85218d98:	e59d3038 	ldr	r3, [sp, #56]	; 0x38
85218d9c:	e4823004 	str	r3, [r2], #4
85218da0:	e15c0002 	cmp	ip, r2
85218da4:	1afffff2 	bne	85218d74 <shmoo28_write_dqs_dq+0xe4>
85218da8:	e2800001 	add	r0, r0, #1
85218dac:	e2811c02 	add	r1, r1, #512	; 0x200
85218db0:	e1550000 	cmp	r5, r0
85218db4:	1affffec 	bne	85218d6c <shmoo28_write_dqs_dq+0xdc>
85218db8:	e59d3618 	ldr	r3, [sp, #1560]	; 0x618
85218dbc:	e203400f 	and	r4, r3, #15
85218dc0:	e59f3480 	ldr	r3, [pc, #1152]	; 85219248 <shmoo28_write_dqs_dq+0x5b8>
85218dc4:	e5933000 	ldr	r3, [r3]
85218dc8:	e5933024 	ldr	r3, [r3, #36]	; 0x24
85218dcc:	e5d3319c 	ldrb	r3, [r3, #412]	; 0x19c
85218dd0:	e3530000 	cmp	r3, #0
85218dd4:	03844e31 	orreq	r4, r4, #784	; 0x310
85218dd8:	0a000006 	beq	85218df8 <shmoo28_write_dqs_dq+0x168>
85218ddc:	e3530020 	cmp	r3, #32
85218de0:	e3844502 	orr	r4, r4, #8388608	; 0x800000
85218de4:	e3844e31 	orr	r4, r4, #784	; 0x310
85218de8:	a3a03000 	movge	r3, #0
85218dec:	e1a03803 	lsl	r3, r3, #16
85218df0:	e203381f 	and	r3, r3, #2031616	; 0x1f0000
85218df4:	e1834004 	orr	r4, r3, r4
85218df8:	e2863d12 	add	r3, r6, #1152	; 0x480
85218dfc:	e3a0b000 	mov	fp, #0
85218e00:	e1a0a00b 	mov	sl, fp
85218e04:	e58d3030 	str	r3, [sp, #48]	; 0x30
85218e08:	e1a09003 	mov	r9, r3
85218e0c:	e1a0318a 	lsl	r3, sl, #3
85218e10:	e58d302c 	str	r3, [sp, #44]	; 0x2c
85218e14:	e3a03000 	mov	r3, #0
85218e18:	e58d3014 	str	r3, [sp, #20]
85218e1c:	e28d3044 	add	r3, sp, #68	; 0x44
85218e20:	e58d4000 	str	r4, [sp]
85218e24:	e58d3008 	str	r3, [sp, #8]
85218e28:	e28d3040 	add	r3, sp, #64	; 0x40
85218e2c:	e59d2028 	ldr	r2, [sp, #40]	; 0x28
85218e30:	e58d3004 	str	r3, [sp, #4]
85218e34:	e59d101c 	ldr	r1, [sp, #28]
85218e38:	e59d3614 	ldr	r3, [sp, #1556]	; 0x614
85218e3c:	e59d0024 	ldr	r0, [sp, #36]	; 0x24
85218e40:	eb000444 	bl	85219f58 <shmoo28_mem_test>
85218e44:	e3500000 	cmp	r0, #0
85218e48:	0a000001 	beq	85218e54 <shmoo28_write_dqs_dq+0x1c4>
85218e4c:	e3a00020 	mov	r0, #32
85218e50:	ea0000f9 	b	8521923c <shmoo28_write_dqs_dq+0x5ac>
85218e54:	e59d3040 	ldr	r3, [sp, #64]	; 0x40
85218e58:	e59d202c 	ldr	r2, [sp, #44]	; 0x2c
85218e5c:	e1a03233 	lsr	r3, r3, r2
85218e60:	e6ef3073 	uxtb	r3, r3
85218e64:	e35300ff 	cmp	r3, #255	; 0xff
85218e68:	0a000060 	beq	85218ff0 <shmoo28_write_dqs_dq+0x360>
85218e6c:	e5193080 	ldr	r3, [r9, #-128]	; 0xffffff80
85218e70:	e59d2014 	ldr	r2, [sp, #20]
85218e74:	e58d3038 	str	r3, [sp, #56]	; 0x38
85218e78:	e2822001 	add	r2, r2, #1
85218e7c:	e59d3038 	ldr	r3, [sp, #56]	; 0x38
85218e80:	e58d2014 	str	r2, [sp, #20]
85218e84:	e3c33f7f 	bic	r3, r3, #508	; 0x1fc
85218e88:	e3c33003 	bic	r3, r3, #3
85218e8c:	e1833002 	orr	r3, r3, r2
85218e90:	e58d3038 	str	r3, [sp, #56]	; 0x38
85218e94:	e59d3038 	ldr	r3, [sp, #56]	; 0x38
85218e98:	e3833801 	orr	r3, r3, #65536	; 0x10000
85218e9c:	e58d3038 	str	r3, [sp, #56]	; 0x38
85218ea0:	e59d3038 	ldr	r3, [sp, #56]	; 0x38
85218ea4:	e5093080 	str	r3, [r9, #-128]	; 0xffffff80
85218ea8:	e5993000 	ldr	r3, [r9]
85218eac:	e58d3038 	str	r3, [sp, #56]	; 0x38
85218eb0:	e59d3038 	ldr	r3, [sp, #56]	; 0x38
85218eb4:	e7e83053 	ubfx	r3, r3, #0, #9
85218eb8:	e58d303c 	str	r3, [sp, #60]	; 0x3c
85218ebc:	e59d703c 	ldr	r7, [sp, #60]	; 0x3c
85218ec0:	e3570000 	cmp	r7, #0
85218ec4:	1a000034 	bne	85218f9c <shmoo28_write_dqs_dq+0x30c>
85218ec8:	e5963114 	ldr	r3, [r6, #276]	; 0x114
85218ecc:	e58d3038 	str	r3, [sp, #56]	; 0x38
85218ed0:	e59d3038 	ldr	r3, [sp, #56]	; 0x38
85218ed4:	e7e83053 	ubfx	r3, r3, #0, #9
85218ed8:	e58d303c 	str	r3, [sp, #60]	; 0x3c
85218edc:	e59d303c 	ldr	r3, [sp, #60]	; 0x3c
85218ee0:	e3530d05 	cmp	r3, #320	; 0x140
85218ee4:	2a0000d1 	bcs	85219230 <shmoo28_write_dqs_dq+0x5a0>
85218ee8:	e59d2618 	ldr	r2, [sp, #1560]	; 0x618
85218eec:	e1a00006 	mov	r0, r6
85218ef0:	e59d303c 	ldr	r3, [sp, #60]	; 0x3c
85218ef4:	e59d101c 	ldr	r1, [sp, #28]
85218ef8:	e2833001 	add	r3, r3, #1
85218efc:	e58d2000 	str	r2, [sp]
85218f00:	e3a02f45 	mov	r2, #276	; 0x114
85218f04:	e58d303c 	str	r3, [sp, #60]	; 0x3c
85218f08:	ebfff936 	bl	852173e8 <shmoo28_safe_clock_vdl_update>
85218f0c:	e59d3030 	ldr	r3, [sp, #48]	; 0x30
85218f10:	e15a0007 	cmp	sl, r7
85218f14:	0a00001a 	beq	85218f84 <shmoo28_write_dqs_dq+0x2f4>
85218f18:	e5932000 	ldr	r2, [r3]
85218f1c:	e58d2038 	str	r2, [sp, #56]	; 0x38
85218f20:	e59d2038 	ldr	r2, [sp, #56]	; 0x38
85218f24:	e7e82052 	ubfx	r2, r2, #0, #9
85218f28:	e58d203c 	str	r2, [sp, #60]	; 0x3c
85218f2c:	e59d203c 	ldr	r2, [sp, #60]	; 0x3c
85218f30:	e3520d05 	cmp	r2, #320	; 0x140
85218f34:	2a0000bf 	bcs	85219238 <shmoo28_write_dqs_dq+0x5a8>
85218f38:	e59d1038 	ldr	r1, [sp, #56]	; 0x38
85218f3c:	e1a00003 	mov	r0, r3
85218f40:	e59d203c 	ldr	r2, [sp, #60]	; 0x3c
85218f44:	e3c11f7f 	bic	r1, r1, #508	; 0x1fc
85218f48:	e58d3034 	str	r3, [sp, #52]	; 0x34
85218f4c:	e2822001 	add	r2, r2, #1
85218f50:	e3c11003 	bic	r1, r1, #3
85218f54:	e58d203c 	str	r2, [sp, #60]	; 0x3c
85218f58:	e7e82052 	ubfx	r2, r2, #0, #9
85218f5c:	e1812002 	orr	r2, r1, r2
85218f60:	e58d2038 	str	r2, [sp, #56]	; 0x38
85218f64:	e59d2038 	ldr	r2, [sp, #56]	; 0x38
85218f68:	e3822801 	orr	r2, r2, #65536	; 0x10000
85218f6c:	e58d2038 	str	r2, [sp, #56]	; 0x38
85218f70:	e59d2038 	ldr	r2, [sp, #56]	; 0x38
85218f74:	e4802004 	str	r2, [r0], #4
85218f78:	e59d103c 	ldr	r1, [sp, #60]	; 0x3c
85218f7c:	eb0000b2 	bl	8521924c <shmoo28_ddr3_write_leveling_adjust_lde>
85218f80:	e59d3034 	ldr	r3, [sp, #52]	; 0x34
85218f84:	e2877001 	add	r7, r7, #1
85218f88:	e2833c02 	add	r3, r3, #512	; 0x200
85218f8c:	e1550007 	cmp	r5, r7
85218f90:	8affffde 	bhi	85218f10 <shmoo28_write_dqs_dq+0x280>
85218f94:	e28bb001 	add	fp, fp, #1
85218f98:	ea000010 	b	85218fe0 <shmoo28_write_dqs_dq+0x350>
85218f9c:	e59d2038 	ldr	r2, [sp, #56]	; 0x38
85218fa0:	e1a00009 	mov	r0, r9
85218fa4:	e59d303c 	ldr	r3, [sp, #60]	; 0x3c
85218fa8:	e3c22f7f 	bic	r2, r2, #508	; 0x1fc
85218fac:	e2433001 	sub	r3, r3, #1
85218fb0:	e3c22003 	bic	r2, r2, #3
85218fb4:	e58d303c 	str	r3, [sp, #60]	; 0x3c
85218fb8:	e7e83053 	ubfx	r3, r3, #0, #9
85218fbc:	e1823003 	orr	r3, r2, r3
85218fc0:	e58d3038 	str	r3, [sp, #56]	; 0x38
85218fc4:	e59d3038 	ldr	r3, [sp, #56]	; 0x38
85218fc8:	e3833801 	orr	r3, r3, #65536	; 0x10000
85218fcc:	e58d3038 	str	r3, [sp, #56]	; 0x38
85218fd0:	e59d3038 	ldr	r3, [sp, #56]	; 0x38
85218fd4:	e4803004 	str	r3, [r0], #4
85218fd8:	e59d103c 	ldr	r1, [sp, #60]	; 0x3c
85218fdc:	eb00009a 	bl	8521924c <shmoo28_ddr3_write_leveling_adjust_lde>
85218fe0:	e59d3014 	ldr	r3, [sp, #20]
85218fe4:	e3c44010 	bic	r4, r4, #16
85218fe8:	e3530d05 	cmp	r3, #320	; 0x140
85218fec:	1affff8a 	bne	85218e1c <shmoo28_write_dqs_dq+0x18c>
85218ff0:	e28aa001 	add	sl, sl, #1
85218ff4:	e2899c02 	add	r9, r9, #512	; 0x200
85218ff8:	e155000a 	cmp	r5, sl
85218ffc:	1affff82 	bne	85218e0c <shmoo28_write_dqs_dq+0x17c>
85219000:	e35b0000 	cmp	fp, #0
85219004:	0a000006 	beq	85219024 <shmoo28_write_dqs_dq+0x394>
85219008:	e59f3238 	ldr	r3, [pc, #568]	; 85219248 <shmoo28_write_dqs_dq+0x5b8>
8521900c:	e1a02006 	mov	r2, r6
85219010:	e3a01000 	mov	r1, #0
85219014:	e5930000 	ldr	r0, [r3]
85219018:	e3a03001 	mov	r3, #1
8521901c:	e5900024 	ldr	r0, [r0, #36]	; 0x24
85219020:	ebfff2d4 	bl	85215b78 <ddr34_phy_dram_init>
85219024:	e59d904c 	ldr	r9, [sp, #76]	; 0x4c
85219028:	e3550001 	cmp	r5, #1
8521902c:	e3c44010 	bic	r4, r4, #16
85219030:	03a0a0ff 	moveq	sl, #255	; 0xff
85219034:	e0899fa9 	add	r9, r9, r9, lsr #31
85219038:	e1a090c9 	asr	r9, r9, #1
8521903c:	0a000005 	beq	85219058 <shmoo28_write_dqs_dq+0x3c8>
85219040:	e3550002 	cmp	r5, #2
85219044:	030fafff 	movweq	sl, #65535	; 0xffff
85219048:	0a000002 	beq	85219058 <shmoo28_write_dqs_dq+0x3c8>
8521904c:	e3550003 	cmp	r5, #3
85219050:	13e0a000 	mvnne	sl, #0
85219054:	03e0a4ff 	mvneq	sl, #-16777216	; 0xff000000
85219058:	e28db040 	add	fp, sp, #64	; 0x40
8521905c:	e3a07000 	mov	r7, #0
85219060:	e59d304c 	ldr	r3, [sp, #76]	; 0x4c
85219064:	e1570003 	cmp	r7, r3
85219068:	aa00002a 	bge	85219118 <shmoo28_write_dqs_dq+0x488>
8521906c:	e59d1020 	ldr	r1, [sp, #32]
85219070:	e7e8e057 	ubfx	lr, r7, #0, #9
85219074:	e3a00000 	mov	r0, #0
85219078:	e281c020 	add	ip, r1, #32
8521907c:	e1a02001 	mov	r2, r1
85219080:	e5923000 	ldr	r3, [r2]
85219084:	e58d3038 	str	r3, [sp, #56]	; 0x38
85219088:	e59d3038 	ldr	r3, [sp, #56]	; 0x38
8521908c:	e3c33f7f 	bic	r3, r3, #508	; 0x1fc
85219090:	e3c33003 	bic	r3, r3, #3
85219094:	e183300e 	orr	r3, r3, lr
85219098:	e58d3038 	str	r3, [sp, #56]	; 0x38
8521909c:	e59d3038 	ldr	r3, [sp, #56]	; 0x38
852190a0:	e3833801 	orr	r3, r3, #65536	; 0x10000
852190a4:	e58d3038 	str	r3, [sp, #56]	; 0x38
852190a8:	e59d3038 	ldr	r3, [sp, #56]	; 0x38
852190ac:	e4823004 	str	r3, [r2], #4
852190b0:	e15c0002 	cmp	ip, r2
852190b4:	1afffff1 	bne	85219080 <shmoo28_write_dqs_dq+0x3f0>
852190b8:	e2800001 	add	r0, r0, #1
852190bc:	e2811c02 	add	r1, r1, #512	; 0x200
852190c0:	e1550000 	cmp	r5, r0
852190c4:	1affffeb 	bne	85219078 <shmoo28_write_dqs_dq+0x3e8>
852190c8:	e28d3044 	add	r3, sp, #68	; 0x44
852190cc:	e88d0810 	stm	sp, {r4, fp}
852190d0:	e58d3008 	str	r3, [sp, #8]
852190d4:	e59d2028 	ldr	r2, [sp, #40]	; 0x28
852190d8:	e59d3614 	ldr	r3, [sp, #1556]	; 0x614
852190dc:	e59d101c 	ldr	r1, [sp, #28]
852190e0:	e59d0024 	ldr	r0, [sp, #36]	; 0x24
852190e4:	eb00039b 	bl	85219f58 <shmoo28_mem_test>
852190e8:	e3500000 	cmp	r0, #0
852190ec:	1affff56 	bne	85218e4c <shmoo28_write_dqs_dq+0x1bc>
852190f0:	e59d3040 	ldr	r3, [sp, #64]	; 0x40
852190f4:	e28d20f0 	add	r2, sp, #240	; 0xf0
852190f8:	e1570009 	cmp	r7, r9
852190fc:	e7823107 	str	r3, [r2, r7, lsl #2]
85219100:	d3a02000 	movle	r2, #0
85219104:	c3a02001 	movgt	r2, #1
85219108:	e15a0003 	cmp	sl, r3
8521910c:	13a02000 	movne	r2, #0
85219110:	e3520000 	cmp	r2, #0
85219114:	0a000018 	beq	8521917c <shmoo28_write_dqs_dq+0x4ec>
85219118:	e1a04185 	lsl	r4, r5, #3
8521911c:	e3a02000 	mov	r2, #0
85219120:	e3a03010 	mov	r3, #16
85219124:	e2444001 	sub	r4, r4, #1
85219128:	e98d000c 	stmib	sp, {r2, r3}
8521912c:	e28d1050 	add	r1, sp, #80	; 0x50
85219130:	e59d304c 	ldr	r3, [sp, #76]	; 0x4c
85219134:	e28d00f0 	add	r0, sp, #240	; 0xf0
85219138:	e2433001 	sub	r3, r3, #1
8521913c:	e58d3000 	str	r3, [sp]
85219140:	e1a03004 	mov	r3, r4
85219144:	eb00042d 	bl	8521a200 <shmoo28_filter_find_largest>
85219148:	e59d3018 	ldr	r3, [sp, #24]
8521914c:	e3530000 	cmp	r3, #0
85219150:	1a00000b 	bne	85219184 <shmoo28_write_dqs_dq+0x4f4>
85219154:	e59d304c 	ldr	r3, [sp, #76]	; 0x4c
85219158:	e28d1050 	add	r1, sp, #80	; 0x50
8521915c:	e58d4000 	str	r4, [sp]
85219160:	e28d00f0 	add	r0, sp, #240	; 0xf0
85219164:	e2433001 	sub	r3, r3, #1
85219168:	e58d3004 	str	r3, [sp, #4]
8521916c:	e59d3018 	ldr	r3, [sp, #24]
85219170:	e1a02003 	mov	r2, r3
85219174:	ebfff801 	bl	85217180 <shmoo28_print_report>
85219178:	ea000001 	b	85219184 <shmoo28_write_dqs_dq+0x4f4>
8521917c:	e2877001 	add	r7, r7, #1
85219180:	eaffffb6 	b	85219060 <shmoo28_write_dqs_dq+0x3d0>
85219184:	e59de04c 	ldr	lr, [sp, #76]	; 0x4c
85219188:	e2861e42 	add	r1, r6, #1056	; 0x420
8521918c:	e3a00000 	mov	r0, #0
85219190:	e2811004 	add	r1, r1, #4
85219194:	e24e9001 	sub	r9, lr, #1
85219198:	e1a0c000 	mov	ip, r0
8521919c:	e3a07e1e 	mov	r7, #480	; 0x1e0
852191a0:	e300a13f 	movw	sl, #319	; 0x13f
852191a4:	e0246c97 	mla	r4, r7, ip, r6
852191a8:	e2412020 	sub	r2, r1, #32
852191ac:	e0643002 	rsb	r3, r4, r2
852191b0:	e28db050 	add	fp, sp, #80	; 0x50
852191b4:	e08b3003 	add	r3, fp, r3
852191b8:	e592b000 	ldr	fp, [r2]
852191bc:	e5133404 	ldr	r3, [r3, #-1028]	; 0xfffffbfc
852191c0:	e58db038 	str	fp, [sp, #56]	; 0x38
852191c4:	e59db038 	ldr	fp, [sp, #56]	; 0x38
852191c8:	e7e93553 	ubfx	r3, r3, #10, #10
852191cc:	e153000e 	cmp	r3, lr
852191d0:	e3cbbf7f 	bic	fp, fp, #508	; 0x1fc
852191d4:	a1a03009 	movge	r3, r9
852191d8:	e3cbb003 	bic	fp, fp, #3
852191dc:	e153000a 	cmp	r3, sl
852191e0:	13530000 	cmpne	r3, #0
852191e4:	e7e83053 	ubfx	r3, r3, #0, #9
852191e8:	e18b3003 	orr	r3, fp, r3
852191ec:	e58d3038 	str	r3, [sp, #56]	; 0x38
852191f0:	e59d3038 	ldr	r3, [sp, #56]	; 0x38
852191f4:	02800001 	addeq	r0, r0, #1
852191f8:	e3833801 	orr	r3, r3, #65536	; 0x10000
852191fc:	e58d3038 	str	r3, [sp, #56]	; 0x38
85219200:	e59d3038 	ldr	r3, [sp, #56]	; 0x38
85219204:	e4823004 	str	r3, [r2], #4
85219208:	e1520001 	cmp	r2, r1
8521920c:	1affffe6 	bne	852191ac <shmoo28_write_dqs_dq+0x51c>
85219210:	e28cc001 	add	ip, ip, #1
85219214:	e2821c02 	add	r1, r2, #512	; 0x200
85219218:	e155000c 	cmp	r5, ip
8521921c:	1affffe0 	bne	852191a4 <shmoo28_write_dqs_dq+0x514>
85219220:	e3500000 	cmp	r0, #0
85219224:	03a00000 	moveq	r0, #0
85219228:	13a00021 	movne	r0, #33	; 0x21
8521922c:	ea000002 	b	8521923c <shmoo28_write_dqs_dq+0x5ac>
85219230:	e3a0001e 	mov	r0, #30
85219234:	ea000000 	b	8521923c <shmoo28_write_dqs_dq+0x5ac>
85219238:	e3a0001f 	mov	r0, #31
8521923c:	e28dde5f 	add	sp, sp, #1520	; 0x5f0
85219240:	e8bd8ef0 	pop	{r4, r5, r6, r7, r9, sl, fp, pc}
85219244:	8521c283 	.word	0x8521c283
85219248:	85220e58 	.word	0x85220e58

8521924c <shmoo28_ddr3_write_leveling_adjust_lde>:
8521924c:	e2813008 	add	r3, r1, #8
85219250:	e2811002 	add	r1, r1, #2
85219254:	e0831141 	add	r1, r3, r1, asr #2
85219258:	e0811243 	add	r1, r1, r3, asr #4
8521925c:	e7e83051 	ubfx	r3, r1, #0, #9
85219260:	e3833801 	orr	r3, r3, #65536	; 0x10000
85219264:	e5803000 	str	r3, [r0]
85219268:	e1a00001 	mov	r0, r1
8521926c:	e12fff1e 	bx	lr

85219270 <shmoo28_write_leveling>:
85219270:	e92d4ef0 	push	{r4, r5, r6, r7, r9, sl, fp, lr}
85219274:	e24dde57 	sub	sp, sp, #1392	; 0x570
85219278:	e1a04000 	mov	r4, r0
8521927c:	e5920038 	ldr	r0, [r2, #56]	; 0x38
85219280:	e58d3024 	str	r3, [sp, #36]	; 0x24
85219284:	e58d1028 	str	r1, [sp, #40]	; 0x28
85219288:	e58d2020 	str	r2, [sp, #32]
8521928c:	e5925068 	ldr	r5, [r2, #104]	; 0x68
85219290:	e592620c 	ldr	r6, [r2, #524]	; 0x20c
85219294:	ebfff983 	bl	852178a8 <shmoo28_get_bytes_to_tune>
85219298:	e2503000 	subs	r3, r0, #0
8521929c:	e58d3014 	str	r3, [sp, #20]
852192a0:	03a0004c 	moveq	r0, #76	; 0x4c
852192a4:	0a000177 	beq	85219888 <shmoo28_write_leveling+0x618>
852192a8:	e3a03000 	mov	r3, #0
852192ac:	e3e01000 	mvn	r1, #0
852192b0:	e28d2070 	add	r2, sp, #112	; 0x70
852192b4:	e7821103 	str	r1, [r2, r3, lsl #2]
852192b8:	e2833001 	add	r3, r3, #1
852192bc:	e3530d05 	cmp	r3, #320	; 0x140
852192c0:	1afffffa 	bne	852192b0 <shmoo28_write_leveling+0x40>
852192c4:	e3a03000 	mov	r3, #0
852192c8:	e1a02003 	mov	r2, r3
852192cc:	e59d1014 	ldr	r1, [sp, #20]
852192d0:	e28d7050 	add	r7, sp, #80	; 0x50
852192d4:	e1530001 	cmp	r3, r1
852192d8:	b28d1060 	addlt	r1, sp, #96	; 0x60
852192dc:	b7872103 	strlt	r2, [r7, r3, lsl #2]
852192e0:	b7812103 	strlt	r2, [r1, r3, lsl #2]
852192e4:	b2833001 	addlt	r3, r3, #1
852192e8:	bafffff7 	blt	852192cc <shmoo28_write_leveling+0x5c>
852192ec:	e3a03000 	mov	r3, #0
852192f0:	e247200c 	sub	r2, r7, #12
852192f4:	e28d1040 	add	r1, sp, #64	; 0x40
852192f8:	e1a00004 	mov	r0, r4
852192fc:	ebfff76c 	bl	852170b4 <shmoo28_compute_vdl_per_data_ui>
85219300:	e3500000 	cmp	r0, #0
85219304:	1a00015f 	bne	85219888 <shmoo28_write_leveling+0x618>
85219308:	e59d3024 	ldr	r3, [sp, #36]	; 0x24
8521930c:	e59d2044 	ldr	r2, [sp, #68]	; 0x44
85219310:	e7e03e53 	ubfx	r3, r3, #28, #1
85219314:	e58d3010 	str	r3, [sp, #16]
85219318:	e59d3040 	ldr	r3, [sp, #64]	; 0x40
8521931c:	e0833002 	add	r3, r3, r2
85219320:	e3530d05 	cmp	r3, #320	; 0x140
85219324:	a3a03d05 	movge	r3, #320	; 0x140
85219328:	e58d3040 	str	r3, [sp, #64]	; 0x40
8521932c:	e59d3010 	ldr	r3, [sp, #16]
85219330:	e3530000 	cmp	r3, #0
85219334:	1a00000e 	bne	85219374 <shmoo28_write_leveling+0x104>
85219338:	e59f0550 	ldr	r0, [pc, #1360]	; 85219890 <shmoo28_write_leveling+0x620>
8521933c:	ebfff777 	bl	85217120 <shmoo28_print_str>
85219340:	e59f054c 	ldr	r0, [pc, #1356]	; 85219894 <shmoo28_write_leveling+0x624>
85219344:	ebfff775 	bl	85217120 <shmoo28_print_str>
85219348:	e3a01002 	mov	r1, #2
8521934c:	e59d0040 	ldr	r0, [sp, #64]	; 0x40
85219350:	ebfff77a 	bl	85217140 <shmoo28_print_hex>
85219354:	e3a0000a 	mov	r0, #10
85219358:	ebfff889 	bl	85217584 <PUTCHAR>
8521935c:	e3a0000d 	mov	r0, #13
85219360:	ebfff887 	bl	85217584 <PUTCHAR>
85219364:	e3a0000a 	mov	r0, #10
85219368:	ebfff885 	bl	85217584 <PUTCHAR>
8521936c:	e3a0000d 	mov	r0, #13
85219370:	ebfff883 	bl	85217584 <PUTCHAR>
85219374:	e2473008 	sub	r3, r7, #8
85219378:	e3a02000 	mov	r2, #0
8521937c:	e3a00001 	mov	r0, #1
85219380:	e58d302c 	str	r3, [sp, #44]	; 0x2c
85219384:	e1a01003 	mov	r1, r3
85219388:	ebfff62d 	bl	85216c44 <shmoo28_acquire_dfi>
8521938c:	e3500000 	cmp	r0, #0
85219390:	1a00013c 	bne	85219888 <shmoo28_write_leveling+0x618>
85219394:	e594314c 	ldr	r3, [r4, #332]	; 0x14c
85219398:	e1a02005 	mov	r2, r5
8521939c:	e3a00001 	mov	r0, #1
852193a0:	e58d300c 	str	r3, [sp, #12]
852193a4:	e3833080 	orr	r3, r3, #128	; 0x80
852193a8:	e58d3018 	str	r3, [sp, #24]
852193ac:	e59431a8 	ldr	r3, [r4, #424]	; 0x1a8
852193b0:	e59d1018 	ldr	r1, [sp, #24]
852193b4:	e58d3030 	str	r3, [sp, #48]	; 0x30
852193b8:	e3a03b06 	mov	r3, #6144	; 0x1800
852193bc:	e58431a8 	str	r3, [r4, #424]	; 0x1a8
852193c0:	e1a03004 	mov	r3, r4
852193c4:	ebfff1d3 	bl	85215b18 <ddr34_phy_write_mrs>
852193c8:	e2169003 	ands	r9, r6, #3
852193cc:	e2843f5d 	add	r3, r4, #372	; 0x174
852193d0:	e58d301c 	str	r3, [sp, #28]
852193d4:	e3003f01 	movw	r3, #3841	; 0xf01
852193d8:	e5843174 	str	r3, [r4, #372]	; 0x174
852193dc:	1a000081 	bne	852195e8 <shmoo28_write_leveling+0x378>
852193e0:	e59d3024 	ldr	r3, [sp, #36]	; 0x24
852193e4:	e3130002 	tst	r3, #2
852193e8:	0a00007e 	beq	852195e8 <shmoo28_write_leveling+0x378>
852193ec:	e7e46656 	ubfx	r6, r6, #12, #5
852193f0:	e5947114 	ldr	r7, [r4, #276]	; 0x114
852193f4:	e3560000 	cmp	r6, #0
852193f8:	e1a0a009 	mov	sl, r9
852193fc:	e7e87057 	ubfx	r7, r7, #0, #9
85219400:	03a0600c 	moveq	r6, #12
85219404:	e59d3040 	ldr	r3, [sp, #64]	; 0x40
85219408:	e15a0003 	cmp	sl, r3
8521940c:	aa000033 	bge	852194e0 <shmoo28_write_leveling+0x270>
85219410:	e1a03004 	mov	r3, r4
85219414:	e1a02005 	mov	r2, r5
85219418:	e59d100c 	ldr	r1, [sp, #12]
8521941c:	e3a00001 	mov	r0, #1
85219420:	ebfff1bc 	bl	85215b18 <ddr34_phy_write_mrs>
85219424:	e59d3024 	ldr	r3, [sp, #36]	; 0x24
85219428:	e3a02f45 	mov	r2, #276	; 0x114
8521942c:	e59d1028 	ldr	r1, [sp, #40]	; 0x28
85219430:	e1a00004 	mov	r0, r4
85219434:	e1a0b00a 	mov	fp, sl
85219438:	e58d3000 	str	r3, [sp]
8521943c:	e1a0300a 	mov	r3, sl
85219440:	ebfff7e8 	bl	852173e8 <shmoo28_safe_clock_vdl_update>
85219444:	e1a03004 	mov	r3, r4
85219448:	e1a02005 	mov	r2, r5
8521944c:	e59d1018 	ldr	r1, [sp, #24]
85219450:	e3a00001 	mov	r0, #1
85219454:	ebfff1af 	bl	85215b18 <ddr34_phy_write_mrs>
85219458:	e59d301c 	ldr	r3, [sp, #28]
8521945c:	e59d201c 	ldr	r2, [sp, #28]
85219460:	e2841f5e 	add	r1, r4, #376	; 0x178
85219464:	e5933000 	ldr	r3, [r3]
85219468:	e3833004 	orr	r3, r3, #4
8521946c:	e5823000 	str	r3, [r2]
85219470:	e5943178 	ldr	r3, [r4, #376]	; 0x178
85219474:	e59f241c 	ldr	r2, [pc, #1052]	; 85219898 <shmoo28_write_leveling+0x628>
85219478:	e2030001 	and	r0, r3, #1
8521947c:	e3500000 	cmp	r0, #0
85219480:	1a00000c 	bne	852194b8 <shmoo28_write_leveling+0x248>
85219484:	e3a00001 	mov	r0, #1
85219488:	e58d2038 	str	r2, [sp, #56]	; 0x38
8521948c:	e58d1034 	str	r1, [sp, #52]	; 0x34
85219490:	ebfff856 	bl	852175f0 <DELAY_US>
85219494:	e59d2038 	ldr	r2, [sp, #56]	; 0x38
85219498:	e59d1034 	ldr	r1, [sp, #52]	; 0x34
8521949c:	e2522001 	subs	r2, r2, #1
852194a0:	1a000001 	bne	852194ac <shmoo28_write_leveling+0x23c>
852194a4:	e3a00015 	mov	r0, #21
852194a8:	ea0000f6 	b	85219888 <shmoo28_write_leveling+0x618>
852194ac:	e5913000 	ldr	r3, [r1]
852194b0:	e2030001 	and	r0, r3, #1
852194b4:	eafffff0 	b	8521947c <shmoo28_write_leveling+0x20c>
852194b8:	e7e83253 	ubfx	r3, r3, #4, #9
852194bc:	e3530000 	cmp	r3, #0
852194c0:	1a000003 	bne	852194d4 <shmoo28_write_leveling+0x264>
852194c4:	e2899001 	add	r9, r9, #1
852194c8:	e1560009 	cmp	r6, r9
852194cc:	1a000001 	bne	852194d8 <shmoo28_write_leveling+0x268>
852194d0:	ea0000d2 	b	85219820 <shmoo28_write_leveling+0x5b0>
852194d4:	e3a09000 	mov	r9, #0
852194d8:	e28aa001 	add	sl, sl, #1
852194dc:	eaffffc8 	b	85219404 <shmoo28_write_leveling+0x194>
852194e0:	e59d3010 	ldr	r3, [sp, #16]
852194e4:	e3530000 	cmp	r3, #0
852194e8:	1a00001d 	bne	85219564 <shmoo28_write_leveling+0x2f4>
852194ec:	e1590006 	cmp	r9, r6
852194f0:	0a000003 	beq	85219504 <shmoo28_write_leveling+0x294>
852194f4:	e59f03a0 	ldr	r0, [pc, #928]	; 8521989c <shmoo28_write_leveling+0x62c>
852194f8:	e1a0b007 	mov	fp, r7
852194fc:	ebfff707 	bl	85217120 <shmoo28_print_str>
85219500:	ea000005 	b	8521951c <shmoo28_write_leveling+0x2ac>
85219504:	e1a0b007 	mov	fp, r7
85219508:	e59f0390 	ldr	r0, [pc, #912]	; 852198a0 <shmoo28_write_leveling+0x630>
8521950c:	ebfff703 	bl	85217120 <shmoo28_print_str>
85219510:	e3a01003 	mov	r1, #3
85219514:	e1a0000a 	mov	r0, sl
85219518:	ebfff708 	bl	85217140 <shmoo28_print_hex>
8521951c:	e59f0380 	ldr	r0, [pc, #896]	; 852198a4 <shmoo28_write_leveling+0x634>
85219520:	ebfff6fe 	bl	85217120 <shmoo28_print_str>
85219524:	e3a01002 	mov	r1, #2
85219528:	e1a00006 	mov	r0, r6
8521952c:	ebfff703 	bl	85217140 <shmoo28_print_hex>
85219530:	e59f0370 	ldr	r0, [pc, #880]	; 852198a8 <shmoo28_write_leveling+0x638>
85219534:	ebfff6f9 	bl	85217120 <shmoo28_print_str>
85219538:	e3a01003 	mov	r1, #3
8521953c:	e1a00007 	mov	r0, r7
85219540:	e1a0700b 	mov	r7, fp
85219544:	ebfff6fd 	bl	85217140 <shmoo28_print_hex>
85219548:	e59f035c 	ldr	r0, [pc, #860]	; 852198ac <shmoo28_write_leveling+0x63c>
8521954c:	ebfff6f3 	bl	85217120 <shmoo28_print_str>
85219550:	e3a01003 	mov	r1, #3
85219554:	e1a0000b 	mov	r0, fp
85219558:	ebfff6f8 	bl	85217140 <shmoo28_print_hex>
8521955c:	e59f034c 	ldr	r0, [pc, #844]	; 852198b0 <shmoo28_write_leveling+0x640>
85219560:	ebfff6ee 	bl	85217120 <shmoo28_print_str>
85219564:	e1a03004 	mov	r3, r4
85219568:	e1a02005 	mov	r2, r5
8521956c:	e59d100c 	ldr	r1, [sp, #12]
85219570:	e3a00001 	mov	r0, #1
85219574:	ebfff167 	bl	85215b18 <ddr34_phy_write_mrs>
85219578:	e59d3024 	ldr	r3, [sp, #36]	; 0x24
8521957c:	e3a02f45 	mov	r2, #276	; 0x114
85219580:	e59d1028 	ldr	r1, [sp, #40]	; 0x28
85219584:	e1a00004 	mov	r0, r4
85219588:	e58d3000 	str	r3, [sp]
8521958c:	e1a03007 	mov	r3, r7
85219590:	ebfff794 	bl	852173e8 <shmoo28_safe_clock_vdl_update>
85219594:	e1a03004 	mov	r3, r4
85219598:	e1a02005 	mov	r2, r5
8521959c:	e59d1018 	ldr	r1, [sp, #24]
852195a0:	e3a00001 	mov	r0, #1
852195a4:	ebfff15b 	bl	85215b18 <ddr34_phy_write_mrs>
852195a8:	e3a03000 	mov	r3, #0
852195ac:	e1a01003 	mov	r1, r3
852195b0:	e1a02004 	mov	r2, r4
852195b4:	e59d0020 	ldr	r0, [sp, #32]
852195b8:	ebfff16e 	bl	85215b78 <ddr34_phy_dram_init>
852195bc:	e3a02000 	mov	r2, #0
852195c0:	e59d102c 	ldr	r1, [sp, #44]	; 0x2c
852195c4:	e3a00001 	mov	r0, #1
852195c8:	ebfff59d 	bl	85216c44 <shmoo28_acquire_dfi>
852195cc:	e3500000 	cmp	r0, #0
852195d0:	1a0000ac 	bne	85219888 <shmoo28_write_leveling+0x618>
852195d4:	e1a03004 	mov	r3, r4
852195d8:	e1a02005 	mov	r2, r5
852195dc:	e59d1018 	ldr	r1, [sp, #24]
852195e0:	e3a00001 	mov	r0, #1
852195e4:	ebfff14b 	bl	85215b18 <ddr34_phy_write_mrs>
852195e8:	e3a03000 	mov	r3, #0
852195ec:	e2849d12 	add	r9, r4, #1152	; 0x480
852195f0:	e1a07003 	mov	r7, r3
852195f4:	e58d3018 	str	r3, [sp, #24]
852195f8:	e59d3014 	ldr	r3, [sp, #20]
852195fc:	e1570003 	cmp	r7, r3
85219600:	aa000042 	bge	85219710 <shmoo28_write_leveling+0x4a0>
85219604:	e3a03001 	mov	r3, #1
85219608:	e3a0b000 	mov	fp, #0
8521960c:	e1a03713 	lsl	r3, r3, r7
85219610:	e1a0a00b 	mov	sl, fp
85219614:	e58d3024 	str	r3, [sp, #36]	; 0x24
85219618:	e1e03003 	mvn	r3, r3
8521961c:	e58d302c 	str	r3, [sp, #44]	; 0x2c
85219620:	e2893004 	add	r3, r9, #4
85219624:	e58d3028 	str	r3, [sp, #40]	; 0x28
85219628:	e3a06000 	mov	r6, #0
8521962c:	e38a3801 	orr	r3, sl, #65536	; 0x10000
85219630:	e589300c 	str	r3, [r9, #12]
85219634:	e59d3040 	ldr	r3, [sp, #64]	; 0x40
85219638:	e1560003 	cmp	r6, r3
8521963c:	aa000088 	bge	85219864 <shmoo28_write_leveling+0x5f4>
85219640:	e7e83056 	ubfx	r3, r6, #0, #9
85219644:	e1a01006 	mov	r1, r6
85219648:	e3833801 	orr	r3, r3, #65536	; 0x10000
8521964c:	e59d0028 	ldr	r0, [sp, #40]	; 0x28
85219650:	e5893000 	str	r3, [r9]
85219654:	e58d3020 	str	r3, [sp, #32]
85219658:	ebfffefb 	bl	8521924c <shmoo28_ddr3_write_leveling_adjust_lde>
8521965c:	e3a03010 	mov	r3, #16
85219660:	e59d201c 	ldr	r2, [sp, #28]
85219664:	e59d101c 	ldr	r1, [sp, #28]
85219668:	e5922000 	ldr	r2, [r2]
8521966c:	e3822004 	orr	r2, r2, #4
85219670:	e5812000 	str	r2, [r1]
85219674:	e5940178 	ldr	r0, [r4, #376]	; 0x178
85219678:	e2841f5e 	add	r1, r4, #376	; 0x178
8521967c:	e59f2214 	ldr	r2, [pc, #532]	; 85219898 <shmoo28_write_leveling+0x628>
85219680:	e2000001 	and	r0, r0, #1
85219684:	e3500000 	cmp	r0, #0
85219688:	1a00000c 	bne	852196c0 <shmoo28_write_leveling+0x450>
8521968c:	e3a00001 	mov	r0, #1
85219690:	e58d2038 	str	r2, [sp, #56]	; 0x38
85219694:	e58d303c 	str	r3, [sp, #60]	; 0x3c
85219698:	e58d1034 	str	r1, [sp, #52]	; 0x34
8521969c:	ebfff7d3 	bl	852175f0 <DELAY_US>
852196a0:	e59d2038 	ldr	r2, [sp, #56]	; 0x38
852196a4:	e2522001 	subs	r2, r2, #1
852196a8:	0affff7d 	beq	852194a4 <shmoo28_write_leveling+0x234>
852196ac:	e59d1034 	ldr	r1, [sp, #52]	; 0x34
852196b0:	e59d303c 	ldr	r3, [sp, #60]	; 0x3c
852196b4:	e5910000 	ldr	r0, [r1]
852196b8:	e2000001 	and	r0, r0, #1
852196bc:	eafffff0 	b	85219684 <shmoo28_write_leveling+0x414>
852196c0:	e2533001 	subs	r3, r3, #1
852196c4:	1affffe5 	bne	85219660 <shmoo28_write_leveling+0x3f0>
852196c8:	e5913000 	ldr	r3, [r1]
852196cc:	e28d1070 	add	r1, sp, #112	; 0x70
852196d0:	e7e83253 	ubfx	r3, r3, #4, #9
852196d4:	e7912106 	ldr	r2, [r1, r6, lsl #2]
852196d8:	e1a03753 	asr	r3, r3, r7
852196dc:	e2133001 	ands	r3, r3, #1
852196e0:	059d0024 	ldreq	r0, [sp, #36]	; 0x24
852196e4:	159d002c 	ldrne	r0, [sp, #44]	; 0x2c
852196e8:	01822000 	orreq	r2, r2, r0
852196ec:	10022000 	andne	r2, r2, r0
852196f0:	e3530000 	cmp	r3, #0
852196f4:	e7812106 	str	r2, [r1, r6, lsl #2]
852196f8:	028bb001 	addeq	fp, fp, #1
852196fc:	0a000001 	beq	85219708 <shmoo28_write_leveling+0x498>
85219700:	ea00004b 	b	85219834 <shmoo28_write_leveling+0x5c4>
85219704:	e3a0b000 	mov	fp, #0
85219708:	e2866001 	add	r6, r6, #1
8521970c:	eaffffc8 	b	85219634 <shmoo28_write_leveling+0x3c4>
85219710:	e1a03004 	mov	r3, r4
85219714:	e1a02005 	mov	r2, r5
85219718:	e59d100c 	ldr	r1, [sp, #12]
8521971c:	e3a00001 	mov	r0, #1
85219720:	ebfff0fc 	bl	85215b18 <ddr34_phy_write_mrs>
85219724:	e3a00001 	mov	r0, #1
85219728:	ebfff7b0 	bl	852175f0 <DELAY_US>
8521972c:	e1a03004 	mov	r3, r4
85219730:	e1a02005 	mov	r2, r5
85219734:	e59d100c 	ldr	r1, [sp, #12]
85219738:	e3a00001 	mov	r0, #1
8521973c:	ebfff0f5 	bl	85215b18 <ddr34_phy_write_mrs>
85219740:	e3a00001 	mov	r0, #1
85219744:	ebfff7a9 	bl	852175f0 <DELAY_US>
85219748:	e1a03004 	mov	r3, r4
8521974c:	e1a02005 	mov	r2, r5
85219750:	e59d100c 	ldr	r1, [sp, #12]
85219754:	e3a00001 	mov	r0, #1
85219758:	ebfff0ee 	bl	85215b18 <ddr34_phy_write_mrs>
8521975c:	e3a00001 	mov	r0, #1
85219760:	ebfff7a2 	bl	852175f0 <DELAY_US>
85219764:	e5943174 	ldr	r3, [r4, #372]	; 0x174
85219768:	e3a02000 	mov	r2, #0
8521976c:	e59d0048 	ldr	r0, [sp, #72]	; 0x48
85219770:	e3c33001 	bic	r3, r3, #1
85219774:	e5843174 	str	r3, [r4, #372]	; 0x174
85219778:	e59d3030 	ldr	r3, [sp, #48]	; 0x30
8521977c:	e3c33a01 	bic	r3, r3, #4096	; 0x1000
85219780:	e3833b02 	orr	r3, r3, #2048	; 0x800
85219784:	e58431a8 	str	r3, [r4, #424]	; 0x1a8
85219788:	e28d4050 	add	r4, sp, #80	; 0x50
8521978c:	e2441004 	sub	r1, r4, #4
85219790:	ebfff52b 	bl	85216c44 <shmoo28_acquire_dfi>
85219794:	e3a03000 	mov	r3, #0
85219798:	e59d2014 	ldr	r2, [sp, #20]
8521979c:	e1530002 	cmp	r3, r2
852197a0:	aa00000c 	bge	852197d8 <shmoo28_write_leveling+0x568>
852197a4:	e28d0060 	add	r0, sp, #96	; 0x60
852197a8:	e59f2104 	ldr	r2, [pc, #260]	; 852198b4 <shmoo28_write_leveling+0x644>
852197ac:	e7901103 	ldr	r1, [r0, r3, lsl #2]
852197b0:	e1a01501 	lsl	r1, r1, #10
852197b4:	e0022001 	and	r2, r2, r1
852197b8:	e7941103 	ldr	r1, [r4, r3, lsl #2]
852197bc:	e7802103 	str	r2, [r0, r3, lsl #2]
852197c0:	e59f20ec 	ldr	r2, [pc, #236]	; 852198b4 <shmoo28_write_leveling+0x644>
852197c4:	e1a01501 	lsl	r1, r1, #10
852197c8:	e0022001 	and	r2, r2, r1
852197cc:	e7842103 	str	r2, [r4, r3, lsl #2]
852197d0:	e2833001 	add	r3, r3, #1
852197d4:	eaffffef 	b	85219798 <shmoo28_write_leveling+0x528>
852197d8:	e59d3010 	ldr	r3, [sp, #16]
852197dc:	e3530000 	cmp	r3, #0
852197e0:	1a000009 	bne	8521980c <shmoo28_write_leveling+0x59c>
852197e4:	e59d3040 	ldr	r3, [sp, #64]	; 0x40
852197e8:	e28d1060 	add	r1, sp, #96	; 0x60
852197ec:	e28d0070 	add	r0, sp, #112	; 0x70
852197f0:	e2433001 	sub	r3, r3, #1
852197f4:	e58d3004 	str	r3, [sp, #4]
852197f8:	e2423001 	sub	r3, r2, #1
852197fc:	e1a02004 	mov	r2, r4
85219800:	e58d3000 	str	r3, [sp]
85219804:	e59d3010 	ldr	r3, [sp, #16]
85219808:	ebfff65c 	bl	85217180 <shmoo28_print_report>
8521980c:	e59d3018 	ldr	r3, [sp, #24]
85219810:	e3530000 	cmp	r3, #0
85219814:	13a00016 	movne	r0, #22
85219818:	03a00000 	moveq	r0, #0
8521981c:	ea000019 	b	85219888 <shmoo28_write_leveling+0x618>
85219820:	e59d3010 	ldr	r3, [sp, #16]
85219824:	e3530000 	cmp	r3, #0
85219828:	11a0700a 	movne	r7, sl
8521982c:	1affff4c 	bne	85219564 <shmoo28_write_leveling+0x2f4>
85219830:	eaffff34 	b	85219508 <shmoo28_write_leveling+0x298>
85219834:	e35b0002 	cmp	fp, #2
85219838:	daffffb1 	ble	85219704 <shmoo28_write_leveling+0x494>
8521983c:	e28d3060 	add	r3, sp, #96	; 0x60
85219840:	e1a01006 	mov	r1, r6
85219844:	e59d0028 	ldr	r0, [sp, #40]	; 0x28
85219848:	e7836107 	str	r6, [r3, r7, lsl #2]
8521984c:	e28d3050 	add	r3, sp, #80	; 0x50
85219850:	e783a107 	str	sl, [r3, r7, lsl #2]
85219854:	e59d3020 	ldr	r3, [sp, #32]
85219858:	e5893000 	str	r3, [r9]
8521985c:	ebfffe7a 	bl	8521924c <shmoo28_ddr3_write_leveling_adjust_lde>
85219860:	ea000005 	b	8521987c <shmoo28_write_leveling+0x60c>
85219864:	e28aa001 	add	sl, sl, #1
85219868:	e35a0005 	cmp	sl, #5
8521986c:	1affff6d 	bne	85219628 <shmoo28_write_leveling+0x3b8>
85219870:	e59d3018 	ldr	r3, [sp, #24]
85219874:	e2833001 	add	r3, r3, #1
85219878:	e58d3018 	str	r3, [sp, #24]
8521987c:	e2877001 	add	r7, r7, #1
85219880:	e2899c02 	add	r9, r9, #512	; 0x200
85219884:	eaffff5b 	b	852195f8 <shmoo28_write_leveling+0x388>
85219888:	e28dde57 	add	sp, sp, #1392	; 0x570
8521988c:	e8bd8ef0 	pop	{r4, r5, r6, r7, r9, sl, fp, pc}
85219890:	8521c293 	.word	0x8521c293
85219894:	8521c2a2 	.word	0x8521c2a2
85219898:	0007a121 	.word	0x0007a121
8521989c:	8521c2b4 	.word	0x8521c2b4
852198a0:	8521c2d4 	.word	0x8521c2d4
852198a4:	8521c2e7 	.word	0x8521c2e7
852198a8:	8521c2f1 	.word	0x8521c2f1
852198ac:	8521c30f 	.word	0x8521c30f
852198b0:	8521c326 	.word	0x8521c326
852198b4:	000ffc00 	.word	0x000ffc00

852198b8 <shmoo28_write_dqs_dm>:
852198b8:	e92d4ef0 	push	{r4, r5, r6, r7, r9, sl, fp, lr}
852198bc:	e24dde56 	sub	sp, sp, #1376	; 0x560
852198c0:	e24dd008 	sub	sp, sp, #8
852198c4:	e58d3028 	str	r3, [sp, #40]	; 0x28
852198c8:	e3a03000 	mov	r3, #0
852198cc:	e58d3044 	str	r3, [sp, #68]	; 0x44
852198d0:	e58d3048 	str	r3, [sp, #72]	; 0x48
852198d4:	e59d3588 	ldr	r3, [sp, #1416]	; 0x588
852198d8:	e58d0010 	str	r0, [sp, #16]
852198dc:	e58d1024 	str	r1, [sp, #36]	; 0x24
852198e0:	e5930038 	ldr	r0, [r3, #56]	; 0x38
852198e4:	e58d2014 	str	r2, [sp, #20]
852198e8:	ebfff7ee 	bl	852178a8 <shmoo28_get_bytes_to_tune>
852198ec:	e2505000 	subs	r5, r0, #0
852198f0:	03a0004c 	moveq	r0, #76	; 0x4c
852198f4:	0a000191 	beq	85219f40 <shmoo28_write_dqs_dm+0x688>
852198f8:	e59d3590 	ldr	r3, [sp, #1424]	; 0x590
852198fc:	e7e03e53 	ubfx	r3, r3, #28, #1
85219900:	e58d3020 	str	r3, [sp, #32]
85219904:	e3530000 	cmp	r3, #0
85219908:	1a000001 	bne	85219914 <shmoo28_write_dqs_dm+0x5c>
8521990c:	e59f0638 	ldr	r0, [pc, #1592]	; 85219f4c <shmoo28_write_dqs_dm+0x694>
85219910:	ebfff602 	bl	85217120 <shmoo28_print_str>
85219914:	e3a03000 	mov	r3, #0
85219918:	e3e01000 	mvn	r1, #0
8521991c:	e28d2068 	add	r2, sp, #104	; 0x68
85219920:	e7821103 	str	r1, [r2, r3, lsl #2]
85219924:	e2833001 	add	r3, r3, #1
85219928:	e3530d05 	cmp	r3, #320	; 0x140
8521992c:	1afffffa 	bne	8521991c <shmoo28_write_dqs_dm+0x64>
85219930:	e59d3020 	ldr	r3, [sp, #32]
85219934:	e3530000 	cmp	r3, #0
85219938:	1a000001 	bne	85219944 <shmoo28_write_dqs_dm+0x8c>
8521993c:	e59f060c 	ldr	r0, [pc, #1548]	; 85219f50 <shmoo28_write_dqs_dm+0x698>
85219940:	ebfff5f6 	bl	85217120 <shmoo28_print_str>
85219944:	e3a03000 	mov	r3, #0
85219948:	e28d204c 	add	r2, sp, #76	; 0x4c
8521994c:	e28d1050 	add	r1, sp, #80	; 0x50
85219950:	e59d0010 	ldr	r0, [sp, #16]
85219954:	ebfff5d6 	bl	852170b4 <shmoo28_compute_vdl_per_data_ui>
85219958:	e58d0040 	str	r0, [sp, #64]	; 0x40
8521995c:	e59d3040 	ldr	r3, [sp, #64]	; 0x40
85219960:	e3530000 	cmp	r3, #0
85219964:	159d0040 	ldrne	r0, [sp, #64]	; 0x40
85219968:	1a000174 	bne	85219f40 <shmoo28_write_dqs_dm+0x688>
8521996c:	e59d3590 	ldr	r3, [sp, #1424]	; 0x590
85219970:	e3130802 	tst	r3, #131072	; 0x20000
85219974:	13a03d05 	movne	r3, #320	; 0x140
85219978:	1a000004 	bne	85219990 <shmoo28_write_dqs_dm+0xd8>
8521997c:	e59d204c 	ldr	r2, [sp, #76]	; 0x4c
85219980:	e59d3050 	ldr	r3, [sp, #80]	; 0x50
85219984:	e0833002 	add	r3, r3, r2
85219988:	e3530d05 	cmp	r3, #320	; 0x140
8521998c:	a3a03d05 	movge	r3, #320	; 0x140
85219990:	e58d3050 	str	r3, [sp, #80]	; 0x50
85219994:	e59d3590 	ldr	r3, [sp, #1424]	; 0x590
85219998:	e203300f 	and	r3, r3, #15
8521999c:	e3832050 	orr	r2, r3, #80	; 0x50
852199a0:	e3833e33 	orr	r3, r3, #816	; 0x330
852199a4:	e58d301c 	str	r3, [sp, #28]
852199a8:	e59f35a4 	ldr	r3, [pc, #1444]	; 85219f54 <shmoo28_write_dqs_dm+0x69c>
852199ac:	e58d2018 	str	r2, [sp, #24]
852199b0:	e5933000 	ldr	r3, [r3]
852199b4:	e5933024 	ldr	r3, [r3, #36]	; 0x24
852199b8:	e5d3319c 	ldrb	r3, [r3, #412]	; 0x19c
852199bc:	e3530000 	cmp	r3, #0
852199c0:	0a000009 	beq	852199ec <shmoo28_write_dqs_dm+0x134>
852199c4:	e3530020 	cmp	r3, #32
852199c8:	a3a03000 	movge	r3, #0
852199cc:	e1a03803 	lsl	r3, r3, #16
852199d0:	e203381f 	and	r3, r3, #2031616	; 0x1f0000
852199d4:	e3833502 	orr	r3, r3, #8388608	; 0x800000
852199d8:	e1822003 	orr	r2, r2, r3
852199dc:	e58d2018 	str	r2, [sp, #24]
852199e0:	e59d201c 	ldr	r2, [sp, #28]
852199e4:	e1823003 	orr	r3, r2, r3
852199e8:	e58d301c 	str	r3, [sp, #28]
852199ec:	e59d3010 	ldr	r3, [sp, #16]
852199f0:	e3a06000 	mov	r6, #0
852199f4:	e283ae42 	add	sl, r3, #1056	; 0x420
852199f8:	e28aa004 	add	sl, sl, #4
852199fc:	e1a0400a 	mov	r4, sl
85219a00:	e1a0100a 	mov	r1, sl
85219a04:	e3a02000 	mov	r2, #0
85219a08:	e5913000 	ldr	r3, [r1]
85219a0c:	e2822001 	add	r2, r2, #1
85219a10:	e1550002 	cmp	r5, r2
85219a14:	e58d303c 	str	r3, [sp, #60]	; 0x3c
85219a18:	e59d303c 	ldr	r3, [sp, #60]	; 0x3c
85219a1c:	e3c33f7f 	bic	r3, r3, #508	; 0x1fc
85219a20:	e3c33003 	bic	r3, r3, #3
85219a24:	e58d303c 	str	r3, [sp, #60]	; 0x3c
85219a28:	e59d303c 	ldr	r3, [sp, #60]	; 0x3c
85219a2c:	e3833801 	orr	r3, r3, #65536	; 0x10000
85219a30:	e58d303c 	str	r3, [sp, #60]	; 0x3c
85219a34:	e59d303c 	ldr	r3, [sp, #60]	; 0x3c
85219a38:	e4813200 	str	r3, [r1], #512	; 0x200
85219a3c:	1afffff1 	bne	85219a08 <shmoo28_write_dqs_dm+0x150>
85219a40:	e3a09000 	mov	r9, #0
85219a44:	e1a03186 	lsl	r3, r6, #3
85219a48:	e58d302c 	str	r3, [sp, #44]	; 0x2c
85219a4c:	e5143024 	ldr	r3, [r4, #-36]	; 0xffffffdc
85219a50:	e2447024 	sub	r7, r4, #36	; 0x24
85219a54:	e59d2028 	ldr	r2, [sp, #40]	; 0x28
85219a58:	e59d1014 	ldr	r1, [sp, #20]
85219a5c:	e58d303c 	str	r3, [sp, #60]	; 0x3c
85219a60:	e59d303c 	ldr	r3, [sp, #60]	; 0x3c
85219a64:	e59d0024 	ldr	r0, [sp, #36]	; 0x24
85219a68:	e7e83053 	ubfx	r3, r3, #0, #9
85219a6c:	e58d3040 	str	r3, [sp, #64]	; 0x40
85219a70:	e28d3048 	add	r3, sp, #72	; 0x48
85219a74:	e58d3008 	str	r3, [sp, #8]
85219a78:	e28d3044 	add	r3, sp, #68	; 0x44
85219a7c:	e58d3004 	str	r3, [sp, #4]
85219a80:	e59d3018 	ldr	r3, [sp, #24]
85219a84:	e58d3000 	str	r3, [sp]
85219a88:	e59d358c 	ldr	r3, [sp, #1420]	; 0x58c
85219a8c:	eb000131 	bl	85219f58 <shmoo28_mem_test>
85219a90:	e3500000 	cmp	r0, #0
85219a94:	0a000001 	beq	85219aa0 <shmoo28_write_dqs_dm+0x1e8>
85219a98:	e3a00026 	mov	r0, #38	; 0x26
85219a9c:	ea000127 	b	85219f40 <shmoo28_write_dqs_dm+0x688>
85219aa0:	e28d3048 	add	r3, sp, #72	; 0x48
85219aa4:	e58d3008 	str	r3, [sp, #8]
85219aa8:	e28d3044 	add	r3, sp, #68	; 0x44
85219aac:	e58d3004 	str	r3, [sp, #4]
85219ab0:	e59d301c 	ldr	r3, [sp, #28]
85219ab4:	e59d2028 	ldr	r2, [sp, #40]	; 0x28
85219ab8:	e59d1014 	ldr	r1, [sp, #20]
85219abc:	e58d3000 	str	r3, [sp]
85219ac0:	e59d0024 	ldr	r0, [sp, #36]	; 0x24
85219ac4:	e59d358c 	ldr	r3, [sp, #1420]	; 0x58c
85219ac8:	eb000122 	bl	85219f58 <shmoo28_mem_test>
85219acc:	e3500000 	cmp	r0, #0
85219ad0:	1afffff0 	bne	85219a98 <shmoo28_write_dqs_dm+0x1e0>
85219ad4:	e59d3044 	ldr	r3, [sp, #68]	; 0x44
85219ad8:	e59d202c 	ldr	r2, [sp, #44]	; 0x2c
85219adc:	e1a03233 	lsr	r3, r3, r2
85219ae0:	e31300ff 	tst	r3, #255	; 0xff
85219ae4:	1a000079 	bne	85219cd0 <shmoo28_write_dqs_dm+0x418>
85219ae8:	e59d2040 	ldr	r2, [sp, #64]	; 0x40
85219aec:	e59d3050 	ldr	r3, [sp, #80]	; 0x50
85219af0:	e1520003 	cmp	r2, r3
85219af4:	2a00010a 	bcs	85219f24 <shmoo28_write_dqs_dm+0x66c>
85219af8:	e59d203c 	ldr	r2, [sp, #60]	; 0x3c
85219afc:	e2441020 	sub	r1, r4, #32
85219b00:	e59d3040 	ldr	r3, [sp, #64]	; 0x40
85219b04:	e3c22f7f 	bic	r2, r2, #508	; 0x1fc
85219b08:	e2833001 	add	r3, r3, #1
85219b0c:	e3c22003 	bic	r2, r2, #3
85219b10:	e58d3040 	str	r3, [sp, #64]	; 0x40
85219b14:	e7e83053 	ubfx	r3, r3, #0, #9
85219b18:	e1823003 	orr	r3, r2, r3
85219b1c:	e58d303c 	str	r3, [sp, #60]	; 0x3c
85219b20:	e59d303c 	ldr	r3, [sp, #60]	; 0x3c
85219b24:	e3833801 	orr	r3, r3, #65536	; 0x10000
85219b28:	e58d303c 	str	r3, [sp, #60]	; 0x3c
85219b2c:	e59d303c 	ldr	r3, [sp, #60]	; 0x3c
85219b30:	e5873000 	str	r3, [r7]
85219b34:	e5913000 	ldr	r3, [r1]
85219b38:	e58d303c 	str	r3, [sp, #60]	; 0x3c
85219b3c:	e59d303c 	ldr	r3, [sp, #60]	; 0x3c
85219b40:	e7e83053 	ubfx	r3, r3, #0, #9
85219b44:	e58d3040 	str	r3, [sp, #64]	; 0x40
85219b48:	e59d3040 	ldr	r3, [sp, #64]	; 0x40
85219b4c:	e3530d05 	cmp	r3, #320	; 0x140
85219b50:	2a0000f5 	bcs	85219f2c <shmoo28_write_dqs_dm+0x674>
85219b54:	e59d203c 	ldr	r2, [sp, #60]	; 0x3c
85219b58:	e59d3040 	ldr	r3, [sp, #64]	; 0x40
85219b5c:	e3c22f7f 	bic	r2, r2, #508	; 0x1fc
85219b60:	e2833001 	add	r3, r3, #1
85219b64:	e3c22003 	bic	r2, r2, #3
85219b68:	e58d3040 	str	r3, [sp, #64]	; 0x40
85219b6c:	e7e83053 	ubfx	r3, r3, #0, #9
85219b70:	e1823003 	orr	r3, r2, r3
85219b74:	e58d303c 	str	r3, [sp, #60]	; 0x3c
85219b78:	e59d303c 	ldr	r3, [sp, #60]	; 0x3c
85219b7c:	e3833801 	orr	r3, r3, #65536	; 0x10000
85219b80:	e58d303c 	str	r3, [sp, #60]	; 0x3c
85219b84:	e59d303c 	ldr	r3, [sp, #60]	; 0x3c
85219b88:	e4813004 	str	r3, [r1], #4
85219b8c:	e1510004 	cmp	r1, r4
85219b90:	1affffe7 	bne	85219b34 <shmoo28_write_dqs_dm+0x27c>
85219b94:	e594305c 	ldr	r3, [r4, #92]	; 0x5c
85219b98:	e58d303c 	str	r3, [sp, #60]	; 0x3c
85219b9c:	e59d303c 	ldr	r3, [sp, #60]	; 0x3c
85219ba0:	e7e83053 	ubfx	r3, r3, #0, #9
85219ba4:	e58d3040 	str	r3, [sp, #64]	; 0x40
85219ba8:	e59d7040 	ldr	r7, [sp, #64]	; 0x40
85219bac:	e3570000 	cmp	r7, #0
85219bb0:	1a000034 	bne	85219c88 <shmoo28_write_dqs_dm+0x3d0>
85219bb4:	e59d3010 	ldr	r3, [sp, #16]
85219bb8:	e5933114 	ldr	r3, [r3, #276]	; 0x114
85219bbc:	e58d303c 	str	r3, [sp, #60]	; 0x3c
85219bc0:	e59d303c 	ldr	r3, [sp, #60]	; 0x3c
85219bc4:	e7e83053 	ubfx	r3, r3, #0, #9
85219bc8:	e58d3040 	str	r3, [sp, #64]	; 0x40
85219bcc:	e59d3040 	ldr	r3, [sp, #64]	; 0x40
85219bd0:	e3530d05 	cmp	r3, #320	; 0x140
85219bd4:	2a0000d6 	bcs	85219f34 <shmoo28_write_dqs_dm+0x67c>
85219bd8:	e59d2590 	ldr	r2, [sp, #1424]	; 0x590
85219bdc:	e59d3040 	ldr	r3, [sp, #64]	; 0x40
85219be0:	e59d1014 	ldr	r1, [sp, #20]
85219be4:	e2833001 	add	r3, r3, #1
85219be8:	e58d2000 	str	r2, [sp]
85219bec:	e59d0010 	ldr	r0, [sp, #16]
85219bf0:	e3a02f45 	mov	r2, #276	; 0x114
85219bf4:	e58d3040 	str	r3, [sp, #64]	; 0x40
85219bf8:	ebfff5fa 	bl	852173e8 <shmoo28_safe_clock_vdl_update>
85219bfc:	e59d3010 	ldr	r3, [sp, #16]
85219c00:	e283bd12 	add	fp, r3, #1152	; 0x480
85219c04:	e1570006 	cmp	r7, r6
85219c08:	0a000018 	beq	85219c70 <shmoo28_write_dqs_dm+0x3b8>
85219c0c:	e59b3000 	ldr	r3, [fp]
85219c10:	e58d303c 	str	r3, [sp, #60]	; 0x3c
85219c14:	e59d303c 	ldr	r3, [sp, #60]	; 0x3c
85219c18:	e7e83053 	ubfx	r3, r3, #0, #9
85219c1c:	e58d3040 	str	r3, [sp, #64]	; 0x40
85219c20:	e59d3040 	ldr	r3, [sp, #64]	; 0x40
85219c24:	e3530d05 	cmp	r3, #320	; 0x140
85219c28:	2a0000c3 	bcs	85219f3c <shmoo28_write_dqs_dm+0x684>
85219c2c:	e59d203c 	ldr	r2, [sp, #60]	; 0x3c
85219c30:	e1a0000b 	mov	r0, fp
85219c34:	e59d3040 	ldr	r3, [sp, #64]	; 0x40
85219c38:	e3c22f7f 	bic	r2, r2, #508	; 0x1fc
85219c3c:	e2833001 	add	r3, r3, #1
85219c40:	e3c22003 	bic	r2, r2, #3
85219c44:	e58d3040 	str	r3, [sp, #64]	; 0x40
85219c48:	e7e83053 	ubfx	r3, r3, #0, #9
85219c4c:	e1823003 	orr	r3, r2, r3
85219c50:	e58d303c 	str	r3, [sp, #60]	; 0x3c
85219c54:	e59d303c 	ldr	r3, [sp, #60]	; 0x3c
85219c58:	e3833801 	orr	r3, r3, #65536	; 0x10000
85219c5c:	e58d303c 	str	r3, [sp, #60]	; 0x3c
85219c60:	e59d303c 	ldr	r3, [sp, #60]	; 0x3c
85219c64:	e4803004 	str	r3, [r0], #4
85219c68:	e59d1040 	ldr	r1, [sp, #64]	; 0x40
85219c6c:	ebfffd76 	bl	8521924c <shmoo28_ddr3_write_leveling_adjust_lde>
85219c70:	e2877001 	add	r7, r7, #1
85219c74:	e28bbc02 	add	fp, fp, #512	; 0x200
85219c78:	e1550007 	cmp	r5, r7
85219c7c:	8affffe0 	bhi	85219c04 <shmoo28_write_dqs_dm+0x34c>
85219c80:	e2899001 	add	r9, r9, #1
85219c84:	eaffff70 	b	85219a4c <shmoo28_write_dqs_dm+0x194>
85219c88:	e59d203c 	ldr	r2, [sp, #60]	; 0x3c
85219c8c:	e2840060 	add	r0, r4, #96	; 0x60
85219c90:	e59d3040 	ldr	r3, [sp, #64]	; 0x40
85219c94:	e3c22f7f 	bic	r2, r2, #508	; 0x1fc
85219c98:	e2433001 	sub	r3, r3, #1
85219c9c:	e3c22003 	bic	r2, r2, #3
85219ca0:	e58d3040 	str	r3, [sp, #64]	; 0x40
85219ca4:	e7e83053 	ubfx	r3, r3, #0, #9
85219ca8:	e1823003 	orr	r3, r2, r3
85219cac:	e58d303c 	str	r3, [sp, #60]	; 0x3c
85219cb0:	e59d303c 	ldr	r3, [sp, #60]	; 0x3c
85219cb4:	e3833801 	orr	r3, r3, #65536	; 0x10000
85219cb8:	e58d303c 	str	r3, [sp, #60]	; 0x3c
85219cbc:	e59d303c 	ldr	r3, [sp, #60]	; 0x3c
85219cc0:	e584305c 	str	r3, [r4, #92]	; 0x5c
85219cc4:	e59d1040 	ldr	r1, [sp, #64]	; 0x40
85219cc8:	ebfffd5f 	bl	8521924c <shmoo28_ddr3_write_leveling_adjust_lde>
85219ccc:	eaffff5e 	b	85219a4c <shmoo28_write_dqs_dm+0x194>
85219cd0:	e3590000 	cmp	r9, #0
85219cd4:	0a000006 	beq	85219cf4 <shmoo28_write_dqs_dm+0x43c>
85219cd8:	e59f3274 	ldr	r3, [pc, #628]	; 85219f54 <shmoo28_write_dqs_dm+0x69c>
85219cdc:	e1a01000 	mov	r1, r0
85219ce0:	e59d2010 	ldr	r2, [sp, #16]
85219ce4:	e593c000 	ldr	ip, [r3]
85219ce8:	e3a03001 	mov	r3, #1
85219cec:	e59c0024 	ldr	r0, [ip, #36]	; 0x24
85219cf0:	ebffefa0 	bl	85215b78 <ddr34_phy_dram_init>
85219cf4:	e59d3050 	ldr	r3, [sp, #80]	; 0x50
85219cf8:	e3550001 	cmp	r5, #1
85219cfc:	03a090ff 	moveq	r9, #255	; 0xff
85219d00:	e0833fa3 	add	r3, r3, r3, lsr #31
85219d04:	e1a030c3 	asr	r3, r3, #1
85219d08:	e58d3030 	str	r3, [sp, #48]	; 0x30
85219d0c:	0a000005 	beq	85219d28 <shmoo28_write_dqs_dm+0x470>
85219d10:	e3550002 	cmp	r5, #2
85219d14:	030f9fff 	movweq	r9, #65535	; 0xffff
85219d18:	0a000002 	beq	85219d28 <shmoo28_write_dqs_dm+0x470>
85219d1c:	e3550003 	cmp	r5, #3
85219d20:	03e094ff 	mvneq	r9, #-16777216	; 0xff000000
85219d24:	13e09000 	mvnne	r9, #0
85219d28:	e28db044 	add	fp, sp, #68	; 0x44
85219d2c:	e3a03001 	mov	r3, #1
85219d30:	e3a07000 	mov	r7, #0
85219d34:	e1e03613 	mvn	r3, r3, lsl r6
85219d38:	e58d3034 	str	r3, [sp, #52]	; 0x34
85219d3c:	e59d3050 	ldr	r3, [sp, #80]	; 0x50
85219d40:	e1570003 	cmp	r7, r3
85219d44:	2a000037 	bcs	85219e28 <shmoo28_write_dqs_dm+0x570>
85219d48:	e5943000 	ldr	r3, [r4]
85219d4c:	e59d2028 	ldr	r2, [sp, #40]	; 0x28
85219d50:	e59d1014 	ldr	r1, [sp, #20]
85219d54:	e58d303c 	str	r3, [sp, #60]	; 0x3c
85219d58:	e59d303c 	ldr	r3, [sp, #60]	; 0x3c
85219d5c:	e59d0024 	ldr	r0, [sp, #36]	; 0x24
85219d60:	e3c33f7f 	bic	r3, r3, #508	; 0x1fc
85219d64:	e3c33003 	bic	r3, r3, #3
85219d68:	e1833007 	orr	r3, r3, r7
85219d6c:	e58d303c 	str	r3, [sp, #60]	; 0x3c
85219d70:	e59d303c 	ldr	r3, [sp, #60]	; 0x3c
85219d74:	e3833801 	orr	r3, r3, #65536	; 0x10000
85219d78:	e58d303c 	str	r3, [sp, #60]	; 0x3c
85219d7c:	e59d303c 	ldr	r3, [sp, #60]	; 0x3c
85219d80:	e5843000 	str	r3, [r4]
85219d84:	e28d3048 	add	r3, sp, #72	; 0x48
85219d88:	e58d3008 	str	r3, [sp, #8]
85219d8c:	e59d3018 	ldr	r3, [sp, #24]
85219d90:	e58db004 	str	fp, [sp, #4]
85219d94:	e58d3000 	str	r3, [sp]
85219d98:	e59d358c 	ldr	r3, [sp, #1420]	; 0x58c
85219d9c:	eb00006d 	bl	85219f58 <shmoo28_mem_test>
85219da0:	e3500000 	cmp	r0, #0
85219da4:	1affff3b 	bne	85219a98 <shmoo28_write_dqs_dm+0x1e0>
85219da8:	e28d3048 	add	r3, sp, #72	; 0x48
85219dac:	e58d3008 	str	r3, [sp, #8]
85219db0:	e59d301c 	ldr	r3, [sp, #28]
85219db4:	e58db004 	str	fp, [sp, #4]
85219db8:	e59d2028 	ldr	r2, [sp, #40]	; 0x28
85219dbc:	e58d3000 	str	r3, [sp]
85219dc0:	e59d1014 	ldr	r1, [sp, #20]
85219dc4:	e59d358c 	ldr	r3, [sp, #1420]	; 0x58c
85219dc8:	e59d0024 	ldr	r0, [sp, #36]	; 0x24
85219dcc:	eb000061 	bl	85219f58 <shmoo28_mem_test>
85219dd0:	e3500000 	cmp	r0, #0
85219dd4:	1affff2f 	bne	85219a98 <shmoo28_write_dqs_dm+0x1e0>
85219dd8:	e59d1044 	ldr	r1, [sp, #68]	; 0x44
85219ddc:	e28d0068 	add	r0, sp, #104	; 0x68
85219de0:	e59d302c 	ldr	r3, [sp, #44]	; 0x2c
85219de4:	e59dc034 	ldr	ip, [sp, #52]	; 0x34
85219de8:	e1a03331 	lsr	r3, r1, r3
85219dec:	e0611009 	rsb	r1, r1, r9
85219df0:	e16f1f11 	clz	r1, r1
85219df4:	e6ef3073 	uxtb	r3, r3
85219df8:	e2932000 	adds	r2, r3, #0
85219dfc:	e7903107 	ldr	r3, [r0, r7, lsl #2]
85219e00:	e1a012a1 	lsr	r1, r1, #5
85219e04:	13a02001 	movne	r2, #1
85219e08:	e003300c 	and	r3, r3, ip
85219e0c:	e1833612 	orr	r3, r3, r2, lsl r6
85219e10:	e7803107 	str	r3, [r0, r7, lsl #2]
85219e14:	e59d3030 	ldr	r3, [sp, #48]	; 0x30
85219e18:	e1570003 	cmp	r7, r3
85219e1c:	93a01000 	movls	r1, #0
85219e20:	e3510000 	cmp	r1, #0
85219e24:	0a000004 	beq	85219e3c <shmoo28_write_dqs_dm+0x584>
85219e28:	e2866001 	add	r6, r6, #1
85219e2c:	e2844c02 	add	r4, r4, #512	; 0x200
85219e30:	e1550006 	cmp	r5, r6
85219e34:	0a000002 	beq	85219e44 <shmoo28_write_dqs_dm+0x58c>
85219e38:	eafffef0 	b	85219a00 <shmoo28_write_dqs_dm+0x148>
85219e3c:	e2877001 	add	r7, r7, #1
85219e40:	eaffffbd 	b	85219d3c <shmoo28_write_dqs_dm+0x484>
85219e44:	e3a02000 	mov	r2, #0
85219e48:	e3a03010 	mov	r3, #16
85219e4c:	e2456001 	sub	r6, r5, #1
85219e50:	e98d000c 	stmib	sp, {r2, r3}
85219e54:	e28d4054 	add	r4, sp, #84	; 0x54
85219e58:	e59d3050 	ldr	r3, [sp, #80]	; 0x50
85219e5c:	e28d0068 	add	r0, sp, #104	; 0x68
85219e60:	e2433001 	sub	r3, r3, #1
85219e64:	e1a01004 	mov	r1, r4
85219e68:	e58d3000 	str	r3, [sp]
85219e6c:	e1a03006 	mov	r3, r6
85219e70:	eb0000e2 	bl	8521a200 <shmoo28_filter_find_largest>
85219e74:	e59d3020 	ldr	r3, [sp, #32]
85219e78:	e3530000 	cmp	r3, #0
85219e7c:	1a000008 	bne	85219ea4 <shmoo28_write_dqs_dm+0x5ec>
85219e80:	e59d3050 	ldr	r3, [sp, #80]	; 0x50
85219e84:	e1a01004 	mov	r1, r4
85219e88:	e58d6000 	str	r6, [sp]
85219e8c:	e28d0068 	add	r0, sp, #104	; 0x68
85219e90:	e2433001 	sub	r3, r3, #1
85219e94:	e58d3004 	str	r3, [sp, #4]
85219e98:	e59d3020 	ldr	r3, [sp, #32]
85219e9c:	e1a02003 	mov	r2, r3
85219ea0:	ebfff4b6 	bl	85217180 <shmoo28_print_report>
85219ea4:	e59dc050 	ldr	ip, [sp, #80]	; 0x50
85219ea8:	e3a01000 	mov	r1, #0
85219eac:	e1a00001 	mov	r0, r1
85219eb0:	e300613f 	movw	r6, #319	; 0x13f
85219eb4:	e24ce001 	sub	lr, ip, #1
85219eb8:	e59a2000 	ldr	r2, [sl]
85219ebc:	e7943100 	ldr	r3, [r4, r0, lsl #2]
85219ec0:	e2800001 	add	r0, r0, #1
85219ec4:	e58d203c 	str	r2, [sp, #60]	; 0x3c
85219ec8:	e7e93553 	ubfx	r3, r3, #10, #10
85219ecc:	e59d203c 	ldr	r2, [sp, #60]	; 0x3c
85219ed0:	e15c0003 	cmp	ip, r3
85219ed4:	e3c22f7f 	bic	r2, r2, #508	; 0x1fc
85219ed8:	d1a0300e 	movle	r3, lr
85219edc:	e3c22003 	bic	r2, r2, #3
85219ee0:	e1530006 	cmp	r3, r6
85219ee4:	13530000 	cmpne	r3, #0
85219ee8:	e7e83053 	ubfx	r3, r3, #0, #9
85219eec:	02811001 	addeq	r1, r1, #1
85219ef0:	e1823003 	orr	r3, r2, r3
85219ef4:	e58d303c 	str	r3, [sp, #60]	; 0x3c
85219ef8:	e59d303c 	ldr	r3, [sp, #60]	; 0x3c
85219efc:	e1550000 	cmp	r5, r0
85219f00:	e3833801 	orr	r3, r3, #65536	; 0x10000
85219f04:	e58d303c 	str	r3, [sp, #60]	; 0x3c
85219f08:	e59d303c 	ldr	r3, [sp, #60]	; 0x3c
85219f0c:	e48a3200 	str	r3, [sl], #512	; 0x200
85219f10:	1affffe8 	bne	85219eb8 <shmoo28_write_dqs_dm+0x600>
85219f14:	e3510000 	cmp	r1, #0
85219f18:	03a00000 	moveq	r0, #0
85219f1c:	13a00027 	movne	r0, #39	; 0x27
85219f20:	ea000006 	b	85219f40 <shmoo28_write_dqs_dm+0x688>
85219f24:	e3a00022 	mov	r0, #34	; 0x22
85219f28:	ea000004 	b	85219f40 <shmoo28_write_dqs_dm+0x688>
85219f2c:	e3a00023 	mov	r0, #35	; 0x23
85219f30:	ea000002 	b	85219f40 <shmoo28_write_dqs_dm+0x688>
85219f34:	e3a00024 	mov	r0, #36	; 0x24
85219f38:	ea000000 	b	85219f40 <shmoo28_write_dqs_dm+0x688>
85219f3c:	e3a00025 	mov	r0, #37	; 0x25
85219f40:	e28dde56 	add	sp, sp, #1376	; 0x560
85219f44:	e28dd008 	add	sp, sp, #8
85219f48:	e8bd8ef0 	pop	{r4, r5, r6, r7, r9, sl, fp, pc}
85219f4c:	8521c32b 	.word	0x8521c32b
85219f50:	8521c333 	.word	0x8521c333
85219f54:	85220e58 	.word	0x85220e58

85219f58 <shmoo28_mem_test>:
85219f58:	e92d4ef0 	push	{r4, r5, r6, r7, r9, sl, fp, lr}
85219f5c:	e24dd018 	sub	sp, sp, #24
85219f60:	e28d1010 	add	r1, sp, #16
85219f64:	e1a04000 	mov	r4, r0
85219f68:	e1a06002 	mov	r6, r2
85219f6c:	e3a00002 	mov	r0, #2
85219f70:	e3a02000 	mov	r2, #0
85219f74:	e59d5038 	ldr	r5, [sp, #56]	; 0x38
85219f78:	e1a07003 	mov	r7, r3
85219f7c:	ebfff330 	bl	85216c44 <shmoo28_acquire_dfi>
85219f80:	e3570021 	cmp	r7, #33	; 0x21
85219f84:	e2053001 	and	r3, r5, #1
85219f88:	e2052020 	and	r2, r5, #32
85219f8c:	e58d3004 	str	r3, [sp, #4]
85219f90:	b3a0e001 	movlt	lr, #1
85219f94:	a3a0e008 	movge	lr, #8
85219f98:	e3150502 	tst	r5, #8388608	; 0x800000
85219f9c:	e7e03255 	ubfx	r3, r5, #4, #1
85219fa0:	e58d3008 	str	r3, [sp, #8]
85219fa4:	e1a03445 	asr	r3, r5, #8
85219fa8:	e58d300c 	str	r3, [sp, #12]
85219fac:	01a0100e 	moveq	r1, lr
85219fb0:	0a000005 	beq	85219fcc <shmoo28_mem_test+0x74>
85219fb4:	e7e41855 	ubfx	r1, r5, #16, #5
85219fb8:	e7e13ad5 	ubfx	r3, r5, #21, #2
85219fbc:	e3510000 	cmp	r1, #0
85219fc0:	11a0e001 	movne	lr, r1
85219fc4:	03a0e020 	moveq	lr, #32
85219fc8:	e1a0e31e 	lsl	lr, lr, r3
85219fcc:	e284cb41 	add	ip, r4, #66560	; 0x10400
85219fd0:	e1a0328e 	lsl	r3, lr, #5
85219fd4:	e3a00000 	mov	r0, #0
85219fd8:	e3a09002 	mov	r9, #2
85219fdc:	e58c0004 	str	r0, [ip, #4]
85219fe0:	e1530007 	cmp	r3, r7
85219fe4:	e58c9004 	str	r9, [ip, #4]
85219fe8:	e3a09004 	mov	r9, #4
85219fec:	e58c0004 	str	r0, [ip, #4]
85219ff0:	81a0730e 	lslhi	r7, lr, #6
85219ff4:	e58c9004 	str	r9, [ip, #4]
85219ff8:	e3a09010 	mov	r9, #16
85219ffc:	e58c0004 	str	r0, [ip, #4]
8521a000:	e58c9004 	str	r9, [ip, #4]
8521a004:	e1a0900c 	mov	r9, ip
8521a008:	e58c0004 	str	r0, [ip, #4]
8521a00c:	e59f016c 	ldr	r0, [pc, #364]	; 8521a180 <shmoo28_mem_test+0x228>
8521a010:	e599b040 	ldr	fp, [r9, #64]	; 0x40
8521a014:	e289a040 	add	sl, r9, #64	; 0x40
8521a018:	e31b0002 	tst	fp, #2
8521a01c:	1a000003 	bne	8521a030 <shmoo28_mem_test+0xd8>
8521a020:	e2500001 	subs	r0, r0, #1
8521a024:	1afffff9 	bne	8521a010 <shmoo28_mem_test+0xb8>
8521a028:	e3a00001 	mov	r0, #1
8521a02c:	ea000051 	b	8521a178 <shmoo28_mem_test+0x220>
8521a030:	e3520000 	cmp	r2, #0
8521a034:	e5990050 	ldr	r0, [r9, #80]	; 0x50
8521a038:	e59a0000 	ldr	r0, [sl]
8521a03c:	05892020 	streq	r2, [r9, #32]
8521a040:	159f213c 	ldrne	r2, [pc, #316]	; 8521a184 <shmoo28_mem_test+0x22c>
8521a044:	15892020 	strne	r2, [r9, #32]
8521a048:	13a02040 	movne	r2, #64	; 0x40
8521a04c:	e59d000c 	ldr	r0, [sp, #12]
8521a050:	e59db004 	ldr	fp, [sp, #4]
8521a054:	e200000f 	and	r0, r0, #15
8521a058:	e1802002 	orr	r2, r0, r2
8521a05c:	e2840b41 	add	r0, r4, #66560	; 0x10400
8521a060:	e35b0000 	cmp	fp, #0
8521a064:	13c22010 	bicne	r2, r2, #16
8521a068:	03822801 	orreq	r2, r2, #65536	; 0x10000
8521a06c:	e5802008 	str	r2, [r0, #8]
8521a070:	e59f2110 	ldr	r2, [pc, #272]	; 8521a188 <shmoo28_mem_test+0x230>
8521a074:	e58020c0 	str	r2, [r0, #192]	; 0xc0
8521a078:	e59f210c 	ldr	r2, [pc, #268]	; 8521a18c <shmoo28_mem_test+0x234>
8521a07c:	e58020c4 	str	r2, [r0, #196]	; 0xc4
8521a080:	e59f2108 	ldr	r2, [pc, #264]	; 8521a190 <shmoo28_mem_test+0x238>
8521a084:	e58020c8 	str	r2, [r0, #200]	; 0xc8
8521a088:	e59f2104 	ldr	r2, [pc, #260]	; 8521a194 <shmoo28_mem_test+0x23c>
8521a08c:	e58020cc 	str	r2, [r0, #204]	; 0xcc
8521a090:	e59d2008 	ldr	r2, [sp, #8]
8521a094:	e3520000 	cmp	r2, #0
8521a098:	0a00001e 	beq	8521a118 <shmoo28_mem_test+0x1c0>
8521a09c:	e3150040 	tst	r5, #64	; 0x40
8521a0a0:	1a00000b 	bne	8521a0d4 <shmoo28_mem_test+0x17c>
8521a0a4:	e59fb0ec 	ldr	fp, [pc, #236]	; 8521a198 <shmoo28_mem_test+0x240>
8521a0a8:	e59f50ec 	ldr	r5, [pc, #236]	; 8521a19c <shmoo28_mem_test+0x244>
8521a0ac:	e59f40ec 	ldr	r4, [pc, #236]	; 8521a1a0 <shmoo28_mem_test+0x248>
8521a0b0:	e59f20ec 	ldr	r2, [pc, #236]	; 8521a1a4 <shmoo28_mem_test+0x24c>
8521a0b4:	e580b100 	str	fp, [r0, #256]	; 0x100
8521a0b8:	e5805104 	str	r5, [r0, #260]	; 0x104
8521a0bc:	e5804108 	str	r4, [r0, #264]	; 0x108
8521a0c0:	e580210c 	str	r2, [r0, #268]	; 0x10c
8521a0c4:	e580b110 	str	fp, [r0, #272]	; 0x110
8521a0c8:	e5805114 	str	r5, [r0, #276]	; 0x114
8521a0cc:	e5804118 	str	r4, [r0, #280]	; 0x118
8521a0d0:	ea000007 	b	8521a0f4 <shmoo28_mem_test+0x19c>
8521a0d4:	e3a02000 	mov	r2, #0
8521a0d8:	e5802100 	str	r2, [r0, #256]	; 0x100
8521a0dc:	e5802104 	str	r2, [r0, #260]	; 0x104
8521a0e0:	e5802108 	str	r2, [r0, #264]	; 0x108
8521a0e4:	e580210c 	str	r2, [r0, #268]	; 0x10c
8521a0e8:	e5802110 	str	r2, [r0, #272]	; 0x110
8521a0ec:	e5802114 	str	r2, [r0, #276]	; 0x114
8521a0f0:	e5802118 	str	r2, [r0, #280]	; 0x118
8521a0f4:	e1a01c01 	lsl	r1, r1, #24
8521a0f8:	e0633006 	rsb	r3, r3, r6
8521a0fc:	e201141f 	and	r1, r1, #520093696	; 0x1f000000
8521a100:	e580211c 	str	r2, [r0, #284]	; 0x11c
8521a104:	e181e00e 	orr	lr, r1, lr
8521a108:	e0837007 	add	r7, r3, r7
8521a10c:	e580e00c 	str	lr, [r0, #12]
8521a110:	e5806010 	str	r6, [r0, #16]
8521a114:	e5807018 	str	r7, [r0, #24]
8521a118:	e3a03001 	mov	r3, #1
8521a11c:	e58c3004 	str	r3, [ip, #4]
8521a120:	e59f3058 	ldr	r3, [pc, #88]	; 8521a180 <shmoo28_mem_test+0x228>
8521a124:	e59a2000 	ldr	r2, [sl]
8521a128:	e3120002 	tst	r2, #2
8521a12c:	0a00000e 	beq	8521a16c <shmoo28_mem_test+0x214>
8521a130:	e59d2004 	ldr	r2, [sp, #4]
8521a134:	e3a04000 	mov	r4, #0
8521a138:	e5993050 	ldr	r3, [r9, #80]	; 0x50
8521a13c:	e28d1014 	add	r1, sp, #20
8521a140:	e3520000 	cmp	r2, #0
8521a144:	e59d203c 	ldr	r2, [sp, #60]	; 0x3c
8521a148:	e59d0010 	ldr	r0, [sp, #16]
8521a14c:	06ff3073 	uxtheq	r3, r3
8521a150:	e5823000 	str	r3, [r2]
8521a154:	e1a02004 	mov	r2, r4
8521a158:	e59d3040 	ldr	r3, [sp, #64]	; 0x40
8521a15c:	e5834000 	str	r4, [r3]
8521a160:	ebfff2b7 	bl	85216c44 <shmoo28_acquire_dfi>
8521a164:	e1a00004 	mov	r0, r4
8521a168:	ea000002 	b	8521a178 <shmoo28_mem_test+0x220>
8521a16c:	e2533001 	subs	r3, r3, #1
8521a170:	1affffeb 	bne	8521a124 <shmoo28_mem_test+0x1cc>
8521a174:	eaffffab 	b	8521a028 <shmoo28_mem_test+0xd0>
8521a178:	e28dd018 	add	sp, sp, #24
8521a17c:	e8bd8ef0 	pop	{r4, r5, r6, r7, r9, sl, fp, pc}
8521a180:	02faf080 	.word	0x02faf080
8521a184:	8473ec21 	.word	0x8473ec21
8521a188:	76543210 	.word	0x76543210
8521a18c:	fedcba98 	.word	0xfedcba98
8521a190:	01234567 	.word	0x01234567
8521a194:	89abcdef 	.word	0x89abcdef
8521a198:	0b0a0908 	.word	0x0b0a0908
8521a19c:	0f0e0d0c 	.word	0x0f0e0d0c
8521a1a0:	1b1a1918 	.word	0x1b1a1918
8521a1a4:	1f1e1d1c 	.word	0x1f1e1d1c

8521a1a8 <shmoo28_disable_edis_clock_gating>:
8521a1a8:	e2800b41 	add	r0, r0, #66560	; 0x10400
8521a1ac:	e201100f 	and	r1, r1, #15
8521a1b0:	e2800008 	add	r0, r0, #8
8521a1b4:	e0801501 	add	r1, r0, r1, lsl #10
8521a1b8:	e1500001 	cmp	r0, r1
8521a1bc:	15903000 	ldrne	r3, [r0]
8521a1c0:	13c33102 	bicne	r3, r3, #-2147483648	; 0x80000000
8521a1c4:	14803400 	strne	r3, [r0], #1024	; 0x400
8521a1c8:	1afffffa 	bne	8521a1b8 <shmoo28_disable_edis_clock_gating+0x10>
8521a1cc:	e3a00000 	mov	r0, #0
8521a1d0:	e12fff1e 	bx	lr

8521a1d4 <shmoo28_enable_edis_clock_gating>:
8521a1d4:	e2800b41 	add	r0, r0, #66560	; 0x10400
8521a1d8:	e201100f 	and	r1, r1, #15
8521a1dc:	e2800008 	add	r0, r0, #8
8521a1e0:	e0801501 	add	r1, r0, r1, lsl #10
8521a1e4:	e1500001 	cmp	r0, r1
8521a1e8:	15903000 	ldrne	r3, [r0]
8521a1ec:	13833102 	orrne	r3, r3, #-2147483648	; 0x80000000
8521a1f0:	14803400 	strne	r3, [r0], #1024	; 0x400
8521a1f4:	1afffffa 	bne	8521a1e4 <shmoo28_enable_edis_clock_gating+0x10>
8521a1f8:	e3a00000 	mov	r0, #0
8521a1fc:	e12fff1e 	bx	lr

8521a200 <shmoo28_filter_find_largest>:
8521a200:	e92d4ef0 	push	{r4, r5, r6, r7, r9, sl, fp, lr}
8521a204:	e24dde51 	sub	sp, sp, #1296	; 0x510
8521a208:	e58d3004 	str	r3, [sp, #4]
8521a20c:	e59dc004 	ldr	ip, [sp, #4]
8521a210:	e59d3534 	ldr	r3, [sp, #1332]	; 0x534
8521a214:	e59d6538 	ldr	r6, [sp, #1336]	; 0x538
8521a218:	e35c001f 	cmp	ip, #31
8521a21c:	d35300ff 	cmple	r3, #255	; 0xff
8521a220:	e59dc530 	ldr	ip, [sp, #1328]	; 0x530
8521a224:	c3a03001 	movgt	r3, #1
8521a228:	d3a03000 	movle	r3, #0
8521a22c:	e35c0d05 	cmp	ip, #320	; 0x140
8521a230:	c3833001 	orrgt	r3, r3, #1
8521a234:	e3530000 	cmp	r3, #0
8521a238:	13a00029 	movne	r0, #41	; 0x29
8521a23c:	1a000090 	bne	8521a484 <shmoo28_filter_find_largest+0x284>
8521a240:	e6ef3076 	uxtb	r3, r6
8521a244:	e7e36456 	ubfx	r6, r6, #8, #4
8521a248:	e1a0c002 	mov	ip, r2
8521a24c:	e3a0b001 	mov	fp, #1
8521a250:	e58d3008 	str	r3, [sp, #8]
8521a254:	e59d3004 	ldr	r3, [sp, #4]
8521a258:	e15c0003 	cmp	ip, r3
8521a25c:	c5dd3534 	ldrbgt	r3, [sp, #1332]	; 0x534
8521a260:	c0811102 	addgt	r1, r1, r2, lsl #2
8521a264:	c1a03503 	lslgt	r3, r3, #10
8521a268:	c58d300c 	strgt	r3, [sp, #12]
8521a26c:	ca000063 	bgt	8521a400 <shmoo28_filter_find_largest+0x200>
8521a270:	e3a03000 	mov	r3, #0
8521a274:	e2407004 	sub	r7, r0, #4
8521a278:	e1e09c1b 	mvn	r9, fp, lsl ip
8521a27c:	e1a04003 	mov	r4, r3
8521a280:	e59de530 	ldr	lr, [sp, #1328]	; 0x530
8521a284:	e153000e 	cmp	r3, lr
8521a288:	ca000029 	bgt	8521a334 <shmoo28_filter_find_largest+0x134>
8521a28c:	e3530000 	cmp	r3, #0
8521a290:	1597e000 	ldrne	lr, [r7]
8521a294:	03a0e001 	moveq	lr, #1
8521a298:	e5b75004 	ldr	r5, [r7, #4]!
8521a29c:	11a0ec3e 	lsrne	lr, lr, ip
8521a2a0:	e1a05c35 	lsr	r5, r5, ip
8521a2a4:	120ee001 	andne	lr, lr, #1
8521a2a8:	e2055001 	and	r5, r5, #1
8521a2ac:	e2255001 	eor	r5, r5, #1
8521a2b0:	e00ee005 	and	lr, lr, r5
8521a2b4:	e18e4004 	orr	r4, lr, r4
8521a2b8:	e2144001 	ands	r4, r4, #1
8521a2bc:	1086a003 	addne	sl, r6, r3
8521a2c0:	11a05003 	movne	r5, r3
8521a2c4:	13a04000 	movne	r4, #0
8521a2c8:	0a000011 	beq	8521a314 <shmoo28_filter_find_largest+0x114>
8521a2cc:	e155000a 	cmp	r5, sl
8521a2d0:	ca000008 	bgt	8521a2f8 <shmoo28_filter_find_largest+0xf8>
8521a2d4:	e59de530 	ldr	lr, [sp, #1328]	; 0x530
8521a2d8:	e155000e 	cmp	r5, lr
8521a2dc:	d790e105 	ldrle	lr, [r0, r5, lsl #2]
8521a2e0:	e2855001 	add	r5, r5, #1
8521a2e4:	d1e0e00e 	mvnle	lr, lr
8521a2e8:	d1a0ec3e 	lsrle	lr, lr, ip
8521a2ec:	d20ee001 	andle	lr, lr, #1
8521a2f0:	d18e4004 	orrle	r4, lr, r4
8521a2f4:	eafffff4 	b	8521a2cc <shmoo28_filter_find_largest+0xcc>
8521a2f8:	e28de010 	add	lr, sp, #16
8521a2fc:	e28d5010 	add	r5, sp, #16
8521a300:	e79ee103 	ldr	lr, [lr, r3, lsl #2]
8521a304:	e00ee009 	and	lr, lr, r9
8521a308:	e18eec14 	orr	lr, lr, r4, lsl ip
8521a30c:	e785e103 	str	lr, [r5, r3, lsl #2]
8521a310:	ea000005 	b	8521a32c <shmoo28_filter_find_largest+0x12c>
8521a314:	e28de010 	add	lr, sp, #16
8521a318:	e79ee103 	ldr	lr, [lr, r3, lsl #2]
8521a31c:	e00ee009 	and	lr, lr, r9
8521a320:	e18e5c15 	orr	r5, lr, r5, lsl ip
8521a324:	e28de010 	add	lr, sp, #16
8521a328:	e78e5103 	str	r5, [lr, r3, lsl #2]
8521a32c:	e2833001 	add	r3, r3, #1
8521a330:	eaffffd2 	b	8521a280 <shmoo28_filter_find_largest+0x80>
8521a334:	e28cc001 	add	ip, ip, #1
8521a338:	eaffffc5 	b	8521a254 <shmoo28_filter_find_largest+0x54>
8521a33c:	e28cc001 	add	ip, ip, #1
8521a340:	e22eb001 	eor	fp, lr, #1
8521a344:	e11b0004 	tst	fp, r4
8521a348:	1a000037 	bne	8521a42c <shmoo28_filter_find_largest+0x22c>
8521a34c:	e59d4530 	ldr	r4, [sp, #1328]	; 0x530
8521a350:	e1500004 	cmp	r0, r4
8521a354:	13a09000 	movne	r9, #0
8521a358:	02099001 	andeq	r9, r9, #1
8521a35c:	e3590000 	cmp	r9, #0
8521a360:	1a000031 	bne	8521a42c <shmoo28_filter_find_largest+0x22c>
8521a364:	e2800001 	add	r0, r0, #1
8521a368:	e59de530 	ldr	lr, [sp, #1328]	; 0x530
8521a36c:	e150000e 	cmp	r0, lr
8521a370:	ca000016 	bgt	8521a3d0 <shmoo28_filter_find_largest+0x1d0>
8521a374:	e3500000 	cmp	r0, #0
8521a378:	159a4000 	ldrne	r4, [sl]
8521a37c:	01a04000 	moveq	r4, r0
8521a380:	e5bae004 	ldr	lr, [sl, #4]!
8521a384:	11a04234 	lsrne	r4, r4, r2
8521a388:	e1a0e23e 	lsr	lr, lr, r2
8521a38c:	12044001 	andne	r4, r4, #1
8521a390:	e20ee001 	and	lr, lr, #1
8521a394:	e224b001 	eor	fp, r4, #1
8521a398:	e6ef907e 	uxtb	r9, lr
8521a39c:	e00bb009 	and	fp, fp, r9
8521a3a0:	e35b0000 	cmp	fp, #0
8521a3a4:	11a06000 	movne	r6, r0
8521a3a8:	13a05001 	movne	r5, #1
8521a3ac:	13a0c000 	movne	ip, #0
8521a3b0:	e194b00e 	orrs	fp, r4, lr
8521a3b4:	1affffe1 	bne	8521a340 <shmoo28_filter_find_largest+0x140>
8521a3b8:	e59db008 	ldr	fp, [sp, #8]
8521a3bc:	e35b0000 	cmp	fp, #0
8521a3c0:	13550000 	cmpne	r5, #0
8521a3c4:	daffffdd 	ble	8521a340 <shmoo28_filter_find_largest+0x140>
8521a3c8:	e15c000b 	cmp	ip, fp
8521a3cc:	1affffda 	bne	8521a33c <shmoo28_filter_find_largest+0x13c>
8521a3d0:	e3730001 	cmn	r3, #1
8521a3d4:	e59dc534 	ldr	ip, [sp, #1332]	; 0x534
8521a3d8:	03a03000 	moveq	r3, #0
8521a3dc:	e35c0000 	cmp	ip, #0
8521a3e0:	e0830007 	add	r0, r3, r7
8521a3e4:	e1800a07 	orr	r0, r0, r7, lsl #20
8521a3e8:	e4810004 	str	r0, [r1], #4
8521a3ec:	1a000019 	bne	8521a458 <shmoo28_filter_find_largest+0x258>
8521a3f0:	e08730c3 	add	r3, r7, r3, asr #1
8521a3f4:	e1800503 	orr	r0, r0, r3, lsl #10
8521a3f8:	e5010004 	str	r0, [r1, #-4]
8521a3fc:	e2822001 	add	r2, r2, #1
8521a400:	e59d3004 	ldr	r3, [sp, #4]
8521a404:	e1520003 	cmp	r2, r3
8521a408:	ca00001c 	bgt	8521a480 <shmoo28_filter_find_largest+0x280>
8521a40c:	e3a05000 	mov	r5, #0
8521a410:	e28da00c 	add	sl, sp, #12
8521a414:	e1a0c005 	mov	ip, r5
8521a418:	e1a07005 	mov	r7, r5
8521a41c:	e3e03000 	mvn	r3, #0
8521a420:	e1a06005 	mov	r6, r5
8521a424:	e1a00005 	mov	r0, r5
8521a428:	eaffffce 	b	8521a368 <shmoo28_filter_find_largest+0x168>
8521a42c:	e35e0001 	cmp	lr, #1
8521a430:	1240c001 	subne	ip, r0, #1
8521a434:	01a0c000 	moveq	ip, r0
8521a438:	e156000c 	cmp	r6, ip
8521a43c:	ca000003 	bgt	8521a450 <shmoo28_filter_find_largest+0x250>
8521a440:	e066c00c 	rsb	ip, r6, ip
8521a444:	e153000c 	cmp	r3, ip
8521a448:	b1a07006 	movlt	r7, r6
8521a44c:	b1a0300c 	movlt	r3, ip
8521a450:	e3a0c000 	mov	ip, #0
8521a454:	eaffffc2 	b	8521a364 <shmoo28_filter_find_largest+0x164>
8521a458:	e59dc00c 	ldr	ip, [sp, #12]
8521a45c:	e003039c 	mul	r3, ip, r3
8521a460:	e243c37f 	sub	ip, r3, #-67108863	; 0xfc000001
8521a464:	e3530000 	cmp	r3, #0
8521a468:	e24cc7ff 	sub	ip, ip, #66846720	; 0x3fc0000
8521a46c:	b1a0300c 	movlt	r3, ip
8521a470:	e0877943 	add	r7, r7, r3, asr #18
8521a474:	e1807507 	orr	r7, r0, r7, lsl #10
8521a478:	e5017004 	str	r7, [r1, #-4]
8521a47c:	eaffffde 	b	8521a3fc <shmoo28_filter_find_largest+0x1fc>
8521a480:	e3a00000 	mov	r0, #0
8521a484:	e28dde51 	add	sp, sp, #1296	; 0x510
8521a488:	e8bd8ef0 	pop	{r4, r5, r6, r7, r9, sl, fp, pc}
