
cfe47622:     file format elf32-littlearm


Disassembly of section .text:

00f00000 <_ftext>:
  f00000:	ea000027 	b	f000a4 <tr_rst>
  f00004:	e59ff014 	ldr	pc, [pc, #20]	; f00020 <_tr_und>
  f00008:	e59ff014 	ldr	pc, [pc, #20]	; f00024 <_tr_swi>
  f0000c:	e59ff014 	ldr	pc, [pc, #20]	; f00028 <_tr_iab>
  f00010:	e59ff014 	ldr	pc, [pc, #20]	; f0002c <_tr_dab>
  f00014:	e59ff014 	ldr	pc, [pc, #20]	; f00030 <_tr_bad>
  f00018:	e59ff014 	ldr	pc, [pc, #20]	; f00034 <_tr_irq>
  f0001c:	e59ff014 	ldr	pc, [pc, #20]	; f00038 <_tr_fiq>

00f00020 <_tr_und>:
  f00020:	00f00f08 	.word	0x00f00f08

00f00024 <_tr_swi>:
  f00024:	00f00f2c 	.word	0x00f00f2c

00f00028 <_tr_iab>:
  f00028:	00f00f50 	.word	0x00f00f50

00f0002c <_tr_dab>:
  f0002c:	00f00f80 	.word	0x00f00f80

00f00030 <_tr_bad>:
  f00030:	00f00fb0 	.word	0x00f00fb0

00f00034 <_tr_irq>:
  f00034:	00f00fe0 	.word	0x00f00fe0

00f00038 <_tr_fiq>:
  f00038:	00f01010 	.word	0x00f01010

00f0003c <_pad>:
  f0003c:	12345678 	.word	0x12345678

00f00040 <mem_textreloc>:
  f00040:	00000000 	.word	0x00000000

00f00044 <mem_textbase>:
  f00044:	00000000 	.word	0x00000000

00f00048 <mem_textsize>:
  f00048:	00000000 	.word	0x00000000

00f0004c <mem_totalsize>:
  f0004c:	00000000 	.word	0x00000000

00f00050 <mem_usablesize>:
  f00050:	00000000 	.word	0x00000000

00f00054 <mem_topofmem>:
  f00054:	00000000 	.word	0x00000000

00f00058 <mem_heapstart>:
  f00058:	00000000 	.word	0x00000000

00f0005c <mem_bottomofmem>:
  f0005c:	00000000 	.word	0x00000000

00f00060 <mem_datareloc>:
  f00060:	00000000 	.word	0x00000000

00f00064 <mem_stacktop>:
  f00064:	00000000 	.word	0x00000000

00f00068 <mem_stackbottom>:
  f00068:	00000000 	.word	0x00000000

00f0006c <cpu_prid>:
  f0006c:	00000000 	.word	0x00000000

00f00070 <rom_option>:
  f00070:	00000000 	.word	0x00000000

00f00074 <fmw_arg0>:
  f00074:	00000000 	.word	0x00000000

00f00078 <segment_table>:
  f00078:	00f52acc 	.word	0x00f52acc
  f0007c:	00f63030 	.word	0x00f63030
  f00080:	00f6c614 	.word	0x00f6c614
  f00084:	00f70448 	.word	0x00f70448
  f00088:	00f00000 	.word	0x00f00000
  f0008c:	00f6c618 	.word	0x00f6c618
	...
  f0009c:	00f00f04 	.word	0x00f00f04

00f000a0 <save_stack>:
  f000a0:	00000000 	.word	0x00000000

00f000a4 <tr_rst>:
  f000a4:	e10f0000 	mrs	r0, CPSR
  f000a8:	e3a0101f 	mov	r1, #31
  f000ac:	e1c00001 	bic	r0, r0, r1
  f000b0:	e3a010d3 	mov	r1, #211	; 0xd3
  f000b4:	e1800001 	orr	r0, r0, r1
  f000b8:	e129f000 	msr	CPSR_fc, r0
  f000bc:	e59fd8ec 	ldr	sp, [pc, #2284]	; f009b0 <core1_wait+0x4>
  f000c0:	e12fff3d 	blx	sp
  f000c4:	e24f00cc 	sub	r0, pc, #204	; 0xcc
  f000c8:	e1a00000 	nop			; (mov r0, r0)
  f000cc:	e59f18e0 	ldr	r1, [pc, #2272]	; f009b4 <core1_wait+0x8>
  f000d0:	e040b001 	sub	fp, r0, r1
  f000d4:	ee100fb0 	mrc	15, 0, r0, cr0, cr0, {5}
  f000d8:	e200000f 	and	r0, r0, #15
  f000dc:	e3500000 	cmp	r0, #0
  f000e0:	1a000231 	bne	f009ac <core1_wait>
  f000e4:	e59fd8cc 	ldr	sp, [pc, #2252]	; f009b8 <core1_wait+0xc>
  f000e8:	e12fff3d 	blx	sp
  f000ec:	e35b0000 	cmp	fp, #0
  f000f0:	0a000008 	beq	f00118 <enable_mmu>

00f000f4 <copy2ram>:
  f000f4:	e59f48c0 	ldr	r4, [pc, #2240]	; f009bc <core1_wait+0x10>
  f000f8:	e5941010 	ldr	r1, [r4, #16]
  f000fc:	e081000b 	add	r0, r1, fp
  f00100:	e5942008 	ldr	r2, [r4, #8]
  f00104:	e082200b 	add	r2, r2, fp

00f00108 <copy_loop>:
  f00108:	e8b00600 	ldm	r0!, {r9, sl}
  f0010c:	e8a10600 	stmia	r1!, {r9, sl}
  f00110:	e1500002 	cmp	r0, r2
  f00114:	3afffffb 	bcc	f00108 <copy_loop>

00f00118 <enable_mmu>:
  f00118:	e59fd8a0 	ldr	sp, [pc, #2208]	; f009c0 <core1_wait+0x14>
  f0011c:	e12fff3d 	blx	sp
  f00120:	e59fd89c 	ldr	sp, [pc, #2204]	; f009c4 <core1_wait+0x18>
  f00124:	e12fff3d 	blx	sp
  f00128:	e59fd898 	ldr	sp, [pc, #2200]	; f009c8 <core1_wait+0x1c>
  f0012c:	e12fff3d 	blx	sp
  f00130:	e59fd894 	ldr	sp, [pc, #2196]	; f009cc <core1_wait+0x20>
  f00134:	e12fff3d 	blx	sp

00f00138 <clear_bss>:
  f00138:	e59f487c 	ldr	r4, [pc, #2172]	; f009bc <core1_wait+0x10>
  f0013c:	e5940014 	ldr	r0, [r4, #20]
  f00140:	e594100c 	ldr	r1, [r4, #12]
  f00144:	e3a02000 	mov	r2, #0
  f00148:	e1500001 	cmp	r0, r1
  f0014c:	0a000003 	beq	f00160 <call_c_main>

00f00150 <clbss_l>:
  f00150:	e5802000 	str	r2, [r0]
  f00154:	e2800004 	add	r0, r0, #4
  f00158:	e1500001 	cmp	r0, r1
  f0015c:	1afffffb 	bne	f00150 <clbss_l>

00f00160 <call_c_main>:
  f00160:	e59f1868 	ldr	r1, [pc, #2152]	; f009d0 <core1_wait+0x24>
  f00164:	e5912010 	ldr	r2, [r1, #16]
  f00168:	e202200f 	and	r2, r2, #15
  f0016c:	e282200a 	add	r2, r2, #10
  f00170:	e3a00001 	mov	r0, #1
  f00174:	e1a00210 	lsl	r0, r0, r2
  f00178:	e59f1854 	ldr	r1, [pc, #2132]	; f009d4 <core1_wait+0x28>
  f0017c:	e5810000 	str	r0, [r1]
  f00180:	e3a00000 	mov	r0, #0
  f00184:	e59f184c 	ldr	r1, [pc, #2124]	; f009d8 <core1_wait+0x2c>
  f00188:	e5810000 	str	r0, [r1]
  f0018c:	e59f1848 	ldr	r1, [pc, #2120]	; f009dc <core1_wait+0x30>
  f00190:	e5810000 	str	r0, [r1]
  f00194:	e59f4820 	ldr	r4, [pc, #2080]	; f009bc <core1_wait+0x10>
  f00198:	e5940010 	ldr	r0, [r4, #16]
  f0019c:	e59f183c 	ldr	r1, [pc, #2108]	; f009e0 <core1_wait+0x34>
  f001a0:	e5810000 	str	r0, [r1]
  f001a4:	e5942000 	ldr	r2, [r4]
  f001a8:	e0422000 	sub	r2, r2, r0
  f001ac:	e59f1830 	ldr	r1, [pc, #2096]	; f009e4 <core1_wait+0x38>
  f001b0:	e5812000 	str	r2, [r1]
  f001b4:	e59f182c 	ldr	r1, [pc, #2092]	; f009e8 <core1_wait+0x3c>
  f001b8:	e5810000 	str	r0, [r1]
  f001bc:	e594000c 	ldr	r0, [r4, #12]
  f001c0:	e59f1824 	ldr	r1, [pc, #2084]	; f009ec <core1_wait+0x40>
  f001c4:	e5810000 	str	r0, [r1]
  f001c8:	e2800a06 	add	r0, r0, #24576	; 0x6000
  f001cc:	e59f181c 	ldr	r1, [pc, #2076]	; f009f0 <core1_wait+0x44>
  f001d0:	e5810000 	str	r0, [r1]
  f001d4:	e59f1818 	ldr	r1, [pc, #2072]	; f009f4 <core1_wait+0x48>
  f001d8:	e5810000 	str	r0, [r1]
  f001dc:	e280061e 	add	r0, r0, #31457280	; 0x1e00000
  f001e0:	e59f1810 	ldr	r1, [pc, #2064]	; f009f8 <core1_wait+0x4c>
  f001e4:	e5810000 	str	r0, [r1]
  f001e8:	e3a00000 	mov	r0, #0
  f001ec:	e59f1808 	ldr	r1, [pc, #2056]	; f009fc <core1_wait+0x50>
  f001f0:	e5810000 	str	r0, [r1]
  f001f4:	ea0001e2 	b	f00984 <main>

00f001f8 <theend>:
  f001f8:	e320f002 	wfe
  f001fc:	eafffffd 	b	f001f8 <theend>
	...

00f0056c <_cferom_size>:
  f0056c:	0006c614 	.word	0x0006c614
  f00570:	2d656663 	.word	0x2d656663
  f00574:	26000176 	.word	0x26000176
  f00578:	0000e7a3 	.word	0x0000e7a3
  f0057c:	00000000 	.word	0x00000000

00f00580 <nvram_data_storage>:
  f00580:	0f1e2d3c 	.word	0x0f1e2d3c
	...

00f00984 <main>:
  f00984:	e59fd074 	ldr	sp, [pc, #116]	; f00a00 <core1_wait+0x54>
  f00988:	e12fff3d 	blx	sp
  f0098c:	e59f1060 	ldr	r1, [pc, #96]	; f009f4 <core1_wait+0x48>
  f00990:	e5910000 	ldr	r0, [r1]
  f00994:	e2400008 	sub	r0, r0, #8
  f00998:	e1a0d000 	mov	sp, r0
  f0099c:	e3cdd007 	bic	sp, sp, #7
  f009a0:	e3a00000 	mov	r0, #0
  f009a4:	e3a01000 	mov	r1, #0
  f009a8:	eb00922c 	bl	f25260 <cfe_main>

00f009ac <core1_wait>:
  f009ac:	e320f002 	wfe
  f009b0:	00f3984c 	.word	0x00f3984c
  f009b4:	00f00000 	.word	0x00f00000
  f009b8:	00f398bc 	.word	0x00f398bc
  f009bc:	00f00078 	.word	0x00f00078
  f009c0:	00f395c4 	.word	0x00f395c4
  f009c4:	00f364e8 	.word	0x00f364e8
  f009c8:	00f39894 	.word	0x00f39894
  f009cc:	00f39574 	.word	0x00f39574
  f009d0:	80180000 	.word	0x80180000
  f009d4:	00f0004c 	.word	0x00f0004c
  f009d8:	00f00060 	.word	0x00f00060
  f009dc:	00f00040 	.word	0x00f00040
  f009e0:	00f0005c 	.word	0x00f0005c
  f009e4:	00f00048 	.word	0x00f00048
  f009e8:	00f00044 	.word	0x00f00044
  f009ec:	00f00068 	.word	0x00f00068
  f009f0:	00f00058 	.word	0x00f00058
  f009f4:	00f00064 	.word	0x00f00064
  f009f8:	00f00054 	.word	0x00f00054
  f009fc:	00f0006c 	.word	0x00f0006c
  f00a00:	00f010fc 	.word	0x00f010fc
	...

00f00a20 <mon_vector>:
	...
  f00a28:	ea000004 	b	f00a40 <monitor_handler>
	...

00f00a40 <monitor_handler>:
  f00a40:	ee115f11 	mrc	15, 0, r5, cr1, cr1, {0}
  f00a44:	e3855001 	orr	r5, r5, #1
  f00a48:	ee015f11 	mcr	15, 0, r5, cr1, cr1, {0}
  f00a4c:	f57ff06f 	isb	sy
  f00a50:	e1a0e004 	mov	lr, r4
  f00a54:	e3a05d07 	mov	r5, #448	; 0x1c0
  f00a58:	e31e0001 	tst	lr, #1
  f00a5c:	13855020 	orrne	r5, r5, #32
  f00a60:	e3855013 	orr	r5, r5, #19
  f00a64:	e16ff005 	msr	SPSR_fsxc, r5
  f00a68:	e1b0f00e 	movs	pc, lr
  f00a6c:	00000000 	andeq	r0, r0, r0

00f00a70 <sec_entry_begin>:
  f00a70:	ea0001c8 	b	f01198 <secondary_reset>
  f00a74:	e320f000 	nop	{0}

00f00a78 <__udivsi3>:
  f00a78:	e2512001 	subs	r2, r1, #1
  f00a7c:	012fff1e 	bxeq	lr
  f00a80:	3a000023 	bcc	f00b14 <__udivsi3+0x9c>
  f00a84:	e1500001 	cmp	r0, r1
  f00a88:	9a00001a 	bls	f00af8 <__udivsi3+0x80>
  f00a8c:	e1110002 	tst	r1, r2
  f00a90:	0a00001b 	beq	f00b04 <__udivsi3+0x8c>
  f00a94:	e16f3f11 	clz	r3, r1
  f00a98:	e16f2f10 	clz	r2, r0
  f00a9c:	e0432002 	sub	r2, r3, r2
  f00aa0:	e3a03001 	mov	r3, #1
  f00aa4:	e1a01211 	lsl	r1, r1, r2
  f00aa8:	e1a03213 	lsl	r3, r3, r2
  f00aac:	e3a02000 	mov	r2, #0
  f00ab0:	e1500001 	cmp	r0, r1
  f00ab4:	20400001 	subcs	r0, r0, r1
  f00ab8:	21822003 	orrcs	r2, r2, r3
  f00abc:	e15000a1 	cmp	r0, r1, lsr #1
  f00ac0:	204000a1 	subcs	r0, r0, r1, lsr #1
  f00ac4:	218220a3 	orrcs	r2, r2, r3, lsr #1
  f00ac8:	e1500121 	cmp	r0, r1, lsr #2
  f00acc:	20400121 	subcs	r0, r0, r1, lsr #2
  f00ad0:	21822123 	orrcs	r2, r2, r3, lsr #2
  f00ad4:	e15001a1 	cmp	r0, r1, lsr #3
  f00ad8:	204001a1 	subcs	r0, r0, r1, lsr #3
  f00adc:	218221a3 	orrcs	r2, r2, r3, lsr #3
  f00ae0:	e3500000 	cmp	r0, #0
  f00ae4:	11b03223 	lsrsne	r3, r3, #4
  f00ae8:	11a01221 	lsrne	r1, r1, #4
  f00aec:	1affffef 	bne	f00ab0 <__udivsi3+0x38>
  f00af0:	e1a00002 	mov	r0, r2
  f00af4:	e12fff1e 	bx	lr
  f00af8:	03a00001 	moveq	r0, #1
  f00afc:	13a00000 	movne	r0, #0
  f00b00:	e12fff1e 	bx	lr
  f00b04:	e16f2f11 	clz	r2, r1
  f00b08:	e262201f 	rsb	r2, r2, #31
  f00b0c:	e1a00230 	lsr	r0, r0, r2
  f00b10:	e12fff1e 	bx	lr
  f00b14:	e3500000 	cmp	r0, #0
  f00b18:	13e00000 	mvnne	r0, #0
  f00b1c:	ea000055 	b	f00c78 <__aeabi_idiv0>

00f00b20 <__aeabi_uidivmod>:
  f00b20:	e3510000 	cmp	r1, #0
  f00b24:	0afffffa 	beq	f00b14 <__udivsi3+0x9c>
  f00b28:	e92d4003 	push	{r0, r1, lr}
  f00b2c:	ebffffd1 	bl	f00a78 <__udivsi3>
  f00b30:	e8bd4006 	pop	{r1, r2, lr}
  f00b34:	e0030092 	mul	r3, r2, r0
  f00b38:	e0411003 	sub	r1, r1, r3
  f00b3c:	e12fff1e 	bx	lr

00f00b40 <__divsi3>:
  f00b40:	e3510000 	cmp	r1, #0
  f00b44:	0a000030 	beq	f00c0c <.divsi3_skip_div0_test+0xc4>

00f00b48 <.divsi3_skip_div0_test>:
  f00b48:	e020c001 	eor	ip, r0, r1
  f00b4c:	42611000 	rsbmi	r1, r1, #0
  f00b50:	e2512001 	subs	r2, r1, #1
  f00b54:	0a00001f 	beq	f00bd8 <.divsi3_skip_div0_test+0x90>
  f00b58:	e1b03000 	movs	r3, r0
  f00b5c:	42603000 	rsbmi	r3, r0, #0
  f00b60:	e1530001 	cmp	r3, r1
  f00b64:	9a00001e 	bls	f00be4 <.divsi3_skip_div0_test+0x9c>
  f00b68:	e1110002 	tst	r1, r2
  f00b6c:	0a000020 	beq	f00bf4 <.divsi3_skip_div0_test+0xac>
  f00b70:	e16f2f11 	clz	r2, r1
  f00b74:	e16f0f13 	clz	r0, r3
  f00b78:	e0420000 	sub	r0, r2, r0
  f00b7c:	e3a02001 	mov	r2, #1
  f00b80:	e1a01011 	lsl	r1, r1, r0
  f00b84:	e1a02012 	lsl	r2, r2, r0
  f00b88:	e3a00000 	mov	r0, #0
  f00b8c:	e1530001 	cmp	r3, r1
  f00b90:	20433001 	subcs	r3, r3, r1
  f00b94:	21800002 	orrcs	r0, r0, r2
  f00b98:	e15300a1 	cmp	r3, r1, lsr #1
  f00b9c:	204330a1 	subcs	r3, r3, r1, lsr #1
  f00ba0:	218000a2 	orrcs	r0, r0, r2, lsr #1
  f00ba4:	e1530121 	cmp	r3, r1, lsr #2
  f00ba8:	20433121 	subcs	r3, r3, r1, lsr #2
  f00bac:	21800122 	orrcs	r0, r0, r2, lsr #2
  f00bb0:	e15301a1 	cmp	r3, r1, lsr #3
  f00bb4:	204331a1 	subcs	r3, r3, r1, lsr #3
  f00bb8:	218001a2 	orrcs	r0, r0, r2, lsr #3
  f00bbc:	e3530000 	cmp	r3, #0
  f00bc0:	11b02222 	lsrsne	r2, r2, #4
  f00bc4:	11a01221 	lsrne	r1, r1, #4
  f00bc8:	1affffef 	bne	f00b8c <.divsi3_skip_div0_test+0x44>
  f00bcc:	e35c0000 	cmp	ip, #0
  f00bd0:	42600000 	rsbmi	r0, r0, #0
  f00bd4:	e12fff1e 	bx	lr
  f00bd8:	e13c0000 	teq	ip, r0
  f00bdc:	42600000 	rsbmi	r0, r0, #0
  f00be0:	e12fff1e 	bx	lr
  f00be4:	33a00000 	movcc	r0, #0
  f00be8:	01a00fcc 	asreq	r0, ip, #31
  f00bec:	03800001 	orreq	r0, r0, #1
  f00bf0:	e12fff1e 	bx	lr
  f00bf4:	e16f2f11 	clz	r2, r1
  f00bf8:	e262201f 	rsb	r2, r2, #31
  f00bfc:	e35c0000 	cmp	ip, #0
  f00c00:	e1a00233 	lsr	r0, r3, r2
  f00c04:	42600000 	rsbmi	r0, r0, #0
  f00c08:	e12fff1e 	bx	lr
  f00c0c:	e3500000 	cmp	r0, #0
  f00c10:	c3e00102 	mvngt	r0, #-2147483648	; 0x80000000
  f00c14:	b3a00102 	movlt	r0, #-2147483648	; 0x80000000
  f00c18:	ea000016 	b	f00c78 <__aeabi_idiv0>

00f00c1c <__aeabi_idivmod>:
  f00c1c:	e3510000 	cmp	r1, #0
  f00c20:	0afffff9 	beq	f00c0c <.divsi3_skip_div0_test+0xc4>
  f00c24:	e92d4003 	push	{r0, r1, lr}
  f00c28:	ebffffc6 	bl	f00b48 <.divsi3_skip_div0_test>
  f00c2c:	e8bd4006 	pop	{r1, r2, lr}
  f00c30:	e0030092 	mul	r3, r2, r0
  f00c34:	e0411003 	sub	r1, r1, r3
  f00c38:	e12fff1e 	bx	lr

00f00c3c <__aeabi_uldivmod>:
  f00c3c:	e3530000 	cmp	r3, #0
  f00c40:	03520000 	cmpeq	r2, #0
  f00c44:	1a000004 	bne	f00c5c <__aeabi_uldivmod+0x20>
  f00c48:	e3510000 	cmp	r1, #0
  f00c4c:	03500000 	cmpeq	r0, #0
  f00c50:	13e01000 	mvnne	r1, #0
  f00c54:	13e00000 	mvnne	r0, #0
  f00c58:	ea000006 	b	f00c78 <__aeabi_idiv0>
  f00c5c:	e24dd008 	sub	sp, sp, #8
  f00c60:	e92d6000 	push	{sp, lr}
  f00c64:	eb000007 	bl	f00c88 <__udivmoddi4>
  f00c68:	e59de004 	ldr	lr, [sp, #4]
  f00c6c:	e28dd008 	add	sp, sp, #8
  f00c70:	e8bd000c 	pop	{r2, r3}
  f00c74:	e12fff1e 	bx	lr

00f00c78 <__aeabi_idiv0>:
  f00c78:	e92d4002 	push	{r1, lr}
  f00c7c:	e3a00008 	mov	r0, #8
  f00c80:	eb000115 	bl	f010dc <raise>
  f00c84:	e8bd8002 	pop	{r1, pc}

00f00c88 <__udivmoddi4>:
  f00c88:	e1510003 	cmp	r1, r3
  f00c8c:	e92d4ff8 	push	{r3, r4, r5, r6, r7, r8, r9, sl, fp, lr}
  f00c90:	01500002 	cmpeq	r0, r2
  f00c94:	e1a04000 	mov	r4, r0
  f00c98:	e1a05001 	mov	r5, r1
  f00c9c:	33a00000 	movcc	r0, #0
  f00ca0:	e59d7028 	ldr	r7, [sp, #40]	; 0x28
  f00ca4:	33a01000 	movcc	r1, #0
  f00ca8:	3a000038 	bcc	f00d90 <__udivmoddi4+0x108>
  f00cac:	e3530000 	cmp	r3, #0
  f00cb0:	e1a01003 	mov	r1, r3
  f00cb4:	016f6f12 	clzeq	r6, r2
  f00cb8:	116f6f13 	clzne	r6, r3
  f00cbc:	02866020 	addeq	r6, r6, #32
  f00cc0:	e3550000 	cmp	r5, #0
  f00cc4:	016f3f14 	clzeq	r3, r4
  f00cc8:	116f3f15 	clzne	r3, r5
  f00ccc:	02833020 	addeq	r3, r3, #32
  f00cd0:	e1a00002 	mov	r0, r2
  f00cd4:	e0636006 	rsb	r6, r3, r6
  f00cd8:	e1a02006 	mov	r2, r6
  f00cdc:	eb000036 	bl	f00dbc <__aeabi_llsl>
  f00ce0:	e1550001 	cmp	r5, r1
  f00ce4:	e1a0a000 	mov	sl, r0
  f00ce8:	01540000 	cmpeq	r4, r0
  f00cec:	e1a0b001 	mov	fp, r1
  f00cf0:	33a00000 	movcc	r0, #0
  f00cf4:	33a01000 	movcc	r1, #0
  f00cf8:	3a000005 	bcc	f00d14 <__udivmoddi4+0x8c>
  f00cfc:	e054400a 	subs	r4, r4, sl
  f00d00:	e1a02006 	mov	r2, r6
  f00d04:	e3a00001 	mov	r0, #1
  f00d08:	e3a01000 	mov	r1, #0
  f00d0c:	e0c5500b 	sbc	r5, r5, fp
  f00d10:	eb000029 	bl	f00dbc <__aeabi_llsl>
  f00d14:	e3560000 	cmp	r6, #0
  f00d18:	0a00001c 	beq	f00d90 <__udivmoddi4+0x108>
  f00d1c:	e1b0b0ab 	lsrs	fp, fp, #1
  f00d20:	e1a0a06a 	rrx	sl, sl
  f00d24:	e1a03006 	mov	r3, r6
  f00d28:	e155000b 	cmp	r5, fp
  f00d2c:	0154000a 	cmpeq	r4, sl
  f00d30:	3a000006 	bcc	f00d50 <__udivmoddi4+0xc8>
  f00d34:	e054400a 	subs	r4, r4, sl
  f00d38:	e0c5500b 	sbc	r5, r5, fp
  f00d3c:	e0944004 	adds	r4, r4, r4
  f00d40:	e0a55005 	adc	r5, r5, r5
  f00d44:	e2944001 	adds	r4, r4, #1
  f00d48:	e2a55000 	adc	r5, r5, #0
  f00d4c:	ea000001 	b	f00d58 <__udivmoddi4+0xd0>
  f00d50:	e0944004 	adds	r4, r4, r4
  f00d54:	e0a55005 	adc	r5, r5, r5
  f00d58:	e2533001 	subs	r3, r3, #1
  f00d5c:	1afffff1 	bne	f00d28 <__udivmoddi4+0xa0>
  f00d60:	e0908004 	adds	r8, r0, r4
  f00d64:	e1a02006 	mov	r2, r6
  f00d68:	e0a19005 	adc	r9, r1, r5
  f00d6c:	e1a00004 	mov	r0, r4
  f00d70:	e1a01005 	mov	r1, r5
  f00d74:	eb000009 	bl	f00da0 <__aeabi_llsr>
  f00d78:	e1a02006 	mov	r2, r6
  f00d7c:	e1a04000 	mov	r4, r0
  f00d80:	e1a05001 	mov	r5, r1
  f00d84:	eb00000c 	bl	f00dbc <__aeabi_llsl>
  f00d88:	e0580000 	subs	r0, r8, r0
  f00d8c:	e0c91001 	sbc	r1, r9, r1
  f00d90:	e3570000 	cmp	r7, #0
  f00d94:	08bd8ff8 	popeq	{r3, r4, r5, r6, r7, r8, r9, sl, fp, pc}
  f00d98:	e1c740f0 	strd	r4, [r7]
  f00d9c:	e8bd8ff8 	pop	{r3, r4, r5, r6, r7, r8, r9, sl, fp, pc}

00f00da0 <__aeabi_llsr>:
  f00da0:	e2523020 	subs	r3, r2, #32
  f00da4:	e262c020 	rsb	ip, r2, #32
  f00da8:	41a00230 	lsrmi	r0, r0, r2
  f00dac:	51a00331 	lsrpl	r0, r1, r3
  f00db0:	41800c11 	orrmi	r0, r0, r1, lsl ip
  f00db4:	e1a01231 	lsr	r1, r1, r2
  f00db8:	e12fff1e 	bx	lr

00f00dbc <__aeabi_llsl>:
  f00dbc:	e2523020 	subs	r3, r2, #32
  f00dc0:	e262c020 	rsb	ip, r2, #32
  f00dc4:	41a01211 	lslmi	r1, r1, r2
  f00dc8:	51a01310 	lslpl	r1, r0, r3
  f00dcc:	41811c30 	orrmi	r1, r1, r0, lsr ip
  f00dd0:	e1a00210 	lsl	r0, r0, r2
  f00dd4:	e12fff1e 	bx	lr

00f00dd8 <_cfe_flushcache>:
  f00dd8:	e92d4eff 	push	{r0, r1, r2, r3, r4, r5, r6, r7, r9, sl, fp, lr}
  f00ddc:	eb00e261 	bl	f39768 <armv7_cacheops>
  f00de0:	e8bd4eff 	pop	{r0, r1, r2, r3, r4, r5, r6, r7, r9, sl, fp, lr}
  f00de4:	e1a0f00e 	mov	pc, lr

00f00de8 <cfe_nonsecure>:
  f00de8:	e52de004 	push	{lr}		; (str lr, [sp, #-4]!)
  f00dec:	eb00003a 	bl	f00edc <cfe_save_context>
  f00df0:	e10f0000 	mrs	r0, CPSR
  f00df4:	e3a01d07 	mov	r1, #448	; 0x1c0
  f00df8:	e1800001 	orr	r0, r0, r1
  f00dfc:	e129f000 	msr	CPSR_fc, r0
  f00e00:	e3a00000 	mov	r0, #0
  f00e04:	ebfffff3 	bl	f00dd8 <_cfe_flushcache>
  f00e08:	eb00e1e4 	bl	f395a0 <armv7_l1cache_disable_d>
  f00e0c:	eb00e2a5 	bl	f398a8 <armv7_disable_mmu>
  f00e10:	eb00e1dc 	bl	f39588 <armv7_l1cache_disable_i>
  f00e14:	e59f403c 	ldr	r4, [pc, #60]	; f00e58 <cfe_nonsecure_return+0x3c>
  f00e18:	e1600070 	smc	0

00f00e1c <cfe_nonsecure_return>:
  f00e1c:	e59fd038 	ldr	sp, [pc, #56]	; f00e5c <cfe_nonsecure_return+0x40>
  f00e20:	e12fff3d 	blx	sp
  f00e24:	e59fd034 	ldr	sp, [pc, #52]	; f00e60 <cfe_nonsecure_return+0x44>
  f00e28:	e12fff3d 	blx	sp
  f00e2c:	e59fd030 	ldr	sp, [pc, #48]	; f00e64 <cfe_nonsecure_return+0x48>
  f00e30:	e12fff3d 	blx	sp
  f00e34:	e59fd02c 	ldr	sp, [pc, #44]	; f00e68 <cfe_nonsecure_return+0x4c>
  f00e38:	e12fff3d 	blx	sp
  f00e3c:	e59fd028 	ldr	sp, [pc, #40]	; f00e6c <cfe_nonsecure_return+0x50>
  f00e40:	e12fff3d 	blx	sp
  f00e44:	e59fd024 	ldr	sp, [pc, #36]	; f00e70 <cfe_nonsecure_return+0x54>
  f00e48:	e12fff3d 	blx	sp
  f00e4c:	eb000027 	bl	f00ef0 <cfe_restore_context>
  f00e50:	e49de004 	pop	{lr}		; (ldr lr, [sp], #4)
  f00e54:	e12fff1e 	bx	lr
  f00e58:	00f00e1c 	.word	0x00f00e1c
  f00e5c:	00f395c4 	.word	0x00f395c4
  f00e60:	00f395b4 	.word	0x00f395b4
  f00e64:	00f364e8 	.word	0x00f364e8
  f00e68:	00f39894 	.word	0x00f39894
  f00e6c:	00f39574 	.word	0x00f39574
  f00e70:	00f3955c 	.word	0x00f3955c

00f00e74 <cfe_launch>:
  f00e74:	e24dd008 	sub	sp, sp, #8
  f00e78:	e52d0004 	push	{r0}		; (str r0, [sp, #-4]!)
  f00e7c:	e10f0000 	mrs	r0, CPSR
  f00e80:	e3a010c0 	mov	r1, #192	; 0xc0
  f00e84:	e1800001 	orr	r0, r0, r1
  f00e88:	e129f000 	msr	CPSR_fc, r0

00f00e8c <noshrd>:
  f00e8c:	e3a00000 	mov	r0, #0
  f00e90:	ebffffd0 	bl	f00dd8 <_cfe_flushcache>

00f00e94 <__skipShred>:
  f00e94:	eb00e1c1 	bl	f395a0 <armv7_l1cache_disable_d>
  f00e98:	eb00e282 	bl	f398a8 <armv7_disable_mmu>
  f00e9c:	eb00e1b9 	bl	f39588 <armv7_l1cache_disable_i>
  f00ea0:	eaffffff 	b	f00ea4 <RunProgram>

00f00ea4 <RunProgram>:
  f00ea4:	eb00e24f 	bl	f397e8 <armv7_gic_secure_init>
  f00ea8:	e59f2018 	ldr	r2, [pc, #24]	; f00ec8 <RunProgram+0x24>
  f00eac:	e5922024 	ldr	r2, [r2, #36]	; 0x24
  f00eb0:	e3a00000 	mov	r0, #0
  f00eb4:	e59f1010 	ldr	r1, [pc, #16]	; f00ecc <RunProgram+0x28>
  f00eb8:	e3a02902 	mov	r2, #32768	; 0x8000
  f00ebc:	e59f300c 	ldr	r3, [pc, #12]	; f00ed0 <RunProgram+0x2c>
  f00ec0:	e49d4004 	pop	{r4}		; (ldr r4, [sp], #4)
  f00ec4:	eb00e25c 	bl	f3983c <armv7_change_to_nonsecure>
  f00ec8:	00f00078 	.word	0x00f00078
  f00ecc:	0000270b 	.word	0x0000270b
  f00ed0:	43464531 	.word	0x43464531

00f00ed4 <get_SP>:
  f00ed4:	e1a0000d 	mov	r0, sp
  f00ed8:	e1a0f00e 	mov	pc, lr

00f00edc <cfe_save_context>:
  f00edc:	e92d1fff 	push	{r0, r1, r2, r3, r4, r5, r6, r7, r8, r9, sl, fp, ip}
  f00ee0:	e59f0004 	ldr	r0, [pc, #4]	; f00eec <cfe_save_context+0x10>
  f00ee4:	e580d000 	str	sp, [r0]
  f00ee8:	e12fff1e 	bx	lr
  f00eec:	00f000a0 	.word	0x00f000a0

00f00ef0 <cfe_restore_context>:
  f00ef0:	e59f0008 	ldr	r0, [pc, #8]	; f00f00 <cfe_restore_context+0x10>
  f00ef4:	e590d000 	ldr	sp, [r0]
  f00ef8:	e8bd1fff 	pop	{r0, r1, r2, r3, r4, r5, r6, r7, r8, r9, sl, fp, ip}
  f00efc:	e12fff1e 	bx	lr
  f00f00:	00f000a0 	.word	0x00f000a0

00f00f04 <cpu_apientry>:
  f00f04:	e1a0f00e 	mov	pc, lr

00f00f08 <__traps>:
  f00f08:	f96d051f 	srsdb	sp!, #31
  f00f0c:	f102001f 	cps	#31
  f00f10:	e52d0004 	push	{r0}		; (str r0, [sp, #-4]!)
  f00f14:	e52de004 	push	{lr}		; (str lr, [sp, #-4]!)
  f00f18:	e24dd018 	sub	sp, sp, #24
  f00f1c:	e92d00ff 	push	{r0, r1, r2, r3, r4, r5, r6, r7}
  f00f20:	e0200000 	eor	r0, r0, r0
  f00f24:	e2800001 	add	r0, r0, #1
  f00f28:	ea000044 	b	f01040 <trap>

00f00f2c <tr_swi>:
  f00f2c:	f96d051f 	srsdb	sp!, #31
  f00f30:	f102001f 	cps	#31
  f00f34:	e52d0004 	push	{r0}		; (str r0, [sp, #-4]!)
  f00f38:	e52de004 	push	{lr}		; (str lr, [sp, #-4]!)
  f00f3c:	e24dd018 	sub	sp, sp, #24
  f00f40:	e92d00ff 	push	{r0, r1, r2, r3, r4, r5, r6, r7}
  f00f44:	e0200000 	eor	r0, r0, r0
  f00f48:	e2800002 	add	r0, r0, #2
  f00f4c:	ea00003b 	b	f01040 <trap>

00f00f50 <tr_iab>:
  f00f50:	e1a0d00e 	mov	sp, lr
  f00f54:	e24dd004 	sub	sp, sp, #4
  f00f58:	e1a0e00d 	mov	lr, sp
  f00f5c:	f96d051f 	srsdb	sp!, #31
  f00f60:	f102001f 	cps	#31
  f00f64:	e52d0004 	push	{r0}		; (str r0, [sp, #-4]!)
  f00f68:	e52de004 	push	{lr}		; (str lr, [sp, #-4]!)
  f00f6c:	e24dd018 	sub	sp, sp, #24
  f00f70:	e92d00ff 	push	{r0, r1, r2, r3, r4, r5, r6, r7}
  f00f74:	e0200000 	eor	r0, r0, r0
  f00f78:	e2800003 	add	r0, r0, #3
  f00f7c:	ea00002f 	b	f01040 <trap>

00f00f80 <tr_dab>:
  f00f80:	e1a0d00e 	mov	sp, lr
  f00f84:	e24dd008 	sub	sp, sp, #8
  f00f88:	e1a0e00d 	mov	lr, sp
  f00f8c:	f96d051f 	srsdb	sp!, #31
  f00f90:	f102001f 	cps	#31
  f00f94:	e52d0004 	push	{r0}		; (str r0, [sp, #-4]!)
  f00f98:	e52de004 	push	{lr}		; (str lr, [sp, #-4]!)
  f00f9c:	e24dd018 	sub	sp, sp, #24
  f00fa0:	e92d00ff 	push	{r0, r1, r2, r3, r4, r5, r6, r7}
  f00fa4:	e0200000 	eor	r0, r0, r0
  f00fa8:	e2800004 	add	r0, r0, #4
  f00fac:	ea000023 	b	f01040 <trap>

00f00fb0 <tr_bad>:
  f00fb0:	e1a0d00e 	mov	sp, lr
  f00fb4:	e24dd004 	sub	sp, sp, #4
  f00fb8:	e1a0e00d 	mov	lr, sp
  f00fbc:	f96d051f 	srsdb	sp!, #31
  f00fc0:	f102001f 	cps	#31
  f00fc4:	e52d0004 	push	{r0}		; (str r0, [sp, #-4]!)
  f00fc8:	e52de004 	push	{lr}		; (str lr, [sp, #-4]!)
  f00fcc:	e24dd018 	sub	sp, sp, #24
  f00fd0:	e92d00ff 	push	{r0, r1, r2, r3, r4, r5, r6, r7}
  f00fd4:	e0200000 	eor	r0, r0, r0
  f00fd8:	e2800005 	add	r0, r0, #5
  f00fdc:	ea000017 	b	f01040 <trap>

00f00fe0 <tr_irq>:
  f00fe0:	e1a0d00e 	mov	sp, lr
  f00fe4:	e24dd004 	sub	sp, sp, #4
  f00fe8:	e1a0e00d 	mov	lr, sp
  f00fec:	f96d051f 	srsdb	sp!, #31
  f00ff0:	f102001f 	cps	#31
  f00ff4:	e52d0004 	push	{r0}		; (str r0, [sp, #-4]!)
  f00ff8:	e52de004 	push	{lr}		; (str lr, [sp, #-4]!)
  f00ffc:	e24dd018 	sub	sp, sp, #24
  f01000:	e92d00ff 	push	{r0, r1, r2, r3, r4, r5, r6, r7}
  f01004:	e0200000 	eor	r0, r0, r0
  f01008:	e2800006 	add	r0, r0, #6
  f0100c:	ea00000b 	b	f01040 <trap>

00f01010 <tr_fiq>:
  f01010:	e1a0d00e 	mov	sp, lr
  f01014:	e24dd004 	sub	sp, sp, #4
  f01018:	e1a0e00d 	mov	lr, sp
  f0101c:	f96d051f 	srsdb	sp!, #31
  f01020:	f102001f 	cps	#31
  f01024:	e52d0004 	push	{r0}		; (str r0, [sp, #-4]!)
  f01028:	e52de004 	push	{lr}		; (str lr, [sp, #-4]!)
  f0102c:	e24dd018 	sub	sp, sp, #24
  f01030:	e92d00ff 	push	{r0, r1, r2, r3, r4, r5, r6, r7}
  f01034:	e0200000 	eor	r0, r0, r0
  f01038:	e2800007 	add	r0, r0, #7
  f0103c:	eaffffff 	b	f01040 <trap>

00f01040 <trap>:
  f01040:	e1a0400d 	mov	r4, sp
  f01044:	e2844040 	add	r4, r4, #64	; 0x40
  f01048:	e8b4000a 	ldm	r4!, {r1, r3}
  f0104c:	e10f2000 	mrs	r2, CPSR
  f01050:	e92d000f 	push	{r0, r1, r2, r3}
  f01054:	e244400c 	sub	r4, r4, #12
  f01058:	e5841000 	str	r1, [r4]
  f0105c:	e129f003 	msr	CPSR_fc, r3
  f01060:	e2444004 	sub	r4, r4, #4
  f01064:	e584e000 	str	lr, [r4]
  f01068:	e1a0700d 	mov	r7, sp
  f0106c:	e129f002 	msr	CPSR_fc, r2
  f01070:	e1a0600c 	mov	r6, ip
  f01074:	e1a0500b 	mov	r5, fp
  f01078:	e1a0400a 	mov	r4, sl
  f0107c:	e1a03009 	mov	r3, r9
  f01080:	e1a02008 	mov	r2, r8
  f01084:	e28dd048 	add	sp, sp, #72	; 0x48
  f01088:	e92d00fc 	push	{r2, r3, r4, r5, r6, r7}
  f0108c:	e24dd030 	sub	sp, sp, #48	; 0x30
  f01090:	e59f4040 	ldr	r4, [pc, #64]	; f010d8 <rfe+0x30>
  f01094:	e5944000 	ldr	r4, [r4]
  f01098:	e3540000 	cmp	r4, #0
  f0109c:	0afffffe 	beq	f0109c <trap+0x5c>
  f010a0:	e1a0000d 	mov	r0, sp
  f010a4:	e12fff34 	blx	r4

00f010a8 <rfe>:
  f010a8:	e28dd030 	add	sp, sp, #48	; 0x30
  f010ac:	e8bd007f 	pop	{r0, r1, r2, r3, r4, r5, r6}
  f010b0:	e1a08000 	mov	r8, r0
  f010b4:	e1a09001 	mov	r9, r1
  f010b8:	e1a0a002 	mov	sl, r2
  f010bc:	e1a0b003 	mov	fp, r3
  f010c0:	e1a0c004 	mov	ip, r4
  f010c4:	e1a0e006 	mov	lr, r6
  f010c8:	e24dd03c 	sub	sp, sp, #60	; 0x3c
  f010cc:	e8bd00ff 	pop	{r0, r1, r2, r3, r4, r5, r6, r7}
  f010d0:	e28dd020 	add	sp, sp, #32
  f010d4:	f8bd0a00 	rfeia	sp!
  f010d8:	00f63030 	.word	0x00f63030

00f010dc <raise>:
  f010dc:	e3a00000 	mov	r0, #0
  f010e0:	e1a0f00e 	mov	pc, lr

00f010e4 <_exc_set_trap>:
  f010e4:	e59f200c 	ldr	r2, [pc, #12]	; f010f8 <_exc_set_trap+0x14>
  f010e8:	e5921000 	ldr	r1, [r2]
  f010ec:	e5820000 	str	r0, [r2]
  f010f0:	e1a00001 	mov	r0, r1
  f010f4:	e12fff1e 	bx	lr
  f010f8:	00f63030 	.word	0x00f63030

00f010fc <armv7_exception_init>:
  f010fc:	e59f004c 	ldr	r0, [pc, #76]	; f01150 <armv7_exception_init+0x54>
  f01100:	ee0c0f10 	mcr	15, 0, r0, cr12, cr0, {0}
  f01104:	ee110f10 	mrc	15, 0, r0, cr1, cr0, {0}
  f01108:	e3c00a02 	bic	r0, r0, #8192	; 0x2000
  f0110c:	ee010f10 	mcr	15, 0, r0, cr1, cr0, {0}
  f01110:	e10f0000 	mrs	r0, CPSR
  f01114:	e3a0101f 	mov	r1, #31
  f01118:	e1c11000 	bic	r1, r1, r0
  f0111c:	e3a0201f 	mov	r2, #31
  f01120:	e1811002 	orr	r1, r1, r2
  f01124:	e129f001 	msr	CPSR_fc, r1
  f01128:	e59f1024 	ldr	r1, [pc, #36]	; f01154 <armv7_exception_init+0x58>
  f0112c:	e2811a01 	add	r1, r1, #4096	; 0x1000
  f01130:	e2411008 	sub	r1, r1, #8
  f01134:	e1a0d001 	mov	sp, r1
  f01138:	e3cdd007 	bic	sp, sp, #7
  f0113c:	e129f000 	msr	CPSR_fc, r0
  f01140:	e59f0010 	ldr	r0, [pc, #16]	; f01158 <armv7_exception_init+0x5c>
  f01144:	ee0c0f30 	mcr	15, 0, r0, cr12, cr0, {1}
  f01148:	f57ff06f 	isb	sy
  f0114c:	e1a0f00e 	mov	pc, lr
  f01150:	00f00000 	.word	0x00f00000
  f01154:	00f63034 	.word	0x00f63034
  f01158:	00f00a20 	.word	0x00f00a20

00f0115c <_exc_restart>:
  f0115c:	e51fe000 	ldr	lr, [pc, #-0]	; f01164 <_exc_restart+0x8>
  f01160:	e1a0f00e 	mov	pc, lr
  f01164:	ffff0000 	.word	0xffff0000

00f01168 <cfe_warmstart>:
  f01168:	e1a0f00e 	mov	pc, lr
	...

00f01180 <secondary_startup>:
  f01180:	02faf080 	.word	0x02faf080

00f01184 <biucfgb>:
  f01184:	81060000 	.word	0x81060000

00f01188 <gpiobase>:
  f01188:	ff800500 	.word	0xff800500

00f0118c <gicdb>:
  f0118c:	81001000 	.word	0x81001000

00f01190 <giccb>:
  f01190:	81002000 	.word	0x81002000

00f01194 <grpd>:
  f01194:	ffffffff 	.word	0xffffffff

00f01198 <secondary_reset>:
  f01198:	e10f0000 	mrs	r0, CPSR
  f0119c:	e3a0101f 	mov	r1, #31
  f011a0:	e1c00001 	bic	r0, r0, r1
  f011a4:	e3a010d3 	mov	r1, #211	; 0xd3
  f011a8:	e1800001 	orr	r0, r0, r1
  f011ac:	e129f000 	msr	CPSR_fc, r0
  f011b0:	ee110f10 	mrc	15, 0, r0, cr1, cr0, {0}
  f011b4:	e3c00007 	bic	r0, r0, #7
  f011b8:	e3c00b06 	bic	r0, r0, #6144	; 0x1800
  f011bc:	e3800a02 	orr	r0, r0, #8192	; 0x2000
  f011c0:	ee010f10 	mcr	15, 0, r0, cr1, cr0, {0}
  f011c4:	f57ff06f 	isb	sy
  f011c8:	e3a00000 	mov	r0, #0
  f011cc:	ee080f17 	mcr	15, 0, r0, cr8, cr7, {0}
  f011d0:	ee070f15 	mcr	15, 0, r0, cr7, cr5, {0}
  f011d4:	ee070fd5 	mcr	15, 0, r0, cr7, cr5, {6}
  f011d8:	ee111f30 	mrc	15, 0, r1, cr1, cr0, {1}
  f011dc:	e3811040 	orr	r1, r1, #64	; 0x40
  f011e0:	ee011f30 	mcr	15, 0, r1, cr1, cr0, {1}
  f011e4:	e24f006c 	sub	r0, pc, #108	; 0x6c
  f011e8:	e1a00000 	nop			; (mov r0, r0)
  f011ec:	e5900000 	ldr	r0, [r0]
  f011f0:	ee0e0f10 	mcr	15, 0, r0, cr14, cr0, {0}
  f011f4:	e24f0070 	sub	r0, pc, #112	; 0x70
  f011f8:	e1a00000 	nop			; (mov r0, r0)
  f011fc:	e5900000 	ldr	r0, [r0]
  f01200:	e3a01003 	mov	r1, #3
  f01204:	e5801000 	str	r1, [r0]
  f01208:	e5902004 	ldr	r2, [r0, #4]
  f0120c:	e202201f 	and	r2, r2, #31
  f01210:	e2822001 	add	r2, r2, #1
  f01214:	e24f1088 	sub	r1, pc, #136	; 0x88
  f01218:	e1a00000 	nop			; (mov r0, r0)
  f0121c:	e5911000 	ldr	r1, [r1]
  f01220:	e2800080 	add	r0, r0, #128	; 0x80

00f01224 <setgroup>:
  f01224:	e5801000 	str	r1, [r0]
  f01228:	e2800004 	add	r0, r0, #4
  f0122c:	e2522001 	subs	r2, r2, #1
  f01230:	1afffffb 	bne	f01224 <setgroup>
  f01234:	e24f00ac 	sub	r0, pc, #172	; 0xac
  f01238:	e1a00000 	nop			; (mov r0, r0)
  f0123c:	e5900000 	ldr	r0, [r0]
  f01240:	e5901000 	ldr	r1, [r0]
  f01244:	e3811003 	orr	r1, r1, #3
  f01248:	e5801000 	str	r1, [r0]
  f0124c:	e3a01080 	mov	r1, #128	; 0x80
  f01250:	e5801004 	str	r1, [r0, #4]
  f01254:	e28f0044 	add	r0, pc, #68	; 0x44
  f01258:	e1a00000 	nop			; (mov r0, r0)
  f0125c:	ee0c0f30 	mcr	15, 0, r0, cr12, cr0, {1}
  f01260:	f57ff06f 	isb	sy
  f01264:	e3000c00 	movw	r0, #3072	; 0xc00
  f01268:	e3400006 	movt	r0, #6
  f0126c:	ee010f51 	mcr	15, 0, r0, cr1, cr1, {2}

00f01270 <label_smc>:
  f01270:	e1600070 	smc	0
  f01274:	e320f003 	wfi
  f01278:	e24f00f8 	sub	r0, pc, #248	; 0xf8
  f0127c:	e1a00000 	nop			; (mov r0, r0)
  f01280:	e5900000 	ldr	r0, [r0]
  f01284:	e5901068 	ldr	r1, [r0, #104]	; 0x68
  f01288:	e1a0f001 	mov	pc, r1
  f0128c:	e320f000 	nop	{0}
  f01290:	e320f000 	nop	{0}
  f01294:	e320f000 	nop	{0}
  f01298:	e320f000 	nop	{0}
  f0129c:	e320f000 	nop	{0}

00f012a0 <sec_mon_vector>:
	...
  f012a8:	ea000004 	b	f012c0 <sec_monitor_handler>
	...

00f012c0 <sec_monitor_handler>:
  f012c0:	ee115f11 	mrc	15, 0, r5, cr1, cr1, {0}
  f012c4:	e3855001 	orr	r5, r5, #1
  f012c8:	ee015f11 	mcr	15, 0, r5, cr1, cr1, {0}
  f012cc:	f57ff06f 	isb	sy
  f012d0:	e3a05d07 	mov	r5, #448	; 0x1c0
  f012d4:	e31e0001 	tst	lr, #1
  f012d8:	13855020 	orrne	r5, r5, #32
  f012dc:	e3855013 	orr	r5, r5, #19
  f012e0:	e16ff005 	msr	SPSR_fsxc, r5
  f012e4:	e1b0f00e 	movs	pc, lr

00f012e8 <_bcm63xx_fix_pll>:
  f012e8:	e52db004 	push	{fp}		; (str fp, [sp, #-4]!)
  f012ec:	e28db000 	add	fp, sp, #0
  f012f0:	e1a00000 	nop			; (mov r0, r0)
  f012f4:	e28bd000 	add	sp, fp, #0
  f012f8:	e49db004 	pop	{fp}		; (ldr fp, [sp], #4)
  f012fc:	e12fff1e 	bx	lr

00f01300 <bcm_cmn_wd_reset>:
  f01300:	e92d4800 	push	{fp, lr}
  f01304:	e28db004 	add	fp, sp, #4
  f01308:	ebfffff6 	bl	f012e8 <_bcm63xx_fix_pll>
  f0130c:	e3a03d12 	mov	r3, #1152	; 0x480
  f01310:	e34f3f80 	movt	r3, #65408	; 0xff80
  f01314:	e3a02d12 	mov	r2, #1152	; 0x480
  f01318:	e34f2f80 	movt	r2, #65408	; 0xff80
  f0131c:	e592200c 	ldr	r2, [r2, #12]
  f01320:	e3822001 	orr	r2, r2, #1
  f01324:	e583200c 	str	r2, [r3, #12]
  f01328:	e1a00000 	nop			; (mov r0, r0)
  f0132c:	e8bd8800 	pop	{fp, pc}

00f01330 <bcm_cmn_wd_set>:
  f01330:	e92d4800 	push	{fp, lr}
  f01334:	e28db004 	add	fp, sp, #4
  f01338:	e24dd008 	sub	sp, sp, #8
  f0133c:	e50b0008 	str	r0, [fp, #-8]
  f01340:	e50b100c 	str	r1, [fp, #-12]
  f01344:	e51b300c 	ldr	r3, [fp, #-12]
  f01348:	e3530000 	cmp	r3, #0
  f0134c:	0a000004 	beq	f01364 <bcm_cmn_wd_set+0x34>
  f01350:	ebffffe4 	bl	f012e8 <_bcm63xx_fix_pll>
  f01354:	e3a030ff 	mov	r3, #255	; 0xff
  f01358:	e34f3f00 	movt	r3, #65280	; 0xff00
  f0135c:	e50b300c 	str	r3, [fp, #-12]
  f01360:	ea000002 	b	f01370 <bcm_cmn_wd_set+0x40>
  f01364:	e3a030ee 	mov	r3, #238	; 0xee
  f01368:	e34e3e00 	movt	r3, #60928	; 0xee00
  f0136c:	e50b300c 	str	r3, [fp, #-12]
  f01370:	e3a03d12 	mov	r3, #1152	; 0x480
  f01374:	e34f3f80 	movt	r3, #65408	; 0xff80
  f01378:	e51b1008 	ldr	r1, [fp, #-8]
  f0137c:	e30f2080 	movw	r2, #61568	; 0xf080
  f01380:	e34022fa 	movt	r2, #762	; 0x2fa
  f01384:	e0020192 	mul	r2, r2, r1
  f01388:	e5832000 	str	r2, [r3]
  f0138c:	e3a03d12 	mov	r3, #1152	; 0x480
  f01390:	e34f3f80 	movt	r3, #65408	; 0xff80
  f01394:	e51b200c 	ldr	r2, [fp, #-12]
  f01398:	e1a02822 	lsr	r2, r2, #16
  f0139c:	e5832004 	str	r2, [r3, #4]
  f013a0:	e3a03d12 	mov	r3, #1152	; 0x480
  f013a4:	e34f3f80 	movt	r3, #65408	; 0xff80
  f013a8:	e51b200c 	ldr	r2, [fp, #-12]
  f013ac:	e6ff2072 	uxth	r2, r2
  f013b0:	e5832004 	str	r2, [r3, #4]
  f013b4:	e1a00000 	nop			; (mov r0, r0)
  f013b8:	e24bd004 	sub	sp, fp, #4
  f013bc:	e8bd8800 	pop	{fp, pc}

00f013c0 <cfe_mailbox_status_isset>:
  f013c0:	e52db004 	push	{fp}		; (str fp, [sp, #-4]!)
  f013c4:	e28db000 	add	fp, sp, #0
  f013c8:	e3a03c26 	mov	r3, #9728	; 0x2600
  f013cc:	e34f3f80 	movt	r3, #65408	; 0xff80
  f013d0:	e5933028 	ldr	r3, [r3, #40]	; 0x28
  f013d4:	e2033001 	and	r3, r3, #1
  f013d8:	e3530000 	cmp	r3, #0
  f013dc:	13a03001 	movne	r3, #1
  f013e0:	03a03000 	moveq	r3, #0
  f013e4:	e6ef3073 	uxtb	r3, r3
  f013e8:	e1a00003 	mov	r0, r3
  f013ec:	e28bd000 	add	sp, fp, #0
  f013f0:	e49db004 	pop	{fp}		; (ldr fp, [sp], #4)
  f013f4:	e12fff1e 	bx	lr

00f013f8 <bcm_otp_get_boot_sec_state>:
  f013f8:	e92d4800 	push	{fp, lr}
  f013fc:	e28db004 	add	fp, sp, #4
  f01400:	e24dd018 	sub	sp, sp, #24
  f01404:	e50b0018 	str	r0, [fp, #-24]	; 0xffffffe8
  f01408:	e3a03000 	mov	r3, #0
  f0140c:	e50b3008 	str	r3, [fp, #-8]
  f01410:	e51b3018 	ldr	r3, [fp, #-24]	; 0xffffffe8
  f01414:	e3a02000 	mov	r2, #0
  f01418:	e5832000 	str	r2, [r3]
  f0141c:	e24b300c 	sub	r3, fp, #12
  f01420:	e1a01003 	mov	r1, r3
  f01424:	e3a00011 	mov	r0, #17
  f01428:	eb00067f 	bl	f02e2c <bcm_otp_get_row>
  f0142c:	e50b0008 	str	r0, [fp, #-8]
  f01430:	e24b3010 	sub	r3, fp, #16
  f01434:	e1a01003 	mov	r1, r3
  f01438:	e3a00012 	mov	r0, #18
  f0143c:	eb00067a 	bl	f02e2c <bcm_otp_get_row>
  f01440:	e1a02000 	mov	r2, r0
  f01444:	e51b3008 	ldr	r3, [fp, #-8]
  f01448:	e1833002 	orr	r3, r3, r2
  f0144c:	e50b3008 	str	r3, [fp, #-8]
  f01450:	e24b3014 	sub	r3, fp, #20
  f01454:	e1a01003 	mov	r1, r3
  f01458:	e3a00017 	mov	r0, #23
  f0145c:	eb000672 	bl	f02e2c <bcm_otp_get_row>
  f01460:	e1a02000 	mov	r2, r0
  f01464:	e51b3008 	ldr	r3, [fp, #-8]
  f01468:	e1833002 	orr	r3, r3, r2
  f0146c:	e50b3008 	str	r3, [fp, #-8]
  f01470:	e51b3008 	ldr	r3, [fp, #-8]
  f01474:	e3530000 	cmp	r3, #0
  f01478:	0a000001 	beq	f01484 <bcm_otp_get_boot_sec_state+0x8c>
  f0147c:	e3e03000 	mvn	r3, #0
  f01480:	ea000016 	b	f014e0 <bcm_otp_get_boot_sec_state+0xe8>
  f01484:	e51b300c 	ldr	r3, [fp, #-12]
  f01488:	e2033008 	and	r3, r3, #8
  f0148c:	e3530000 	cmp	r3, #0
  f01490:	0a000011 	beq	f014dc <bcm_otp_get_boot_sec_state+0xe4>
  f01494:	e51b3010 	ldr	r3, [fp, #-16]
  f01498:	e203390e 	and	r3, r3, #229376	; 0x38000
  f0149c:	e3530000 	cmp	r3, #0
  f014a0:	0a00000d 	beq	f014dc <bcm_otp_get_boot_sec_state+0xe4>
  f014a4:	e51b3018 	ldr	r3, [fp, #-24]	; 0xffffffe8
  f014a8:	e3a02004 	mov	r2, #4
  f014ac:	e5832000 	str	r2, [r3]
  f014b0:	e51b3014 	ldr	r3, [fp, #-20]	; 0xffffffec
  f014b4:	e6ff3073 	uxth	r3, r3
  f014b8:	e3530000 	cmp	r3, #0
  f014bc:	0a000006 	beq	f014dc <bcm_otp_get_boot_sec_state+0xe4>
  f014c0:	eb0006de 	bl	f03040 <bcm_otp_fld_secure_rows>
  f014c4:	e1a03000 	mov	r3, r0
  f014c8:	e3530000 	cmp	r3, #0
  f014cc:	1a000002 	bne	f014dc <bcm_otp_get_boot_sec_state+0xe4>
  f014d0:	e51b3018 	ldr	r3, [fp, #-24]	; 0xffffffe8
  f014d4:	e3a02005 	mov	r2, #5
  f014d8:	e5832000 	str	r2, [r3]
  f014dc:	e51b3008 	ldr	r3, [fp, #-8]
  f014e0:	e1a00003 	mov	r0, r3
  f014e4:	e24bd004 	sub	sp, fp, #4
  f014e8:	e8bd8800 	pop	{fp, pc}

00f014ec <_query_boot_status>:
  f014ec:	e92d4800 	push	{fp, lr}
  f014f0:	e28db004 	add	fp, sp, #4
  f014f4:	e24dd008 	sub	sp, sp, #8
  f014f8:	e50b0008 	str	r0, [fp, #-8]
  f014fc:	e51b3008 	ldr	r3, [fp, #-8]
  f01500:	e1a00003 	mov	r0, r3
  f01504:	ebffffbb 	bl	f013f8 <bcm_otp_get_boot_sec_state>
  f01508:	e1a03000 	mov	r3, r0
  f0150c:	e3530000 	cmp	r3, #0
  f01510:	0a000001 	beq	f0151c <_query_boot_status+0x30>
  f01514:	e3a03001 	mov	r3, #1
  f01518:	ea000009 	b	f01544 <_query_boot_status+0x58>
  f0151c:	e51b3008 	ldr	r3, [fp, #-8]
  f01520:	e3a02000 	mov	r2, #0
  f01524:	e5832008 	str	r2, [r3, #8]
  f01528:	e51b3008 	ldr	r3, [fp, #-8]
  f0152c:	e3a02001 	mov	r2, #1
  f01530:	e5832008 	str	r2, [r3, #8]
  f01534:	e51b3008 	ldr	r3, [fp, #-8]
  f01538:	e3a02003 	mov	r2, #3
  f0153c:	e5832004 	str	r2, [r3, #4]
  f01540:	e3a03000 	mov	r3, #0
  f01544:	e1a00003 	mov	r0, r3
  f01548:	e24bd004 	sub	sp, fp, #4
  f0154c:	e8bd8800 	pop	{fp, pc}

00f01550 <cfe_sec_init>:
  f01550:	e92d4800 	push	{fp, lr}
  f01554:	e28db004 	add	fp, sp, #4
  f01558:	e24dd008 	sub	sp, sp, #8
  f0155c:	e30c3618 	movw	r3, #50712	; 0xc618
  f01560:	e34030f6 	movt	r3, #246	; 0xf6
  f01564:	e50b3008 	str	r3, [fp, #-8]
  f01568:	e30c3618 	movw	r3, #50712	; 0xc618
  f0156c:	e34030f6 	movt	r3, #246	; 0xf6
  f01570:	e5933010 	ldr	r3, [r3, #16]
  f01574:	e3530000 	cmp	r3, #0
  f01578:	1a00004f 	bne	f016bc <cfe_sec_init+0x16c>
  f0157c:	e51b0008 	ldr	r0, [fp, #-8]
  f01580:	ebffffd9 	bl	f014ec <_query_boot_status>
  f01584:	e1a03000 	mov	r3, r0
  f01588:	e3530001 	cmp	r3, #1
  f0158c:	0a00004c 	beq	f016c4 <cfe_sec_init+0x174>
  f01590:	e51b3008 	ldr	r3, [fp, #-8]
  f01594:	e5933000 	ldr	r3, [r3]
  f01598:	e3530000 	cmp	r3, #0
  f0159c:	0a000008 	beq	f015c4 <cfe_sec_init+0x74>
  f015a0:	e2433004 	sub	r3, r3, #4
  f015a4:	e3530001 	cmp	r3, #1
  f015a8:	8a000047 	bhi	f016cc <cfe_sec_init+0x17c>
  f015ac:	e59f3188 	ldr	r3, [pc, #392]	; f0173c <cfe_sec_init+0x1ec>
  f015b0:	e3a02c02 	mov	r2, #512	; 0x200
  f015b4:	e1a01003 	mov	r1, r3
  f015b8:	e59f0180 	ldr	r0, [pc, #384]	; f01740 <cfe_sec_init+0x1f0>
  f015bc:	eb00e988 	bl	f3bbe4 <lib_memcpy>
  f015c0:	ea000000 	b	f015c8 <cfe_sec_init+0x78>
  f015c4:	e1a00000 	nop			; (mov r0, r0)
  f015c8:	e30c3618 	movw	r3, #50712	; 0xc618
  f015cc:	e34030f6 	movt	r3, #246	; 0xf6
  f015d0:	e3a02002 	mov	r2, #2
  f015d4:	e5832010 	str	r2, [r3, #16]
  f015d8:	e3a00b03 	mov	r0, #3072	; 0xc00
  f015dc:	e34f0f80 	movt	r0, #65408	; 0xff80
  f015e0:	eb00d42a 	bl	f36690 <sotpInit>
  f015e4:	e1a03000 	mov	r3, r0
  f015e8:	e3530000 	cmp	r3, #0
  f015ec:	0a000017 	beq	f01650 <cfe_sec_init+0x100>
  f015f0:	e3023acc 	movw	r3, #10956	; 0x2acc
  f015f4:	e34030f5 	movt	r3, #245	; 0xf5
  f015f8:	e5933000 	ldr	r3, [r3]
  f015fc:	e1a02c03 	lsl	r2, r3, #24
  f01600:	e3023acc 	movw	r3, #10956	; 0x2acc
  f01604:	e34030f5 	movt	r3, #245	; 0xf5
  f01608:	e5933000 	ldr	r3, [r3]
  f0160c:	e2033cff 	and	r3, r3, #65280	; 0xff00
  f01610:	e1a03403 	lsl	r3, r3, #8
  f01614:	e1822003 	orr	r2, r2, r3
  f01618:	e3023acc 	movw	r3, #10956	; 0x2acc
  f0161c:	e34030f5 	movt	r3, #245	; 0xf5
  f01620:	e5933000 	ldr	r3, [r3]
  f01624:	e20338ff 	and	r3, r3, #16711680	; 0xff0000
  f01628:	e1a03423 	lsr	r3, r3, #8
  f0162c:	e1822003 	orr	r2, r2, r3
  f01630:	e3023acc 	movw	r3, #10956	; 0x2acc
  f01634:	e34030f5 	movt	r3, #245	; 0xf5
  f01638:	e5933000 	ldr	r3, [r3]
  f0163c:	e1a03c23 	lsr	r3, r3, #24
  f01640:	e1823003 	orr	r3, r2, r3
  f01644:	e1a00003 	mov	r0, r3
  f01648:	eb00d314 	bl	f362a0 <board_setleds>
  f0164c:	ea00001f 	b	f016d0 <cfe_sec_init+0x180>
  f01650:	e59f00ec 	ldr	r0, [pc, #236]	; f01744 <cfe_sec_init+0x1f4>
  f01654:	eb000051 	bl	f017a0 <_query_sec_console_status>
  f01658:	e3023ad4 	movw	r3, #10964	; 0x2ad4
  f0165c:	e34030f5 	movt	r3, #245	; 0xf5
  f01660:	e5933000 	ldr	r3, [r3]
  f01664:	e1a02c03 	lsl	r2, r3, #24
  f01668:	e3023ad4 	movw	r3, #10964	; 0x2ad4
  f0166c:	e34030f5 	movt	r3, #245	; 0xf5
  f01670:	e5933000 	ldr	r3, [r3]
  f01674:	e2033cff 	and	r3, r3, #65280	; 0xff00
  f01678:	e1a03403 	lsl	r3, r3, #8
  f0167c:	e1822003 	orr	r2, r2, r3
  f01680:	e3023ad4 	movw	r3, #10964	; 0x2ad4
  f01684:	e34030f5 	movt	r3, #245	; 0xf5
  f01688:	e5933000 	ldr	r3, [r3]
  f0168c:	e20338ff 	and	r3, r3, #16711680	; 0xff0000
  f01690:	e1a03423 	lsr	r3, r3, #8
  f01694:	e1822003 	orr	r2, r2, r3
  f01698:	e3023ad4 	movw	r3, #10964	; 0x2ad4
  f0169c:	e34030f5 	movt	r3, #245	; 0xf5
  f016a0:	e5933000 	ldr	r3, [r3]
  f016a4:	e1a03c23 	lsr	r3, r3, #24
  f016a8:	e1823003 	orr	r3, r2, r3
  f016ac:	e1a00003 	mov	r0, r3
  f016b0:	eb00d2fa 	bl	f362a0 <board_setleds>
  f016b4:	e3a03000 	mov	r3, #0
  f016b8:	ea00001c 	b	f01730 <cfe_sec_init+0x1e0>
  f016bc:	e1a00000 	nop			; (mov r0, r0)
  f016c0:	ea000002 	b	f016d0 <cfe_sec_init+0x180>
  f016c4:	e1a00000 	nop			; (mov r0, r0)
  f016c8:	ea000000 	b	f016d0 <cfe_sec_init+0x180>
  f016cc:	e1a00000 	nop			; (mov r0, r0)
  f016d0:	e3023adc 	movw	r3, #10972	; 0x2adc
  f016d4:	e34030f5 	movt	r3, #245	; 0xf5
  f016d8:	e5933000 	ldr	r3, [r3]
  f016dc:	e1a02c03 	lsl	r2, r3, #24
  f016e0:	e3023adc 	movw	r3, #10972	; 0x2adc
  f016e4:	e34030f5 	movt	r3, #245	; 0xf5
  f016e8:	e5933000 	ldr	r3, [r3]
  f016ec:	e2033cff 	and	r3, r3, #65280	; 0xff00
  f016f0:	e1a03403 	lsl	r3, r3, #8
  f016f4:	e1822003 	orr	r2, r2, r3
  f016f8:	e3023adc 	movw	r3, #10972	; 0x2adc
  f016fc:	e34030f5 	movt	r3, #245	; 0xf5
  f01700:	e5933000 	ldr	r3, [r3]
  f01704:	e20338ff 	and	r3, r3, #16711680	; 0xff0000
  f01708:	e1a03423 	lsr	r3, r3, #8
  f0170c:	e1822003 	orr	r2, r2, r3
  f01710:	e3023adc 	movw	r3, #10972	; 0x2adc
  f01714:	e34030f5 	movt	r3, #245	; 0xf5
  f01718:	e5933000 	ldr	r3, [r3]
  f0171c:	e1a03c23 	lsr	r3, r3, #24
  f01720:	e1823003 	orr	r3, r2, r3
  f01724:	e1a00003 	mov	r0, r3
  f01728:	eb00d2dc 	bl	f362a0 <board_setleds>
  f0172c:	e3a03001 	mov	r3, #1
  f01730:	e1a00003 	mov	r0, r3
  f01734:	e24bd004 	sub	sp, fp, #4
  f01738:	e8bd8800 	pop	{fp, pc}
  f0173c:	00dffdef 	.word	0x00dffdef
  f01740:	00f6c62c 	.word	0x00f6c62c
  f01744:	00f6c624 	.word	0x00f6c624

00f01748 <cfe_sec_shred_credentials>:
  f01748:	e92d4800 	push	{fp, lr}
  f0174c:	e28db004 	add	fp, sp, #4
  f01750:	e24dd008 	sub	sp, sp, #8
  f01754:	e3a03000 	mov	r3, #0
  f01758:	e50b3008 	str	r3, [fp, #-8]
  f0175c:	e3a03000 	mov	r3, #0
  f01760:	e50b300c 	str	r3, [fp, #-12]
  f01764:	e3a03a07 	mov	r3, #28672	; 0x7000
  f01768:	e34f3ff8 	movt	r3, #65528	; 0xfff8
  f0176c:	e50b3008 	str	r3, [fp, #-8]
  f01770:	e3a03a01 	mov	r3, #4096	; 0x1000
  f01774:	e50b300c 	str	r3, [fp, #-12]
  f01778:	e51b300c 	ldr	r3, [fp, #-12]
  f0177c:	e1a02003 	mov	r2, r3
  f01780:	e3a01000 	mov	r1, #0
  f01784:	e51b0008 	ldr	r0, [fp, #-8]
  f01788:	eb00e985 	bl	f3bda4 <lib_memset>
  f0178c:	e3a00001 	mov	r0, #1
  f01790:	eb00eff1 	bl	f3d75c <cfe_flushcache>
  f01794:	e1a00000 	nop			; (mov r0, r0)
  f01798:	e24bd004 	sub	sp, fp, #4
  f0179c:	e8bd8800 	pop	{fp, pc}

00f017a0 <_query_sec_console_status>:
  f017a0:	e52db004 	push	{fp}		; (str fp, [sp, #-4]!)
  f017a4:	e28db000 	add	fp, sp, #0
  f017a8:	e24dd014 	sub	sp, sp, #20
  f017ac:	e50b0010 	str	r0, [fp, #-16]
  f017b0:	e3a03000 	mov	r3, #0
  f017b4:	e50b3008 	str	r3, [fp, #-8]
  f017b8:	e51b3008 	ldr	r3, [fp, #-8]
  f017bc:	e3530000 	cmp	r3, #0
  f017c0:	0a000003 	beq	f017d4 <_query_sec_console_status+0x34>
  f017c4:	e51b3010 	ldr	r3, [fp, #-16]
  f017c8:	e3a02001 	mov	r2, #1
  f017cc:	e5832000 	str	r2, [r3]
  f017d0:	ea000002 	b	f017e0 <_query_sec_console_status+0x40>
  f017d4:	e51b3010 	ldr	r3, [fp, #-16]
  f017d8:	e3a02000 	mov	r2, #0
  f017dc:	e5832000 	str	r2, [r3]
  f017e0:	e1a00000 	nop			; (mov r0, r0)
  f017e4:	e28bd000 	add	sp, fp, #0
  f017e8:	e49db004 	pop	{fp}		; (ldr fp, [sp], #4)
  f017ec:	e12fff1e 	bx	lr

00f017f0 <cfe_sec_is_console_nonsec>:
  f017f0:	e52db004 	push	{fp}		; (str fp, [sp, #-4]!)
  f017f4:	e28db000 	add	fp, sp, #0
  f017f8:	e30c3618 	movw	r3, #50712	; 0xc618
  f017fc:	e34030f6 	movt	r3, #246	; 0xf6
  f01800:	e593300c 	ldr	r3, [r3, #12]
  f01804:	e3530001 	cmp	r3, #1
  f01808:	03a03001 	moveq	r3, #1
  f0180c:	13a03000 	movne	r3, #0
  f01810:	e6ef3073 	uxtb	r3, r3
  f01814:	e1a00003 	mov	r0, r3
  f01818:	e28bd000 	add	sp, fp, #0
  f0181c:	e49db004 	pop	{fp}		; (ldr fp, [sp], #4)
  f01820:	e12fff1e 	bx	lr

00f01824 <cfe_sec_set_console_privLvl>:
  f01824:	e92d4800 	push	{fp, lr}
  f01828:	e28db004 	add	fp, sp, #4
  f0182c:	ebffffef 	bl	f017f0 <cfe_sec_is_console_nonsec>
  f01830:	e1a03000 	mov	r3, r0
  f01834:	e3530000 	cmp	r3, #0
  f01838:	0a00002f 	beq	f018fc <cfe_sec_set_console_privLvl+0xd8>
  f0183c:	ebffffc1 	bl	f01748 <cfe_sec_shred_credentials>
  f01840:	e3023ae4 	movw	r3, #10980	; 0x2ae4
  f01844:	e34030f5 	movt	r3, #245	; 0xf5
  f01848:	e5933000 	ldr	r3, [r3]
  f0184c:	e1a02c03 	lsl	r2, r3, #24
  f01850:	e3023ae4 	movw	r3, #10980	; 0x2ae4
  f01854:	e34030f5 	movt	r3, #245	; 0xf5
  f01858:	e5933000 	ldr	r3, [r3]
  f0185c:	e2033cff 	and	r3, r3, #65280	; 0xff00
  f01860:	e1a03403 	lsl	r3, r3, #8
  f01864:	e1822003 	orr	r2, r2, r3
  f01868:	e3023ae4 	movw	r3, #10980	; 0x2ae4
  f0186c:	e34030f5 	movt	r3, #245	; 0xf5
  f01870:	e5933000 	ldr	r3, [r3]
  f01874:	e20338ff 	and	r3, r3, #16711680	; 0xff0000
  f01878:	e1a03423 	lsr	r3, r3, #8
  f0187c:	e1822003 	orr	r2, r2, r3
  f01880:	e3023ae4 	movw	r3, #10980	; 0x2ae4
  f01884:	e34030f5 	movt	r3, #245	; 0xf5
  f01888:	e5933000 	ldr	r3, [r3]
  f0188c:	e1a03c23 	lsr	r3, r3, #24
  f01890:	e1823003 	orr	r3, r2, r3
  f01894:	e1a00003 	mov	r0, r3
  f01898:	eb00d280 	bl	f362a0 <board_setleds>
  f0189c:	ebfffd51 	bl	f00de8 <cfe_nonsecure>
  f018a0:	e3023aec 	movw	r3, #10988	; 0x2aec
  f018a4:	e34030f5 	movt	r3, #245	; 0xf5
  f018a8:	e5933000 	ldr	r3, [r3]
  f018ac:	e1a02c03 	lsl	r2, r3, #24
  f018b0:	e3023aec 	movw	r3, #10988	; 0x2aec
  f018b4:	e34030f5 	movt	r3, #245	; 0xf5
  f018b8:	e5933000 	ldr	r3, [r3]
  f018bc:	e2033cff 	and	r3, r3, #65280	; 0xff00
  f018c0:	e1a03403 	lsl	r3, r3, #8
  f018c4:	e1822003 	orr	r2, r2, r3
  f018c8:	e3023aec 	movw	r3, #10988	; 0x2aec
  f018cc:	e34030f5 	movt	r3, #245	; 0xf5
  f018d0:	e5933000 	ldr	r3, [r3]
  f018d4:	e20338ff 	and	r3, r3, #16711680	; 0xff0000
  f018d8:	e1a03423 	lsr	r3, r3, #8
  f018dc:	e1822003 	orr	r2, r2, r3
  f018e0:	e3023aec 	movw	r3, #10988	; 0x2aec
  f018e4:	e34030f5 	movt	r3, #245	; 0xf5
  f018e8:	e5933000 	ldr	r3, [r3]
  f018ec:	e1a03c23 	lsr	r3, r3, #24
  f018f0:	e1823003 	orr	r3, r2, r3
  f018f4:	e1a00003 	mov	r0, r3
  f018f8:	eb00d268 	bl	f362a0 <board_setleds>
  f018fc:	e1a00000 	nop			; (mov r0, r0)
  f01900:	e8bd8800 	pop	{fp, pc}

00f01904 <cfe_sec_set_rng_access_permissions>:
  f01904:	e52db004 	push	{fp}		; (str fp, [sp, #-4]!)
  f01908:	e28db000 	add	fp, sp, #0
  f0190c:	e24dd00c 	sub	sp, sp, #12
  f01910:	e3a030cc 	mov	r3, #204	; 0xcc
  f01914:	e50b3008 	str	r3, [fp, #-8]
  f01918:	e3a03d2e 	mov	r3, #2944	; 0xb80
  f0191c:	e34f3f80 	movt	r3, #65408	; 0xff80
  f01920:	e51b2008 	ldr	r2, [fp, #-8]
  f01924:	e5832028 	str	r2, [r3, #40]	; 0x28
  f01928:	e1a00000 	nop			; (mov r0, r0)
  f0192c:	e28bd000 	add	sp, fp, #0
  f01930:	e49db004 	pop	{fp}		; (ldr fp, [sp], #4)
  f01934:	e12fff1e 	bx	lr

00f01938 <cfe_sec_set_sotp_access_permissions>:
  f01938:	e52db004 	push	{fp}		; (str fp, [sp, #-4]!)
  f0193c:	e28db000 	add	fp, sp, #0
  f01940:	e24dd00c 	sub	sp, sp, #12
  f01944:	e3a030cc 	mov	r3, #204	; 0xcc
  f01948:	e50b3008 	str	r3, [fp, #-8]
  f0194c:	e3a03b03 	mov	r3, #3072	; 0xc00
  f01950:	e34f3f80 	movt	r3, #65408	; 0xff80
  f01954:	e51b2008 	ldr	r2, [fp, #-8]
  f01958:	e5832070 	str	r2, [r3, #112]	; 0x70
  f0195c:	e1a00000 	nop			; (mov r0, r0)
  f01960:	e28bd000 	add	sp, fp, #0
  f01964:	e49db004 	pop	{fp}		; (ldr fp, [sp], #4)
  f01968:	e12fff1e 	bx	lr

00f0196c <pl011_set_baudrate>:
  f0196c:	e92d4800 	push	{fp, lr}
  f01970:	e28db004 	add	fp, sp, #4
  f01974:	e24dd018 	sub	sp, sp, #24
  f01978:	e50b0018 	str	r0, [fp, #-24]	; 0xffffffe8
  f0197c:	e51b3018 	ldr	r3, [fp, #-24]	; 0xffffffe8
  f01980:	e5933000 	ldr	r3, [r3]
  f01984:	e1a01003 	mov	r1, r3
  f01988:	e3a00cc2 	mov	r0, #49664	; 0xc200
  f0198c:	e3400beb 	movt	r0, #3051	; 0xbeb
  f01990:	ebfffc6a 	bl	f00b40 <__divsi3>
  f01994:	e1a03000 	mov	r3, r0
  f01998:	e50b3008 	str	r3, [fp, #-8]
  f0199c:	e51b3008 	ldr	r3, [fp, #-8]
  f019a0:	e1a03323 	lsr	r3, r3, #6
  f019a4:	e50b300c 	str	r3, [fp, #-12]
  f019a8:	e51b3008 	ldr	r3, [fp, #-8]
  f019ac:	e203303f 	and	r3, r3, #63	; 0x3f
  f019b0:	e50b3010 	str	r3, [fp, #-16]
  f019b4:	e3a03a02 	mov	r3, #8192	; 0x2000
  f019b8:	e34f3f81 	movt	r3, #65409	; 0xff81
  f019bc:	e51b200c 	ldr	r2, [fp, #-12]
  f019c0:	e5832024 	str	r2, [r3, #36]	; 0x24
  f019c4:	e3a03a02 	mov	r3, #8192	; 0x2000
  f019c8:	e34f3f81 	movt	r3, #65409	; 0xff81
  f019cc:	e51b2010 	ldr	r2, [fp, #-16]
  f019d0:	e5832028 	str	r2, [r3, #40]	; 0x28
  f019d4:	e1a00000 	nop			; (mov r0, r0)
  f019d8:	e24bd004 	sub	sp, fp, #4
  f019dc:	e8bd8800 	pop	{fp, pc}

00f019e0 <pl011_uart_probe>:
  f019e0:	e92d4800 	push	{fp, lr}
  f019e4:	e28db004 	add	fp, sp, #4
  f019e8:	e24dd068 	sub	sp, sp, #104	; 0x68
  f019ec:	e50b0060 	str	r0, [fp, #-96]	; 0xffffffa0
  f019f0:	e50b1064 	str	r1, [fp, #-100]	; 0xffffff9c
  f019f4:	e50b2068 	str	r2, [fp, #-104]	; 0xffffff98
  f019f8:	e50b306c 	str	r3, [fp, #-108]	; 0xffffff94
  f019fc:	e3a02000 	mov	r2, #0
  f01a00:	e3a01004 	mov	r1, #4
  f01a04:	e30f0330 	movw	r0, #62256	; 0xf330
  f01a08:	e34000f6 	movt	r0, #246	; 0xf6
  f01a0c:	eb00e06b 	bl	f39bc0 <kmalloc>
  f01a10:	e50b0008 	str	r0, [fp, #-8]
  f01a14:	e51b3008 	ldr	r3, [fp, #-8]
  f01a18:	e3530000 	cmp	r3, #0
  f01a1c:	0a00000b 	beq	f01a50 <pl011_uart_probe+0x70>
  f01a20:	e51b3060 	ldr	r3, [fp, #-96]	; 0xffffffa0
  f01a24:	e5932000 	ldr	r2, [r3]
  f01a28:	e24b0058 	sub	r0, fp, #88	; 0x58
  f01a2c:	e51b3068 	ldr	r3, [fp, #-104]	; 0xffffff98
  f01a30:	e3021b0c 	movw	r1, #11020	; 0x2b0c
  f01a34:	e34010f5 	movt	r1, #245	; 0xf5
  f01a38:	eb00e5cf 	bl	f3b17c <xsprintf>
  f01a3c:	e24b3058 	sub	r3, fp, #88	; 0x58
  f01a40:	e3a02000 	mov	r2, #0
  f01a44:	e51b1008 	ldr	r1, [fp, #-8]
  f01a48:	e51b0060 	ldr	r0, [fp, #-96]	; 0xffffffa0
  f01a4c:	eb00eb37 	bl	f3c730 <cfe_attach>
  f01a50:	e1a00000 	nop			; (mov r0, r0)
  f01a54:	e24bd004 	sub	sp, fp, #4
  f01a58:	e8bd8800 	pop	{fp, pc}

00f01a5c <pl011_uart_open>:
  f01a5c:	e92d4800 	push	{fp, lr}
  f01a60:	e28db004 	add	fp, sp, #4
  f01a64:	e24dd010 	sub	sp, sp, #16
  f01a68:	e50b0010 	str	r0, [fp, #-16]
  f01a6c:	e51b3010 	ldr	r3, [fp, #-16]
  f01a70:	e5933004 	ldr	r3, [r3, #4]
  f01a74:	e50b3008 	str	r3, [fp, #-8]
  f01a78:	e51b2008 	ldr	r2, [fp, #-8]
  f01a7c:	e3a03cc2 	mov	r3, #49664	; 0xc200
  f01a80:	e3403001 	movt	r3, #1
  f01a84:	e5823000 	str	r3, [r2]
  f01a88:	e51b0008 	ldr	r0, [fp, #-8]
  f01a8c:	ebffffb6 	bl	f0196c <pl011_set_baudrate>
  f01a90:	e3a03a02 	mov	r3, #8192	; 0x2000
  f01a94:	e34f3f81 	movt	r3, #65409	; 0xff81
  f01a98:	e3a02070 	mov	r2, #112	; 0x70
  f01a9c:	e583202c 	str	r2, [r3, #44]	; 0x2c
  f01aa0:	e3a03a02 	mov	r3, #8192	; 0x2000
  f01aa4:	e34f3f81 	movt	r3, #65409	; 0xff81
  f01aa8:	e3a02000 	mov	r2, #0
  f01aac:	e5832038 	str	r2, [r3, #56]	; 0x38
  f01ab0:	e3a03a02 	mov	r3, #8192	; 0x2000
  f01ab4:	e34f3f81 	movt	r3, #65409	; 0xff81
  f01ab8:	e3002301 	movw	r2, #769	; 0x301
  f01abc:	e5832030 	str	r2, [r3, #48]	; 0x30
  f01ac0:	e3a03000 	mov	r3, #0
  f01ac4:	e1a00003 	mov	r0, r3
  f01ac8:	e24bd004 	sub	sp, fp, #4
  f01acc:	e8bd8800 	pop	{fp, pc}

00f01ad0 <pl011_uart_read>:
  f01ad0:	e52db004 	push	{fp}		; (str fp, [sp, #-4]!)
  f01ad4:	e28db000 	add	fp, sp, #0
  f01ad8:	e24dd014 	sub	sp, sp, #20
  f01adc:	e50b0010 	str	r0, [fp, #-16]
  f01ae0:	e50b1014 	str	r1, [fp, #-20]	; 0xffffffec
  f01ae4:	e51b3014 	ldr	r3, [fp, #-20]	; 0xffffffec
  f01ae8:	e5933008 	ldr	r3, [r3, #8]
  f01aec:	e50b3008 	str	r3, [fp, #-8]
  f01af0:	e51b3014 	ldr	r3, [fp, #-20]	; 0xffffffec
  f01af4:	e593300c 	ldr	r3, [r3, #12]
  f01af8:	e50b300c 	str	r3, [fp, #-12]
  f01afc:	ea00000a 	b	f01b2c <pl011_uart_read+0x5c>
  f01b00:	e51b2008 	ldr	r2, [fp, #-8]
  f01b04:	e2823001 	add	r3, r2, #1
  f01b08:	e50b3008 	str	r3, [fp, #-8]
  f01b0c:	e3a03a02 	mov	r3, #8192	; 0x2000
  f01b10:	e34f3f81 	movt	r3, #65409	; 0xff81
  f01b14:	e5933000 	ldr	r3, [r3]
  f01b18:	e6ef3073 	uxtb	r3, r3
  f01b1c:	e5c23000 	strb	r3, [r2]
  f01b20:	e51b300c 	ldr	r3, [fp, #-12]
  f01b24:	e2433001 	sub	r3, r3, #1
  f01b28:	e50b300c 	str	r3, [fp, #-12]
  f01b2c:	e51b300c 	ldr	r3, [fp, #-12]
  f01b30:	e3530000 	cmp	r3, #0
  f01b34:	da000005 	ble	f01b50 <pl011_uart_read+0x80>
  f01b38:	e3a03a02 	mov	r3, #8192	; 0x2000
  f01b3c:	e34f3f81 	movt	r3, #65409	; 0xff81
  f01b40:	e5933018 	ldr	r3, [r3, #24]
  f01b44:	e2033010 	and	r3, r3, #16
  f01b48:	e3530000 	cmp	r3, #0
  f01b4c:	0affffeb 	beq	f01b00 <pl011_uart_read+0x30>
  f01b50:	e51b3014 	ldr	r3, [fp, #-20]	; 0xffffffec
  f01b54:	e593200c 	ldr	r2, [r3, #12]
  f01b58:	e51b300c 	ldr	r3, [fp, #-12]
  f01b5c:	e0632002 	rsb	r2, r3, r2
  f01b60:	e51b3014 	ldr	r3, [fp, #-20]	; 0xffffffec
  f01b64:	e5832010 	str	r2, [r3, #16]
  f01b68:	e3a03000 	mov	r3, #0
  f01b6c:	e1a00003 	mov	r0, r3
  f01b70:	e28bd000 	add	sp, fp, #0
  f01b74:	e49db004 	pop	{fp}		; (ldr fp, [sp], #4)
  f01b78:	e12fff1e 	bx	lr

00f01b7c <pl011_uart_inpstat>:
  f01b7c:	e52db004 	push	{fp}		; (str fp, [sp, #-4]!)
  f01b80:	e28db000 	add	fp, sp, #0
  f01b84:	e24dd00c 	sub	sp, sp, #12
  f01b88:	e50b0008 	str	r0, [fp, #-8]
  f01b8c:	e50b100c 	str	r1, [fp, #-12]
  f01b90:	e3a03a02 	mov	r3, #8192	; 0x2000
  f01b94:	e34f3f81 	movt	r3, #65409	; 0xff81
  f01b98:	e5933018 	ldr	r3, [r3, #24]
  f01b9c:	e2033010 	and	r3, r3, #16
  f01ba0:	e3530000 	cmp	r3, #0
  f01ba4:	03a03001 	moveq	r3, #1
  f01ba8:	13a03000 	movne	r3, #0
  f01bac:	e6ef3073 	uxtb	r3, r3
  f01bb0:	e1a02003 	mov	r2, r3
  f01bb4:	e51b300c 	ldr	r3, [fp, #-12]
  f01bb8:	e5832000 	str	r2, [r3]
  f01bbc:	e3a03000 	mov	r3, #0
  f01bc0:	e1a00003 	mov	r0, r3
  f01bc4:	e28bd000 	add	sp, fp, #0
  f01bc8:	e49db004 	pop	{fp}		; (ldr fp, [sp], #4)
  f01bcc:	e12fff1e 	bx	lr

00f01bd0 <pl011_uart_write>:
  f01bd0:	e52db004 	push	{fp}		; (str fp, [sp, #-4]!)
  f01bd4:	e28db000 	add	fp, sp, #0
  f01bd8:	e24dd014 	sub	sp, sp, #20
  f01bdc:	e50b0010 	str	r0, [fp, #-16]
  f01be0:	e50b1014 	str	r1, [fp, #-20]	; 0xffffffec
  f01be4:	e51b3014 	ldr	r3, [fp, #-20]	; 0xffffffec
  f01be8:	e5933008 	ldr	r3, [r3, #8]
  f01bec:	e50b3008 	str	r3, [fp, #-8]
  f01bf0:	e51b3014 	ldr	r3, [fp, #-20]	; 0xffffffec
  f01bf4:	e593300c 	ldr	r3, [r3, #12]
  f01bf8:	e50b300c 	str	r3, [fp, #-12]
  f01bfc:	ea00000a 	b	f01c2c <pl011_uart_write+0x5c>
  f01c00:	e3a03a02 	mov	r3, #8192	; 0x2000
  f01c04:	e34f3f81 	movt	r3, #65409	; 0xff81
  f01c08:	e51b2008 	ldr	r2, [fp, #-8]
  f01c0c:	e5d22000 	ldrb	r2, [r2]
  f01c10:	e5832000 	str	r2, [r3]
  f01c14:	e51b3008 	ldr	r3, [fp, #-8]
  f01c18:	e2833001 	add	r3, r3, #1
  f01c1c:	e50b3008 	str	r3, [fp, #-8]
  f01c20:	e51b300c 	ldr	r3, [fp, #-12]
  f01c24:	e2433001 	sub	r3, r3, #1
  f01c28:	e50b300c 	str	r3, [fp, #-12]
  f01c2c:	e51b300c 	ldr	r3, [fp, #-12]
  f01c30:	e3530000 	cmp	r3, #0
  f01c34:	da000005 	ble	f01c50 <pl011_uart_write+0x80>
  f01c38:	e3a03a02 	mov	r3, #8192	; 0x2000
  f01c3c:	e34f3f81 	movt	r3, #65409	; 0xff81
  f01c40:	e5933018 	ldr	r3, [r3, #24]
  f01c44:	e2033020 	and	r3, r3, #32
  f01c48:	e3530000 	cmp	r3, #0
  f01c4c:	0affffeb 	beq	f01c00 <pl011_uart_write+0x30>
  f01c50:	e1a00000 	nop			; (mov r0, r0)
  f01c54:	e3a03a02 	mov	r3, #8192	; 0x2000
  f01c58:	e34f3f81 	movt	r3, #65409	; 0xff81
  f01c5c:	e5933018 	ldr	r3, [r3, #24]
  f01c60:	e2033080 	and	r3, r3, #128	; 0x80
  f01c64:	e3530000 	cmp	r3, #0
  f01c68:	0afffff9 	beq	f01c54 <pl011_uart_write+0x84>
  f01c6c:	e51b3014 	ldr	r3, [fp, #-20]	; 0xffffffec
  f01c70:	e593200c 	ldr	r2, [r3, #12]
  f01c74:	e51b300c 	ldr	r3, [fp, #-12]
  f01c78:	e0632002 	rsb	r2, r3, r2
  f01c7c:	e51b3014 	ldr	r3, [fp, #-20]	; 0xffffffec
  f01c80:	e5832010 	str	r2, [r3, #16]
  f01c84:	e3a03000 	mov	r3, #0
  f01c88:	e1a00003 	mov	r0, r3
  f01c8c:	e28bd000 	add	sp, fp, #0
  f01c90:	e49db004 	pop	{fp}		; (ldr fp, [sp], #4)
  f01c94:	e12fff1e 	bx	lr

00f01c98 <pl011_uart_ioctl>:
  f01c98:	e92d4800 	push	{fp, lr}
  f01c9c:	e28db004 	add	fp, sp, #4
  f01ca0:	e24dd010 	sub	sp, sp, #16
  f01ca4:	e50b0010 	str	r0, [fp, #-16]
  f01ca8:	e50b1014 	str	r1, [fp, #-20]	; 0xffffffec
  f01cac:	e51b3010 	ldr	r3, [fp, #-16]
  f01cb0:	e5933004 	ldr	r3, [r3, #4]
  f01cb4:	e50b3008 	str	r3, [fp, #-8]
  f01cb8:	e51b3014 	ldr	r3, [fp, #-20]	; 0xffffffec
  f01cbc:	e5933008 	ldr	r3, [r3, #8]
  f01cc0:	e50b300c 	str	r3, [fp, #-12]
  f01cc4:	e51b3014 	ldr	r3, [fp, #-20]	; 0xffffffec
  f01cc8:	e5933014 	ldr	r3, [r3, #20]
  f01ccc:	e2433001 	sub	r3, r3, #1
  f01cd0:	e3530003 	cmp	r3, #3
  f01cd4:	979ff103 	ldrls	pc, [pc, r3, lsl #2]
  f01cd8:	ea000015 	b	f01d34 <pl011_uart_ioctl+0x9c>
  f01cdc:	00f01d04 	.word	0x00f01d04
  f01ce0:	00f01cec 	.word	0x00f01cec
  f01ce4:	00f01d3c 	.word	0x00f01d3c
  f01ce8:	00f01d24 	.word	0x00f01d24
  f01cec:	e51b3008 	ldr	r3, [fp, #-8]
  f01cf0:	e5933000 	ldr	r3, [r3]
  f01cf4:	e1a02003 	mov	r2, r3
  f01cf8:	e51b300c 	ldr	r3, [fp, #-12]
  f01cfc:	e5832000 	str	r2, [r3]
  f01d00:	ea00000e 	b	f01d40 <pl011_uart_ioctl+0xa8>
  f01d04:	e51b300c 	ldr	r3, [fp, #-12]
  f01d08:	e5933000 	ldr	r3, [r3]
  f01d0c:	e1a02003 	mov	r2, r3
  f01d10:	e51b3008 	ldr	r3, [fp, #-8]
  f01d14:	e5832000 	str	r2, [r3]
  f01d18:	e51b0008 	ldr	r0, [fp, #-8]
  f01d1c:	ebffff12 	bl	f0196c <pl011_set_baudrate>
  f01d20:	ea000006 	b	f01d40 <pl011_uart_ioctl+0xa8>
  f01d24:	e51b300c 	ldr	r3, [fp, #-12]
  f01d28:	e3a02000 	mov	r2, #0
  f01d2c:	e5832000 	str	r2, [r3]
  f01d30:	ea000002 	b	f01d40 <pl011_uart_ioctl+0xa8>
  f01d34:	e3e03000 	mvn	r3, #0
  f01d38:	ea000001 	b	f01d44 <pl011_uart_ioctl+0xac>
  f01d3c:	e1a00000 	nop			; (mov r0, r0)
  f01d40:	e3a03000 	mov	r3, #0
  f01d44:	e1a00003 	mov	r0, r3
  f01d48:	e24bd004 	sub	sp, fp, #4
  f01d4c:	e8bd8800 	pop	{fp, pc}

00f01d50 <pl011_uart_close>:
  f01d50:	e52db004 	push	{fp}		; (str fp, [sp, #-4]!)
  f01d54:	e28db000 	add	fp, sp, #0
  f01d58:	e24dd00c 	sub	sp, sp, #12
  f01d5c:	e50b0008 	str	r0, [fp, #-8]
  f01d60:	e3a03000 	mov	r3, #0
  f01d64:	e1a00003 	mov	r0, r3
  f01d68:	e28bd000 	add	sp, fp, #0
  f01d6c:	e49db004 	pop	{fp}		; (ldr fp, [sp], #4)
  f01d70:	e12fff1e 	bx	lr

00f01d74 <BcmSpi_SetCtrlState>:
  f01d74:	e92d4800 	push	{fp, lr}
  f01d78:	e28db004 	add	fp, sp, #4
  f01d7c:	e24dd010 	sub	sp, sp, #16
  f01d80:	e50b0008 	str	r0, [fp, #-8]
  f01d84:	e50b100c 	str	r1, [fp, #-12]
  f01d88:	e50b2010 	str	r2, [fp, #-16]
  f01d8c:	e50b3014 	str	r3, [fp, #-20]	; 0xffffffec
  f01d90:	e51b300c 	ldr	r3, [fp, #-12]
  f01d94:	e3530007 	cmp	r3, #7
  f01d98:	ca000002 	bgt	f01da8 <BcmSpi_SetCtrlState+0x34>
  f01d9c:	e51b3008 	ldr	r3, [fp, #-8]
  f01da0:	e3530001 	cmp	r3, #1
  f01da4:	da000006 	ble	f01dc4 <BcmSpi_SetCtrlState+0x50>
  f01da8:	e51b2008 	ldr	r2, [fp, #-8]
  f01dac:	e51b100c 	ldr	r1, [fp, #-12]
  f01db0:	e3020b1c 	movw	r0, #11036	; 0x2b1c
  f01db4:	e34000f5 	movt	r0, #245	; 0xf5
  f01db8:	eb00e501 	bl	f3b1c4 <xprintf>
  f01dbc:	e3e03001 	mvn	r3, #1
  f01dc0:	ea000009 	b	f01dec <BcmSpi_SetCtrlState+0x78>
  f01dc4:	e51b1014 	ldr	r1, [fp, #-20]	; 0xffffffec
  f01dc8:	e51b0010 	ldr	r0, [fp, #-16]
  f01dcc:	eb00a714 	bl	f2ba24 <BcmHsSpiSetup>
  f01dd0:	e1a03000 	mov	r3, r0
  f01dd4:	e1a01003 	mov	r1, r3
  f01dd8:	e3043034 	movw	r3, #16436	; 0x4034
  f01ddc:	e34030f6 	movt	r3, #246	; 0xf6
  f01de0:	e51b200c 	ldr	r2, [fp, #-12]
  f01de4:	e7831102 	str	r1, [r3, r2, lsl #2]
  f01de8:	e3a03000 	mov	r3, #0
  f01dec:	e1a00003 	mov	r0, r3
  f01df0:	e24bd004 	sub	sp, fp, #4
  f01df4:	e8bd8800 	pop	{fp, pc}

00f01df8 <BcmSpi_SetFlashCtrl>:
  f01df8:	e92d4800 	push	{fp, lr}
  f01dfc:	e28db004 	add	fp, sp, #4
  f01e00:	e24dd020 	sub	sp, sp, #32
  f01e04:	e50b0008 	str	r0, [fp, #-8]
  f01e08:	e50b100c 	str	r1, [fp, #-12]
  f01e0c:	e50b2010 	str	r2, [fp, #-16]
  f01e10:	e50b3014 	str	r3, [fp, #-20]	; 0xffffffec
  f01e14:	e51b3014 	ldr	r3, [fp, #-20]	; 0xffffffec
  f01e18:	e3530001 	cmp	r3, #1
  f01e1c:	1a00000c 	bne	f01e54 <BcmSpi_SetFlashCtrl+0x5c>
  f01e20:	e59b300c 	ldr	r3, [fp, #12]
  f01e24:	e58d3008 	str	r3, [sp, #8]
  f01e28:	e59b3008 	ldr	r3, [fp, #8]
  f01e2c:	e58d3004 	str	r3, [sp, #4]
  f01e30:	e59b3004 	ldr	r3, [fp, #4]
  f01e34:	e58d3000 	str	r3, [sp]
  f01e38:	e51b3014 	ldr	r3, [fp, #-20]	; 0xffffffec
  f01e3c:	e51b2010 	ldr	r2, [fp, #-16]
  f01e40:	e51b100c 	ldr	r1, [fp, #-12]
  f01e44:	e51b0008 	ldr	r0, [fp, #-8]
  f01e48:	eb00a734 	bl	f2bb20 <BcmHsSpiSetFlashCtrl>
  f01e4c:	e3a03000 	mov	r3, #0
  f01e50:	ea000005 	b	f01e6c <BcmSpi_SetFlashCtrl+0x74>
  f01e54:	e51b3014 	ldr	r3, [fp, #-20]	; 0xffffffec
  f01e58:	e3530000 	cmp	r3, #0
  f01e5c:	1a000001 	bne	f01e68 <BcmSpi_SetFlashCtrl+0x70>
  f01e60:	e3e03001 	mvn	r3, #1
  f01e64:	ea000000 	b	f01e6c <BcmSpi_SetFlashCtrl+0x74>
  f01e68:	e3e03001 	mvn	r3, #1
  f01e6c:	e1a00003 	mov	r0, r3
  f01e70:	e24bd004 	sub	sp, fp, #4
  f01e74:	e8bd8800 	pop	{fp, pc}

00f01e78 <BcmSpi_GetMaxRWSize>:
  f01e78:	e92d4800 	push	{fp, lr}
  f01e7c:	e28db004 	add	fp, sp, #4
  f01e80:	e24dd010 	sub	sp, sp, #16
  f01e84:	e50b0010 	str	r0, [fp, #-16]
  f01e88:	e50b1014 	str	r1, [fp, #-20]	; 0xffffffec
  f01e8c:	e3a03000 	mov	r3, #0
  f01e90:	e50b3008 	str	r3, [fp, #-8]
  f01e94:	e51b3010 	ldr	r3, [fp, #-16]
  f01e98:	e3530001 	cmp	r3, #1
  f01e9c:	1a000002 	bne	f01eac <BcmSpi_GetMaxRWSize+0x34>
  f01ea0:	e51b0014 	ldr	r0, [fp, #-20]	; 0xffffffec
  f01ea4:	eb00a6ce 	bl	f2b9e4 <BcmHsSpiGetMaxRWSize>
  f01ea8:	e50b0008 	str	r0, [fp, #-8]
  f01eac:	e51b3008 	ldr	r3, [fp, #-8]
  f01eb0:	e1a00003 	mov	r0, r3
  f01eb4:	e24bd004 	sub	sp, fp, #4
  f01eb8:	e8bd8800 	pop	{fp, pc}

00f01ebc <BcmSpi_Write>:
  f01ebc:	e92d4800 	push	{fp, lr}
  f01ec0:	e28db004 	add	fp, sp, #4
  f01ec4:	e24dd018 	sub	sp, sp, #24
  f01ec8:	e50b0008 	str	r0, [fp, #-8]
  f01ecc:	e50b100c 	str	r1, [fp, #-12]
  f01ed0:	e50b2010 	str	r2, [fp, #-16]
  f01ed4:	e50b3014 	str	r3, [fp, #-20]	; 0xffffffec
  f01ed8:	e51b3010 	ldr	r3, [fp, #-16]
  f01edc:	e3530000 	cmp	r3, #0
  f01ee0:	1a000001 	bne	f01eec <BcmSpi_Write+0x30>
  f01ee4:	e3e03001 	mvn	r3, #1
  f01ee8:	ea00000f 	b	f01f2c <BcmSpi_Write+0x70>
  f01eec:	e51b3010 	ldr	r3, [fp, #-16]
  f01ef0:	e3530001 	cmp	r3, #1
  f01ef4:	1a00000b 	bne	f01f28 <BcmSpi_Write+0x6c>
  f01ef8:	e3043034 	movw	r3, #16436	; 0x4034
  f01efc:	e34030f6 	movt	r3, #246	; 0xf6
  f01f00:	e51b2014 	ldr	r2, [fp, #-20]	; 0xffffffec
  f01f04:	e7933102 	ldr	r3, [r3, r2, lsl #2]
  f01f08:	e58d3000 	str	r3, [sp]
  f01f0c:	e59b3004 	ldr	r3, [fp, #4]
  f01f10:	e51b2014 	ldr	r2, [fp, #-20]	; 0xffffffec
  f01f14:	e51b100c 	ldr	r1, [fp, #-12]
  f01f18:	e51b0008 	ldr	r0, [fp, #-8]
  f01f1c:	eb00a697 	bl	f2b980 <BcmHsSpiWrite>
  f01f20:	e1a03000 	mov	r3, r0
  f01f24:	ea000000 	b	f01f2c <BcmSpi_Write+0x70>
  f01f28:	e3e03001 	mvn	r3, #1
  f01f2c:	e1a00003 	mov	r0, r3
  f01f30:	e24bd004 	sub	sp, fp, #4
  f01f34:	e8bd8800 	pop	{fp, pc}

00f01f38 <BcmSpi_MultibitRead>:
  f01f38:	e92d4800 	push	{fp, lr}
  f01f3c:	e28db004 	add	fp, sp, #4
  f01f40:	e24dd010 	sub	sp, sp, #16
  f01f44:	e50b0008 	str	r0, [fp, #-8]
  f01f48:	e50b100c 	str	r1, [fp, #-12]
  f01f4c:	e50b2010 	str	r2, [fp, #-16]
  f01f50:	e51b300c 	ldr	r3, [fp, #-12]
  f01f54:	e3530000 	cmp	r3, #0
  f01f58:	1a000001 	bne	f01f64 <BcmSpi_MultibitRead+0x2c>
  f01f5c:	e3e03001 	mvn	r3, #1
  f01f60:	ea00000d 	b	f01f9c <BcmSpi_MultibitRead+0x64>
  f01f64:	e51b300c 	ldr	r3, [fp, #-12]
  f01f68:	e3530001 	cmp	r3, #1
  f01f6c:	1a000009 	bne	f01f98 <BcmSpi_MultibitRead+0x60>
  f01f70:	e3043034 	movw	r3, #16436	; 0x4034
  f01f74:	e34030f6 	movt	r3, #246	; 0xf6
  f01f78:	e51b2010 	ldr	r2, [fp, #-16]
  f01f7c:	e7933102 	ldr	r3, [r3, r2, lsl #2]
  f01f80:	e1a02003 	mov	r2, r3
  f01f84:	e51b1010 	ldr	r1, [fp, #-16]
  f01f88:	e51b0008 	ldr	r0, [fp, #-8]
  f01f8c:	eb00a63e 	bl	f2b88c <BcmHsSpiMultibitRead>
  f01f90:	e1a03000 	mov	r3, r0
  f01f94:	ea000000 	b	f01f9c <BcmSpi_MultibitRead+0x64>
  f01f98:	e3e03001 	mvn	r3, #1
  f01f9c:	e1a00003 	mov	r0, r3
  f01fa0:	e24bd004 	sub	sp, fp, #4
  f01fa4:	e8bd8800 	pop	{fp, pc}

00f01fa8 <bcm_set_pinmux>:
  f01fa8:	e52db004 	push	{fp}		; (str fp, [sp, #-4]!)
  f01fac:	e28db000 	add	fp, sp, #0
  f01fb0:	e24dd014 	sub	sp, sp, #20
  f01fb4:	e50b0010 	str	r0, [fp, #-16]
  f01fb8:	e50b1014 	str	r1, [fp, #-20]	; 0xffffffec
  f01fbc:	e3a03000 	mov	r3, #0
  f01fc0:	e50b3008 	str	r3, [fp, #-8]
  f01fc4:	e51b2008 	ldr	r2, [fp, #-8]
  f01fc8:	e51b3010 	ldr	r3, [fp, #-16]
  f01fcc:	e1823003 	orr	r3, r2, r3
  f01fd0:	e50b3008 	str	r3, [fp, #-8]
  f01fd4:	e51b3014 	ldr	r3, [fp, #-20]	; 0xffffffec
  f01fd8:	e1a03603 	lsl	r3, r3, #12
  f01fdc:	e51b2008 	ldr	r2, [fp, #-8]
  f01fe0:	e1823003 	orr	r3, r2, r3
  f01fe4:	e50b3008 	str	r3, [fp, #-8]
  f01fe8:	e3a03c05 	mov	r3, #1280	; 0x500
  f01fec:	e34f3f80 	movt	r3, #65408	; 0xff80
  f01ff0:	e3a02000 	mov	r2, #0
  f01ff4:	e5832054 	str	r2, [r3, #84]	; 0x54
  f01ff8:	e3a03c05 	mov	r3, #1280	; 0x500
  f01ffc:	e34f3f80 	movt	r3, #65408	; 0xff80
  f02000:	e51b2008 	ldr	r2, [fp, #-8]
  f02004:	e5832058 	str	r2, [r3, #88]	; 0x58
  f02008:	e3a03c05 	mov	r3, #1280	; 0x500
  f0200c:	e34f3f80 	movt	r3, #65408	; 0xff80
  f02010:	e3a02021 	mov	r2, #33	; 0x21
  f02014:	e583205c 	str	r2, [r3, #92]	; 0x5c
  f02018:	e1a00000 	nop			; (mov r0, r0)
  f0201c:	e28bd000 	add	sp, fp, #0
  f02020:	e49db004 	pop	{fp}		; (ldr fp, [sp], #4)
  f02024:	e12fff1e 	bx	lr

00f02028 <bcm_init_pinmux>:
  f02028:	e92d4800 	push	{fp, lr}
  f0202c:	e28db004 	add	fp, sp, #4
  f02030:	e24dde63 	sub	sp, sp, #1584	; 0x630
  f02034:	e3a03000 	mov	r3, #0
  f02038:	e50b3010 	str	r3, [fp, #-16]
  f0203c:	e3a03000 	mov	r3, #0
  f02040:	e50b3014 	str	r3, [fp, #-20]	; 0xffffffec
  f02044:	eb000504 	bl	f0345c <bcm_led_driver_get_optled_map>
  f02048:	e50b0018 	str	r0, [fp, #-24]	; 0xffffffe8
  f0204c:	e24b0f8a 	sub	r0, fp, #552	; 0x228
  f02050:	e24b2028 	sub	r2, fp, #40	; 0x28
  f02054:	e24b1024 	sub	r1, fp, #36	; 0x24
  f02058:	e24b3e62 	sub	r3, fp, #1568	; 0x620
  f0205c:	e2433004 	sub	r3, r3, #4
  f02060:	e2433004 	sub	r3, r3, #4
  f02064:	e58d3000 	str	r3, [sp]
  f02068:	e1a03000 	mov	r3, r0
  f0206c:	e3a00c01 	mov	r0, #256	; 0x100
  f02070:	eb005b86 	bl	f18e90 <BpGetAllPinmux>
  f02074:	e1a03000 	mov	r3, r0
  f02078:	e3530000 	cmp	r3, #0
  f0207c:	0a000001 	beq	f02088 <bcm_init_pinmux+0x60>
  f02080:	e3a03000 	mov	r3, #0
  f02084:	ea0000b8 	b	f0236c <bcm_init_pinmux+0x344>
  f02088:	e51b3024 	ldr	r3, [fp, #-36]	; 0xffffffdc
  f0208c:	e2433001 	sub	r3, r3, #1
  f02090:	e50b3008 	str	r3, [fp, #-8]
  f02094:	ea000077 	b	f02278 <bcm_init_pinmux+0x250>
  f02098:	e24b3004 	sub	r3, fp, #4
  f0209c:	e2432f89 	sub	r2, r3, #548	; 0x224
  f020a0:	e51b3008 	ldr	r3, [fp, #-8]
  f020a4:	e1a03083 	lsl	r3, r3, #1
  f020a8:	e0823003 	add	r3, r2, r3
  f020ac:	e1d330b0 	ldrh	r3, [r3]
  f020b0:	e6ef3073 	uxtb	r3, r3
  f020b4:	e50b300c 	str	r3, [fp, #-12]
  f020b8:	e51b3008 	ldr	r3, [fp, #-8]
  f020bc:	e1a03103 	lsl	r3, r3, #2
  f020c0:	e24b2004 	sub	r2, fp, #4
  f020c4:	e0823003 	add	r3, r2, r3
  f020c8:	e5133624 	ldr	r3, [r3, #-1572]	; 0xfffff9dc
  f020cc:	e2033202 	and	r3, r3, #536870912	; 0x20000000
  f020d0:	e3530000 	cmp	r3, #0
  f020d4:	0a000011 	beq	f02120 <bcm_init_pinmux+0xf8>
  f020d8:	e51b3008 	ldr	r3, [fp, #-8]
  f020dc:	e1a03103 	lsl	r3, r3, #2
  f020e0:	e24b2004 	sub	r2, fp, #4
  f020e4:	e0823003 	add	r3, r2, r3
  f020e8:	e5133624 	ldr	r3, [r3, #-1572]	; 0xfffff9dc
  f020ec:	e203341f 	and	r3, r3, #520093696	; 0x1f000000
  f020f0:	e1a03c23 	lsr	r3, r3, #24
  f020f4:	e50b301c 	str	r3, [fp, #-28]	; 0xffffffe4
  f020f8:	e51b300c 	ldr	r3, [fp, #-12]
  f020fc:	e1a03083 	lsl	r3, r3, #1
  f02100:	e51b2018 	ldr	r2, [fp, #-24]	; 0xffffffe8
  f02104:	e0823003 	add	r3, r2, r3
  f02108:	e51b201c 	ldr	r2, [fp, #-28]	; 0xffffffe4
  f0210c:	e6bf2072 	sxth	r2, r2
  f02110:	e1c320b0 	strh	r2, [r3]
  f02114:	e51b301c 	ldr	r3, [fp, #-28]	; 0xffffffe4
  f02118:	e50b300c 	str	r3, [fp, #-12]
  f0211c:	ea000006 	b	f0213c <bcm_init_pinmux+0x114>
  f02120:	e51b300c 	ldr	r3, [fp, #-12]
  f02124:	e1a03083 	lsl	r3, r3, #1
  f02128:	e51b2018 	ldr	r2, [fp, #-24]	; 0xffffffe8
  f0212c:	e0823003 	add	r3, r2, r3
  f02130:	e51b200c 	ldr	r2, [fp, #-12]
  f02134:	e6bf2072 	sxth	r2, r2
  f02138:	e1c320b0 	strh	r2, [r3]
  f0213c:	e51b3008 	ldr	r3, [fp, #-8]
  f02140:	e1a03103 	lsl	r3, r3, #2
  f02144:	e24b2004 	sub	r2, fp, #4
  f02148:	e0823003 	add	r3, r2, r3
  f0214c:	e5133624 	ldr	r3, [r3, #-1572]	; 0xfffff9dc
  f02150:	e203360f 	and	r3, r3, #15728640	; 0xf00000
  f02154:	e50b3020 	str	r3, [fp, #-32]	; 0xffffffe0
  f02158:	e24b3004 	sub	r3, fp, #4
  f0215c:	e2432f89 	sub	r2, r3, #548	; 0x224
  f02160:	e51b3008 	ldr	r3, [fp, #-8]
  f02164:	e1a03083 	lsl	r3, r3, #1
  f02168:	e0823003 	add	r3, r2, r3
  f0216c:	e1d330b0 	ldrh	r3, [r3]
  f02170:	e2033901 	and	r3, r3, #16384	; 0x4000
  f02174:	e3530000 	cmp	r3, #0
  f02178:	0a000016 	beq	f021d8 <bcm_init_pinmux+0x1b0>
  f0217c:	e24b3004 	sub	r3, fp, #4
  f02180:	e2432f89 	sub	r2, r3, #548	; 0x224
  f02184:	e51b3008 	ldr	r3, [fp, #-8]
  f02188:	e1a03083 	lsl	r3, r3, #1
  f0218c:	e0823003 	add	r3, r2, r3
  f02190:	e1d330b0 	ldrh	r3, [r3]
  f02194:	e6ef3073 	uxtb	r3, r3
  f02198:	e3a02001 	mov	r2, #1
  f0219c:	e1a03312 	lsl	r3, r2, r3
  f021a0:	e1a02003 	mov	r2, r3
  f021a4:	e51b3010 	ldr	r3, [fp, #-16]
  f021a8:	e1833002 	orr	r3, r3, r2
  f021ac:	e50b3010 	str	r3, [fp, #-16]
  f021b0:	e24b3004 	sub	r3, fp, #4
  f021b4:	e2432f89 	sub	r2, r3, #548	; 0x224
  f021b8:	e51b3008 	ldr	r3, [fp, #-8]
  f021bc:	e1a03083 	lsl	r3, r3, #1
  f021c0:	e0823003 	add	r3, r2, r3
  f021c4:	e1d330b0 	ldrh	r3, [r3]
  f021c8:	e6ef3073 	uxtb	r3, r3
  f021cc:	e1a00003 	mov	r0, r3
  f021d0:	eb0004f6 	bl	f035b0 <bcm_led_zero_flash_rate>
  f021d4:	ea000017 	b	f02238 <bcm_init_pinmux+0x210>
  f021d8:	e51b3008 	ldr	r3, [fp, #-8]
  f021dc:	e1a03103 	lsl	r3, r3, #2
  f021e0:	e24b2004 	sub	r2, fp, #4
  f021e4:	e0823003 	add	r3, r2, r3
  f021e8:	e5133624 	ldr	r3, [r3, #-1572]	; 0xfffff9dc
  f021ec:	e6ef2073 	uxtb	r2, r3
  f021f0:	e51b3008 	ldr	r3, [fp, #-8]
  f021f4:	e1a03103 	lsl	r3, r3, #2
  f021f8:	e24b1004 	sub	r1, fp, #4
  f021fc:	e0813003 	add	r3, r1, r3
  f02200:	e5133624 	ldr	r3, [r3, #-1572]	; 0xfffff9dc
  f02204:	e2033c0f 	and	r3, r3, #3840	; 0xf00
  f02208:	e1a03423 	lsr	r3, r3, #8
  f0220c:	e1a01003 	mov	r1, r3
  f02210:	e1a00002 	mov	r0, r2
  f02214:	ebffff63 	bl	f01fa8 <bcm_set_pinmux>
  f02218:	e51b3020 	ldr	r3, [fp, #-32]	; 0xffffffe0
  f0221c:	e3530601 	cmp	r3, #1048576	; 0x100000
  f02220:	0a000002 	beq	f02230 <bcm_init_pinmux+0x208>
  f02224:	e51b3020 	ldr	r3, [fp, #-32]	; 0xffffffe0
  f02228:	e3530602 	cmp	r3, #2097152	; 0x200000
  f0222c:	1a000001 	bne	f02238 <bcm_init_pinmux+0x210>
  f02230:	e51b000c 	ldr	r0, [fp, #-12]
  f02234:	eb0004dd 	bl	f035b0 <bcm_led_zero_flash_rate>
  f02238:	e51b3020 	ldr	r3, [fp, #-32]	; 0xffffffe0
  f0223c:	e3530601 	cmp	r3, #1048576	; 0x100000
  f02240:	0a000002 	beq	f02250 <bcm_init_pinmux+0x228>
  f02244:	e51b3020 	ldr	r3, [fp, #-32]	; 0xffffffe0
  f02248:	e3530603 	cmp	r3, #3145728	; 0x300000
  f0224c:	1a000006 	bne	f0226c <bcm_init_pinmux+0x244>
  f02250:	e3a02001 	mov	r2, #1
  f02254:	e51b300c 	ldr	r3, [fp, #-12]
  f02258:	e1a03312 	lsl	r3, r2, r3
  f0225c:	e1a02003 	mov	r2, r3
  f02260:	e51b3014 	ldr	r3, [fp, #-20]	; 0xffffffec
  f02264:	e1833002 	orr	r3, r3, r2
  f02268:	e50b3014 	str	r3, [fp, #-20]	; 0xffffffec
  f0226c:	e51b3008 	ldr	r3, [fp, #-8]
  f02270:	e2433001 	sub	r3, r3, #1
  f02274:	e50b3008 	str	r3, [fp, #-8]
  f02278:	e51b3008 	ldr	r3, [fp, #-8]
  f0227c:	e3530000 	cmp	r3, #0
  f02280:	aaffff84 	bge	f02098 <bcm_init_pinmux+0x70>
  f02284:	e3a03000 	mov	r3, #0
  f02288:	e50b3024 	str	r3, [fp, #-36]	; 0xffffffdc
  f0228c:	e3a03000 	mov	r3, #0
  f02290:	e50b3008 	str	r3, [fp, #-8]
  f02294:	ea00000d 	b	f022d0 <bcm_init_pinmux+0x2a8>
  f02298:	e3a02001 	mov	r2, #1
  f0229c:	e51b3008 	ldr	r3, [fp, #-8]
  f022a0:	e1a03312 	lsl	r3, r2, r3
  f022a4:	e1a02003 	mov	r2, r3
  f022a8:	e51b3010 	ldr	r3, [fp, #-16]
  f022ac:	e0033002 	and	r3, r3, r2
  f022b0:	e3530000 	cmp	r3, #0
  f022b4:	0a000002 	beq	f022c4 <bcm_init_pinmux+0x29c>
  f022b8:	e51b3024 	ldr	r3, [fp, #-36]	; 0xffffffdc
  f022bc:	e2833001 	add	r3, r3, #1
  f022c0:	e50b3024 	str	r3, [fp, #-36]	; 0xffffffdc
  f022c4:	e51b3008 	ldr	r3, [fp, #-8]
  f022c8:	e2833001 	add	r3, r3, #1
  f022cc:	e50b3008 	str	r3, [fp, #-8]
  f022d0:	e51b3008 	ldr	r3, [fp, #-8]
  f022d4:	e353001f 	cmp	r3, #31
  f022d8:	daffffee 	ble	f02298 <bcm_init_pinmux+0x270>
  f022dc:	e3a0301f 	mov	r3, #31
  f022e0:	e50b3008 	str	r3, [fp, #-8]
  f022e4:	ea000018 	b	f0234c <bcm_init_pinmux+0x324>
  f022e8:	e3a02001 	mov	r2, #1
  f022ec:	e51b3008 	ldr	r3, [fp, #-8]
  f022f0:	e1a03312 	lsl	r3, r2, r3
  f022f4:	e1a02003 	mov	r2, r3
  f022f8:	e51b3010 	ldr	r3, [fp, #-16]
  f022fc:	e0033002 	and	r3, r3, r2
  f02300:	e3530000 	cmp	r3, #0
  f02304:	0a000003 	beq	f02318 <bcm_init_pinmux+0x2f0>
  f02308:	e3020b60 	movw	r0, #11104	; 0x2b60
  f0230c:	e34000f5 	movt	r0, #245	; 0xf5
  f02310:	eb00e3ab 	bl	f3b1c4 <xprintf>
  f02314:	ea000006 	b	f02334 <bcm_init_pinmux+0x30c>
  f02318:	e3a02001 	mov	r2, #1
  f0231c:	e51b3008 	ldr	r3, [fp, #-8]
  f02320:	e1a03312 	lsl	r3, r2, r3
  f02324:	e1a02003 	mov	r2, r3
  f02328:	e51b3010 	ldr	r3, [fp, #-16]
  f0232c:	e1833002 	orr	r3, r3, r2
  f02330:	e50b3010 	str	r3, [fp, #-16]
  f02334:	e51b3008 	ldr	r3, [fp, #-8]
  f02338:	e2433001 	sub	r3, r3, #1
  f0233c:	e50b3008 	str	r3, [fp, #-8]
  f02340:	e51b3024 	ldr	r3, [fp, #-36]	; 0xffffffdc
  f02344:	e2833001 	add	r3, r3, #1
  f02348:	e50b3024 	str	r3, [fp, #-36]	; 0xffffffdc
  f0234c:	e51b3024 	ldr	r3, [fp, #-36]	; 0xffffffdc
  f02350:	e2033007 	and	r3, r3, #7
  f02354:	e3530000 	cmp	r3, #0
  f02358:	1affffe2 	bne	f022e8 <bcm_init_pinmux+0x2c0>
  f0235c:	e51b1014 	ldr	r1, [fp, #-20]	; 0xffffffec
  f02360:	e51b0010 	ldr	r0, [fp, #-16]
  f02364:	eb000499 	bl	f035d0 <bcm_led_set_source>
  f02368:	e3a03000 	mov	r3, #0
  f0236c:	e1a00003 	mov	r0, r3
  f02370:	e24bd004 	sub	sp, fp, #4
  f02374:	e8bd8800 	pop	{fp, pc}

00f02378 <bcm_set_padctrl>:
  f02378:	e52db004 	push	{fp}		; (str fp, [sp, #-4]!)
  f0237c:	e28db000 	add	fp, sp, #0
  f02380:	e24dd014 	sub	sp, sp, #20
  f02384:	e50b0010 	str	r0, [fp, #-16]
  f02388:	e50b1014 	str	r1, [fp, #-20]	; 0xffffffec
  f0238c:	e3a03000 	mov	r3, #0
  f02390:	e50b3008 	str	r3, [fp, #-8]
  f02394:	e51b2008 	ldr	r2, [fp, #-8]
  f02398:	e51b3010 	ldr	r3, [fp, #-16]
  f0239c:	e1823003 	orr	r3, r2, r3
  f023a0:	e50b3008 	str	r3, [fp, #-8]
  f023a4:	e51b2008 	ldr	r2, [fp, #-8]
  f023a8:	e51b3014 	ldr	r3, [fp, #-20]	; 0xffffffec
  f023ac:	e1823003 	orr	r3, r2, r3
  f023b0:	e50b3008 	str	r3, [fp, #-8]
  f023b4:	e3a03c05 	mov	r3, #1280	; 0x500
  f023b8:	e34f3f80 	movt	r3, #65408	; 0xff80
  f023bc:	e3a02000 	mov	r2, #0
  f023c0:	e5832054 	str	r2, [r3, #84]	; 0x54
  f023c4:	e3a03c05 	mov	r3, #1280	; 0x500
  f023c8:	e34f3f80 	movt	r3, #65408	; 0xff80
  f023cc:	e51b2008 	ldr	r2, [fp, #-8]
  f023d0:	e5832058 	str	r2, [r3, #88]	; 0x58
  f023d4:	e3a03c05 	mov	r3, #1280	; 0x500
  f023d8:	e34f3f80 	movt	r3, #65408	; 0xff80
  f023dc:	e3a02022 	mov	r2, #34	; 0x22
  f023e0:	e583205c 	str	r2, [r3, #92]	; 0x5c
  f023e4:	e1a00000 	nop			; (mov r0, r0)
  f023e8:	e28bd000 	add	sp, fp, #0
  f023ec:	e49db004 	pop	{fp}		; (ldr fp, [sp], #4)
  f023f0:	e12fff1e 	bx	lr

00f023f4 <bcm_misc_hw_xmii_pads_init>:
  f023f4:	e92d4800 	push	{fp, lr}
  f023f8:	e28db004 	add	fp, sp, #4
  f023fc:	e24dde62 	sub	sp, sp, #1568	; 0x620
  f02400:	e24dd008 	sub	sp, sp, #8
  f02404:	eb0057d9 	bl	f18370 <BpGetEthernetMacInfoArrayPtr>
  f02408:	e50b0014 	str	r0, [fp, #-20]	; 0xffffffec
  f0240c:	e51b3014 	ldr	r3, [fp, #-20]	; 0xffffffec
  f02410:	e3530000 	cmp	r3, #0
  f02414:	0a0000b5 	beq	f026f0 <bcm_misc_hw_xmii_pads_init+0x2fc>
  f02418:	e3a03000 	mov	r3, #0
  f0241c:	e50b3020 	str	r3, [fp, #-32]	; 0xffffffe0
  f02420:	ea000049 	b	f0254c <bcm_misc_hw_xmii_pads_init+0x158>
  f02424:	e3a03000 	mov	r3, #0
  f02428:	e50b3008 	str	r3, [fp, #-8]
  f0242c:	ea00001b 	b	f024a0 <bcm_misc_hw_xmii_pads_init+0xac>
  f02430:	e51b3020 	ldr	r3, [fp, #-32]	; 0xffffffe0
  f02434:	e1a02003 	mov	r2, r3
  f02438:	e3a03f8a 	mov	r3, #552	; 0x228
  f0243c:	e0030293 	mul	r3, r3, r2
  f02440:	e51b2014 	ldr	r2, [fp, #-20]	; 0xffffffec
  f02444:	e0822003 	add	r2, r2, r3
  f02448:	e51b3008 	ldr	r3, [fp, #-8]
  f0244c:	e1a03103 	lsl	r3, r3, #2
  f02450:	e0823003 	add	r3, r2, r3
  f02454:	e5933008 	ldr	r3, [r3, #8]
  f02458:	e50b300c 	str	r3, [fp, #-12]
  f0245c:	e51b3008 	ldr	r3, [fp, #-8]
  f02460:	e50b3010 	str	r3, [fp, #-16]
  f02464:	e51b300c 	ldr	r3, [fp, #-12]
  f02468:	e203351e 	and	r3, r3, #125829120	; 0x7800000
  f0246c:	e3530402 	cmp	r3, #33554432	; 0x2000000
  f02470:	0a000039 	beq	f0255c <bcm_misc_hw_xmii_pads_init+0x168>
  f02474:	e51b300c 	ldr	r3, [fp, #-12]
  f02478:	e203351e 	and	r3, r3, #125829120	; 0x7800000
  f0247c:	e353050a 	cmp	r3, #41943040	; 0x2800000
  f02480:	0a000035 	beq	f0255c <bcm_misc_hw_xmii_pads_init+0x168>
  f02484:	e51b300c 	ldr	r3, [fp, #-12]
  f02488:	e203351e 	and	r3, r3, #125829120	; 0x7800000
  f0248c:	e3530516 	cmp	r3, #92274688	; 0x5800000
  f02490:	0a000031 	beq	f0255c <bcm_misc_hw_xmii_pads_init+0x168>
  f02494:	e51b3008 	ldr	r3, [fp, #-8]
  f02498:	e2833001 	add	r3, r3, #1
  f0249c:	e50b3008 	str	r3, [fp, #-8]
  f024a0:	e51b3008 	ldr	r3, [fp, #-8]
  f024a4:	e3530007 	cmp	r3, #7
  f024a8:	daffffe0 	ble	f02430 <bcm_misc_hw_xmii_pads_init+0x3c>
  f024ac:	e3a03000 	mov	r3, #0
  f024b0:	e50b3008 	str	r3, [fp, #-8]
  f024b4:	ea00001e 	b	f02534 <bcm_misc_hw_xmii_pads_init+0x140>
  f024b8:	e51b3020 	ldr	r3, [fp, #-32]	; 0xffffffe0
  f024bc:	e1a02003 	mov	r2, r3
  f024c0:	e3a03f8a 	mov	r3, #552	; 0x228
  f024c4:	e0030293 	mul	r3, r3, r2
  f024c8:	e51b2014 	ldr	r2, [fp, #-20]	; 0xffffffec
  f024cc:	e0822003 	add	r2, r2, r3
  f024d0:	e51b3008 	ldr	r3, [fp, #-8]
  f024d4:	e3a0102c 	mov	r1, #44	; 0x2c
  f024d8:	e0030391 	mul	r3, r1, r3
  f024dc:	e0823003 	add	r3, r2, r3
  f024e0:	e2833f53 	add	r3, r3, #332	; 0x14c
  f024e4:	e5933000 	ldr	r3, [r3]
  f024e8:	e50b300c 	str	r3, [fp, #-12]
  f024ec:	e51b3008 	ldr	r3, [fp, #-8]
  f024f0:	e2833009 	add	r3, r3, #9
  f024f4:	e50b3010 	str	r3, [fp, #-16]
  f024f8:	e51b300c 	ldr	r3, [fp, #-12]
  f024fc:	e203351e 	and	r3, r3, #125829120	; 0x7800000
  f02500:	e3530402 	cmp	r3, #33554432	; 0x2000000
  f02504:	0a000014 	beq	f0255c <bcm_misc_hw_xmii_pads_init+0x168>
  f02508:	e51b300c 	ldr	r3, [fp, #-12]
  f0250c:	e203351e 	and	r3, r3, #125829120	; 0x7800000
  f02510:	e353050a 	cmp	r3, #41943040	; 0x2800000
  f02514:	0a000010 	beq	f0255c <bcm_misc_hw_xmii_pads_init+0x168>
  f02518:	e51b300c 	ldr	r3, [fp, #-12]
  f0251c:	e203351e 	and	r3, r3, #125829120	; 0x7800000
  f02520:	e3530516 	cmp	r3, #92274688	; 0x5800000
  f02524:	0a00000c 	beq	f0255c <bcm_misc_hw_xmii_pads_init+0x168>
  f02528:	e51b3008 	ldr	r3, [fp, #-8]
  f0252c:	e2833001 	add	r3, r3, #1
  f02530:	e50b3008 	str	r3, [fp, #-8]
  f02534:	e51b3008 	ldr	r3, [fp, #-8]
  f02538:	e3530004 	cmp	r3, #4
  f0253c:	daffffdd 	ble	f024b8 <bcm_misc_hw_xmii_pads_init+0xc4>
  f02540:	e51b3020 	ldr	r3, [fp, #-32]	; 0xffffffe0
  f02544:	e2833001 	add	r3, r3, #1
  f02548:	e50b3020 	str	r3, [fp, #-32]	; 0xffffffe0
  f0254c:	e51b3020 	ldr	r3, [fp, #-32]	; 0xffffffe0
  f02550:	e3530001 	cmp	r3, #1
  f02554:	daffffb2 	ble	f02424 <bcm_misc_hw_xmii_pads_init+0x30>
  f02558:	ea000067 	b	f026fc <bcm_misc_hw_xmii_pads_init+0x308>
  f0255c:	e51b300c 	ldr	r3, [fp, #-12]
  f02560:	e203351e 	and	r3, r3, #125829120	; 0x7800000
  f02564:	e3530516 	cmp	r3, #92274688	; 0x5800000
  f02568:	1a000007 	bne	f0258c <bcm_misc_hw_xmii_pads_init+0x198>
  f0256c:	e3a03c05 	mov	r3, #1280	; 0x500
  f02570:	e34f3f80 	movt	r3, #65408	; 0xff80
  f02574:	e3a02c05 	mov	r2, #1280	; 0x500
  f02578:	e34f2f80 	movt	r2, #65408	; 0xff80
  f0257c:	e5922040 	ldr	r2, [r2, #64]	; 0x40
  f02580:	e3c22c01 	bic	r2, r2, #256	; 0x100
  f02584:	e5832040 	str	r2, [r3, #64]	; 0x40
  f02588:	ea000006 	b	f025a8 <bcm_misc_hw_xmii_pads_init+0x1b4>
  f0258c:	e3a03c05 	mov	r3, #1280	; 0x500
  f02590:	e34f3f80 	movt	r3, #65408	; 0xff80
  f02594:	e3a02c05 	mov	r2, #1280	; 0x500
  f02598:	e34f2f80 	movt	r2, #65408	; 0xff80
  f0259c:	e5922040 	ldr	r2, [r2, #64]	; 0x40
  f025a0:	e3822c01 	orr	r2, r2, #256	; 0x100
  f025a4:	e5832040 	str	r2, [r3, #64]	; 0x40
  f025a8:	e51b3010 	ldr	r3, [fp, #-16]
  f025ac:	e3833401 	orr	r3, r3, #16777216	; 0x1000000
  f025b0:	e1a00003 	mov	r0, r3
  f025b4:	e24b1024 	sub	r1, fp, #36	; 0x24
  f025b8:	e24b2020 	sub	r2, fp, #32
  f025bc:	e24b3e62 	sub	r3, fp, #1568	; 0x620
  f025c0:	e2433004 	sub	r3, r3, #4
  f025c4:	e58d3004 	str	r3, [sp, #4]
  f025c8:	e24b3f89 	sub	r3, fp, #548	; 0x224
  f025cc:	e58d3000 	str	r3, [sp]
  f025d0:	e1a03001 	mov	r3, r1
  f025d4:	e3a01c01 	mov	r1, #256	; 0x100
  f025d8:	eb0059e6 	bl	f18d78 <BpGetIfacePinmux>
  f025dc:	e1a03000 	mov	r3, r0
  f025e0:	e3530000 	cmp	r3, #0
  f025e4:	1a000043 	bne	f026f8 <bcm_misc_hw_xmii_pads_init+0x304>
  f025e8:	e3a03000 	mov	r3, #0
  f025ec:	e50b3008 	str	r3, [fp, #-8]
  f025f0:	ea000039 	b	f026dc <bcm_misc_hw_xmii_pads_init+0x2e8>
  f025f4:	e51b3008 	ldr	r3, [fp, #-8]
  f025f8:	e1a03103 	lsl	r3, r3, #2
  f025fc:	e24b2004 	sub	r2, fp, #4
  f02600:	e0823003 	add	r3, r2, r3
  f02604:	e5133620 	ldr	r3, [r3, #-1568]	; 0xfffff9e0
  f02608:	e203360f 	and	r3, r3, #15728640	; 0xf00000
  f0260c:	e3530607 	cmp	r3, #7340032	; 0x700000
  f02610:	1a00002d 	bne	f026cc <bcm_misc_hw_xmii_pads_init+0x2d8>
  f02614:	e51b3008 	ldr	r3, [fp, #-8]
  f02618:	e1a03103 	lsl	r3, r3, #2
  f0261c:	e24b2004 	sub	r2, fp, #4
  f02620:	e0823003 	add	r3, r2, r3
  f02624:	e5133620 	ldr	r3, [r3, #-1568]	; 0xfffff9e0
  f02628:	e6ef3073 	uxtb	r3, r3
  f0262c:	e50b3018 	str	r3, [fp, #-24]	; 0xffffffe8
  f02630:	e3a03000 	mov	r3, #0
  f02634:	e50b301c 	str	r3, [fp, #-28]	; 0xffffffe4
  f02638:	e51b301c 	ldr	r3, [fp, #-28]	; 0xffffffe4
  f0263c:	e3833a06 	orr	r3, r3, #24576	; 0x6000
  f02640:	e50b301c 	str	r3, [fp, #-28]	; 0xffffffe4
  f02644:	e51b300c 	ldr	r3, [fp, #-12]
  f02648:	e203351e 	and	r3, r3, #125829120	; 0x7800000
  f0264c:	e3530516 	cmp	r3, #92274688	; 0x5800000
  f02650:	1a000001 	bne	f0265c <bcm_misc_hw_xmii_pads_init+0x268>
  f02654:	e3a03902 	mov	r3, #32768	; 0x8000
  f02658:	ea000000 	b	f02660 <bcm_misc_hw_xmii_pads_init+0x26c>
  f0265c:	e3a03000 	mov	r3, #0
  f02660:	e51b201c 	ldr	r2, [fp, #-28]	; 0xffffffe4
  f02664:	e1823003 	orr	r3, r2, r3
  f02668:	e50b301c 	str	r3, [fp, #-28]	; 0xffffffe4
  f0266c:	e51b3008 	ldr	r3, [fp, #-8]
  f02670:	e3530005 	cmp	r3, #5
  f02674:	da000001 	ble	f02680 <bcm_misc_hw_xmii_pads_init+0x28c>
  f02678:	e3a03801 	mov	r3, #65536	; 0x10000
  f0267c:	ea000000 	b	f02684 <bcm_misc_hw_xmii_pads_init+0x290>
  f02680:	e3a03000 	mov	r3, #0
  f02684:	e51b201c 	ldr	r2, [fp, #-28]	; 0xffffffe4
  f02688:	e1823003 	orr	r3, r2, r3
  f0268c:	e50b301c 	str	r3, [fp, #-28]	; 0xffffffe4
  f02690:	e51b300c 	ldr	r3, [fp, #-12]
  f02694:	e203351e 	and	r3, r3, #125829120	; 0x7800000
  f02698:	e353050a 	cmp	r3, #41943040	; 0x2800000
  f0269c:	1a000001 	bne	f026a8 <bcm_misc_hw_xmii_pads_init+0x2b4>
  f026a0:	e3a03802 	mov	r3, #131072	; 0x20000
  f026a4:	ea000000 	b	f026ac <bcm_misc_hw_xmii_pads_init+0x2b8>
  f026a8:	e3a03000 	mov	r3, #0
  f026ac:	e51b201c 	ldr	r2, [fp, #-28]	; 0xffffffe4
  f026b0:	e1823003 	orr	r3, r2, r3
  f026b4:	e50b301c 	str	r3, [fp, #-28]	; 0xffffffe4
  f026b8:	e51b3018 	ldr	r3, [fp, #-24]	; 0xffffffe8
  f026bc:	e51b101c 	ldr	r1, [fp, #-28]	; 0xffffffe4
  f026c0:	e1a00003 	mov	r0, r3
  f026c4:	ebffff2b 	bl	f02378 <bcm_set_padctrl>
  f026c8:	ea000000 	b	f026d0 <bcm_misc_hw_xmii_pads_init+0x2dc>
  f026cc:	e1a00000 	nop			; (mov r0, r0)
  f026d0:	e51b3008 	ldr	r3, [fp, #-8]
  f026d4:	e2833001 	add	r3, r3, #1
  f026d8:	e50b3008 	str	r3, [fp, #-8]
  f026dc:	e51b3020 	ldr	r3, [fp, #-32]	; 0xffffffe0
  f026e0:	e51b2008 	ldr	r2, [fp, #-8]
  f026e4:	e1520003 	cmp	r2, r3
  f026e8:	baffffc1 	blt	f025f4 <bcm_misc_hw_xmii_pads_init+0x200>
  f026ec:	ea000002 	b	f026fc <bcm_misc_hw_xmii_pads_init+0x308>
  f026f0:	e1a00000 	nop			; (mov r0, r0)
  f026f4:	ea000000 	b	f026fc <bcm_misc_hw_xmii_pads_init+0x308>
  f026f8:	e1a00000 	nop			; (mov r0, r0)
  f026fc:	e24bd004 	sub	sp, fp, #4
  f02700:	e8bd8800 	pop	{fp, pc}

00f02704 <bcm_misc_hw_set_intr_mux>:
  f02704:	e52db004 	push	{fp}		; (str fp, [sp, #-4]!)
  f02708:	e28db000 	add	fp, sp, #0
  f0270c:	e24dd024 	sub	sp, sp, #36	; 0x24
  f02710:	e1a02000 	mov	r2, r0
  f02714:	e1a03001 	mov	r3, r1
  f02718:	e14b21be 	strh	r2, [fp, #-30]	; 0xffffffe2
  f0271c:	e14b32b0 	strh	r3, [fp, #-32]	; 0xffffffe0
  f02720:	e15b32b0 	ldrh	r3, [fp, #-32]	; 0xffffffe0
  f02724:	e6ef3073 	uxtb	r3, r3
  f02728:	e14b32b0 	strh	r3, [fp, #-32]	; 0xffffffe0
  f0272c:	e15b32b0 	ldrh	r3, [fp, #-32]	; 0xffffffe0
  f02730:	e203300f 	and	r3, r3, #15
  f02734:	e50b3008 	str	r3, [fp, #-8]
  f02738:	e15b32b0 	ldrh	r3, [fp, #-32]	; 0xffffffe0
  f0273c:	e1a03223 	lsr	r3, r3, #4
  f02740:	e6ff3073 	uxth	r3, r3
  f02744:	e50b300c 	str	r3, [fp, #-12]
  f02748:	e15b31be 	ldrh	r3, [fp, #-30]	; 0xffffffe2
  f0274c:	e50b3010 	str	r3, [fp, #-16]
  f02750:	e51b3010 	ldr	r3, [fp, #-16]
  f02754:	e1a03103 	lsl	r3, r3, #2
  f02758:	e3a0200f 	mov	r2, #15
  f0275c:	e1a03312 	lsl	r3, r2, r3
  f02760:	e1e03003 	mvn	r3, r3
  f02764:	e50b3014 	str	r3, [fp, #-20]	; 0xffffffec
  f02768:	e51b3010 	ldr	r3, [fp, #-16]
  f0276c:	e1a03103 	lsl	r3, r3, #2
  f02770:	e51b2008 	ldr	r2, [fp, #-8]
  f02774:	e1a03312 	lsl	r3, r2, r3
  f02778:	e50b3018 	str	r3, [fp, #-24]	; 0xffffffe8
  f0277c:	e3a03000 	mov	r3, #0
  f02780:	e34f3f80 	movt	r3, #65408	; 0xff80
  f02784:	e3a02000 	mov	r2, #0
  f02788:	e34f2f80 	movt	r2, #65408	; 0xff80
  f0278c:	e5921044 	ldr	r1, [r2, #68]	; 0x44
  f02790:	e51b2014 	ldr	r2, [fp, #-20]	; 0xffffffec
  f02794:	e0022001 	and	r2, r2, r1
  f02798:	e5832044 	str	r2, [r3, #68]	; 0x44
  f0279c:	e3a03000 	mov	r3, #0
  f027a0:	e34f3f80 	movt	r3, #65408	; 0xff80
  f027a4:	e3a02000 	mov	r2, #0
  f027a8:	e34f2f80 	movt	r2, #65408	; 0xff80
  f027ac:	e5921044 	ldr	r1, [r2, #68]	; 0x44
  f027b0:	e51b2018 	ldr	r2, [fp, #-24]	; 0xffffffe8
  f027b4:	e1812002 	orr	r2, r1, r2
  f027b8:	e5832044 	str	r2, [r3, #68]	; 0x44
  f027bc:	e51b3010 	ldr	r3, [fp, #-16]
  f027c0:	e1a03103 	lsl	r3, r3, #2
  f027c4:	e3a0200f 	mov	r2, #15
  f027c8:	e1a03312 	lsl	r3, r2, r3
  f027cc:	e1e03003 	mvn	r3, r3
  f027d0:	e50b3014 	str	r3, [fp, #-20]	; 0xffffffec
  f027d4:	e51b3010 	ldr	r3, [fp, #-16]
  f027d8:	e1a03103 	lsl	r3, r3, #2
  f027dc:	e51b200c 	ldr	r2, [fp, #-12]
  f027e0:	e1a03312 	lsl	r3, r2, r3
  f027e4:	e50b3018 	str	r3, [fp, #-24]	; 0xffffffe8
  f027e8:	e3a03000 	mov	r3, #0
  f027ec:	e34f3f80 	movt	r3, #65408	; 0xff80
  f027f0:	e3a02000 	mov	r2, #0
  f027f4:	e34f2f80 	movt	r2, #65408	; 0xff80
  f027f8:	e5921048 	ldr	r1, [r2, #72]	; 0x48
  f027fc:	e51b2014 	ldr	r2, [fp, #-20]	; 0xffffffec
  f02800:	e0022001 	and	r2, r2, r1
  f02804:	e5832048 	str	r2, [r3, #72]	; 0x48
  f02808:	e3a03000 	mov	r3, #0
  f0280c:	e34f3f80 	movt	r3, #65408	; 0xff80
  f02810:	e3a02000 	mov	r2, #0
  f02814:	e34f2f80 	movt	r2, #65408	; 0xff80
  f02818:	e5921048 	ldr	r1, [r2, #72]	; 0x48
  f0281c:	e51b2018 	ldr	r2, [fp, #-24]	; 0xffffffe8
  f02820:	e1812002 	orr	r2, r1, r2
  f02824:	e5832048 	str	r2, [r3, #72]	; 0x48
  f02828:	e1a00000 	nop			; (mov r0, r0)
  f0282c:	e28bd000 	add	sp, fp, #0
  f02830:	e49db004 	pop	{fp}		; (ldr fp, [sp], #4)
  f02834:	e12fff1e 	bx	lr

00f02838 <bcm_misc_hw_intr_mux_init>:
  f02838:	e92d4800 	push	{fp, lr}
  f0283c:	e28db004 	add	fp, sp, #4
  f02840:	e24dd018 	sub	sp, sp, #24
  f02844:	e3a03000 	mov	r3, #0
  f02848:	e50b3008 	str	r3, [fp, #-8]
  f0284c:	e3a03000 	mov	r3, #0
  f02850:	e50b3010 	str	r3, [fp, #-16]
  f02854:	e3a03001 	mov	r3, #1
  f02858:	e50b300c 	str	r3, [fp, #-12]
  f0285c:	e3a03000 	mov	r3, #0
  f02860:	e50b3014 	str	r3, [fp, #-20]	; 0xffffffec
  f02864:	e3a03000 	mov	r3, #0
  f02868:	e34f3f80 	movt	r3, #65408	; 0xff80
  f0286c:	e3e02000 	mvn	r2, #0
  f02870:	e5832044 	str	r2, [r3, #68]	; 0x44
  f02874:	e3a03000 	mov	r3, #0
  f02878:	e34f3f80 	movt	r3, #65408	; 0xff80
  f0287c:	e3e02000 	mvn	r2, #0
  f02880:	e5832048 	str	r2, [r3, #72]	; 0x48
  f02884:	e24b3018 	sub	r3, fp, #24
  f02888:	e24b2016 	sub	r2, fp, #22
  f0288c:	e24b1014 	sub	r1, fp, #20
  f02890:	e51b0008 	ldr	r0, [fp, #-8]
  f02894:	eb0057b4 	bl	f1876c <BpGetExtIntrNumGpio>
  f02898:	e50b0010 	str	r0, [fp, #-16]
  f0289c:	e51b3010 	ldr	r3, [fp, #-16]
  f028a0:	e3530006 	cmp	r3, #6
  f028a4:	0a000023 	beq	f02938 <bcm_misc_hw_intr_mux_init+0x100>
  f028a8:	e51b3010 	ldr	r3, [fp, #-16]
  f028ac:	e3530000 	cmp	r3, #0
  f028b0:	1a00001a 	bne	f02920 <bcm_misc_hw_intr_mux_init+0xe8>
  f028b4:	e15b31b8 	ldrh	r3, [fp, #-24]	; 0xffffffe8
  f028b8:	e30f2fff 	movw	r2, #65535	; 0xffff
  f028bc:	e1530002 	cmp	r3, r2
  f028c0:	0a000010 	beq	f02908 <bcm_misc_hw_intr_mux_init+0xd0>
  f028c4:	e15b31b6 	ldrh	r3, [fp, #-22]	; 0xffffffea
  f028c8:	e1a00003 	mov	r0, r3
  f028cc:	e15b31b8 	ldrh	r3, [fp, #-24]	; 0xffffffe8
  f028d0:	e51b200c 	ldr	r2, [fp, #-12]
  f028d4:	e1a01003 	mov	r1, r3
  f028d8:	eb0057d3 	bl	f1882c <BpCheckExtIntr>
  f028dc:	e1a03000 	mov	r3, r0
  f028e0:	e3530000 	cmp	r3, #0
  f028e4:	1a000004 	bne	f028fc <bcm_misc_hw_intr_mux_init+0xc4>
  f028e8:	e15b31b6 	ldrh	r3, [fp, #-22]	; 0xffffffea
  f028ec:	e15b21b8 	ldrh	r2, [fp, #-24]	; 0xffffffe8
  f028f0:	e1a01002 	mov	r1, r2
  f028f4:	e1a00003 	mov	r0, r3
  f028f8:	ebffff81 	bl	f02704 <bcm_misc_hw_set_intr_mux>
  f028fc:	e3a03000 	mov	r3, #0
  f02900:	e50b300c 	str	r3, [fp, #-12]
  f02904:	eaffffde 	b	f02884 <bcm_misc_hw_intr_mux_init+0x4c>
  f02908:	e15b31b6 	ldrh	r3, [fp, #-22]	; 0xffffffea
  f0290c:	e1a01003 	mov	r1, r3
  f02910:	e3020b8c 	movw	r0, #11148	; 0x2b8c
  f02914:	e34000f5 	movt	r0, #245	; 0xf5
  f02918:	eb00e229 	bl	f3b1c4 <xprintf>
  f0291c:	eaffffd8 	b	f02884 <bcm_misc_hw_intr_mux_init+0x4c>
  f02920:	e3a03000 	mov	r3, #0
  f02924:	e50b3014 	str	r3, [fp, #-20]	; 0xffffffec
  f02928:	e51b3008 	ldr	r3, [fp, #-8]
  f0292c:	e2833001 	add	r3, r3, #1
  f02930:	e50b3008 	str	r3, [fp, #-8]
  f02934:	eaffffd2 	b	f02884 <bcm_misc_hw_intr_mux_init+0x4c>
  f02938:	e1a00000 	nop			; (mov r0, r0)
  f0293c:	e3a03000 	mov	r3, #0
  f02940:	e34f3f80 	movt	r3, #65408	; 0xff80
  f02944:	e3a02000 	mov	r2, #0
  f02948:	e34f2f80 	movt	r2, #65408	; 0xff80
  f0294c:	e5922020 	ldr	r2, [r2, #32]
  f02950:	e38220ff 	orr	r2, r2, #255	; 0xff
  f02954:	e5832020 	str	r2, [r3, #32]
  f02958:	e3a03000 	mov	r3, #0
  f0295c:	e34f3f80 	movt	r3, #65408	; 0xff80
  f02960:	e3a02000 	mov	r2, #0
  f02964:	e34f2f80 	movt	r2, #65408	; 0xff80
  f02968:	e5922020 	ldr	r2, [r2, #32]
  f0296c:	e3c220ff 	bic	r2, r2, #255	; 0xff
  f02970:	e5832020 	str	r2, [r3, #32]
  f02974:	e3a03000 	mov	r3, #0
  f02978:	e34f3f80 	movt	r3, #65408	; 0xff80
  f0297c:	e3a02000 	mov	r2, #0
  f02980:	e34f2f80 	movt	r2, #65408	; 0xff80
  f02984:	e592202c 	ldr	r2, [r2, #44]	; 0x2c
  f02988:	e38220ff 	orr	r2, r2, #255	; 0xff
  f0298c:	e583202c 	str	r2, [r3, #44]	; 0x2c
  f02990:	e1a00000 	nop			; (mov r0, r0)
  f02994:	e24bd004 	sub	sp, fp, #4
  f02998:	e8bd8800 	pop	{fp, pc}

00f0299c <bcm_misc_hw_init>:
  f0299c:	e92d4800 	push	{fp, lr}
  f029a0:	e28db004 	add	fp, sp, #4
  f029a4:	ebffffa3 	bl	f02838 <bcm_misc_hw_intr_mux_init>
  f029a8:	ebfffe91 	bl	f023f4 <bcm_misc_hw_xmii_pads_init>
  f029ac:	e3a03000 	mov	r3, #0
  f029b0:	e1a00003 	mov	r0, r3
  f029b4:	e8bd8800 	pop	{fp, pc}

00f029b8 <bcm_gpio_set_dir>:
  f029b8:	e52db004 	push	{fp}		; (str fp, [sp, #-4]!)
  f029bc:	e28db000 	add	fp, sp, #0
  f029c0:	e24dd00c 	sub	sp, sp, #12
  f029c4:	e50b0008 	str	r0, [fp, #-8]
  f029c8:	e50b100c 	str	r1, [fp, #-12]
  f029cc:	e51b300c 	ldr	r3, [fp, #-12]
  f029d0:	e3530000 	cmp	r3, #0
  f029d4:	0a000025 	beq	f02a70 <bcm_gpio_set_dir+0xb8>
  f029d8:	e3a03c05 	mov	r3, #1280	; 0x500
  f029dc:	e34f3f80 	movt	r3, #65408	; 0xff80
  f029e0:	e51b2008 	ldr	r2, [fp, #-8]
  f029e4:	e6ef2072 	uxtb	r2, r2
  f029e8:	e352004d 	cmp	r2, #77	; 0x4d
  f029ec:	8a000004 	bhi	f02a04 <bcm_gpio_set_dir+0x4c>
  f029f0:	e51b2008 	ldr	r2, [fp, #-8]
  f029f4:	e6ef2072 	uxtb	r2, r2
  f029f8:	e1a022a2 	lsr	r2, r2, #5
  f029fc:	e202100f 	and	r1, r2, #15
  f02a00:	ea000000 	b	f02a08 <bcm_gpio_set_dir+0x50>
  f02a04:	e3a01000 	mov	r1, #0
  f02a08:	e3a02c05 	mov	r2, #1280	; 0x500
  f02a0c:	e34f2f80 	movt	r2, #65408	; 0xff80
  f02a10:	e51b0008 	ldr	r0, [fp, #-8]
  f02a14:	e6ef0070 	uxtb	r0, r0
  f02a18:	e350004d 	cmp	r0, #77	; 0x4d
  f02a1c:	8a000004 	bhi	f02a34 <bcm_gpio_set_dir+0x7c>
  f02a20:	e51b0008 	ldr	r0, [fp, #-8]
  f02a24:	e6ef0070 	uxtb	r0, r0
  f02a28:	e1a002a0 	lsr	r0, r0, #5
  f02a2c:	e200000f 	and	r0, r0, #15
  f02a30:	ea000000 	b	f02a38 <bcm_gpio_set_dir+0x80>
  f02a34:	e3a00000 	mov	r0, #0
  f02a38:	e7922100 	ldr	r2, [r2, r0, lsl #2]
  f02a3c:	e51b0008 	ldr	r0, [fp, #-8]
  f02a40:	e6ef0070 	uxtb	r0, r0
  f02a44:	e350004d 	cmp	r0, #77	; 0x4d
  f02a48:	8a000004 	bhi	f02a60 <bcm_gpio_set_dir+0xa8>
  f02a4c:	e51b0008 	ldr	r0, [fp, #-8]
  f02a50:	e200001f 	and	r0, r0, #31
  f02a54:	e3a0c001 	mov	ip, #1
  f02a58:	e1a0001c 	lsl	r0, ip, r0
  f02a5c:	ea000000 	b	f02a64 <bcm_gpio_set_dir+0xac>
  f02a60:	e3a00000 	mov	r0, #0
  f02a64:	e1822000 	orr	r2, r2, r0
  f02a68:	e7832101 	str	r2, [r3, r1, lsl #2]
  f02a6c:	ea000025 	b	f02b08 <bcm_gpio_set_dir+0x150>
  f02a70:	e3a03c05 	mov	r3, #1280	; 0x500
  f02a74:	e34f3f80 	movt	r3, #65408	; 0xff80
  f02a78:	e51b2008 	ldr	r2, [fp, #-8]
  f02a7c:	e6ef2072 	uxtb	r2, r2
  f02a80:	e352004d 	cmp	r2, #77	; 0x4d
  f02a84:	8a000004 	bhi	f02a9c <bcm_gpio_set_dir+0xe4>
  f02a88:	e51b2008 	ldr	r2, [fp, #-8]
  f02a8c:	e6ef2072 	uxtb	r2, r2
  f02a90:	e1a022a2 	lsr	r2, r2, #5
  f02a94:	e202100f 	and	r1, r2, #15
  f02a98:	ea000000 	b	f02aa0 <bcm_gpio_set_dir+0xe8>
  f02a9c:	e3a01000 	mov	r1, #0
  f02aa0:	e3a02c05 	mov	r2, #1280	; 0x500
  f02aa4:	e34f2f80 	movt	r2, #65408	; 0xff80
  f02aa8:	e51b0008 	ldr	r0, [fp, #-8]
  f02aac:	e6ef0070 	uxtb	r0, r0
  f02ab0:	e350004d 	cmp	r0, #77	; 0x4d
  f02ab4:	8a000004 	bhi	f02acc <bcm_gpio_set_dir+0x114>
  f02ab8:	e51b0008 	ldr	r0, [fp, #-8]
  f02abc:	e6ef0070 	uxtb	r0, r0
  f02ac0:	e1a002a0 	lsr	r0, r0, #5
  f02ac4:	e200000f 	and	r0, r0, #15
  f02ac8:	ea000000 	b	f02ad0 <bcm_gpio_set_dir+0x118>
  f02acc:	e3a00000 	mov	r0, #0
  f02ad0:	e7922100 	ldr	r2, [r2, r0, lsl #2]
  f02ad4:	e51b0008 	ldr	r0, [fp, #-8]
  f02ad8:	e6ef0070 	uxtb	r0, r0
  f02adc:	e350004d 	cmp	r0, #77	; 0x4d
  f02ae0:	8a000005 	bhi	f02afc <bcm_gpio_set_dir+0x144>
  f02ae4:	e51b0008 	ldr	r0, [fp, #-8]
  f02ae8:	e200001f 	and	r0, r0, #31
  f02aec:	e3a0c001 	mov	ip, #1
  f02af0:	e1a0001c 	lsl	r0, ip, r0
  f02af4:	e1e00000 	mvn	r0, r0
  f02af8:	ea000000 	b	f02b00 <bcm_gpio_set_dir+0x148>
  f02afc:	e3e00000 	mvn	r0, #0
  f02b00:	e0022000 	and	r2, r2, r0
  f02b04:	e7832101 	str	r2, [r3, r1, lsl #2]
  f02b08:	e1a00000 	nop			; (mov r0, r0)
  f02b0c:	e28bd000 	add	sp, fp, #0
  f02b10:	e49db004 	pop	{fp}		; (ldr fp, [sp], #4)
  f02b14:	e12fff1e 	bx	lr

00f02b18 <bcm_gpio_get_data>:
  f02b18:	e52db004 	push	{fp}		; (str fp, [sp, #-4]!)
  f02b1c:	e28db000 	add	fp, sp, #0
  f02b20:	e24dd00c 	sub	sp, sp, #12
  f02b24:	e50b0008 	str	r0, [fp, #-8]
  f02b28:	e3a03c05 	mov	r3, #1280	; 0x500
  f02b2c:	e34f3f80 	movt	r3, #65408	; 0xff80
  f02b30:	e51b2008 	ldr	r2, [fp, #-8]
  f02b34:	e6ef2072 	uxtb	r2, r2
  f02b38:	e352004d 	cmp	r2, #77	; 0x4d
  f02b3c:	8a000004 	bhi	f02b54 <bcm_gpio_get_data+0x3c>
  f02b40:	e51b2008 	ldr	r2, [fp, #-8]
  f02b44:	e6ef2072 	uxtb	r2, r2
  f02b48:	e1a022a2 	lsr	r2, r2, #5
  f02b4c:	e202200f 	and	r2, r2, #15
  f02b50:	ea000000 	b	f02b58 <bcm_gpio_get_data+0x40>
  f02b54:	e3a02000 	mov	r2, #0
  f02b58:	e2822008 	add	r2, r2, #8
  f02b5c:	e7933102 	ldr	r3, [r3, r2, lsl #2]
  f02b60:	e51b2008 	ldr	r2, [fp, #-8]
  f02b64:	e6ef2072 	uxtb	r2, r2
  f02b68:	e352004d 	cmp	r2, #77	; 0x4d
  f02b6c:	8a000004 	bhi	f02b84 <bcm_gpio_get_data+0x6c>
  f02b70:	e51b2008 	ldr	r2, [fp, #-8]
  f02b74:	e202201f 	and	r2, r2, #31
  f02b78:	e3a01001 	mov	r1, #1
  f02b7c:	e1a02211 	lsl	r2, r1, r2
  f02b80:	ea000000 	b	f02b88 <bcm_gpio_get_data+0x70>
  f02b84:	e3a02000 	mov	r2, #0
  f02b88:	e0022003 	and	r2, r2, r3
  f02b8c:	e51b3008 	ldr	r3, [fp, #-8]
  f02b90:	e203301f 	and	r3, r3, #31
  f02b94:	e1a03332 	lsr	r3, r2, r3
  f02b98:	e1a00003 	mov	r0, r3
  f02b9c:	e28bd000 	add	sp, fp, #0
  f02ba0:	e49db004 	pop	{fp}		; (ldr fp, [sp], #4)
  f02ba4:	e12fff1e 	bx	lr

00f02ba8 <bcm_gpio_set_data>:
  f02ba8:	e52db004 	push	{fp}		; (str fp, [sp, #-4]!)
  f02bac:	e28db000 	add	fp, sp, #0
  f02bb0:	e24dd00c 	sub	sp, sp, #12
  f02bb4:	e50b0008 	str	r0, [fp, #-8]
  f02bb8:	e50b100c 	str	r1, [fp, #-12]
  f02bbc:	e51b300c 	ldr	r3, [fp, #-12]
  f02bc0:	e3530000 	cmp	r3, #0
  f02bc4:	0a000027 	beq	f02c68 <bcm_gpio_set_data+0xc0>
  f02bc8:	e3a03c05 	mov	r3, #1280	; 0x500
  f02bcc:	e34f3f80 	movt	r3, #65408	; 0xff80
  f02bd0:	e51b2008 	ldr	r2, [fp, #-8]
  f02bd4:	e6ef2072 	uxtb	r2, r2
  f02bd8:	e352004d 	cmp	r2, #77	; 0x4d
  f02bdc:	8a000004 	bhi	f02bf4 <bcm_gpio_set_data+0x4c>
  f02be0:	e51b2008 	ldr	r2, [fp, #-8]
  f02be4:	e6ef2072 	uxtb	r2, r2
  f02be8:	e1a022a2 	lsr	r2, r2, #5
  f02bec:	e202100f 	and	r1, r2, #15
  f02bf0:	ea000000 	b	f02bf8 <bcm_gpio_set_data+0x50>
  f02bf4:	e3a01000 	mov	r1, #0
  f02bf8:	e3a02c05 	mov	r2, #1280	; 0x500
  f02bfc:	e34f2f80 	movt	r2, #65408	; 0xff80
  f02c00:	e51b0008 	ldr	r0, [fp, #-8]
  f02c04:	e6ef0070 	uxtb	r0, r0
  f02c08:	e350004d 	cmp	r0, #77	; 0x4d
  f02c0c:	8a000004 	bhi	f02c24 <bcm_gpio_set_data+0x7c>
  f02c10:	e51b0008 	ldr	r0, [fp, #-8]
  f02c14:	e6ef0070 	uxtb	r0, r0
  f02c18:	e1a002a0 	lsr	r0, r0, #5
  f02c1c:	e200000f 	and	r0, r0, #15
  f02c20:	ea000000 	b	f02c28 <bcm_gpio_set_data+0x80>
  f02c24:	e3a00000 	mov	r0, #0
  f02c28:	e2800008 	add	r0, r0, #8
  f02c2c:	e7922100 	ldr	r2, [r2, r0, lsl #2]
  f02c30:	e51b0008 	ldr	r0, [fp, #-8]
  f02c34:	e6ef0070 	uxtb	r0, r0
  f02c38:	e350004d 	cmp	r0, #77	; 0x4d
  f02c3c:	8a000004 	bhi	f02c54 <bcm_gpio_set_data+0xac>
  f02c40:	e51b0008 	ldr	r0, [fp, #-8]
  f02c44:	e200001f 	and	r0, r0, #31
  f02c48:	e3a0c001 	mov	ip, #1
  f02c4c:	e1a0001c 	lsl	r0, ip, r0
  f02c50:	ea000000 	b	f02c58 <bcm_gpio_set_data+0xb0>
  f02c54:	e3a00000 	mov	r0, #0
  f02c58:	e1820000 	orr	r0, r2, r0
  f02c5c:	e2812008 	add	r2, r1, #8
  f02c60:	e7830102 	str	r0, [r3, r2, lsl #2]
  f02c64:	ea000027 	b	f02d08 <bcm_gpio_set_data+0x160>
  f02c68:	e3a03c05 	mov	r3, #1280	; 0x500
  f02c6c:	e34f3f80 	movt	r3, #65408	; 0xff80
  f02c70:	e51b2008 	ldr	r2, [fp, #-8]
  f02c74:	e6ef2072 	uxtb	r2, r2
  f02c78:	e352004d 	cmp	r2, #77	; 0x4d
  f02c7c:	8a000004 	bhi	f02c94 <bcm_gpio_set_data+0xec>
  f02c80:	e51b2008 	ldr	r2, [fp, #-8]
  f02c84:	e6ef2072 	uxtb	r2, r2
  f02c88:	e1a022a2 	lsr	r2, r2, #5
  f02c8c:	e202100f 	and	r1, r2, #15
  f02c90:	ea000000 	b	f02c98 <bcm_gpio_set_data+0xf0>
  f02c94:	e3a01000 	mov	r1, #0
  f02c98:	e3a02c05 	mov	r2, #1280	; 0x500
  f02c9c:	e34f2f80 	movt	r2, #65408	; 0xff80
  f02ca0:	e51b0008 	ldr	r0, [fp, #-8]
  f02ca4:	e6ef0070 	uxtb	r0, r0
  f02ca8:	e350004d 	cmp	r0, #77	; 0x4d
  f02cac:	8a000004 	bhi	f02cc4 <bcm_gpio_set_data+0x11c>
  f02cb0:	e51b0008 	ldr	r0, [fp, #-8]
  f02cb4:	e6ef0070 	uxtb	r0, r0
  f02cb8:	e1a002a0 	lsr	r0, r0, #5
  f02cbc:	e200000f 	and	r0, r0, #15
  f02cc0:	ea000000 	b	f02cc8 <bcm_gpio_set_data+0x120>
  f02cc4:	e3a00000 	mov	r0, #0
  f02cc8:	e2800008 	add	r0, r0, #8
  f02ccc:	e7922100 	ldr	r2, [r2, r0, lsl #2]
  f02cd0:	e51b0008 	ldr	r0, [fp, #-8]
  f02cd4:	e6ef0070 	uxtb	r0, r0
  f02cd8:	e350004d 	cmp	r0, #77	; 0x4d
  f02cdc:	8a000005 	bhi	f02cf8 <bcm_gpio_set_data+0x150>
  f02ce0:	e51b0008 	ldr	r0, [fp, #-8]
  f02ce4:	e200001f 	and	r0, r0, #31
  f02ce8:	e3a0c001 	mov	ip, #1
  f02cec:	e1a0001c 	lsl	r0, ip, r0
  f02cf0:	e1e00000 	mvn	r0, r0
  f02cf4:	ea000000 	b	f02cfc <bcm_gpio_set_data+0x154>
  f02cf8:	e3e00000 	mvn	r0, #0
  f02cfc:	e0000002 	and	r0, r0, r2
  f02d00:	e2812008 	add	r2, r1, #8
  f02d04:	e7830102 	str	r0, [r3, r2, lsl #2]
  f02d08:	e1a00000 	nop			; (mov r0, r0)
  f02d0c:	e28bd000 	add	sp, fp, #0
  f02d10:	e49db004 	pop	{fp}		; (ldr fp, [sp], #4)
  f02d14:	e12fff1e 	bx	lr

00f02d18 <bcm_common_gpio_init>:
  f02d18:	e92d4800 	push	{fp, lr}
  f02d1c:	e28db004 	add	fp, sp, #4
  f02d20:	e24dd008 	sub	sp, sp, #8
  f02d24:	e3a03000 	mov	r3, #0
  f02d28:	e50b300c 	str	r3, [fp, #-12]
  f02d2c:	ea000012 	b	f02d7c <bcm_common_gpio_init+0x64>
  f02d30:	e15b30b8 	ldrh	r3, [fp, #-8]
  f02d34:	e3a01001 	mov	r1, #1
  f02d38:	e1a00003 	mov	r0, r3
  f02d3c:	ebffff1d 	bl	f029b8 <bcm_gpio_set_dir>
  f02d40:	e15b30b8 	ldrh	r3, [fp, #-8]
  f02d44:	e6bf3073 	sxth	r3, r3
  f02d48:	e3530000 	cmp	r3, #0
  f02d4c:	aa000002 	bge	f02d5c <bcm_common_gpio_init+0x44>
  f02d50:	e3a03000 	mov	r3, #0
  f02d54:	e14b30b6 	strh	r3, [fp, #-6]
  f02d58:	ea000001 	b	f02d64 <bcm_common_gpio_init+0x4c>
  f02d5c:	e3a03001 	mov	r3, #1
  f02d60:	e14b30b6 	strh	r3, [fp, #-6]
  f02d64:	e15b30b8 	ldrh	r3, [fp, #-8]
  f02d68:	e1a02003 	mov	r2, r3
  f02d6c:	e15b30b6 	ldrh	r3, [fp, #-6]
  f02d70:	e1a01003 	mov	r1, r3
  f02d74:	e1a00002 	mov	r0, r2
  f02d78:	ebffff8a 	bl	f02ba8 <bcm_gpio_set_data>
  f02d7c:	e24b2008 	sub	r2, fp, #8
  f02d80:	e24b300c 	sub	r3, fp, #12
  f02d84:	e1a01002 	mov	r1, r2
  f02d88:	e1a00003 	mov	r0, r3
  f02d8c:	eb005193 	bl	f173e0 <BpEnumGpioInitState>
  f02d90:	e1a03000 	mov	r3, r0
  f02d94:	e3530000 	cmp	r3, #0
  f02d98:	0affffe4 	beq	f02d30 <bcm_common_gpio_init+0x18>
  f02d9c:	e3a03000 	mov	r3, #0
  f02da0:	e1a00003 	mov	r0, r3
  f02da4:	e24bd004 	sub	sp, fp, #4
  f02da8:	e8bd8800 	pop	{fp, pc}

00f02dac <otp_wait_status>:
  f02dac:	e52db004 	push	{fp}		; (str fp, [sp, #-4]!)
  f02db0:	e28db000 	add	fp, sp, #0
  f02db4:	e24dd01c 	sub	sp, sp, #28
  f02db8:	e50b0010 	str	r0, [fp, #-16]
  f02dbc:	e50b1014 	str	r1, [fp, #-20]	; 0xffffffec
  f02dc0:	e50b2018 	str	r2, [fp, #-24]	; 0xffffffe8
  f02dc4:	e3a03801 	mov	r3, #65536	; 0x10000
  f02dc8:	e50b3008 	str	r3, [fp, #-8]
  f02dcc:	ea000002 	b	f02ddc <otp_wait_status+0x30>
  f02dd0:	e51b3008 	ldr	r3, [fp, #-8]
  f02dd4:	e2433001 	sub	r3, r3, #1
  f02dd8:	e50b3008 	str	r3, [fp, #-8]
  f02ddc:	e51b3008 	ldr	r3, [fp, #-8]
  f02de0:	e3530000 	cmp	r3, #0
  f02de4:	0a000006 	beq	f02e04 <otp_wait_status+0x58>
  f02de8:	e51b3010 	ldr	r3, [fp, #-16]
  f02dec:	e5932000 	ldr	r2, [r3]
  f02df0:	e51b3014 	ldr	r3, [fp, #-20]	; 0xffffffec
  f02df4:	e0022003 	and	r2, r2, r3
  f02df8:	e51b3018 	ldr	r3, [fp, #-24]	; 0xffffffe8
  f02dfc:	e1520003 	cmp	r2, r3
  f02e00:	1afffff2 	bne	f02dd0 <otp_wait_status+0x24>
  f02e04:	e51b3008 	ldr	r3, [fp, #-8]
  f02e08:	e3530000 	cmp	r3, #0
  f02e0c:	0a000001 	beq	f02e18 <otp_wait_status+0x6c>
  f02e10:	e3a03000 	mov	r3, #0
  f02e14:	ea000000 	b	f02e1c <otp_wait_status+0x70>
  f02e18:	e3e03000 	mvn	r3, #0
  f02e1c:	e1a00003 	mov	r0, r3
  f02e20:	e28bd000 	add	sp, fp, #0
  f02e24:	e49db004 	pop	{fp}		; (ldr fp, [sp], #4)
  f02e28:	e12fff1e 	bx	lr

00f02e2c <bcm_otp_get_row>:
  f02e2c:	e92d4800 	push	{fp, lr}
  f02e30:	e28db004 	add	fp, sp, #4
  f02e34:	e24dd008 	sub	sp, sp, #8
  f02e38:	e50b0008 	str	r0, [fp, #-8]
  f02e3c:	e50b100c 	str	r1, [fp, #-12]
  f02e40:	e3a02000 	mov	r2, #0
  f02e44:	e51b100c 	ldr	r1, [fp, #-12]
  f02e48:	e51b0008 	ldr	r0, [fp, #-8]
  f02e4c:	eb000003 	bl	f02e60 <bcm_otp_get_row_ecc>
  f02e50:	e1a03000 	mov	r3, r0
  f02e54:	e1a00003 	mov	r0, r3
  f02e58:	e24bd004 	sub	sp, fp, #4
  f02e5c:	e8bd8800 	pop	{fp, pc}

00f02e60 <bcm_otp_get_row_ecc>:
  f02e60:	e92d4800 	push	{fp, lr}
  f02e64:	e28db004 	add	fp, sp, #4
  f02e68:	e24dd018 	sub	sp, sp, #24
  f02e6c:	e50b0010 	str	r0, [fp, #-16]
  f02e70:	e50b1014 	str	r1, [fp, #-20]	; 0xffffffec
  f02e74:	e50b2018 	str	r2, [fp, #-24]	; 0xffffffe8
  f02e78:	e3e03000 	mvn	r3, #0
  f02e7c:	e50b3008 	str	r3, [fp, #-8]
  f02e80:	e3a03b0a 	mov	r3, #10240	; 0x2800
  f02e84:	e34f3f80 	movt	r3, #65408	; 0xff80
  f02e88:	e3a02001 	mov	r2, #1
  f02e8c:	e5832070 	str	r2, [r3, #112]	; 0x70
  f02e90:	e3a02001 	mov	r2, #1
  f02e94:	e3a01001 	mov	r1, #1
  f02e98:	e3020870 	movw	r0, #10352	; 0x2870
  f02e9c:	e34f0f80 	movt	r0, #65408	; 0xff80
  f02ea0:	ebffffc1 	bl	f02dac <otp_wait_status>
  f02ea4:	e50b0008 	str	r0, [fp, #-8]
  f02ea8:	e51b3008 	ldr	r3, [fp, #-8]
  f02eac:	e3530000 	cmp	r3, #0
  f02eb0:	1a00003a 	bne	f02fa0 <bcm_otp_get_row_ecc+0x140>
  f02eb4:	e3a03b0a 	mov	r3, #10240	; 0x2800
  f02eb8:	e34f3f80 	movt	r3, #65408	; 0xff80
  f02ebc:	e3a02b0a 	mov	r2, #10240	; 0x2800
  f02ec0:	e34f2f80 	movt	r2, #65408	; 0xff80
  f02ec4:	e5922004 	ldr	r2, [r2, #4]
  f02ec8:	e3822001 	orr	r2, r2, #1
  f02ecc:	e5832004 	str	r2, [r3, #4]
  f02ed0:	e3a03b0a 	mov	r3, #10240	; 0x2800
  f02ed4:	e34f3f80 	movt	r3, #65408	; 0xff80
  f02ed8:	e51b2010 	ldr	r2, [fp, #-16]
  f02edc:	e5832010 	str	r2, [r3, #16]
  f02ee0:	e3a03b0a 	mov	r3, #10240	; 0x2800
  f02ee4:	e34f3f80 	movt	r3, #65408	; 0xff80
  f02ee8:	e3a02001 	mov	r2, #1
  f02eec:	e34020a0 	movt	r2, #160	; 0xa0
  f02ef0:	e5832000 	str	r2, [r3]
  f02ef4:	e3a02000 	mov	r2, #0
  f02ef8:	e3a01002 	mov	r1, #2
  f02efc:	e3020820 	movw	r0, #10272	; 0x2820
  f02f00:	e34f0f80 	movt	r0, #65408	; 0xff80
  f02f04:	ebffffa8 	bl	f02dac <otp_wait_status>
  f02f08:	e50b0008 	str	r0, [fp, #-8]
  f02f0c:	e3a02002 	mov	r2, #2
  f02f10:	e3a01002 	mov	r1, #2
  f02f14:	e3020820 	movw	r0, #10272	; 0x2820
  f02f18:	e34f0f80 	movt	r0, #65408	; 0xff80
  f02f1c:	ebffffa2 	bl	f02dac <otp_wait_status>
  f02f20:	e50b0008 	str	r0, [fp, #-8]
  f02f24:	e51b3008 	ldr	r3, [fp, #-8]
  f02f28:	e3530000 	cmp	r3, #0
  f02f2c:	1a00001d 	bne	f02fa8 <bcm_otp_get_row_ecc+0x148>
  f02f30:	e51b3008 	ldr	r3, [fp, #-8]
  f02f34:	e3530000 	cmp	r3, #0
  f02f38:	1a00000c 	bne	f02f70 <bcm_otp_get_row_ecc+0x110>
  f02f3c:	e3a03b0a 	mov	r3, #10240	; 0x2800
  f02f40:	e34f3f80 	movt	r3, #65408	; 0xff80
  f02f44:	e5932018 	ldr	r2, [r3, #24]
  f02f48:	e51b3014 	ldr	r3, [fp, #-20]	; 0xffffffec
  f02f4c:	e5832000 	str	r2, [r3]
  f02f50:	e51b3018 	ldr	r3, [fp, #-24]	; 0xffffffe8
  f02f54:	e3530000 	cmp	r3, #0
  f02f58:	0a000004 	beq	f02f70 <bcm_otp_get_row_ecc+0x110>
  f02f5c:	e3a03b0a 	mov	r3, #10240	; 0x2800
  f02f60:	e34f3f80 	movt	r3, #65408	; 0xff80
  f02f64:	e593201c 	ldr	r2, [r3, #28]
  f02f68:	e51b3018 	ldr	r3, [fp, #-24]	; 0xffffffe8
  f02f6c:	e5832000 	str	r2, [r3]
  f02f70:	e3a03b0a 	mov	r3, #10240	; 0x2800
  f02f74:	e34f3f80 	movt	r3, #65408	; 0xff80
  f02f78:	e3a02000 	mov	r2, #0
  f02f7c:	e5832000 	str	r2, [r3]
  f02f80:	e3a03b0a 	mov	r3, #10240	; 0x2800
  f02f84:	e34f3f80 	movt	r3, #65408	; 0xff80
  f02f88:	e3a02b0a 	mov	r2, #10240	; 0x2800
  f02f8c:	e34f2f80 	movt	r2, #65408	; 0xff80
  f02f90:	e5922004 	ldr	r2, [r2, #4]
  f02f94:	e3c22001 	bic	r2, r2, #1
  f02f98:	e5832004 	str	r2, [r3, #4]
  f02f9c:	ea000002 	b	f02fac <bcm_otp_get_row_ecc+0x14c>
  f02fa0:	e1a00000 	nop			; (mov r0, r0)
  f02fa4:	ea000000 	b	f02fac <bcm_otp_get_row_ecc+0x14c>
  f02fa8:	e1a00000 	nop			; (mov r0, r0)
  f02fac:	e3a03b0a 	mov	r3, #10240	; 0x2800
  f02fb0:	e34f3f80 	movt	r3, #65408	; 0xff80
  f02fb4:	e3a02000 	mov	r2, #0
  f02fb8:	e5832070 	str	r2, [r3, #112]	; 0x70
  f02fbc:	e51b3008 	ldr	r3, [fp, #-8]
  f02fc0:	e1a00003 	mov	r0, r3
  f02fc4:	e24bd004 	sub	sp, fp, #4
  f02fc8:	e8bd8800 	pop	{fp, pc}

00f02fcc <sotp_sec89_both_readlocked>:
  f02fcc:	e52db004 	push	{fp}		; (str fp, [sp, #-4]!)
  f02fd0:	e28db000 	add	fp, sp, #0
  f02fd4:	e24dd00c 	sub	sp, sp, #12
  f02fd8:	e3a03000 	mov	r3, #0
  f02fdc:	e50b3008 	str	r3, [fp, #-8]
  f02fe0:	e3003c3c 	movw	r3, #3132	; 0xc3c
  f02fe4:	e34f3f80 	movt	r3, #65408	; 0xff80
  f02fe8:	e5933000 	ldr	r3, [r3]
  f02fec:	e50b300c 	str	r3, [fp, #-12]
  f02ff0:	e51b200c 	ldr	r2, [fp, #-12]
  f02ff4:	e30b3eef 	movw	r3, #48879	; 0xbeef
  f02ff8:	e34d3ead 	movt	r3, #57005	; 0xdead
  f02ffc:	e1520003 	cmp	r2, r3
  f03000:	1a000002 	bne	f03010 <sotp_sec89_both_readlocked+0x44>
  f03004:	e3a03001 	mov	r3, #1
  f03008:	e50b3008 	str	r3, [fp, #-8]
  f0300c:	ea000006 	b	f0302c <sotp_sec89_both_readlocked+0x60>
  f03010:	e51b300c 	ldr	r3, [fp, #-12]
  f03014:	e1a03523 	lsr	r3, r3, #10
  f03018:	e203303f 	and	r3, r3, #63	; 0x3f
  f0301c:	e353003f 	cmp	r3, #63	; 0x3f
  f03020:	1a000001 	bne	f0302c <sotp_sec89_both_readlocked+0x60>
  f03024:	e3a03001 	mov	r3, #1
  f03028:	e50b3008 	str	r3, [fp, #-8]
  f0302c:	e51b3008 	ldr	r3, [fp, #-8]
  f03030:	e1a00003 	mov	r0, r3
  f03034:	e28bd000 	add	sp, fp, #0
  f03038:	e49db004 	pop	{fp}		; (ldr fp, [sp], #4)
  f0303c:	e12fff1e 	bx	lr

00f03040 <bcm_otp_fld_secure_rows>:
  f03040:	e92d4800 	push	{fp, lr}
  f03044:	e28db004 	add	fp, sp, #4
  f03048:	ebffffdf 	bl	f02fcc <sotp_sec89_both_readlocked>
  f0304c:	e1a03000 	mov	r3, r0
  f03050:	e3530000 	cmp	r3, #0
  f03054:	03a03001 	moveq	r3, #1
  f03058:	13a03000 	movne	r3, #0
  f0305c:	e6ef3073 	uxtb	r3, r3
  f03060:	e1a00003 	mov	r0, r3
  f03064:	e8bd8800 	pop	{fp, pc}

00f03068 <bcm_otp_is_btrm_boot>:
  f03068:	e52db004 	push	{fp}		; (str fp, [sp, #-4]!)
  f0306c:	e28db000 	add	fp, sp, #0
  f03070:	e24dd00c 	sub	sp, sp, #12
  f03074:	e3a03000 	mov	r3, #0
  f03078:	e50b3008 	str	r3, [fp, #-8]
  f0307c:	e3a03001 	mov	r3, #1
  f03080:	e1a00003 	mov	r0, r3
  f03084:	e28bd000 	add	sp, fp, #0
  f03088:	e49db004 	pop	{fp}		; (ldr fp, [sp], #4)
  f0308c:	e12fff1e 	bx	lr

00f03090 <bcm_otp_is_boot_secure>:
  f03090:	e92d4800 	push	{fp, lr}
  f03094:	e28db004 	add	fp, sp, #4
  f03098:	e24dd010 	sub	sp, sp, #16
  f0309c:	e24b300c 	sub	r3, fp, #12
  f030a0:	e1a01003 	mov	r1, r3
  f030a4:	e3a00011 	mov	r0, #17
  f030a8:	ebffff5f 	bl	f02e2c <bcm_otp_get_row>
  f030ac:	e50b0008 	str	r0, [fp, #-8]
  f030b0:	e24b3010 	sub	r3, fp, #16
  f030b4:	e1a01003 	mov	r1, r3
  f030b8:	e3a00012 	mov	r0, #18
  f030bc:	ebffff5a 	bl	f02e2c <bcm_otp_get_row>
  f030c0:	e1a02000 	mov	r2, r0
  f030c4:	e51b3008 	ldr	r3, [fp, #-8]
  f030c8:	e1833002 	orr	r3, r3, r2
  f030cc:	e50b3008 	str	r3, [fp, #-8]
  f030d0:	e24b3014 	sub	r3, fp, #20
  f030d4:	e1a01003 	mov	r1, r3
  f030d8:	e3a00017 	mov	r0, #23
  f030dc:	ebffff52 	bl	f02e2c <bcm_otp_get_row>
  f030e0:	e1a02000 	mov	r2, r0
  f030e4:	e51b3008 	ldr	r3, [fp, #-8]
  f030e8:	e1833002 	orr	r3, r3, r2
  f030ec:	e50b3008 	str	r3, [fp, #-8]
  f030f0:	e51b3008 	ldr	r3, [fp, #-8]
  f030f4:	e3530000 	cmp	r3, #0
  f030f8:	1a00000e 	bne	f03138 <bcm_otp_is_boot_secure+0xa8>
  f030fc:	e51b300c 	ldr	r3, [fp, #-12]
  f03100:	e2033008 	and	r3, r3, #8
  f03104:	e3530000 	cmp	r3, #0
  f03108:	0a00000a 	beq	f03138 <bcm_otp_is_boot_secure+0xa8>
  f0310c:	e51b3010 	ldr	r3, [fp, #-16]
  f03110:	e203390e 	and	r3, r3, #229376	; 0x38000
  f03114:	e3530000 	cmp	r3, #0
  f03118:	0a000006 	beq	f03138 <bcm_otp_is_boot_secure+0xa8>
  f0311c:	e51b3014 	ldr	r3, [fp, #-20]	; 0xffffffec
  f03120:	e6ff3073 	uxth	r3, r3
  f03124:	e3530000 	cmp	r3, #0
  f03128:	0a000002 	beq	f03138 <bcm_otp_is_boot_secure+0xa8>
  f0312c:	e3a03001 	mov	r3, #1
  f03130:	e50b3008 	str	r3, [fp, #-8]
  f03134:	ea000001 	b	f03140 <bcm_otp_is_boot_secure+0xb0>
  f03138:	e3a03000 	mov	r3, #0
  f0313c:	e50b3008 	str	r3, [fp, #-8]
  f03140:	e51b3008 	ldr	r3, [fp, #-8]
  f03144:	e1a00003 	mov	r0, r3
  f03148:	e24bd004 	sub	sp, fp, #4
  f0314c:	e8bd8800 	pop	{fp, pc}

00f03150 <bcm_otp_is_boot_mfg_secure>:
  f03150:	e92d4800 	push	{fp, lr}
  f03154:	e28db004 	add	fp, sp, #4
  f03158:	e24dd010 	sub	sp, sp, #16
  f0315c:	e24b300c 	sub	r3, fp, #12
  f03160:	e1a01003 	mov	r1, r3
  f03164:	e3a00011 	mov	r0, #17
  f03168:	ebffff2f 	bl	f02e2c <bcm_otp_get_row>
  f0316c:	e50b0008 	str	r0, [fp, #-8]
  f03170:	e24b3010 	sub	r3, fp, #16
  f03174:	e1a01003 	mov	r1, r3
  f03178:	e3a00012 	mov	r0, #18
  f0317c:	ebffff2a 	bl	f02e2c <bcm_otp_get_row>
  f03180:	e1a02000 	mov	r2, r0
  f03184:	e51b3008 	ldr	r3, [fp, #-8]
  f03188:	e1833002 	orr	r3, r3, r2
  f0318c:	e50b3008 	str	r3, [fp, #-8]
  f03190:	e24b3014 	sub	r3, fp, #20
  f03194:	e1a01003 	mov	r1, r3
  f03198:	e3a00017 	mov	r0, #23
  f0319c:	ebffff22 	bl	f02e2c <bcm_otp_get_row>
  f031a0:	e1a02000 	mov	r2, r0
  f031a4:	e51b3008 	ldr	r3, [fp, #-8]
  f031a8:	e1833002 	orr	r3, r3, r2
  f031ac:	e50b3008 	str	r3, [fp, #-8]
  f031b0:	e51b3008 	ldr	r3, [fp, #-8]
  f031b4:	e3530000 	cmp	r3, #0
  f031b8:	1a000018 	bne	f03220 <bcm_otp_is_boot_mfg_secure+0xd0>
  f031bc:	e51b300c 	ldr	r3, [fp, #-12]
  f031c0:	e2033008 	and	r3, r3, #8
  f031c4:	e3530000 	cmp	r3, #0
  f031c8:	0a000014 	beq	f03220 <bcm_otp_is_boot_mfg_secure+0xd0>
  f031cc:	e51b3010 	ldr	r3, [fp, #-16]
  f031d0:	e203390e 	and	r3, r3, #229376	; 0x38000
  f031d4:	e3530000 	cmp	r3, #0
  f031d8:	0a000010 	beq	f03220 <bcm_otp_is_boot_mfg_secure+0xd0>
  f031dc:	e51b3014 	ldr	r3, [fp, #-20]	; 0xffffffec
  f031e0:	e6ff3073 	uxth	r3, r3
  f031e4:	e3530000 	cmp	r3, #0
  f031e8:	0a000009 	beq	f03214 <bcm_otp_is_boot_mfg_secure+0xc4>
  f031ec:	ebffff93 	bl	f03040 <bcm_otp_fld_secure_rows>
  f031f0:	e1a03000 	mov	r3, r0
  f031f4:	e3530000 	cmp	r3, #0
  f031f8:	1a000002 	bne	f03208 <bcm_otp_is_boot_mfg_secure+0xb8>
  f031fc:	e3a03000 	mov	r3, #0
  f03200:	e50b3008 	str	r3, [fp, #-8]
  f03204:	ea000007 	b	f03228 <bcm_otp_is_boot_mfg_secure+0xd8>
  f03208:	e3a03001 	mov	r3, #1
  f0320c:	e50b3008 	str	r3, [fp, #-8]
  f03210:	ea000004 	b	f03228 <bcm_otp_is_boot_mfg_secure+0xd8>
  f03214:	e3a03001 	mov	r3, #1
  f03218:	e50b3008 	str	r3, [fp, #-8]
  f0321c:	ea000001 	b	f03228 <bcm_otp_is_boot_mfg_secure+0xd8>
  f03220:	e3a03000 	mov	r3, #0
  f03224:	e50b3008 	str	r3, [fp, #-8]
  f03228:	e51b3008 	ldr	r3, [fp, #-8]
  f0322c:	e1a00003 	mov	r0, r3
  f03230:	e24bd004 	sub	sp, fp, #4
  f03234:	e8bd8800 	pop	{fp, pc}

00f03238 <bcm_otp_get_nr_cpus>:
  f03238:	e92d4800 	push	{fp, lr}
  f0323c:	e28db004 	add	fp, sp, #4
  f03240:	e24dd010 	sub	sp, sp, #16
  f03244:	e50b0010 	str	r0, [fp, #-16]
  f03248:	e24b300c 	sub	r3, fp, #12
  f0324c:	e1a01003 	mov	r1, r3
  f03250:	e3a00008 	mov	r0, #8
  f03254:	ebfffef4 	bl	f02e2c <bcm_otp_get_row>
  f03258:	e50b0008 	str	r0, [fp, #-8]
  f0325c:	e51b300c 	ldr	r3, [fp, #-12]
  f03260:	e2033201 	and	r3, r3, #268435456	; 0x10000000
  f03264:	e1a02e23 	lsr	r2, r3, #28
  f03268:	e51b3010 	ldr	r3, [fp, #-16]
  f0326c:	e5832000 	str	r2, [r3]
  f03270:	e51b3008 	ldr	r3, [fp, #-8]
  f03274:	e1a00003 	mov	r0, r3
  f03278:	e24bd004 	sub	sp, fp, #4
  f0327c:	e8bd8800 	pop	{fp, pc}

00f03280 <led_do_set>:
  f03280:	e52db004 	push	{fp}		; (str fp, [sp, #-4]!)
  f03284:	e28db000 	add	fp, sp, #0
  f03288:	e24dd014 	sub	sp, sp, #20
  f0328c:	e1a03000 	mov	r3, r0
  f03290:	e14b30be 	strh	r3, [fp, #-14]
  f03294:	e15b30be 	ldrh	r3, [fp, #-14]
  f03298:	e30c2a74 	movw	r2, #51828	; 0xca74
  f0329c:	e34020f6 	movt	r2, #246	; 0xf6
  f032a0:	e1a01003 	mov	r1, r3
  f032a4:	e1a03081 	lsl	r3, r1, #1
  f032a8:	e1a01003 	mov	r1, r3
  f032ac:	e1a03101 	lsl	r3, r1, #2
  f032b0:	e0613003 	rsb	r3, r1, r3
  f032b4:	e0823003 	add	r3, r2, r3
  f032b8:	e1d330b0 	ldrh	r3, [r3]
  f032bc:	e14b30b6 	strh	r3, [fp, #-6]
  f032c0:	e15b30be 	ldrh	r3, [fp, #-14]
  f032c4:	e30c2a74 	movw	r2, #51828	; 0xca74
  f032c8:	e34020f6 	movt	r2, #246	; 0xf6
  f032cc:	e1a01003 	mov	r1, r3
  f032d0:	e1a03081 	lsl	r3, r1, #1
  f032d4:	e1a01003 	mov	r1, r3
  f032d8:	e1a03101 	lsl	r3, r1, #2
  f032dc:	e0613003 	rsb	r3, r1, r3
  f032e0:	e0823003 	add	r3, r2, r3
  f032e4:	e2833004 	add	r3, r3, #4
  f032e8:	e5d33000 	ldrb	r3, [r3]
  f032ec:	e3530000 	cmp	r3, #0
  f032f0:	0a000036 	beq	f033d0 <led_do_set+0x150>
  f032f4:	e15b30b6 	ldrh	r3, [fp, #-6]
  f032f8:	e3530000 	cmp	r3, #0
  f032fc:	0a000018 	beq	f03364 <led_do_set+0xe4>
  f03300:	e30c3a70 	movw	r3, #51824	; 0xca70
  f03304:	e34030f6 	movt	r3, #246	; 0xf6
  f03308:	e5932000 	ldr	r2, [r3]
  f0330c:	e30c3a70 	movw	r3, #51824	; 0xca70
  f03310:	e34030f6 	movt	r3, #246	; 0xf6
  f03314:	e5933000 	ldr	r3, [r3]
  f03318:	e5933000 	ldr	r3, [r3]
  f0331c:	e15b10be 	ldrh	r1, [fp, #-14]
  f03320:	e201101f 	and	r1, r1, #31
  f03324:	e3a00001 	mov	r0, #1
  f03328:	e1a01110 	lsl	r1, r0, r1
  f0332c:	e1833001 	orr	r3, r3, r1
  f03330:	e5823000 	str	r3, [r2]
  f03334:	e3a03a03 	mov	r3, #12288	; 0x3000
  f03338:	e34f3f80 	movt	r3, #65408	; 0xff80
  f0333c:	e3a02a03 	mov	r2, #12288	; 0x3000
  f03340:	e34f2f80 	movt	r2, #65408	; 0xff80
  f03344:	e5922004 	ldr	r2, [r2, #4]
  f03348:	e15b10be 	ldrh	r1, [fp, #-14]
  f0334c:	e201101f 	and	r1, r1, #31
  f03350:	e3a00001 	mov	r0, #1
  f03354:	e1a01110 	lsl	r1, r0, r1
  f03358:	e1822001 	orr	r2, r2, r1
  f0335c:	e5832004 	str	r2, [r3, #4]
  f03360:	ea000039 	b	f0344c <led_do_set+0x1cc>
  f03364:	e30c3a70 	movw	r3, #51824	; 0xca70
  f03368:	e34030f6 	movt	r3, #246	; 0xf6
  f0336c:	e5932000 	ldr	r2, [r3]
  f03370:	e30c3a70 	movw	r3, #51824	; 0xca70
  f03374:	e34030f6 	movt	r3, #246	; 0xf6
  f03378:	e5933000 	ldr	r3, [r3]
  f0337c:	e5933000 	ldr	r3, [r3]
  f03380:	e15b10be 	ldrh	r1, [fp, #-14]
  f03384:	e201101f 	and	r1, r1, #31
  f03388:	e3a00001 	mov	r0, #1
  f0338c:	e1a01110 	lsl	r1, r0, r1
  f03390:	e1e01001 	mvn	r1, r1
  f03394:	e0033001 	and	r3, r3, r1
  f03398:	e5823000 	str	r3, [r2]
  f0339c:	e3a03a03 	mov	r3, #12288	; 0x3000
  f033a0:	e34f3f80 	movt	r3, #65408	; 0xff80
  f033a4:	e3a02a03 	mov	r2, #12288	; 0x3000
  f033a8:	e34f2f80 	movt	r2, #65408	; 0xff80
  f033ac:	e5922004 	ldr	r2, [r2, #4]
  f033b0:	e15b10be 	ldrh	r1, [fp, #-14]
  f033b4:	e201101f 	and	r1, r1, #31
  f033b8:	e3a00001 	mov	r0, #1
  f033bc:	e1a01110 	lsl	r1, r0, r1
  f033c0:	e1e01001 	mvn	r1, r1
  f033c4:	e0022001 	and	r2, r2, r1
  f033c8:	e5832004 	str	r2, [r3, #4]
  f033cc:	ea00001e 	b	f0344c <led_do_set+0x1cc>
  f033d0:	e15b30b6 	ldrh	r3, [fp, #-6]
  f033d4:	e3530000 	cmp	r3, #0
  f033d8:	0a00000d 	beq	f03414 <led_do_set+0x194>
  f033dc:	e30c3a70 	movw	r3, #51824	; 0xca70
  f033e0:	e34030f6 	movt	r3, #246	; 0xf6
  f033e4:	e5932000 	ldr	r2, [r3]
  f033e8:	e30c3a70 	movw	r3, #51824	; 0xca70
  f033ec:	e34030f6 	movt	r3, #246	; 0xf6
  f033f0:	e5933000 	ldr	r3, [r3]
  f033f4:	e5933000 	ldr	r3, [r3]
  f033f8:	e15b10be 	ldrh	r1, [fp, #-14]
  f033fc:	e201101f 	and	r1, r1, #31
  f03400:	e3a00001 	mov	r0, #1
  f03404:	e1a01110 	lsl	r1, r0, r1
  f03408:	e1833001 	orr	r3, r3, r1
  f0340c:	e5823000 	str	r3, [r2]
  f03410:	ea00000d 	b	f0344c <led_do_set+0x1cc>
  f03414:	e30c3a70 	movw	r3, #51824	; 0xca70
  f03418:	e34030f6 	movt	r3, #246	; 0xf6
  f0341c:	e5932000 	ldr	r2, [r3]
  f03420:	e30c3a70 	movw	r3, #51824	; 0xca70
  f03424:	e34030f6 	movt	r3, #246	; 0xf6
  f03428:	e5933000 	ldr	r3, [r3]
  f0342c:	e5933000 	ldr	r3, [r3]
  f03430:	e15b10be 	ldrh	r1, [fp, #-14]
  f03434:	e201101f 	and	r1, r1, #31
  f03438:	e3a00001 	mov	r0, #1
  f0343c:	e1a01110 	lsl	r1, r0, r1
  f03440:	e1e01001 	mvn	r1, r1
  f03444:	e0033001 	and	r3, r3, r1
  f03448:	e5823000 	str	r3, [r2]
  f0344c:	e1a00000 	nop			; (mov r0, r0)
  f03450:	e28bd000 	add	sp, fp, #0
  f03454:	e49db004 	pop	{fp}		; (ldr fp, [sp], #4)
  f03458:	e12fff1e 	bx	lr

00f0345c <bcm_led_driver_get_optled_map>:
  f0345c:	e52db004 	push	{fp}		; (str fp, [sp, #-4]!)
  f03460:	e28db000 	add	fp, sp, #0
  f03464:	e30c3870 	movw	r3, #51312	; 0xc870
  f03468:	e34030f6 	movt	r3, #246	; 0xf6
  f0346c:	e1a00003 	mov	r0, r3
  f03470:	e28bd000 	add	sp, fp, #0
  f03474:	e49db004 	pop	{fp}		; (ldr fp, [sp], #4)
  f03478:	e12fff1e 	bx	lr

00f0347c <bcm_led_driver_set>:
  f0347c:	e92d4800 	push	{fp, lr}
  f03480:	e28db004 	add	fp, sp, #4
  f03484:	e24dd010 	sub	sp, sp, #16
  f03488:	e1a02000 	mov	r2, r0
  f0348c:	e1a03001 	mov	r3, r1
  f03490:	e14b20be 	strh	r2, [fp, #-14]
  f03494:	e14b31b0 	strh	r3, [fp, #-16]
  f03498:	e15b30be 	ldrh	r3, [fp, #-14]
  f0349c:	e2033b02 	and	r3, r3, #2048	; 0x800
  f034a0:	e3530000 	cmp	r3, #0
  f034a4:	0a00001a 	beq	f03514 <bcm_led_driver_set+0x98>
  f034a8:	e15b30fe 	ldrsh	r3, [fp, #-14]
  f034ac:	e3530000 	cmp	r3, #0
  f034b0:	aa000002 	bge	f034c0 <bcm_led_driver_set+0x44>
  f034b4:	e15b31b0 	ldrh	r3, [fp, #-16]
  f034b8:	e3530001 	cmp	r3, #1
  f034bc:	0a000005 	beq	f034d8 <bcm_led_driver_set+0x5c>
  f034c0:	e15b30fe 	ldrsh	r3, [fp, #-14]
  f034c4:	e3530000 	cmp	r3, #0
  f034c8:	ba000005 	blt	f034e4 <bcm_led_driver_set+0x68>
  f034cc:	e15b31b0 	ldrh	r3, [fp, #-16]
  f034d0:	e3530000 	cmp	r3, #0
  f034d4:	1a000002 	bne	f034e4 <bcm_led_driver_set+0x68>
  f034d8:	e3a03000 	mov	r3, #0
  f034dc:	e14b30b6 	strh	r3, [fp, #-6]
  f034e0:	ea000001 	b	f034ec <bcm_led_driver_set+0x70>
  f034e4:	e3a03001 	mov	r3, #1
  f034e8:	e14b30b6 	strh	r3, [fp, #-6]
  f034ec:	e15b30be 	ldrh	r3, [fp, #-14]
  f034f0:	e3a01001 	mov	r1, #1
  f034f4:	e1a00003 	mov	r0, r3
  f034f8:	ebfffd2e 	bl	f029b8 <bcm_gpio_set_dir>
  f034fc:	e15b30be 	ldrh	r3, [fp, #-14]
  f03500:	e15b20b6 	ldrh	r2, [fp, #-6]
  f03504:	e1a01002 	mov	r1, r2
  f03508:	e1a00003 	mov	r0, r3
  f0350c:	ebfffda5 	bl	f02ba8 <bcm_gpio_set_data>
  f03510:	ea000023 	b	f035a4 <bcm_led_driver_set+0x128>
  f03514:	e15b30be 	ldrh	r3, [fp, #-14]
  f03518:	e6ef3073 	uxtb	r3, r3
  f0351c:	e14b30b8 	strh	r3, [fp, #-8]
  f03520:	e15b20b8 	ldrh	r2, [fp, #-8]
  f03524:	e30c3870 	movw	r3, #51312	; 0xc870
  f03528:	e34030f6 	movt	r3, #246	; 0xf6
  f0352c:	e1a02082 	lsl	r2, r2, #1
  f03530:	e0833002 	add	r3, r3, r2
  f03534:	e1d330f0 	ldrsh	r3, [r3]
  f03538:	e14b30b8 	strh	r3, [fp, #-8]
  f0353c:	e15b30b8 	ldrh	r3, [fp, #-8]
  f03540:	e30c2a74 	movw	r2, #51828	; 0xca74
  f03544:	e34020f6 	movt	r2, #246	; 0xf6
  f03548:	e1a01003 	mov	r1, r3
  f0354c:	e1a03081 	lsl	r3, r1, #1
  f03550:	e1a01003 	mov	r1, r3
  f03554:	e1a03101 	lsl	r3, r1, #2
  f03558:	e0613003 	rsb	r3, r1, r3
  f0355c:	e0823003 	add	r3, r2, r3
  f03560:	e15b21b0 	ldrh	r2, [fp, #-16]
  f03564:	e1c320b0 	strh	r2, [r3]
  f03568:	e15b30b8 	ldrh	r3, [fp, #-8]
  f0356c:	e30c2a74 	movw	r2, #51828	; 0xca74
  f03570:	e34020f6 	movt	r2, #246	; 0xf6
  f03574:	e1a01003 	mov	r1, r3
  f03578:	e1a03081 	lsl	r3, r1, #1
  f0357c:	e1a01003 	mov	r1, r3
  f03580:	e1a03101 	lsl	r3, r1, #2
  f03584:	e0613003 	rsb	r3, r1, r3
  f03588:	e0823003 	add	r3, r2, r3
  f0358c:	e2833002 	add	r3, r3, #2
  f03590:	e15b20be 	ldrh	r2, [fp, #-14]
  f03594:	e1c320b0 	strh	r2, [r3]
  f03598:	e15b30b8 	ldrh	r3, [fp, #-8]
  f0359c:	e1a00003 	mov	r0, r3
  f035a0:	ebffff36 	bl	f03280 <led_do_set>
  f035a4:	e1a00000 	nop			; (mov r0, r0)
  f035a8:	e24bd004 	sub	sp, fp, #4
  f035ac:	e8bd8800 	pop	{fp, pc}

00f035b0 <bcm_led_zero_flash_rate>:
  f035b0:	e52db004 	push	{fp}		; (str fp, [sp, #-4]!)
  f035b4:	e28db000 	add	fp, sp, #0
  f035b8:	e24dd00c 	sub	sp, sp, #12
  f035bc:	e50b0008 	str	r0, [fp, #-8]
  f035c0:	e1a00000 	nop			; (mov r0, r0)
  f035c4:	e28bd000 	add	sp, fp, #0
  f035c8:	e49db004 	pop	{fp}		; (ldr fp, [sp], #4)
  f035cc:	e12fff1e 	bx	lr

00f035d0 <bcm_led_set_source>:
  f035d0:	e52db004 	push	{fp}		; (str fp, [sp, #-4]!)
  f035d4:	e28db000 	add	fp, sp, #0
  f035d8:	e24dd00c 	sub	sp, sp, #12
  f035dc:	e50b0008 	str	r0, [fp, #-8]
  f035e0:	e50b100c 	str	r1, [fp, #-12]
  f035e4:	e3a03a03 	mov	r3, #12288	; 0x3000
  f035e8:	e34f3f80 	movt	r3, #65408	; 0xff80
  f035ec:	e51b2008 	ldr	r2, [fp, #-8]
  f035f0:	e5832008 	str	r2, [r3, #8]
  f035f4:	e3a03a03 	mov	r3, #12288	; 0x3000
  f035f8:	e34f3f80 	movt	r3, #65408	; 0xff80
  f035fc:	e51b200c 	ldr	r2, [fp, #-12]
  f03600:	e5832004 	str	r2, [r3, #4]
  f03604:	e1a00000 	nop			; (mov r0, r0)
  f03608:	e28bd000 	add	sp, fp, #0
  f0360c:	e49db004 	pop	{fp}		; (ldr fp, [sp], #4)
  f03610:	e12fff1e 	bx	lr

00f03614 <bcm_common_led_init>:
  f03614:	e92d4800 	push	{fp, lr}
  f03618:	e28db004 	add	fp, sp, #4
  f0361c:	e24dd008 	sub	sp, sp, #8
  f03620:	e30c2a70 	movw	r2, #51824	; 0xca70
  f03624:	e34020f6 	movt	r2, #246	; 0xf6
  f03628:	e3033010 	movw	r3, #12304	; 0x3010
  f0362c:	e34f3f80 	movt	r3, #65408	; 0xff80
  f03630:	e5823000 	str	r3, [r2]
  f03634:	e24b3006 	sub	r3, fp, #6
  f03638:	e1a00003 	mov	r0, r3
  f0363c:	eb005505 	bl	f18a58 <BpGetSerialLedShiftOrder>
  f03640:	e1a03000 	mov	r3, r0
  f03644:	e3530000 	cmp	r3, #0
  f03648:	1a00000a 	bne	f03678 <bcm_common_led_init+0x64>
  f0364c:	e15b30b6 	ldrh	r3, [fp, #-6]
  f03650:	e3530001 	cmp	r3, #1
  f03654:	1a000007 	bne	f03678 <bcm_common_led_init+0x64>
  f03658:	e3a03a03 	mov	r3, #12288	; 0x3000
  f0365c:	e34f3f80 	movt	r3, #65408	; 0xff80
  f03660:	e3a02a03 	mov	r2, #12288	; 0x3000
  f03664:	e34f2f80 	movt	r2, #65408	; 0xff80
  f03668:	e5922000 	ldr	r2, [r2]
  f0366c:	e3822010 	orr	r2, r2, #16
  f03670:	e5832000 	str	r2, [r3]
  f03674:	ea000006 	b	f03694 <bcm_common_led_init+0x80>
  f03678:	e3a03a03 	mov	r3, #12288	; 0x3000
  f0367c:	e34f3f80 	movt	r3, #65408	; 0xff80
  f03680:	e3a02a03 	mov	r2, #12288	; 0x3000
  f03684:	e34f2f80 	movt	r2, #65408	; 0xff80
  f03688:	e5922000 	ldr	r2, [r2]
  f0368c:	e3c22010 	bic	r2, r2, #16
  f03690:	e5832000 	str	r2, [r3]
  f03694:	e1a00000 	nop			; (mov r0, r0)
  f03698:	e24bd004 	sub	sp, fp, #4
  f0369c:	e8bd8800 	pop	{fp, pc}

00f036a0 <bcm_common_led_setAllSoftLedsOff>:
  f036a0:	e92d4800 	push	{fp, lr}
  f036a4:	e28db004 	add	fp, sp, #4
  f036a8:	e24dd018 	sub	sp, sp, #24
  f036ac:	e3a03000 	mov	r3, #0
  f036b0:	e50b3008 	str	r3, [fp, #-8]
  f036b4:	e3a03000 	mov	r3, #0
  f036b8:	e50b300c 	str	r3, [fp, #-12]
  f036bc:	e3a03000 	mov	r3, #0
  f036c0:	e50b3018 	str	r3, [fp, #-24]	; 0xffffffe8
  f036c4:	e24b2014 	sub	r2, fp, #20
  f036c8:	e24b3018 	sub	r3, fp, #24
  f036cc:	e1a01003 	mov	r1, r3
  f036d0:	e51b000c 	ldr	r0, [fp, #-12]
  f036d4:	eb0054ba 	bl	f189c4 <BpGetLedGpio>
  f036d8:	e50b0010 	str	r0, [fp, #-16]
  f036dc:	e51b3010 	ldr	r3, [fp, #-16]
  f036e0:	e3530006 	cmp	r3, #6
  f036e4:	0a00005c 	beq	f0385c <bcm_common_led_setAllSoftLedsOff+0x1bc>
  f036e8:	e51b3010 	ldr	r3, [fp, #-16]
  f036ec:	e3530000 	cmp	r3, #0
  f036f0:	1a000053 	bne	f03844 <bcm_common_led_setAllSoftLedsOff+0x1a4>
  f036f4:	e15b31b4 	ldrh	r3, [fp, #-20]	; 0xffffffec
  f036f8:	e35300ff 	cmp	r3, #255	; 0xff
  f036fc:	0a000050 	beq	f03844 <bcm_common_led_setAllSoftLedsOff+0x1a4>
  f03700:	e15b31b4 	ldrh	r3, [fp, #-20]	; 0xffffffec
  f03704:	e2033b02 	and	r3, r3, #2048	; 0x800
  f03708:	e3530000 	cmp	r3, #0
  f0370c:	0a000004 	beq	f03724 <bcm_common_led_setAllSoftLedsOff+0x84>
  f03710:	e15b31b4 	ldrh	r3, [fp, #-20]	; 0xffffffec
  f03714:	e3a01000 	mov	r1, #0
  f03718:	e1a00003 	mov	r0, r3
  f0371c:	ebffff56 	bl	f0347c <bcm_led_driver_set>
  f03720:	ea00004c 	b	f03858 <bcm_common_led_setAllSoftLedsOff+0x1b8>
  f03724:	e15b31b4 	ldrh	r3, [fp, #-20]	; 0xffffffec
  f03728:	e6ef3073 	uxtb	r3, r3
  f0372c:	e14b31b2 	strh	r3, [fp, #-18]	; 0xffffffee
  f03730:	e15b21b2 	ldrh	r2, [fp, #-18]	; 0xffffffee
  f03734:	e30c3870 	movw	r3, #51312	; 0xc870
  f03738:	e34030f6 	movt	r3, #246	; 0xf6
  f0373c:	e1a02082 	lsl	r2, r2, #1
  f03740:	e0833002 	add	r3, r3, r2
  f03744:	e1d330f0 	ldrsh	r3, [r3]
  f03748:	e14b31b2 	strh	r3, [fp, #-18]	; 0xffffffee
  f0374c:	e15b31b4 	ldrh	r3, [fp, #-20]	; 0xffffffec
  f03750:	e2033903 	and	r3, r3, #49152	; 0xc000
  f03754:	e3530902 	cmp	r3, #32768	; 0x8000
  f03758:	0a00000a 	beq	f03788 <bcm_common_led_setAllSoftLedsOff+0xe8>
  f0375c:	e3530903 	cmp	r3, #49152	; 0xc000
  f03760:	0a000002 	beq	f03770 <bcm_common_led_setAllSoftLedsOff+0xd0>
  f03764:	e3530000 	cmp	r3, #0
  f03768:	0a000010 	beq	f037b0 <bcm_common_led_setAllSoftLedsOff+0x110>
  f0376c:	ea000018 	b	f037d4 <bcm_common_led_setAllSoftLedsOff+0x134>
  f03770:	e15b31b4 	ldrh	r3, [fp, #-20]	; 0xffffffec
  f03774:	e1a01003 	mov	r1, r3
  f03778:	e3020bc8 	movw	r0, #11208	; 0x2bc8
  f0377c:	e34000f5 	movt	r0, #245	; 0xf5
  f03780:	eb00de8f 	bl	f3b1c4 <xprintf>
  f03784:	ea000012 	b	f037d4 <bcm_common_led_setAllSoftLedsOff+0x134>
  f03788:	e15b31b2 	ldrh	r3, [fp, #-18]	; 0xffffffee
  f0378c:	e203301f 	and	r3, r3, #31
  f03790:	e3a02001 	mov	r2, #1
  f03794:	e1a03312 	lsl	r3, r2, r3
  f03798:	e1e03003 	mvn	r3, r3
  f0379c:	e1a02003 	mov	r2, r3
  f037a0:	e51b3008 	ldr	r3, [fp, #-8]
  f037a4:	e0033002 	and	r3, r3, r2
  f037a8:	e50b3008 	str	r3, [fp, #-8]
  f037ac:	ea000008 	b	f037d4 <bcm_common_led_setAllSoftLedsOff+0x134>
  f037b0:	e15b31b2 	ldrh	r3, [fp, #-18]	; 0xffffffee
  f037b4:	e203301f 	and	r3, r3, #31
  f037b8:	e3a02001 	mov	r2, #1
  f037bc:	e1a03312 	lsl	r3, r2, r3
  f037c0:	e1a02003 	mov	r2, r3
  f037c4:	e51b3008 	ldr	r3, [fp, #-8]
  f037c8:	e1833002 	orr	r3, r3, r2
  f037cc:	e50b3008 	str	r3, [fp, #-8]
  f037d0:	e1a00000 	nop			; (mov r0, r0)
  f037d4:	e3a03a03 	mov	r3, #12288	; 0x3000
  f037d8:	e34f3f80 	movt	r3, #65408	; 0xff80
  f037dc:	e5933004 	ldr	r3, [r3, #4]
  f037e0:	e15b21b2 	ldrh	r2, [fp, #-18]	; 0xffffffee
  f037e4:	e202201f 	and	r2, r2, #31
  f037e8:	e3a01001 	mov	r1, #1
  f037ec:	e1a02211 	lsl	r2, r1, r2
  f037f0:	e0033002 	and	r3, r3, r2
  f037f4:	e3530000 	cmp	r3, #0
  f037f8:	0a00000c 	beq	f03830 <bcm_common_led_setAllSoftLedsOff+0x190>
  f037fc:	e15b31b2 	ldrh	r3, [fp, #-18]	; 0xffffffee
  f03800:	e30c2a74 	movw	r2, #51828	; 0xca74
  f03804:	e34020f6 	movt	r2, #246	; 0xf6
  f03808:	e1a01003 	mov	r1, r3
  f0380c:	e1a03081 	lsl	r3, r1, #1
  f03810:	e1a01003 	mov	r1, r3
  f03814:	e1a03101 	lsl	r3, r1, #2
  f03818:	e0613003 	rsb	r3, r1, r3
  f0381c:	e0823003 	add	r3, r2, r3
  f03820:	e2833004 	add	r3, r3, #4
  f03824:	e3a02001 	mov	r2, #1
  f03828:	e5c32000 	strb	r2, [r3]
  f0382c:	ea000009 	b	f03858 <bcm_common_led_setAllSoftLedsOff+0x1b8>
  f03830:	e15b31b4 	ldrh	r3, [fp, #-20]	; 0xffffffec
  f03834:	e3a01000 	mov	r1, #0
  f03838:	e1a00003 	mov	r0, r3
  f0383c:	ebffff0e 	bl	f0347c <bcm_led_driver_set>
  f03840:	ea000004 	b	f03858 <bcm_common_led_setAllSoftLedsOff+0x1b8>
  f03844:	e3a03000 	mov	r3, #0
  f03848:	e50b3018 	str	r3, [fp, #-24]	; 0xffffffe8
  f0384c:	e51b300c 	ldr	r3, [fp, #-12]
  f03850:	e2833001 	add	r3, r3, #1
  f03854:	e50b300c 	str	r3, [fp, #-12]
  f03858:	eaffff99 	b	f036c4 <bcm_common_led_setAllSoftLedsOff+0x24>
  f0385c:	e1a00000 	nop			; (mov r0, r0)
  f03860:	e3a03a03 	mov	r3, #12288	; 0x3000
  f03864:	e34f3f80 	movt	r3, #65408	; 0xff80
  f03868:	e51b2008 	ldr	r2, [fp, #-8]
  f0386c:	e5832018 	str	r2, [r3, #24]
  f03870:	e1a00000 	nop			; (mov r0, r0)
  f03874:	e24bd004 	sub	sp, fp, #4
  f03878:	e8bd8800 	pop	{fp, pc}

00f0387c <init_pkt_desc>:
  f0387c:	e52db004 	push	{fp}		; (str fp, [sp, #-4]!)
  f03880:	e28db000 	add	fp, sp, #0
  f03884:	e24dd014 	sub	sp, sp, #20
  f03888:	e50b0010 	str	r0, [fp, #-16]
  f0388c:	e50b1014 	str	r1, [fp, #-20]	; 0xffffffec
  f03890:	e51b3010 	ldr	r3, [fp, #-16]
  f03894:	e50b300c 	str	r3, [fp, #-12]
  f03898:	e3a03000 	mov	r3, #0
  f0389c:	e50b3008 	str	r3, [fp, #-8]
  f038a0:	ea000022 	b	f03930 <init_pkt_desc+0xb4>
  f038a4:	e51b3008 	ldr	r3, [fp, #-8]
  f038a8:	e1a03183 	lsl	r3, r3, #3
  f038ac:	e51b200c 	ldr	r2, [fp, #-12]
  f038b0:	e0823003 	add	r3, r2, r3
  f038b4:	e51b2008 	ldr	r2, [fp, #-8]
  f038b8:	e1a02582 	lsl	r2, r2, #11
  f038bc:	e1a01002 	mov	r1, r2
  f038c0:	e51b2014 	ldr	r2, [fp, #-20]	; 0xffffffec
  f038c4:	e0812002 	add	r2, r1, r2
  f038c8:	e5832000 	str	r2, [r3]
  f038cc:	e51b3008 	ldr	r3, [fp, #-8]
  f038d0:	e1a03183 	lsl	r3, r3, #3
  f038d4:	e51b200c 	ldr	r2, [fp, #-12]
  f038d8:	e0822003 	add	r2, r2, r3
  f038dc:	e5923004 	ldr	r3, [r2, #4]
  f038e0:	e7c7301f 	bfc	r3, #0, #8
  f038e4:	e5823004 	str	r3, [r2, #4]
  f038e8:	e51b3008 	ldr	r3, [fp, #-8]
  f038ec:	e1a03183 	lsl	r3, r3, #3
  f038f0:	e51b200c 	ldr	r2, [fp, #-12]
  f038f4:	e0822003 	add	r2, r2, r3
  f038f8:	e5923004 	ldr	r3, [r2, #4]
  f038fc:	e7d1341f 	bfc	r3, #8, #10
  f03900:	e5823004 	str	r3, [r2, #4]
  f03904:	e51b3008 	ldr	r3, [fp, #-8]
  f03908:	e1a03183 	lsl	r3, r3, #3
  f0390c:	e51b200c 	ldr	r2, [fp, #-12]
  f03910:	e0822003 	add	r2, r2, r3
  f03914:	e5923004 	ldr	r3, [r2, #4]
  f03918:	e3a01b02 	mov	r1, #2048	; 0x800
  f0391c:	e7df3911 	bfi	r3, r1, #18, #14
  f03920:	e5823004 	str	r3, [r2, #4]
  f03924:	e51b3008 	ldr	r3, [fp, #-8]
  f03928:	e2833001 	add	r3, r3, #1
  f0392c:	e50b3008 	str	r3, [fp, #-8]
  f03930:	e51b3008 	ldr	r3, [fp, #-8]
  f03934:	e353007f 	cmp	r3, #127	; 0x7f
  f03938:	daffffd9 	ble	f038a4 <init_pkt_desc+0x28>
  f0393c:	e1a00000 	nop			; (mov r0, r0)
  f03940:	e28bd000 	add	sp, fp, #0
  f03944:	e49db004 	pop	{fp}		; (ldr fp, [sp], #4)
  f03948:	e12fff1e 	bx	lr

00f0394c <__sp_enable_tdma>:
  f0394c:	e92d4800 	push	{fp, lr}
  f03950:	e28db004 	add	fp, sp, #4
  f03954:	e24dd010 	sub	sp, sp, #16
  f03958:	e50b0010 	str	r0, [fp, #-16]
  f0395c:	e3a03ffa 	mov	r3, #1000	; 0x3e8
  f03960:	e50b3008 	str	r3, [fp, #-8]
  f03964:	e51b3010 	ldr	r3, [fp, #-16]
  f03968:	e5933884 	ldr	r3, [r3, #2180]	; 0x884
  f0396c:	e3832001 	orr	r2, r3, #1
  f03970:	e51b3010 	ldr	r3, [fp, #-16]
  f03974:	e5832884 	str	r2, [r3, #2180]	; 0x884
  f03978:	e51b3010 	ldr	r3, [fp, #-16]
  f0397c:	e5933888 	ldr	r3, [r3, #2184]	; 0x888
  f03980:	e50b300c 	str	r3, [fp, #-12]
  f03984:	e51b300c 	ldr	r3, [fp, #-12]
  f03988:	e2033003 	and	r3, r3, #3
  f0398c:	e3530000 	cmp	r3, #0
  f03990:	1a000001 	bne	f0399c <__sp_enable_tdma+0x50>
  f03994:	e3a03000 	mov	r3, #0
  f03998:	ea000007 	b	f039bc <__sp_enable_tdma+0x70>
  f0399c:	e3a0000a 	mov	r0, #10
  f039a0:	eb00eacb 	bl	f3e4d4 <cfe_usleep>
  f039a4:	e51b3008 	ldr	r3, [fp, #-8]
  f039a8:	e2432001 	sub	r2, r3, #1
  f039ac:	e50b2008 	str	r2, [fp, #-8]
  f039b0:	e3530000 	cmp	r3, #0
  f039b4:	1affffef 	bne	f03978 <__sp_enable_tdma+0x2c>
  f039b8:	e3e03000 	mvn	r3, #0
  f039bc:	e1a00003 	mov	r0, r3
  f039c0:	e24bd004 	sub	sp, fp, #4
  f039c4:	e8bd8800 	pop	{fp, pc}

00f039c8 <sp_enable_tdma>:
  f039c8:	e92d4830 	push	{r4, r5, fp, lr}
  f039cc:	e28db00c 	add	fp, sp, #12
  f039d0:	e3a00901 	mov	r0, #16384	; 0x4000
  f039d4:	e3480040 	movt	r0, #32832	; 0x8040
  f039d8:	ebffffdb 	bl	f0394c <__sp_enable_tdma>
  f039dc:	e1a04000 	mov	r4, r0
  f039e0:	e3a00901 	mov	r0, #16384	; 0x4000
  f039e4:	e3480050 	movt	r0, #32848	; 0x8050
  f039e8:	ebffffd7 	bl	f0394c <__sp_enable_tdma>
  f039ec:	e1a03000 	mov	r3, r0
  f039f0:	e1843003 	orr	r3, r4, r3
  f039f4:	e1a00003 	mov	r0, r3
  f039f8:	e8bd8830 	pop	{r4, r5, fp, pc}

00f039fc <__sp_enable_rdma>:
  f039fc:	e92d4800 	push	{fp, lr}
  f03a00:	e28db004 	add	fp, sp, #4
  f03a04:	e24dd010 	sub	sp, sp, #16
  f03a08:	e50b0010 	str	r0, [fp, #-16]
  f03a0c:	e3a03ffa 	mov	r3, #1000	; 0x3e8
  f03a10:	e50b3008 	str	r3, [fp, #-8]
  f03a14:	e51b3010 	ldr	r3, [fp, #-16]
  f03a18:	e2833a01 	add	r3, r3, #4096	; 0x1000
  f03a1c:	e5933080 	ldr	r3, [r3, #128]	; 0x80
  f03a20:	e3833001 	orr	r3, r3, #1
  f03a24:	e51b2010 	ldr	r2, [fp, #-16]
  f03a28:	e2822a01 	add	r2, r2, #4096	; 0x1000
  f03a2c:	e5823080 	str	r3, [r2, #128]	; 0x80
  f03a30:	e51b3010 	ldr	r3, [fp, #-16]
  f03a34:	e2833a01 	add	r3, r3, #4096	; 0x1000
  f03a38:	e5933084 	ldr	r3, [r3, #132]	; 0x84
  f03a3c:	e50b300c 	str	r3, [fp, #-12]
  f03a40:	e51b300c 	ldr	r3, [fp, #-12]
  f03a44:	e2033003 	and	r3, r3, #3
  f03a48:	e3530000 	cmp	r3, #0
  f03a4c:	1a000001 	bne	f03a58 <__sp_enable_rdma+0x5c>
  f03a50:	e3a03000 	mov	r3, #0
  f03a54:	ea000007 	b	f03a78 <__sp_enable_rdma+0x7c>
  f03a58:	e3a0000a 	mov	r0, #10
  f03a5c:	eb00ea9c 	bl	f3e4d4 <cfe_usleep>
  f03a60:	e51b3008 	ldr	r3, [fp, #-8]
  f03a64:	e2432001 	sub	r2, r3, #1
  f03a68:	e50b2008 	str	r2, [fp, #-8]
  f03a6c:	e3530000 	cmp	r3, #0
  f03a70:	1affffee 	bne	f03a30 <__sp_enable_rdma+0x34>
  f03a74:	e3e03000 	mvn	r3, #0
  f03a78:	e1a00003 	mov	r0, r3
  f03a7c:	e24bd004 	sub	sp, fp, #4
  f03a80:	e8bd8800 	pop	{fp, pc}

00f03a84 <sp_enable_rdma>:
  f03a84:	e92d4830 	push	{r4, r5, fp, lr}
  f03a88:	e28db00c 	add	fp, sp, #12
  f03a8c:	e3a00a02 	mov	r0, #8192	; 0x2000
  f03a90:	e3480040 	movt	r0, #32832	; 0x8040
  f03a94:	ebffffd8 	bl	f039fc <__sp_enable_rdma>
  f03a98:	e1a04000 	mov	r4, r0
  f03a9c:	e3a00a02 	mov	r0, #8192	; 0x2000
  f03aa0:	e3480050 	movt	r0, #32848	; 0x8050
  f03aa4:	ebffffd4 	bl	f039fc <__sp_enable_rdma>
  f03aa8:	e1a03000 	mov	r3, r0
  f03aac:	e1843003 	orr	r3, r4, r3
  f03ab0:	e1a00003 	mov	r0, r3
  f03ab4:	e8bd8830 	pop	{r4, r5, fp, pc}

00f03ab8 <sp_reset>:
  f03ab8:	e92d4800 	push	{fp, lr}
  f03abc:	e28db004 	add	fp, sp, #4
  f03ac0:	e24dd018 	sub	sp, sp, #24
  f03ac4:	e50b0018 	str	r0, [fp, #-24]	; 0xffffffe8
  f03ac8:	e3a03b02 	mov	r3, #2048	; 0x800
  f03acc:	e3483040 	movt	r3, #32832	; 0x8040
  f03ad0:	e5933008 	ldr	r3, [r3, #8]
  f03ad4:	e50b3010 	str	r3, [fp, #-16]
  f03ad8:	e51b3010 	ldr	r3, [fp, #-16]
  f03adc:	e3c33002 	bic	r3, r3, #2
  f03ae0:	e50b3010 	str	r3, [fp, #-16]
  f03ae4:	e3a03b02 	mov	r3, #2048	; 0x800
  f03ae8:	e3483040 	movt	r3, #32832	; 0x8040
  f03aec:	e51b2010 	ldr	r2, [fp, #-16]
  f03af0:	e5832008 	str	r2, [r3, #8]
  f03af4:	e3a03b02 	mov	r3, #2048	; 0x800
  f03af8:	e3483050 	movt	r3, #32848	; 0x8050
  f03afc:	e5933008 	ldr	r3, [r3, #8]
  f03b00:	e50b3010 	str	r3, [fp, #-16]
  f03b04:	e51b3010 	ldr	r3, [fp, #-16]
  f03b08:	e3c33002 	bic	r3, r3, #2
  f03b0c:	e50b3010 	str	r3, [fp, #-16]
  f03b10:	e3a03b02 	mov	r3, #2048	; 0x800
  f03b14:	e3483050 	movt	r3, #32848	; 0x8050
  f03b18:	e51b2010 	ldr	r2, [fp, #-16]
  f03b1c:	e5832008 	str	r2, [r3, #8]
  f03b20:	e3a00ffa 	mov	r0, #1000	; 0x3e8
  f03b24:	eb00ea6a 	bl	f3e4d4 <cfe_usleep>
  f03b28:	e3a03a02 	mov	r3, #8192	; 0x2000
  f03b2c:	e3483040 	movt	r3, #32832	; 0x8040
  f03b30:	e3a02a02 	mov	r2, #8192	; 0x2000
  f03b34:	e3482040 	movt	r2, #32832	; 0x8040
  f03b38:	e2822a01 	add	r2, r2, #4096	; 0x1000
  f03b3c:	e5922080 	ldr	r2, [r2, #128]	; 0x80
  f03b40:	e3c22001 	bic	r2, r2, #1
  f03b44:	e2833a01 	add	r3, r3, #4096	; 0x1000
  f03b48:	e5832080 	str	r2, [r3, #128]	; 0x80
  f03b4c:	e3a03000 	mov	r3, #0
  f03b50:	e3483040 	movt	r3, #32832	; 0x8040
  f03b54:	e3a02001 	mov	r2, #1
  f03b58:	e5832004 	str	r2, [r3, #4]
  f03b5c:	e3a03901 	mov	r3, #16384	; 0x4000
  f03b60:	e3483040 	movt	r3, #32832	; 0x8040
  f03b64:	e3a02901 	mov	r2, #16384	; 0x4000
  f03b68:	e3482040 	movt	r2, #32832	; 0x8040
  f03b6c:	e5922884 	ldr	r2, [r2, #2180]	; 0x884
  f03b70:	e3c22001 	bic	r2, r2, #1
  f03b74:	e5832884 	str	r2, [r3, #2180]	; 0x884
  f03b78:	e3a03ffa 	mov	r3, #1000	; 0x3e8
  f03b7c:	e14b30ba 	strh	r3, [fp, #-10]
  f03b80:	e3a03901 	mov	r3, #16384	; 0x4000
  f03b84:	e3483040 	movt	r3, #32832	; 0x8040
  f03b88:	e5933480 	ldr	r3, [r3, #1152]	; 0x480
  f03b8c:	e50b3010 	str	r3, [fp, #-16]
  f03b90:	e51b3010 	ldr	r3, [fp, #-16]
  f03b94:	e14b30b6 	strh	r3, [fp, #-6]
  f03b98:	e51b3010 	ldr	r3, [fp, #-16]
  f03b9c:	e1a03823 	lsr	r3, r3, #16
  f03ba0:	e14b30b8 	strh	r3, [fp, #-8]
  f03ba4:	ea00000d 	b	f03be0 <sp_reset+0x128>
  f03ba8:	e3a00ffa 	mov	r0, #1000	; 0x3e8
  f03bac:	eb00ea48 	bl	f3e4d4 <cfe_usleep>
  f03bb0:	e15b30ba 	ldrh	r3, [fp, #-10]
  f03bb4:	e2433001 	sub	r3, r3, #1
  f03bb8:	e14b30ba 	strh	r3, [fp, #-10]
  f03bbc:	e3a03901 	mov	r3, #16384	; 0x4000
  f03bc0:	e3483040 	movt	r3, #32832	; 0x8040
  f03bc4:	e5933480 	ldr	r3, [r3, #1152]	; 0x480
  f03bc8:	e50b3010 	str	r3, [fp, #-16]
  f03bcc:	e51b3010 	ldr	r3, [fp, #-16]
  f03bd0:	e14b30b6 	strh	r3, [fp, #-6]
  f03bd4:	e51b3010 	ldr	r3, [fp, #-16]
  f03bd8:	e1a03823 	lsr	r3, r3, #16
  f03bdc:	e14b30b8 	strh	r3, [fp, #-8]
  f03be0:	e15b20b6 	ldrh	r2, [fp, #-6]
  f03be4:	e15b30b8 	ldrh	r3, [fp, #-8]
  f03be8:	e1520003 	cmp	r2, r3
  f03bec:	0a000002 	beq	f03bfc <sp_reset+0x144>
  f03bf0:	e15b30ba 	ldrh	r3, [fp, #-10]
  f03bf4:	e3530000 	cmp	r3, #0
  f03bf8:	1affffea 	bne	f03ba8 <sp_reset+0xf0>
  f03bfc:	e3a03b02 	mov	r3, #2048	; 0x800
  f03c00:	e3483040 	movt	r3, #32832	; 0x8040
  f03c04:	e5933008 	ldr	r3, [r3, #8]
  f03c08:	e50b3010 	str	r3, [fp, #-16]
  f03c0c:	e51b3010 	ldr	r3, [fp, #-16]
  f03c10:	e3c33001 	bic	r3, r3, #1
  f03c14:	e50b3010 	str	r3, [fp, #-16]
  f03c18:	e3a03b02 	mov	r3, #2048	; 0x800
  f03c1c:	e3483040 	movt	r3, #32832	; 0x8040
  f03c20:	e51b2010 	ldr	r2, [fp, #-16]
  f03c24:	e5832008 	str	r2, [r3, #8]
  f03c28:	e3a03b02 	mov	r3, #2048	; 0x800
  f03c2c:	e3483050 	movt	r3, #32848	; 0x8050
  f03c30:	e5933008 	ldr	r3, [r3, #8]
  f03c34:	e50b3010 	str	r3, [fp, #-16]
  f03c38:	e51b3010 	ldr	r3, [fp, #-16]
  f03c3c:	e3c33001 	bic	r3, r3, #1
  f03c40:	e50b3010 	str	r3, [fp, #-16]
  f03c44:	e3a03b02 	mov	r3, #2048	; 0x800
  f03c48:	e3483050 	movt	r3, #32848	; 0x8050
  f03c4c:	e51b2010 	ldr	r2, [fp, #-16]
  f03c50:	e5832008 	str	r2, [r3, #8]
  f03c54:	e3a03000 	mov	r3, #0
  f03c58:	e3483040 	movt	r3, #32832	; 0x8040
  f03c5c:	e3a02001 	mov	r2, #1
  f03c60:	e5832008 	str	r2, [r3, #8]
  f03c64:	e3a03000 	mov	r3, #0
  f03c68:	e3483040 	movt	r3, #32832	; 0x8040
  f03c6c:	e3a02000 	mov	r2, #0
  f03c70:	e5832004 	str	r2, [r3, #4]
  f03c74:	e3a03000 	mov	r3, #0
  f03c78:	e3483040 	movt	r3, #32832	; 0x8040
  f03c7c:	e3a02000 	mov	r2, #0
  f03c80:	e5832008 	str	r2, [r3, #8]
  f03c84:	e51b3018 	ldr	r3, [fp, #-24]	; 0xffffffe8
  f03c88:	e3530000 	cmp	r3, #0
  f03c8c:	0a000004 	beq	f03ca4 <sp_reset+0x1ec>
  f03c90:	e3a00000 	mov	r0, #0
  f03c94:	eb000b24 	bl	f0692c <pmc_sysport_reset_system_port>
  f03c98:	e3a00001 	mov	r0, #1
  f03c9c:	eb000b22 	bl	f0692c <pmc_sysport_reset_system_port>
  f03ca0:	eb0002c6 	bl	f047c0 <bcm_ethsw_led_init>
  f03ca4:	e1a00000 	nop			; (mov r0, r0)
  f03ca8:	e24bd004 	sub	sp, fp, #4
  f03cac:	e8bd8800 	pop	{fp, pc}

00f03cb0 <__sp_init>:
  f03cb0:	e92d4800 	push	{fp, lr}
  f03cb4:	e28db004 	add	fp, sp, #4
  f03cb8:	e24dd018 	sub	sp, sp, #24
  f03cbc:	e50b0010 	str	r0, [fp, #-16]
  f03cc0:	e50b1014 	str	r1, [fp, #-20]	; 0xffffffec
  f03cc4:	e50b2018 	str	r2, [fp, #-24]	; 0xffffffe8
  f03cc8:	e50b301c 	str	r3, [fp, #-28]	; 0xffffffe4
  f03ccc:	e3a03000 	mov	r3, #0
  f03cd0:	e50b3008 	str	r3, [fp, #-8]
  f03cd4:	e51b3010 	ldr	r3, [fp, #-16]
  f03cd8:	e5933000 	ldr	r3, [r3]
  f03cdc:	e50b3008 	str	r3, [fp, #-8]
  f03ce0:	e51b3008 	ldr	r3, [fp, #-8]
  f03ce4:	e3c33003 	bic	r3, r3, #3
  f03ce8:	e50b3008 	str	r3, [fp, #-8]
  f03cec:	e51b3008 	ldr	r3, [fp, #-8]
  f03cf0:	e3c33004 	bic	r3, r3, #4
  f03cf4:	e50b3008 	str	r3, [fp, #-8]
  f03cf8:	e51b3008 	ldr	r3, [fp, #-8]
  f03cfc:	e3c33008 	bic	r3, r3, #8
  f03d00:	e50b3008 	str	r3, [fp, #-8]
  f03d04:	e51b3008 	ldr	r3, [fp, #-8]
  f03d08:	e3833010 	orr	r3, r3, #16
  f03d0c:	e50b3008 	str	r3, [fp, #-8]
  f03d10:	e51b3010 	ldr	r3, [fp, #-16]
  f03d14:	e51b2008 	ldr	r2, [fp, #-8]
  f03d18:	e5832000 	str	r2, [r3]
  f03d1c:	e51b3010 	ldr	r3, [fp, #-16]
  f03d20:	e3a02080 	mov	r2, #128	; 0x80
  f03d24:	e5832004 	str	r2, [r3, #4]
  f03d28:	e51b3014 	ldr	r3, [fp, #-20]	; 0xffffffec
  f03d2c:	e2833a01 	add	r3, r3, #4096	; 0x1000
  f03d30:	e5933080 	ldr	r3, [r3, #128]	; 0x80
  f03d34:	e50b3008 	str	r3, [fp, #-8]
  f03d38:	e51b3008 	ldr	r3, [fp, #-8]
  f03d3c:	e3c33001 	bic	r3, r3, #1
  f03d40:	e50b3008 	str	r3, [fp, #-8]
  f03d44:	e51b3008 	ldr	r3, [fp, #-8]
  f03d48:	e3c33004 	bic	r3, r3, #4
  f03d4c:	e50b3008 	str	r3, [fp, #-8]
  f03d50:	e51b3008 	ldr	r3, [fp, #-8]
  f03d54:	e3833008 	orr	r3, r3, #8
  f03d58:	e50b3008 	str	r3, [fp, #-8]
  f03d5c:	e51b3008 	ldr	r3, [fp, #-8]
  f03d60:	e3c33dff 	bic	r3, r3, #16320	; 0x3fc0
  f03d64:	e3c33030 	bic	r3, r3, #48	; 0x30
  f03d68:	e50b3008 	str	r3, [fp, #-8]
  f03d6c:	e51b3008 	ldr	r3, [fp, #-8]
  f03d70:	e3c33902 	bic	r3, r3, #32768	; 0x8000
  f03d74:	e50b3008 	str	r3, [fp, #-8]
  f03d78:	e51b3014 	ldr	r3, [fp, #-20]	; 0xffffffec
  f03d7c:	e2833a01 	add	r3, r3, #4096	; 0x1000
  f03d80:	e1a02003 	mov	r2, r3
  f03d84:	e51b3008 	ldr	r3, [fp, #-8]
  f03d88:	e5823080 	str	r3, [r2, #128]	; 0x80
  f03d8c:	e51b3014 	ldr	r3, [fp, #-20]	; 0xffffffec
  f03d90:	e2833a01 	add	r3, r3, #4096	; 0x1000
  f03d94:	e1a02003 	mov	r2, r3
  f03d98:	e3a03080 	mov	r3, #128	; 0x80
  f03d9c:	e3403002 	movt	r3, #2
  f03da0:	e58230b0 	str	r3, [r2, #176]	; 0xb0
  f03da4:	e51b3014 	ldr	r3, [fp, #-20]	; 0xffffffec
  f03da8:	e2833a01 	add	r3, r3, #4096	; 0x1000
  f03dac:	e1a02003 	mov	r2, r3
  f03db0:	e3a0300b 	mov	r3, #11
  f03db4:	e58230d0 	str	r3, [r2, #208]	; 0xd0
  f03db8:	e51b3014 	ldr	r3, [fp, #-20]	; 0xffffffec
  f03dbc:	e2833a01 	add	r3, r3, #4096	; 0x1000
  f03dc0:	e1a02003 	mov	r2, r3
  f03dc4:	e3a03000 	mov	r3, #0
  f03dc8:	e5823110 	str	r3, [r2, #272]	; 0x110
  f03dcc:	e51b3014 	ldr	r3, [fp, #-20]	; 0xffffffec
  f03dd0:	e2833a01 	add	r3, r3, #4096	; 0x1000
  f03dd4:	e1a02003 	mov	r2, r3
  f03dd8:	e3a03000 	mov	r3, #0
  f03ddc:	e58230f0 	str	r3, [r2, #240]	; 0xf0
  f03de0:	e51b3014 	ldr	r3, [fp, #-20]	; 0xffffffec
  f03de4:	e2833a01 	add	r3, r3, #4096	; 0x1000
  f03de8:	e1a02003 	mov	r2, r3
  f03dec:	e3a03000 	mov	r3, #0
  f03df0:	e5823170 	str	r3, [r2, #368]	; 0x170
  f03df4:	e51b3014 	ldr	r3, [fp, #-20]	; 0xffffffec
  f03df8:	e2833a01 	add	r3, r3, #4096	; 0x1000
  f03dfc:	e1a02003 	mov	r2, r3
  f03e00:	e3a03000 	mov	r3, #0
  f03e04:	e5823174 	str	r3, [r2, #372]	; 0x174
  f03e08:	e51b3014 	ldr	r3, [fp, #-20]	; 0xffffffec
  f03e0c:	e51b101c 	ldr	r1, [fp, #-28]	; 0xffffffe4
  f03e10:	e1a00003 	mov	r0, r3
  f03e14:	ebfffe98 	bl	f0387c <init_pkt_desc>
  f03e18:	e51b3014 	ldr	r3, [fp, #-20]	; 0xffffffec
  f03e1c:	e2833a01 	add	r3, r3, #4096	; 0x1000
  f03e20:	e1a02003 	mov	r2, r3
  f03e24:	e3a03007 	mov	r3, #7
  f03e28:	e58231b0 	str	r3, [r2, #432]	; 0x1b0
  f03e2c:	e51b3018 	ldr	r3, [fp, #-24]	; 0xffffffe8
  f03e30:	e3a02002 	mov	r2, #2
  f03e34:	e5832200 	str	r2, [r3, #512]	; 0x200
  f03e38:	e51b3018 	ldr	r3, [fp, #-24]	; 0xffffffe8
  f03e3c:	e3a02000 	mov	r2, #0
  f03e40:	e5832480 	str	r2, [r3, #1152]	; 0x480
  f03e44:	e51b3018 	ldr	r3, [fp, #-24]	; 0xffffffe8
  f03e48:	e3a02000 	mov	r2, #0
  f03e4c:	e5832600 	str	r2, [r3, #1536]	; 0x600
  f03e50:	e51b3018 	ldr	r3, [fp, #-24]	; 0xffffffe8
  f03e54:	e3a02000 	mov	r2, #0
  f03e58:	e5832604 	str	r2, [r3, #1540]	; 0x604
  f03e5c:	e51b3018 	ldr	r3, [fp, #-24]	; 0xffffffe8
  f03e60:	e3a02040 	mov	r2, #64	; 0x40
  f03e64:	e5832500 	str	r2, [r3, #1280]	; 0x500
  f03e68:	e51b3018 	ldr	r3, [fp, #-24]	; 0xffffffe8
  f03e6c:	e3a02001 	mov	r2, #1
  f03e70:	e5832800 	str	r2, [r3, #2048]	; 0x800
  f03e74:	e51b3018 	ldr	r3, [fp, #-24]	; 0xffffffe8
  f03e78:	e3a02000 	mov	r2, #0
  f03e7c:	e5832700 	str	r2, [r3, #1792]	; 0x700
  f03e80:	e51b3018 	ldr	r3, [fp, #-24]	; 0xffffffe8
  f03e84:	e3a02003 	mov	r2, #3
  f03e88:	e5832400 	str	r2, [r3, #1024]	; 0x400
  f03e8c:	e51b2018 	ldr	r2, [fp, #-24]	; 0xffffffe8
  f03e90:	e3a03009 	mov	r3, #9
  f03e94:	e3403010 	movt	r3, #16
  f03e98:	e5823380 	str	r3, [r2, #896]	; 0x380
  f03e9c:	e51b3018 	ldr	r3, [fp, #-24]	; 0xffffffe8
  f03ea0:	e3a02001 	mov	r2, #1
  f03ea4:	e58328d0 	str	r2, [r3, #2256]	; 0x8d0
  f03ea8:	e51b3018 	ldr	r3, [fp, #-24]	; 0xffffffe8
  f03eac:	e3a02001 	mov	r2, #1
  f03eb0:	e5832890 	str	r2, [r3, #2192]	; 0x890
  f03eb4:	e51b3018 	ldr	r3, [fp, #-24]	; 0xffffffe8
  f03eb8:	e3a02001 	mov	r2, #1
  f03ebc:	e5832894 	str	r2, [r3, #2196]	; 0x894
  f03ec0:	e51b3018 	ldr	r3, [fp, #-24]	; 0xffffffe8
  f03ec4:	e3a02001 	mov	r2, #1
  f03ec8:	e5832898 	str	r2, [r3, #2200]	; 0x898
  f03ecc:	e51b3018 	ldr	r3, [fp, #-24]	; 0xffffffe8
  f03ed0:	e3a02001 	mov	r2, #1
  f03ed4:	e583289c 	str	r2, [r3, #2204]	; 0x89c
  f03ed8:	e51b3018 	ldr	r3, [fp, #-24]	; 0xffffffe8
  f03edc:	e3a020ff 	mov	r2, #255	; 0xff
  f03ee0:	e58328b0 	str	r2, [r3, #2224]	; 0x8b0
  f03ee4:	e51b3018 	ldr	r3, [fp, #-24]	; 0xffffffe8
  f03ee8:	e3a02cff 	mov	r2, #65280	; 0xff00
  f03eec:	e58328b4 	str	r2, [r3, #2228]	; 0x8b4
  f03ef0:	e51b3018 	ldr	r3, [fp, #-24]	; 0xffffffe8
  f03ef4:	e3a028ff 	mov	r2, #16711680	; 0xff0000
  f03ef8:	e58328b8 	str	r2, [r3, #2232]	; 0x8b8
  f03efc:	e51b3018 	ldr	r3, [fp, #-24]	; 0xffffffe8
  f03f00:	e3a024ff 	mov	r2, #-16777216	; 0xff000000
  f03f04:	e58328bc 	str	r2, [r3, #2236]	; 0x8bc
  f03f08:	e51b3018 	ldr	r3, [fp, #-24]	; 0xffffffe8
  f03f0c:	e5933884 	ldr	r3, [r3, #2180]	; 0x884
  f03f10:	e50b3008 	str	r3, [fp, #-8]
  f03f14:	e51b3008 	ldr	r3, [fp, #-8]
  f03f18:	e3c33002 	bic	r3, r3, #2
  f03f1c:	e50b3008 	str	r3, [fp, #-8]
  f03f20:	e51b3008 	ldr	r3, [fp, #-8]
  f03f24:	e3c33702 	bic	r3, r3, #524288	; 0x80000
  f03f28:	e50b3008 	str	r3, [fp, #-8]
  f03f2c:	e51b3008 	ldr	r3, [fp, #-8]
  f03f30:	e3c33302 	bic	r3, r3, #134217728	; 0x8000000
  f03f34:	e50b3008 	str	r3, [fp, #-8]
  f03f38:	e51b3018 	ldr	r3, [fp, #-24]	; 0xffffffe8
  f03f3c:	e51b2008 	ldr	r2, [fp, #-8]
  f03f40:	e5832884 	str	r2, [r3, #2180]	; 0x884
  f03f44:	e51b3018 	ldr	r3, [fp, #-24]	; 0xffffffe8
  f03f48:	e3a02001 	mov	r2, #1
  f03f4c:	e58328b0 	str	r2, [r3, #2224]	; 0x8b0
  f03f50:	e3a03000 	mov	r3, #0
  f03f54:	e1a00003 	mov	r0, r3
  f03f58:	e24bd004 	sub	sp, fp, #4
  f03f5c:	e8bd8800 	pop	{fp, pc}

00f03f60 <sp_init>:
  f03f60:	e92d4800 	push	{fp, lr}
  f03f64:	e28db004 	add	fp, sp, #4
  f03f68:	e24dd008 	sub	sp, sp, #8
  f03f6c:	e3a03000 	mov	r3, #0
  f03f70:	e50b3008 	str	r3, [fp, #-8]
  f03f74:	e30c3b34 	movw	r3, #52020	; 0xcb34
  f03f78:	e34030f6 	movt	r3, #246	; 0xf6
  f03f7c:	e5933000 	ldr	r3, [r3]
  f03f80:	e2833b02 	add	r3, r3, #2048	; 0x800
  f03f84:	e3a02901 	mov	r2, #16384	; 0x4000
  f03f88:	e3482040 	movt	r2, #32832	; 0x8040
  f03f8c:	e3a01a02 	mov	r1, #8192	; 0x2000
  f03f90:	e3481040 	movt	r1, #32832	; 0x8040
  f03f94:	e3a00b01 	mov	r0, #1024	; 0x400
  f03f98:	e3480040 	movt	r0, #32832	; 0x8040
  f03f9c:	ebffff43 	bl	f03cb0 <__sp_init>
  f03fa0:	e30c3b38 	movw	r3, #52024	; 0xcb38
  f03fa4:	e34030f6 	movt	r3, #246	; 0xf6
  f03fa8:	e5933000 	ldr	r3, [r3]
  f03fac:	e2833b02 	add	r3, r3, #2048	; 0x800
  f03fb0:	e3a02901 	mov	r2, #16384	; 0x4000
  f03fb4:	e3482050 	movt	r2, #32848	; 0x8050
  f03fb8:	e3a01a02 	mov	r1, #8192	; 0x2000
  f03fbc:	e3481050 	movt	r1, #32848	; 0x8050
  f03fc0:	e3a00b01 	mov	r0, #1024	; 0x400
  f03fc4:	e3480050 	movt	r0, #32848	; 0x8050
  f03fc8:	ebffff38 	bl	f03cb0 <__sp_init>
  f03fcc:	ebfffeac 	bl	f03a84 <sp_enable_rdma>
  f03fd0:	e1a03000 	mov	r3, r0
  f03fd4:	e3530000 	cmp	r3, #0
  f03fd8:	aa000001 	bge	f03fe4 <sp_init+0x84>
  f03fdc:	e3e03000 	mvn	r3, #0
  f03fe0:	ea000025 	b	f0407c <sp_init+0x11c>
  f03fe4:	ebfffe77 	bl	f039c8 <sp_enable_tdma>
  f03fe8:	e1a03000 	mov	r3, r0
  f03fec:	e3530000 	cmp	r3, #0
  f03ff0:	aa000001 	bge	f03ffc <sp_init+0x9c>
  f03ff4:	e3e03000 	mvn	r3, #0
  f03ff8:	ea00001f 	b	f0407c <sp_init+0x11c>
  f03ffc:	e3a03b02 	mov	r3, #2048	; 0x800
  f04000:	e3483040 	movt	r3, #32832	; 0x8040
  f04004:	e5933008 	ldr	r3, [r3, #8]
  f04008:	e50b3008 	str	r3, [fp, #-8]
  f0400c:	e51b3008 	ldr	r3, [fp, #-8]
  f04010:	e3833001 	orr	r3, r3, #1
  f04014:	e50b3008 	str	r3, [fp, #-8]
  f04018:	e51b3008 	ldr	r3, [fp, #-8]
  f0401c:	e3833002 	orr	r3, r3, #2
  f04020:	e50b3008 	str	r3, [fp, #-8]
  f04024:	e3a03b02 	mov	r3, #2048	; 0x800
  f04028:	e3483040 	movt	r3, #32832	; 0x8040
  f0402c:	e51b2008 	ldr	r2, [fp, #-8]
  f04030:	e5832008 	str	r2, [r3, #8]
  f04034:	e3a03b02 	mov	r3, #2048	; 0x800
  f04038:	e3483050 	movt	r3, #32848	; 0x8050
  f0403c:	e5933008 	ldr	r3, [r3, #8]
  f04040:	e50b3008 	str	r3, [fp, #-8]
  f04044:	e51b3008 	ldr	r3, [fp, #-8]
  f04048:	e3833001 	orr	r3, r3, #1
  f0404c:	e50b3008 	str	r3, [fp, #-8]
  f04050:	e51b3008 	ldr	r3, [fp, #-8]
  f04054:	e3833002 	orr	r3, r3, #2
  f04058:	e50b3008 	str	r3, [fp, #-8]
  f0405c:	e3a03b02 	mov	r3, #2048	; 0x800
  f04060:	e3483050 	movt	r3, #32848	; 0x8050
  f04064:	e51b2008 	ldr	r2, [fp, #-8]
  f04068:	e5832008 	str	r2, [r3, #8]
  f0406c:	e3a00064 	mov	r0, #100	; 0x64
  f04070:	eb00e917 	bl	f3e4d4 <cfe_usleep>
  f04074:	eb000a15 	bl	f068d0 <bcm_ethsw_open>
  f04078:	e3a03000 	mov	r3, #0
  f0407c:	e1a00003 	mov	r0, r3
  f04080:	e24bd004 	sub	sp, fp, #4
  f04084:	e8bd8800 	pop	{fp, pc}

00f04088 <__sp_poll>:
  f04088:	e52db004 	push	{fp}		; (str fp, [sp, #-4]!)
  f0408c:	e28db000 	add	fp, sp, #0
  f04090:	e24dd014 	sub	sp, sp, #20
  f04094:	e50b0010 	str	r0, [fp, #-16]
  f04098:	e51b3010 	ldr	r3, [fp, #-16]
  f0409c:	e2833a01 	add	r3, r3, #4096	; 0x1000
  f040a0:	e59330f0 	ldr	r3, [r3, #240]	; 0xf0
  f040a4:	e6ff3073 	uxth	r3, r3
  f040a8:	e50b3008 	str	r3, [fp, #-8]
  f040ac:	e51b3010 	ldr	r3, [fp, #-16]
  f040b0:	e2833a01 	add	r3, r3, #4096	; 0x1000
  f040b4:	e5933110 	ldr	r3, [r3, #272]	; 0x110
  f040b8:	e6ff3073 	uxth	r3, r3
  f040bc:	e50b300c 	str	r3, [fp, #-12]
  f040c0:	e51b2008 	ldr	r2, [fp, #-8]
  f040c4:	e51b300c 	ldr	r3, [fp, #-12]
  f040c8:	e1520003 	cmp	r2, r3
  f040cc:	03a03001 	moveq	r3, #1
  f040d0:	13a03000 	movne	r3, #0
  f040d4:	e6ef3073 	uxtb	r3, r3
  f040d8:	e1a00003 	mov	r0, r3
  f040dc:	e28bd000 	add	sp, fp, #0
  f040e0:	e49db004 	pop	{fp}		; (ldr fp, [sp], #4)
  f040e4:	e12fff1e 	bx	lr

00f040e8 <sp_poll>:
  f040e8:	e92d4800 	push	{fp, lr}
  f040ec:	e28db004 	add	fp, sp, #4
  f040f0:	e24dd010 	sub	sp, sp, #16
  f040f4:	e50b0010 	str	r0, [fp, #-16]
  f040f8:	e3a03000 	mov	r3, #0
  f040fc:	e50b3008 	str	r3, [fp, #-8]
  f04100:	e3a00a02 	mov	r0, #8192	; 0x2000
  f04104:	e3480040 	movt	r0, #32832	; 0x8040
  f04108:	ebffffde 	bl	f04088 <__sp_poll>
  f0410c:	e1a03000 	mov	r3, r0
  f04110:	e3530000 	cmp	r3, #0
  f04114:	1a000005 	bne	f04130 <sp_poll+0x48>
  f04118:	e3043054 	movw	r3, #16468	; 0x4054
  f0411c:	e34030f6 	movt	r3, #246	; 0xf6
  f04120:	e3a02000 	mov	r2, #0
  f04124:	e5832000 	str	r2, [r3]
  f04128:	e3a03000 	mov	r3, #0
  f0412c:	ea000017 	b	f04190 <sp_poll+0xa8>
  f04130:	e3a00a02 	mov	r0, #8192	; 0x2000
  f04134:	e3480050 	movt	r0, #32848	; 0x8050
  f04138:	ebffffd2 	bl	f04088 <__sp_poll>
  f0413c:	e1a03000 	mov	r3, r0
  f04140:	e3530000 	cmp	r3, #0
  f04144:	1a000005 	bne	f04160 <sp_poll+0x78>
  f04148:	e3043054 	movw	r3, #16468	; 0x4054
  f0414c:	e34030f6 	movt	r3, #246	; 0xf6
  f04150:	e3a02001 	mov	r2, #1
  f04154:	e5832000 	str	r2, [r3]
  f04158:	e3a03000 	mov	r3, #0
  f0415c:	ea00000b 	b	f04190 <sp_poll+0xa8>
  f04160:	e51b3008 	ldr	r3, [fp, #-8]
  f04164:	e2832001 	add	r2, r3, #1
  f04168:	e50b2008 	str	r2, [fp, #-8]
  f0416c:	e1a02003 	mov	r2, r3
  f04170:	e51b3010 	ldr	r3, [fp, #-16]
  f04174:	e1520003 	cmp	r2, r3
  f04178:	9a000001 	bls	f04184 <sp_poll+0x9c>
  f0417c:	e3e03000 	mvn	r3, #0
  f04180:	ea000002 	b	f04190 <sp_poll+0xa8>
  f04184:	e3a00ffa 	mov	r0, #1000	; 0x3e8
  f04188:	eb00e8d1 	bl	f3e4d4 <cfe_usleep>
  f0418c:	eaffffdb 	b	f04100 <sp_poll+0x18>
  f04190:	e1a00003 	mov	r0, r3
  f04194:	e24bd004 	sub	sp, fp, #4
  f04198:	e8bd8800 	pop	{fp, pc}

00f0419c <__sp_read>:
  f0419c:	e92d4800 	push	{fp, lr}
  f041a0:	e28db004 	add	fp, sp, #4
  f041a4:	e24dd020 	sub	sp, sp, #32
  f041a8:	e50b0018 	str	r0, [fp, #-24]	; 0xffffffe8
  f041ac:	e50b101c 	str	r1, [fp, #-28]	; 0xffffffe4
  f041b0:	e50b2020 	str	r2, [fp, #-32]	; 0xffffffe0
  f041b4:	e3a03000 	mov	r3, #0
  f041b8:	e50b3008 	str	r3, [fp, #-8]
  f041bc:	e51b3018 	ldr	r3, [fp, #-24]	; 0xffffffe8
  f041c0:	e2833a01 	add	r3, r3, #4096	; 0x1000
  f041c4:	e5933110 	ldr	r3, [r3, #272]	; 0x110
  f041c8:	e14b30ba 	strh	r3, [fp, #-10]
  f041cc:	e15b30ba 	ldrh	r3, [fp, #-10]
  f041d0:	e203307f 	and	r3, r3, #127	; 0x7f
  f041d4:	e14b30ba 	strh	r3, [fp, #-10]
  f041d8:	e51b3018 	ldr	r3, [fp, #-24]	; 0xffffffe8
  f041dc:	e50b3010 	str	r3, [fp, #-16]
  f041e0:	e15b30ba 	ldrh	r3, [fp, #-10]
  f041e4:	e1a03183 	lsl	r3, r3, #3
  f041e8:	e51b2010 	ldr	r2, [fp, #-16]
  f041ec:	e0823003 	add	r3, r2, r3
  f041f0:	e5933000 	ldr	r3, [r3]
  f041f4:	e1a01003 	mov	r1, r3
  f041f8:	e15b30ba 	ldrh	r3, [fp, #-10]
  f041fc:	e1a03183 	lsl	r3, r3, #3
  f04200:	e51b2010 	ldr	r2, [fp, #-16]
  f04204:	e0823003 	add	r3, r2, r3
  f04208:	e5933000 	ldr	r3, [r3]
  f0420c:	e2833b02 	add	r3, r3, #2048	; 0x800
  f04210:	e1a02003 	mov	r2, r3
  f04214:	e3a00040 	mov	r0, #64	; 0x40
  f04218:	ebfff2ee 	bl	f00dd8 <_cfe_flushcache>
  f0421c:	e15b30ba 	ldrh	r3, [fp, #-10]
  f04220:	e1a03183 	lsl	r3, r3, #3
  f04224:	e51b2010 	ldr	r2, [fp, #-16]
  f04228:	e0823003 	add	r3, r2, r3
  f0422c:	e5933000 	ldr	r3, [r3]
  f04230:	e50b3014 	str	r3, [fp, #-20]	; 0xffffffec
  f04234:	e15b30ba 	ldrh	r3, [fp, #-10]
  f04238:	e1a03183 	lsl	r3, r3, #3
  f0423c:	e51b2010 	ldr	r2, [fp, #-16]
  f04240:	e0823003 	add	r3, r2, r3
  f04244:	e5933004 	ldr	r3, [r3, #4]
  f04248:	e7ed3953 	ubfx	r3, r3, #18, #14
  f0424c:	e6ff3073 	uxth	r3, r3
  f04250:	e1a02003 	mov	r2, r3
  f04254:	e51b3020 	ldr	r3, [fp, #-32]	; 0xffffffe0
  f04258:	e5832000 	str	r2, [r3]
  f0425c:	e51b3020 	ldr	r3, [fp, #-32]	; 0xffffffe0
  f04260:	e5933000 	ldr	r3, [r3]
  f04264:	e353003b 	cmp	r3, #59	; 0x3b
  f04268:	9a000003 	bls	f0427c <__sp_read+0xe0>
  f0426c:	e51b3020 	ldr	r3, [fp, #-32]	; 0xffffffe0
  f04270:	e5933000 	ldr	r3, [r3]
  f04274:	e3530b02 	cmp	r3, #2048	; 0x800
  f04278:	9a000002 	bls	f04288 <__sp_read+0xec>
  f0427c:	e3e03000 	mvn	r3, #0
  f04280:	e50b3008 	str	r3, [fp, #-8]
  f04284:	ea000005 	b	f042a0 <__sp_read+0x104>
  f04288:	e51b3020 	ldr	r3, [fp, #-32]	; 0xffffffe0
  f0428c:	e5933000 	ldr	r3, [r3]
  f04290:	e1a02003 	mov	r2, r3
  f04294:	e51b1014 	ldr	r1, [fp, #-20]	; 0xffffffec
  f04298:	e51b001c 	ldr	r0, [fp, #-28]	; 0xffffffe4
  f0429c:	eb00de50 	bl	f3bbe4 <lib_memcpy>
  f042a0:	e51b3018 	ldr	r3, [fp, #-24]	; 0xffffffe8
  f042a4:	e2833a01 	add	r3, r3, #4096	; 0x1000
  f042a8:	e5933110 	ldr	r3, [r3, #272]	; 0x110
  f042ac:	e2833001 	add	r3, r3, #1
  f042b0:	e51b2018 	ldr	r2, [fp, #-24]	; 0xffffffe8
  f042b4:	e2822a01 	add	r2, r2, #4096	; 0x1000
  f042b8:	e5823110 	str	r3, [r2, #272]	; 0x110
  f042bc:	e51b3008 	ldr	r3, [fp, #-8]
  f042c0:	e1a00003 	mov	r0, r3
  f042c4:	e24bd004 	sub	sp, fp, #4
  f042c8:	e8bd8800 	pop	{fp, pc}

00f042cc <sp_read>:
  f042cc:	e92d4800 	push	{fp, lr}
  f042d0:	e28db004 	add	fp, sp, #4
  f042d4:	e24dd008 	sub	sp, sp, #8
  f042d8:	e50b0008 	str	r0, [fp, #-8]
  f042dc:	e50b100c 	str	r1, [fp, #-12]
  f042e0:	e3043054 	movw	r3, #16468	; 0x4054
  f042e4:	e34030f6 	movt	r3, #246	; 0xf6
  f042e8:	e5933000 	ldr	r3, [r3]
  f042ec:	e3530000 	cmp	r3, #0
  f042f0:	1a000006 	bne	f04310 <sp_read+0x44>
  f042f4:	e51b200c 	ldr	r2, [fp, #-12]
  f042f8:	e51b1008 	ldr	r1, [fp, #-8]
  f042fc:	e3a00a02 	mov	r0, #8192	; 0x2000
  f04300:	e3480040 	movt	r0, #32832	; 0x8040
  f04304:	ebffffa4 	bl	f0419c <__sp_read>
  f04308:	e1a03000 	mov	r3, r0
  f0430c:	ea000005 	b	f04328 <sp_read+0x5c>
  f04310:	e51b200c 	ldr	r2, [fp, #-12]
  f04314:	e51b1008 	ldr	r1, [fp, #-8]
  f04318:	e3a00a02 	mov	r0, #8192	; 0x2000
  f0431c:	e3480050 	movt	r0, #32848	; 0x8050
  f04320:	ebffff9d 	bl	f0419c <__sp_read>
  f04324:	e1a03000 	mov	r3, r0
  f04328:	e1a00003 	mov	r0, r3
  f0432c:	e24bd004 	sub	sp, fp, #4
  f04330:	e8bd8800 	pop	{fp, pc}

00f04334 <__sp_write>:
  f04334:	e92d4800 	push	{fp, lr}
  f04338:	e28db004 	add	fp, sp, #4
  f0433c:	e24dd028 	sub	sp, sp, #40	; 0x28
  f04340:	e50b0020 	str	r0, [fp, #-32]	; 0xffffffe0
  f04344:	e50b1024 	str	r1, [fp, #-36]	; 0xffffffdc
  f04348:	e50b2028 	str	r2, [fp, #-40]	; 0xffffffd8
  f0434c:	e50b302c 	str	r3, [fp, #-44]	; 0xffffffd4
  f04350:	e3a03ffa 	mov	r3, #1000	; 0x3e8
  f04354:	e50b3008 	str	r3, [fp, #-8]
  f04358:	e51b302c 	ldr	r3, [fp, #-44]	; 0xffffffd4
  f0435c:	e3530b02 	cmp	r3, #2048	; 0x800
  f04360:	9a000001 	bls	f0436c <__sp_write+0x38>
  f04364:	e3e03000 	mvn	r3, #0
  f04368:	ea000031 	b	f04434 <__sp_write+0x100>
  f0436c:	e51b202c 	ldr	r2, [fp, #-44]	; 0xffffffd4
  f04370:	e51b1028 	ldr	r1, [fp, #-40]	; 0xffffffd8
  f04374:	e51b0024 	ldr	r0, [fp, #-36]	; 0xffffffdc
  f04378:	eb00de19 	bl	f3bbe4 <lib_memcpy>
  f0437c:	e51b3024 	ldr	r3, [fp, #-36]	; 0xffffffdc
  f04380:	e2833b02 	add	r3, r3, #2048	; 0x800
  f04384:	e1a02003 	mov	r2, r3
  f04388:	e51b1024 	ldr	r1, [fp, #-36]	; 0xffffffdc
  f0438c:	e3a00040 	mov	r0, #64	; 0x40
  f04390:	ebfff290 	bl	f00dd8 <_cfe_flushcache>
  f04394:	e51b302c 	ldr	r3, [fp, #-44]	; 0xffffffd4
  f04398:	e1a03903 	lsl	r3, r3, #18
  f0439c:	e3833bc2 	orr	r3, r3, #198656	; 0x30800
  f043a0:	e50b300c 	str	r3, [fp, #-12]
  f043a4:	e51b3024 	ldr	r3, [fp, #-36]	; 0xffffffdc
  f043a8:	e50b3010 	str	r3, [fp, #-16]
  f043ac:	e51b3020 	ldr	r3, [fp, #-32]	; 0xffffffe0
  f043b0:	e51b2010 	ldr	r2, [fp, #-16]
  f043b4:	e5832000 	str	r2, [r3]
  f043b8:	f57ff04f 	dsb	sy
  f043bc:	e51b3020 	ldr	r3, [fp, #-32]	; 0xffffffe0
  f043c0:	e51b200c 	ldr	r2, [fp, #-12]
  f043c4:	e5832004 	str	r2, [r3, #4]
  f043c8:	e51b3020 	ldr	r3, [fp, #-32]	; 0xffffffe0
  f043cc:	e5933480 	ldr	r3, [r3, #1152]	; 0x480
  f043d0:	e50b3014 	str	r3, [fp, #-20]	; 0xffffffec
  f043d4:	e51b3014 	ldr	r3, [fp, #-20]	; 0xffffffec
  f043d8:	e1a03823 	lsr	r3, r3, #16
  f043dc:	e50b3018 	str	r3, [fp, #-24]	; 0xffffffe8
  f043e0:	e51b3014 	ldr	r3, [fp, #-20]	; 0xffffffec
  f043e4:	e6ff3073 	uxth	r3, r3
  f043e8:	e50b3014 	str	r3, [fp, #-20]	; 0xffffffec
  f043ec:	e51b3018 	ldr	r3, [fp, #-24]	; 0xffffffe8
  f043f0:	e6ff3073 	uxth	r3, r3
  f043f4:	e50b3018 	str	r3, [fp, #-24]	; 0xffffffe8
  f043f8:	e51b2014 	ldr	r2, [fp, #-20]	; 0xffffffec
  f043fc:	e51b3018 	ldr	r3, [fp, #-24]	; 0xffffffe8
  f04400:	e1520003 	cmp	r2, r3
  f04404:	0a000004 	beq	f0441c <__sp_write+0xe8>
  f04408:	e51b3008 	ldr	r3, [fp, #-8]
  f0440c:	e2432001 	sub	r2, r3, #1
  f04410:	e50b2008 	str	r2, [fp, #-8]
  f04414:	e3530000 	cmp	r3, #0
  f04418:	1affffea 	bne	f043c8 <__sp_write+0x94>
  f0441c:	e51b3008 	ldr	r3, [fp, #-8]
  f04420:	e3530000 	cmp	r3, #0
  f04424:	1a000001 	bne	f04430 <__sp_write+0xfc>
  f04428:	e3e03000 	mvn	r3, #0
  f0442c:	ea000000 	b	f04434 <__sp_write+0x100>
  f04430:	e3a03000 	mov	r3, #0
  f04434:	e1a00003 	mov	r0, r3
  f04438:	e24bd004 	sub	sp, fp, #4
  f0443c:	e8bd8800 	pop	{fp, pc}

00f04440 <sp_write>:
  f04440:	e92d4800 	push	{fp, lr}
  f04444:	e28db004 	add	fp, sp, #4
  f04448:	e24dd008 	sub	sp, sp, #8
  f0444c:	e50b0008 	str	r0, [fp, #-8]
  f04450:	e50b100c 	str	r1, [fp, #-12]
  f04454:	e3043054 	movw	r3, #16468	; 0x4054
  f04458:	e34030f6 	movt	r3, #246	; 0xf6
  f0445c:	e5933000 	ldr	r3, [r3]
  f04460:	e3530000 	cmp	r3, #0
  f04464:	1a000008 	bne	f0448c <sp_write+0x4c>
  f04468:	e30c3b34 	movw	r3, #52020	; 0xcb34
  f0446c:	e34030f6 	movt	r3, #246	; 0xf6
  f04470:	e5931000 	ldr	r1, [r3]
  f04474:	e51b300c 	ldr	r3, [fp, #-12]
  f04478:	e51b2008 	ldr	r2, [fp, #-8]
  f0447c:	e3a00901 	mov	r0, #16384	; 0x4000
  f04480:	e3480040 	movt	r0, #32832	; 0x8040
  f04484:	ebffffaa 	bl	f04334 <__sp_write>
  f04488:	ea000007 	b	f044ac <sp_write+0x6c>
  f0448c:	e30c3b38 	movw	r3, #52024	; 0xcb38
  f04490:	e34030f6 	movt	r3, #246	; 0xf6
  f04494:	e5931000 	ldr	r1, [r3]
  f04498:	e51b300c 	ldr	r3, [fp, #-12]
  f0449c:	e51b2008 	ldr	r2, [fp, #-8]
  f044a0:	e3a00901 	mov	r0, #16384	; 0x4000
  f044a4:	e3480050 	movt	r0, #32848	; 0x8050
  f044a8:	ebffffa1 	bl	f04334 <__sp_write>
  f044ac:	e3a03000 	mov	r3, #0
  f044b0:	e1a00003 	mov	r0, r3
  f044b4:	e24bd004 	sub	sp, fp, #4
  f044b8:	e8bd8800 	pop	{fp, pc}

00f044bc <bcm63xx_ether_probe>:
  f044bc:	e92d4800 	push	{fp, lr}
  f044c0:	e28db004 	add	fp, sp, #4
  f044c4:	e24dd078 	sub	sp, sp, #120	; 0x78
  f044c8:	e50b0070 	str	r0, [fp, #-112]	; 0xffffff90
  f044cc:	e50b1074 	str	r1, [fp, #-116]	; 0xffffff8c
  f044d0:	e50b2078 	str	r2, [fp, #-120]	; 0xffffff88
  f044d4:	e50b307c 	str	r3, [fp, #-124]	; 0xffffff84
  f044d8:	e3a00000 	mov	r0, #0
  f044dc:	ebfffd75 	bl	f03ab8 <sp_reset>
  f044e0:	e3a02040 	mov	r2, #64	; 0x40
  f044e4:	e3a01b02 	mov	r1, #2048	; 0x800
  f044e8:	e3401004 	movt	r1, #4
  f044ec:	e30f0330 	movw	r0, #62256	; 0xf330
  f044f0:	e34000f6 	movt	r0, #246	; 0xf6
  f044f4:	eb00d5b1 	bl	f39bc0 <kmalloc>
  f044f8:	e1a02000 	mov	r2, r0
  f044fc:	e30c3b34 	movw	r3, #52020	; 0xcb34
  f04500:	e34030f6 	movt	r3, #246	; 0xf6
  f04504:	e5832000 	str	r2, [r3]
  f04508:	e30c3b34 	movw	r3, #52020	; 0xcb34
  f0450c:	e34030f6 	movt	r3, #246	; 0xf6
  f04510:	e5933000 	ldr	r3, [r3]
  f04514:	e3530000 	cmp	r3, #0
  f04518:	1a000003 	bne	f0452c <bcm63xx_ether_probe+0x70>
  f0451c:	e3020c24 	movw	r0, #11300	; 0x2c24
  f04520:	e34000f5 	movt	r0, #245	; 0xf5
  f04524:	eb00db26 	bl	f3b1c4 <xprintf>
  f04528:	ea000045 	b	f04644 <bcm63xx_ether_probe+0x188>
  f0452c:	e30c3b34 	movw	r3, #52020	; 0xcb34
  f04530:	e34030f6 	movt	r3, #246	; 0xf6
  f04534:	e5933000 	ldr	r3, [r3]
  f04538:	e3a02b02 	mov	r2, #2048	; 0x800
  f0453c:	e3402004 	movt	r2, #4
  f04540:	e3a01000 	mov	r1, #0
  f04544:	e1a00003 	mov	r0, r3
  f04548:	eb00de15 	bl	f3bda4 <lib_memset>
  f0454c:	e30c3b34 	movw	r3, #52020	; 0xcb34
  f04550:	e34030f6 	movt	r3, #246	; 0xf6
  f04554:	e5931000 	ldr	r1, [r3]
  f04558:	e30c3b34 	movw	r3, #52020	; 0xcb34
  f0455c:	e34030f6 	movt	r3, #246	; 0xf6
  f04560:	e5933000 	ldr	r3, [r3]
  f04564:	e2833701 	add	r3, r3, #262144	; 0x40000
  f04568:	e2833b02 	add	r3, r3, #2048	; 0x800
  f0456c:	e1a02003 	mov	r2, r3
  f04570:	e3a00040 	mov	r0, #64	; 0x40
  f04574:	ebfff217 	bl	f00dd8 <_cfe_flushcache>
  f04578:	e3a02040 	mov	r2, #64	; 0x40
  f0457c:	e3a01b02 	mov	r1, #2048	; 0x800
  f04580:	e3401004 	movt	r1, #4
  f04584:	e30f0330 	movw	r0, #62256	; 0xf330
  f04588:	e34000f6 	movt	r0, #246	; 0xf6
  f0458c:	eb00d58b 	bl	f39bc0 <kmalloc>
  f04590:	e1a02000 	mov	r2, r0
  f04594:	e30c3b38 	movw	r3, #52024	; 0xcb38
  f04598:	e34030f6 	movt	r3, #246	; 0xf6
  f0459c:	e5832000 	str	r2, [r3]
  f045a0:	e30c3b38 	movw	r3, #52024	; 0xcb38
  f045a4:	e34030f6 	movt	r3, #246	; 0xf6
  f045a8:	e5933000 	ldr	r3, [r3]
  f045ac:	e3530000 	cmp	r3, #0
  f045b0:	1a000003 	bne	f045c4 <bcm63xx_ether_probe+0x108>
  f045b4:	e3020c54 	movw	r0, #11348	; 0x2c54
  f045b8:	e34000f5 	movt	r0, #245	; 0xf5
  f045bc:	eb00db00 	bl	f3b1c4 <xprintf>
  f045c0:	ea00001f 	b	f04644 <bcm63xx_ether_probe+0x188>
  f045c4:	e30c3b38 	movw	r3, #52024	; 0xcb38
  f045c8:	e34030f6 	movt	r3, #246	; 0xf6
  f045cc:	e5933000 	ldr	r3, [r3]
  f045d0:	e3a02b02 	mov	r2, #2048	; 0x800
  f045d4:	e3402004 	movt	r2, #4
  f045d8:	e3a01000 	mov	r1, #0
  f045dc:	e1a00003 	mov	r0, r3
  f045e0:	eb00ddef 	bl	f3bda4 <lib_memset>
  f045e4:	e30c3b38 	movw	r3, #52024	; 0xcb38
  f045e8:	e34030f6 	movt	r3, #246	; 0xf6
  f045ec:	e5931000 	ldr	r1, [r3]
  f045f0:	e30c3b38 	movw	r3, #52024	; 0xcb38
  f045f4:	e34030f6 	movt	r3, #246	; 0xf6
  f045f8:	e5933000 	ldr	r3, [r3]
  f045fc:	e2833701 	add	r3, r3, #262144	; 0x40000
  f04600:	e2833b02 	add	r3, r3, #2048	; 0x800
  f04604:	e1a02003 	mov	r2, r3
  f04608:	e3a00040 	mov	r0, #64	; 0x40
  f0460c:	ebfff1f1 	bl	f00dd8 <_cfe_flushcache>
  f04610:	ebfffe52 	bl	f03f60 <sp_init>
  f04614:	e51b3070 	ldr	r3, [fp, #-112]	; 0xffffff90
  f04618:	e5932000 	ldr	r2, [r3]
  f0461c:	e24b0068 	sub	r0, fp, #104	; 0x68
  f04620:	e51b3074 	ldr	r3, [fp, #-116]	; 0xffffff8c
  f04624:	e3021c84 	movw	r1, #11396	; 0x2c84
  f04628:	e34010f5 	movt	r1, #245	; 0xf5
  f0462c:	eb00dad2 	bl	f3b17c <xsprintf>
  f04630:	e24b3068 	sub	r3, fp, #104	; 0x68
  f04634:	e3a02000 	mov	r2, #0
  f04638:	e3a01000 	mov	r1, #0
  f0463c:	e51b0070 	ldr	r0, [fp, #-112]	; 0xffffff90
  f04640:	eb00e03a 	bl	f3c730 <cfe_attach>
  f04644:	e24bd004 	sub	sp, fp, #4
  f04648:	e8bd8800 	pop	{fp, pc}

00f0464c <bcm63xx_ether_open>:
  f0464c:	e52db004 	push	{fp}		; (str fp, [sp, #-4]!)
  f04650:	e28db000 	add	fp, sp, #0
  f04654:	e24dd00c 	sub	sp, sp, #12
  f04658:	e50b0008 	str	r0, [fp, #-8]
  f0465c:	e3a03000 	mov	r3, #0
  f04660:	e1a00003 	mov	r0, r3
  f04664:	e28bd000 	add	sp, fp, #0
  f04668:	e49db004 	pop	{fp}		; (ldr fp, [sp], #4)
  f0466c:	e12fff1e 	bx	lr

00f04670 <bcm63xx_ether_read>:
  f04670:	e92d4800 	push	{fp, lr}
  f04674:	e28db004 	add	fp, sp, #4
  f04678:	e24dd010 	sub	sp, sp, #16
  f0467c:	e50b0010 	str	r0, [fp, #-16]
  f04680:	e50b1014 	str	r1, [fp, #-20]	; 0xffffffec
  f04684:	e3a03000 	mov	r3, #0
  f04688:	e50b3008 	str	r3, [fp, #-8]
  f0468c:	e30c3b34 	movw	r3, #52020	; 0xcb34
  f04690:	e34030f6 	movt	r3, #246	; 0xf6
  f04694:	e5933000 	ldr	r3, [r3]
  f04698:	e2833b02 	add	r3, r3, #2048	; 0x800
  f0469c:	e3530000 	cmp	r3, #0
  f046a0:	1a000001 	bne	f046ac <bcm63xx_ether_read+0x3c>
  f046a4:	e3e03000 	mvn	r3, #0
  f046a8:	ea00000d 	b	f046e4 <bcm63xx_ether_read+0x74>
  f046ac:	e3a00001 	mov	r0, #1
  f046b0:	ebfffe8c 	bl	f040e8 <sp_poll>
  f046b4:	e1a03000 	mov	r3, r0
  f046b8:	e3530000 	cmp	r3, #0
  f046bc:	1a000007 	bne	f046e0 <bcm63xx_ether_read+0x70>
  f046c0:	e51b3014 	ldr	r3, [fp, #-20]	; 0xffffffec
  f046c4:	e5932008 	ldr	r2, [r3, #8]
  f046c8:	e51b3014 	ldr	r3, [fp, #-20]	; 0xffffffec
  f046cc:	e2833010 	add	r3, r3, #16
  f046d0:	e1a01003 	mov	r1, r3
  f046d4:	e1a00002 	mov	r0, r2
  f046d8:	ebfffefb 	bl	f042cc <sp_read>
  f046dc:	e50b0008 	str	r0, [fp, #-8]
  f046e0:	e51b3008 	ldr	r3, [fp, #-8]
  f046e4:	e1a00003 	mov	r0, r3
  f046e8:	e24bd004 	sub	sp, fp, #4
  f046ec:	e8bd8800 	pop	{fp, pc}

00f046f0 <bcm63xx_ether_inpstat>:
  f046f0:	e52db004 	push	{fp}		; (str fp, [sp, #-4]!)
  f046f4:	e28db000 	add	fp, sp, #0
  f046f8:	e24dd00c 	sub	sp, sp, #12
  f046fc:	e50b0008 	str	r0, [fp, #-8]
  f04700:	e50b100c 	str	r1, [fp, #-12]
  f04704:	e3e03000 	mvn	r3, #0
  f04708:	e1a00003 	mov	r0, r3
  f0470c:	e28bd000 	add	sp, fp, #0
  f04710:	e49db004 	pop	{fp}		; (ldr fp, [sp], #4)
  f04714:	e12fff1e 	bx	lr

00f04718 <bcm63xx_ether_write>:
  f04718:	e92d4800 	push	{fp, lr}
  f0471c:	e28db004 	add	fp, sp, #4
  f04720:	e24dd008 	sub	sp, sp, #8
  f04724:	e50b0008 	str	r0, [fp, #-8]
  f04728:	e50b100c 	str	r1, [fp, #-12]
  f0472c:	e51b300c 	ldr	r3, [fp, #-12]
  f04730:	e593300c 	ldr	r3, [r3, #12]
  f04734:	e3530b02 	cmp	r3, #2048	; 0x800
  f04738:	9a000001 	bls	f04744 <bcm63xx_ether_write+0x2c>
  f0473c:	e3e03000 	mvn	r3, #0
  f04740:	ea000007 	b	f04764 <bcm63xx_ether_write+0x4c>
  f04744:	e51b300c 	ldr	r3, [fp, #-12]
  f04748:	e5932008 	ldr	r2, [r3, #8]
  f0474c:	e51b300c 	ldr	r3, [fp, #-12]
  f04750:	e593300c 	ldr	r3, [r3, #12]
  f04754:	e1a01003 	mov	r1, r3
  f04758:	e1a00002 	mov	r0, r2
  f0475c:	ebffff37 	bl	f04440 <sp_write>
  f04760:	e1a03000 	mov	r3, r0
  f04764:	e1a00003 	mov	r0, r3
  f04768:	e24bd004 	sub	sp, fp, #4
  f0476c:	e8bd8800 	pop	{fp, pc}

00f04770 <bcm63xx_ether_ioctl>:
  f04770:	e52db004 	push	{fp}		; (str fp, [sp, #-4]!)
  f04774:	e28db000 	add	fp, sp, #0
  f04778:	e24dd00c 	sub	sp, sp, #12
  f0477c:	e50b0008 	str	r0, [fp, #-8]
  f04780:	e50b100c 	str	r1, [fp, #-12]
  f04784:	e3e03000 	mvn	r3, #0
  f04788:	e1a00003 	mov	r0, r3
  f0478c:	e28bd000 	add	sp, fp, #0
  f04790:	e49db004 	pop	{fp}		; (ldr fp, [sp], #4)
  f04794:	e12fff1e 	bx	lr

00f04798 <bcm63xx_ether_close>:
  f04798:	e92d4800 	push	{fp, lr}
  f0479c:	e28db004 	add	fp, sp, #4
  f047a0:	e24dd008 	sub	sp, sp, #8
  f047a4:	e50b0008 	str	r0, [fp, #-8]
  f047a8:	e3a00001 	mov	r0, #1
  f047ac:	ebfffcc1 	bl	f03ab8 <sp_reset>
  f047b0:	e3a03000 	mov	r3, #0
  f047b4:	e1a00003 	mov	r0, r3
  f047b8:	e24bd004 	sub	sp, fp, #4
  f047bc:	e8bd8800 	pop	{fp, pc}

00f047c0 <bcm_ethsw_led_init>:
  f047c0:	e92d4800 	push	{fp, lr}
  f047c4:	e28db004 	add	fp, sp, #4
  f047c8:	e24dde6f 	sub	sp, sp, #1776	; 0x6f0
  f047cc:	e3a03020 	mov	r3, #32
  f047d0:	e50b36f0 	str	r3, [fp, #-1776]	; 0xfffff910
  f047d4:	e3a03000 	mov	r3, #0
  f047d8:	e50b300c 	str	r3, [fp, #-12]
  f047dc:	e3a03000 	mov	r3, #0
  f047e0:	e50b3038 	str	r3, [fp, #-56]	; 0xffffffc8
  f047e4:	e3a03000 	mov	r3, #0
  f047e8:	e50b303c 	str	r3, [fp, #-60]	; 0xffffffc4
  f047ec:	e3a03000 	mov	r3, #0
  f047f0:	e50b3040 	str	r3, [fp, #-64]	; 0xffffffc0
  f047f4:	e3a03000 	mov	r3, #0
  f047f8:	e50b3048 	str	r3, [fp, #-72]	; 0xffffffb8
  f047fc:	e24b2e6e 	sub	r2, fp, #1760	; 0x6e0
  f04800:	e2422004 	sub	r2, r2, #4
  f04804:	e242200c 	sub	r2, r2, #12
  f04808:	e24b3e6e 	sub	r3, fp, #1760	; 0x6e0
  f0480c:	e2433004 	sub	r3, r3, #4
  f04810:	e2433008 	sub	r3, r3, #8
  f04814:	e1a01002 	mov	r1, r2
  f04818:	e1a00003 	mov	r0, r3
  f0481c:	eb0057a9 	bl	f1a6c8 <BpGetAllAdvLedInfo>
  f04820:	e50b004c 	str	r0, [fp, #-76]	; 0xffffffb4
  f04824:	e51b304c 	ldr	r3, [fp, #-76]	; 0xffffffb4
  f04828:	e3530000 	cmp	r3, #0
  f0482c:	1a0001d5 	bne	f04f88 <bcm_ethsw_led_init+0x7c8>
  f04830:	e3a03000 	mov	r3, #0
  f04834:	e50b3008 	str	r3, [fp, #-8]
  f04838:	ea0001c1 	b	f04f44 <bcm_ethsw_led_init+0x784>
  f0483c:	e3a03000 	mov	r3, #0
  f04840:	e50b300c 	str	r3, [fp, #-12]
  f04844:	e51b3008 	ldr	r3, [fp, #-8]
  f04848:	e3a02034 	mov	r2, #52	; 0x34
  f0484c:	e0030392 	mul	r3, r2, r3
  f04850:	e24b2004 	sub	r2, fp, #4
  f04854:	e0823003 	add	r3, r2, r3
  f04858:	e2433e6b 	sub	r3, r3, #1712	; 0x6b0
  f0485c:	e2433008 	sub	r3, r3, #8
  f04860:	e5933000 	ldr	r3, [r3]
  f04864:	e1d330b2 	ldrh	r3, [r3, #2]
  f04868:	e3530003 	cmp	r3, #3
  f0486c:	0a000015 	beq	f048c8 <bcm_ethsw_led_init+0x108>
  f04870:	e51b3008 	ldr	r3, [fp, #-8]
  f04874:	e3a02034 	mov	r2, #52	; 0x34
  f04878:	e0030392 	mul	r3, r2, r3
  f0487c:	e24b2004 	sub	r2, fp, #4
  f04880:	e0823003 	add	r3, r2, r3
  f04884:	e2433e6b 	sub	r3, r3, #1712	; 0x6b0
  f04888:	e2433008 	sub	r3, r3, #8
  f0488c:	e5933000 	ldr	r3, [r3]
  f04890:	e1d330b2 	ldrh	r3, [r3, #2]
  f04894:	e3530004 	cmp	r3, #4
  f04898:	0a00000a 	beq	f048c8 <bcm_ethsw_led_init+0x108>
  f0489c:	e51b3008 	ldr	r3, [fp, #-8]
  f048a0:	e3a02034 	mov	r2, #52	; 0x34
  f048a4:	e0030392 	mul	r3, r2, r3
  f048a8:	e24b2004 	sub	r2, fp, #4
  f048ac:	e0823003 	add	r3, r2, r3
  f048b0:	e2433e6b 	sub	r3, r3, #1712	; 0x6b0
  f048b4:	e2433008 	sub	r3, r3, #8
  f048b8:	e5933000 	ldr	r3, [r3]
  f048bc:	e1d330b2 	ldrh	r3, [r3, #2]
  f048c0:	e3530005 	cmp	r3, #5
  f048c4:	1a000017 	bne	f04928 <bcm_ethsw_led_init+0x168>
  f048c8:	e51b3008 	ldr	r3, [fp, #-8]
  f048cc:	e3a02034 	mov	r2, #52	; 0x34
  f048d0:	e0030392 	mul	r3, r2, r3
  f048d4:	e24b2004 	sub	r2, fp, #4
  f048d8:	e0823003 	add	r3, r2, r3
  f048dc:	e2433e6b 	sub	r3, r3, #1712	; 0x6b0
  f048e0:	e2433008 	sub	r3, r3, #8
  f048e4:	e5933000 	ldr	r3, [r3]
  f048e8:	e1d330b4 	ldrh	r3, [r3, #4]
  f048ec:	e50b3050 	str	r3, [fp, #-80]	; 0xffffffb0
  f048f0:	e51b3050 	ldr	r3, [fp, #-80]	; 0xffffffb0
  f048f4:	e3530000 	cmp	r3, #0
  f048f8:	1a000003 	bne	f0490c <bcm_ethsw_led_init+0x14c>
  f048fc:	e3a03000 	mov	r3, #0
  f04900:	e3483041 	movt	r3, #32833	; 0x8041
  f04904:	e50b300c 	str	r3, [fp, #-12]
  f04908:	ea00001e 	b	f04988 <bcm_ethsw_led_init+0x1c8>
  f0490c:	e51b3050 	ldr	r3, [fp, #-80]	; 0xffffffb0
  f04910:	e3530001 	cmp	r3, #1
  f04914:	1a00001b 	bne	f04988 <bcm_ethsw_led_init+0x1c8>
  f04918:	e3a03000 	mov	r3, #0
  f0491c:	e3483051 	movt	r3, #32849	; 0x8051
  f04920:	e50b300c 	str	r3, [fp, #-12]
  f04924:	ea000017 	b	f04988 <bcm_ethsw_led_init+0x1c8>
  f04928:	e51b3008 	ldr	r3, [fp, #-8]
  f0492c:	e3a02034 	mov	r2, #52	; 0x34
  f04930:	e0030392 	mul	r3, r2, r3
  f04934:	e24b2004 	sub	r2, fp, #4
  f04938:	e0823003 	add	r3, r2, r3
  f0493c:	e2433e6b 	sub	r3, r3, #1712	; 0x6b0
  f04940:	e2433008 	sub	r3, r3, #8
  f04944:	e5933000 	ldr	r3, [r3]
  f04948:	e1d330b2 	ldrh	r3, [r3, #2]
  f0494c:	e3530002 	cmp	r3, #2
  f04950:	1a00000d 	bne	f0498c <bcm_ethsw_led_init+0x1cc>
  f04954:	e51b3008 	ldr	r3, [fp, #-8]
  f04958:	e3a02034 	mov	r2, #52	; 0x34
  f0495c:	e0030392 	mul	r3, r2, r3
  f04960:	e24b2004 	sub	r2, fp, #4
  f04964:	e0823003 	add	r3, r2, r3
  f04968:	e2433e6b 	sub	r3, r3, #1712	; 0x6b0
  f0496c:	e2433008 	sub	r3, r3, #8
  f04970:	e5933000 	ldr	r3, [r3]
  f04974:	e1d330b4 	ldrh	r3, [r3, #4]
  f04978:	e50b3050 	str	r3, [fp, #-80]	; 0xffffffb0
  f0497c:	e3a03000 	mov	r3, #0
  f04980:	e50b300c 	str	r3, [fp, #-12]
  f04984:	ea000000 	b	f0498c <bcm_ethsw_led_init+0x1cc>
  f04988:	e1a00000 	nop			; (mov r0, r0)
  f0498c:	e51b300c 	ldr	r3, [fp, #-12]
  f04990:	e3530000 	cmp	r3, #0
  f04994:	0a000167 	beq	f04f38 <bcm_ethsw_led_init+0x778>
  f04998:	e3a03000 	mov	r3, #0
  f0499c:	e50b3024 	str	r3, [fp, #-36]	; 0xffffffdc
  f049a0:	e3a03000 	mov	r3, #0
  f049a4:	e50b302c 	str	r3, [fp, #-44]	; 0xffffffd4
  f049a8:	e3a03000 	mov	r3, #0
  f049ac:	e50b3030 	str	r3, [fp, #-48]	; 0xffffffd0
  f049b0:	e3a03000 	mov	r3, #0
  f049b4:	e50b3028 	str	r3, [fp, #-40]	; 0xffffffd8
  f049b8:	e3a03000 	mov	r3, #0
  f049bc:	e50b3034 	str	r3, [fp, #-52]	; 0xffffffcc
  f049c0:	e3a03007 	mov	r3, #7
  f049c4:	e50b3010 	str	r3, [fp, #-16]
  f049c8:	e3a03007 	mov	r3, #7
  f049cc:	e50b3014 	str	r3, [fp, #-20]	; 0xffffffec
  f049d0:	e3a03007 	mov	r3, #7
  f049d4:	e50b3018 	str	r3, [fp, #-24]	; 0xffffffe8
  f049d8:	e3a03007 	mov	r3, #7
  f049dc:	e50b301c 	str	r3, [fp, #-28]	; 0xffffffe4
  f049e0:	e3a03007 	mov	r3, #7
  f049e4:	e50b3020 	str	r3, [fp, #-32]	; 0xffffffe0
  f049e8:	e3a03000 	mov	r3, #0
  f049ec:	e50b3054 	str	r3, [fp, #-84]	; 0xffffffac
  f049f0:	e3a03000 	mov	r3, #0
  f049f4:	e50b3058 	str	r3, [fp, #-88]	; 0xffffffa8
  f049f8:	e30f3ff8 	movw	r3, #65528	; 0xfff8
  f049fc:	e3403003 	movt	r3, #3
  f04a00:	e50b305c 	str	r3, [fp, #-92]	; 0xffffffa4
  f04a04:	e30f3ff8 	movw	r3, #65528	; 0xfff8
  f04a08:	e3403003 	movt	r3, #3
  f04a0c:	e50b3060 	str	r3, [fp, #-96]	; 0xffffffa0
  f04a10:	e3a03003 	mov	r3, #3
  f04a14:	e50b3064 	str	r3, [fp, #-100]	; 0xffffff9c
  f04a18:	e51b300c 	ldr	r3, [fp, #-12]
  f04a1c:	e5932000 	ldr	r2, [r3]
  f04a20:	e51b3064 	ldr	r3, [fp, #-100]	; 0xffffff9c
  f04a24:	e0033002 	and	r3, r3, r2
  f04a28:	e50b3038 	str	r3, [fp, #-56]	; 0xffffffc8
  f04a2c:	e3a03000 	mov	r3, #0
  f04a30:	e50b3040 	str	r3, [fp, #-64]	; 0xffffffc0
  f04a34:	e3a0303c 	mov	r3, #60	; 0x3c
  f04a38:	e50b3048 	str	r3, [fp, #-72]	; 0xffffffb8
  f04a3c:	e3a03000 	mov	r3, #0
  f04a40:	e50b3044 	str	r3, [fp, #-68]	; 0xffffffbc
  f04a44:	ea0000d0 	b	f04d8c <bcm_ethsw_led_init+0x5cc>
  f04a48:	e51b3008 	ldr	r3, [fp, #-8]
  f04a4c:	e3a0200d 	mov	r2, #13
  f04a50:	e0020392 	mul	r2, r2, r3
  f04a54:	e51b3044 	ldr	r3, [fp, #-68]	; 0xffffffbc
  f04a58:	e0823003 	add	r3, r2, r3
  f04a5c:	e1a03103 	lsl	r3, r3, #2
  f04a60:	e24b2004 	sub	r2, fp, #4
  f04a64:	e0823003 	add	r3, r2, r3
  f04a68:	e51336e8 	ldr	r3, [r3, #-1768]	; 0xfffff918
  f04a6c:	e6ff3073 	uxth	r3, r3
  f04a70:	e50b3068 	str	r3, [fp, #-104]	; 0xffffff98
  f04a74:	e51b3008 	ldr	r3, [fp, #-8]
  f04a78:	e3a0200d 	mov	r2, #13
  f04a7c:	e0020392 	mul	r2, r2, r3
  f04a80:	e51b3044 	ldr	r3, [fp, #-68]	; 0xffffffbc
  f04a84:	e0823003 	add	r3, r2, r3
  f04a88:	e2833004 	add	r3, r3, #4
  f04a8c:	e1a03103 	lsl	r3, r3, #2
  f04a90:	e24b2004 	sub	r2, fp, #4
  f04a94:	e0823003 	add	r3, r2, r3
  f04a98:	e51336e8 	ldr	r3, [r3, #-1768]	; 0xfffff918
  f04a9c:	e6ff3073 	uxth	r3, r3
  f04aa0:	e50b306c 	str	r3, [fp, #-108]	; 0xffffff94
  f04aa4:	e51b3008 	ldr	r3, [fp, #-8]
  f04aa8:	e3a0200d 	mov	r2, #13
  f04aac:	e0020392 	mul	r2, r2, r3
  f04ab0:	e51b3044 	ldr	r3, [fp, #-68]	; 0xffffffbc
  f04ab4:	e0823003 	add	r3, r2, r3
  f04ab8:	e2833008 	add	r3, r3, #8
  f04abc:	e1a03103 	lsl	r3, r3, #2
  f04ac0:	e24b2004 	sub	r2, fp, #4
  f04ac4:	e0823003 	add	r3, r2, r3
  f04ac8:	e51336e8 	ldr	r3, [r3, #-1768]	; 0xfffff918
  f04acc:	e30f2fff 	movw	r2, #65535	; 0xffff
  f04ad0:	e1530002 	cmp	r3, r2
  f04ad4:	0a00000b 	beq	f04b08 <bcm_ethsw_led_init+0x348>
  f04ad8:	e51b3008 	ldr	r3, [fp, #-8]
  f04adc:	e3a0200d 	mov	r2, #13
  f04ae0:	e0020392 	mul	r2, r2, r3
  f04ae4:	e51b3044 	ldr	r3, [fp, #-68]	; 0xffffffbc
  f04ae8:	e0823003 	add	r3, r2, r3
  f04aec:	e2833008 	add	r3, r3, #8
  f04af0:	e1a03103 	lsl	r3, r3, #2
  f04af4:	e24b2004 	sub	r2, fp, #4
  f04af8:	e0823003 	add	r3, r2, r3
  f04afc:	e51336e8 	ldr	r3, [r3, #-1768]	; 0xfffff918
  f04b00:	e2033003 	and	r3, r3, #3
  f04b04:	e50b3038 	str	r3, [fp, #-56]	; 0xffffffc8
  f04b08:	e51b3068 	ldr	r3, [fp, #-104]	; 0xffffff98
  f04b0c:	e30f2fff 	movw	r2, #65535	; 0xffff
  f04b10:	e1530002 	cmp	r3, r2
  f04b14:	0a00003b 	beq	f04c08 <bcm_ethsw_led_init+0x448>
  f04b18:	e51b3068 	ldr	r3, [fp, #-104]	; 0xffffff98
  f04b1c:	e2033010 	and	r3, r3, #16
  f04b20:	e3530000 	cmp	r3, #0
  f04b24:	0a000007 	beq	f04b48 <bcm_ethsw_led_init+0x388>
  f04b28:	e3a02001 	mov	r2, #1
  f04b2c:	e51b3044 	ldr	r3, [fp, #-68]	; 0xffffffbc
  f04b30:	e1a03312 	lsl	r3, r2, r3
  f04b34:	e1e03003 	mvn	r3, r3
  f04b38:	e1a02003 	mov	r2, r3
  f04b3c:	e51b3010 	ldr	r3, [fp, #-16]
  f04b40:	e0033002 	and	r3, r3, r2
  f04b44:	e50b3010 	str	r3, [fp, #-16]
  f04b48:	e51b3068 	ldr	r3, [fp, #-104]	; 0xffffff98
  f04b4c:	e2033008 	and	r3, r3, #8
  f04b50:	e3530000 	cmp	r3, #0
  f04b54:	0a000007 	beq	f04b78 <bcm_ethsw_led_init+0x3b8>
  f04b58:	e3a02001 	mov	r2, #1
  f04b5c:	e51b3044 	ldr	r3, [fp, #-68]	; 0xffffffbc
  f04b60:	e1a03312 	lsl	r3, r2, r3
  f04b64:	e1e03003 	mvn	r3, r3
  f04b68:	e1a02003 	mov	r2, r3
  f04b6c:	e51b3014 	ldr	r3, [fp, #-20]	; 0xffffffec
  f04b70:	e0033002 	and	r3, r3, r2
  f04b74:	e50b3014 	str	r3, [fp, #-20]	; 0xffffffec
  f04b78:	e51b3068 	ldr	r3, [fp, #-104]	; 0xffffff98
  f04b7c:	e2033004 	and	r3, r3, #4
  f04b80:	e3530000 	cmp	r3, #0
  f04b84:	0a000007 	beq	f04ba8 <bcm_ethsw_led_init+0x3e8>
  f04b88:	e3a02001 	mov	r2, #1
  f04b8c:	e51b3044 	ldr	r3, [fp, #-68]	; 0xffffffbc
  f04b90:	e1a03312 	lsl	r3, r2, r3
  f04b94:	e1e03003 	mvn	r3, r3
  f04b98:	e1a02003 	mov	r2, r3
  f04b9c:	e51b3018 	ldr	r3, [fp, #-24]	; 0xffffffe8
  f04ba0:	e0033002 	and	r3, r3, r2
  f04ba4:	e50b3018 	str	r3, [fp, #-24]	; 0xffffffe8
  f04ba8:	e51b3068 	ldr	r3, [fp, #-104]	; 0xffffff98
  f04bac:	e2033002 	and	r3, r3, #2
  f04bb0:	e3530000 	cmp	r3, #0
  f04bb4:	0a000007 	beq	f04bd8 <bcm_ethsw_led_init+0x418>
  f04bb8:	e3a02001 	mov	r2, #1
  f04bbc:	e51b3044 	ldr	r3, [fp, #-68]	; 0xffffffbc
  f04bc0:	e1a03312 	lsl	r3, r2, r3
  f04bc4:	e1e03003 	mvn	r3, r3
  f04bc8:	e1a02003 	mov	r2, r3
  f04bcc:	e51b301c 	ldr	r3, [fp, #-28]	; 0xffffffe4
  f04bd0:	e0033002 	and	r3, r3, r2
  f04bd4:	e50b301c 	str	r3, [fp, #-28]	; 0xffffffe4
  f04bd8:	e51b3068 	ldr	r3, [fp, #-104]	; 0xffffff98
  f04bdc:	e2033001 	and	r3, r3, #1
  f04be0:	e3530000 	cmp	r3, #0
  f04be4:	0a000007 	beq	f04c08 <bcm_ethsw_led_init+0x448>
  f04be8:	e3a02001 	mov	r2, #1
  f04bec:	e51b3044 	ldr	r3, [fp, #-68]	; 0xffffffbc
  f04bf0:	e1a03312 	lsl	r3, r2, r3
  f04bf4:	e1e03003 	mvn	r3, r3
  f04bf8:	e1a02003 	mov	r2, r3
  f04bfc:	e51b3020 	ldr	r3, [fp, #-32]	; 0xffffffe0
  f04c00:	e0033002 	and	r3, r3, r2
  f04c04:	e50b3020 	str	r3, [fp, #-32]	; 0xffffffe0
  f04c08:	e51b306c 	ldr	r3, [fp, #-108]	; 0xffffff94
  f04c0c:	e30f2fff 	movw	r2, #65535	; 0xffff
  f04c10:	e1530002 	cmp	r3, r2
  f04c14:	0a000036 	beq	f04cf4 <bcm_ethsw_led_init+0x534>
  f04c18:	e51b306c 	ldr	r3, [fp, #-108]	; 0xffffff94
  f04c1c:	e2033010 	and	r3, r3, #16
  f04c20:	e3530000 	cmp	r3, #0
  f04c24:	0a000006 	beq	f04c44 <bcm_ethsw_led_init+0x484>
  f04c28:	e3a02001 	mov	r2, #1
  f04c2c:	e51b3044 	ldr	r3, [fp, #-68]	; 0xffffffbc
  f04c30:	e1a03312 	lsl	r3, r2, r3
  f04c34:	e1a02003 	mov	r2, r3
  f04c38:	e51b3024 	ldr	r3, [fp, #-36]	; 0xffffffdc
  f04c3c:	e1833002 	orr	r3, r3, r2
  f04c40:	e50b3024 	str	r3, [fp, #-36]	; 0xffffffdc
  f04c44:	e51b306c 	ldr	r3, [fp, #-108]	; 0xffffff94
  f04c48:	e2033008 	and	r3, r3, #8
  f04c4c:	e3530000 	cmp	r3, #0
  f04c50:	0a000006 	beq	f04c70 <bcm_ethsw_led_init+0x4b0>
  f04c54:	e3a02001 	mov	r2, #1
  f04c58:	e51b3044 	ldr	r3, [fp, #-68]	; 0xffffffbc
  f04c5c:	e1a03312 	lsl	r3, r2, r3
  f04c60:	e1a02003 	mov	r2, r3
  f04c64:	e51b3028 	ldr	r3, [fp, #-40]	; 0xffffffd8
  f04c68:	e1833002 	orr	r3, r3, r2
  f04c6c:	e50b3028 	str	r3, [fp, #-40]	; 0xffffffd8
  f04c70:	e51b306c 	ldr	r3, [fp, #-108]	; 0xffffff94
  f04c74:	e2033004 	and	r3, r3, #4
  f04c78:	e3530000 	cmp	r3, #0
  f04c7c:	0a000006 	beq	f04c9c <bcm_ethsw_led_init+0x4dc>
  f04c80:	e3a02001 	mov	r2, #1
  f04c84:	e51b3044 	ldr	r3, [fp, #-68]	; 0xffffffbc
  f04c88:	e1a03312 	lsl	r3, r2, r3
  f04c8c:	e1a02003 	mov	r2, r3
  f04c90:	e51b302c 	ldr	r3, [fp, #-44]	; 0xffffffd4
  f04c94:	e1833002 	orr	r3, r3, r2
  f04c98:	e50b302c 	str	r3, [fp, #-44]	; 0xffffffd4
  f04c9c:	e51b306c 	ldr	r3, [fp, #-108]	; 0xffffff94
  f04ca0:	e2033002 	and	r3, r3, #2
  f04ca4:	e3530000 	cmp	r3, #0
  f04ca8:	0a000006 	beq	f04cc8 <bcm_ethsw_led_init+0x508>
  f04cac:	e3a02001 	mov	r2, #1
  f04cb0:	e51b3044 	ldr	r3, [fp, #-68]	; 0xffffffbc
  f04cb4:	e1a03312 	lsl	r3, r2, r3
  f04cb8:	e1a02003 	mov	r2, r3
  f04cbc:	e51b3030 	ldr	r3, [fp, #-48]	; 0xffffffd0
  f04cc0:	e1833002 	orr	r3, r3, r2
  f04cc4:	e50b3030 	str	r3, [fp, #-48]	; 0xffffffd0
  f04cc8:	e51b306c 	ldr	r3, [fp, #-108]	; 0xffffff94
  f04ccc:	e2033001 	and	r3, r3, #1
  f04cd0:	e3530000 	cmp	r3, #0
  f04cd4:	0a000006 	beq	f04cf4 <bcm_ethsw_led_init+0x534>
  f04cd8:	e3a02001 	mov	r2, #1
  f04cdc:	e51b3044 	ldr	r3, [fp, #-68]	; 0xffffffbc
  f04ce0:	e1a03312 	lsl	r3, r2, r3
  f04ce4:	e1a02003 	mov	r2, r3
  f04ce8:	e51b3034 	ldr	r3, [fp, #-52]	; 0xffffffcc
  f04cec:	e1833002 	orr	r3, r3, r2
  f04cf0:	e50b3034 	str	r3, [fp, #-52]	; 0xffffffcc
  f04cf4:	e51b306c 	ldr	r3, [fp, #-108]	; 0xffffff94
  f04cf8:	e3530000 	cmp	r3, #0
  f04cfc:	0a000006 	beq	f04d1c <bcm_ethsw_led_init+0x55c>
  f04d00:	e51b2068 	ldr	r2, [fp, #-104]	; 0xffffff98
  f04d04:	e51b306c 	ldr	r3, [fp, #-108]	; 0xffffff94
  f04d08:	e0033002 	and	r3, r3, r2
  f04d0c:	e3530000 	cmp	r3, #0
  f04d10:	1a000001 	bne	f04d1c <bcm_ethsw_led_init+0x55c>
  f04d14:	e3a03001 	mov	r3, #1
  f04d18:	e50b303c 	str	r3, [fp, #-60]	; 0xffffffc4
  f04d1c:	e51b3044 	ldr	r3, [fp, #-68]	; 0xffffffbc
  f04d20:	e3530001 	cmp	r3, #1
  f04d24:	0a000009 	beq	f04d50 <bcm_ethsw_led_init+0x590>
  f04d28:	e3530002 	cmp	r3, #2
  f04d2c:	0a00000d 	beq	f04d68 <bcm_ethsw_led_init+0x5a8>
  f04d30:	e3530000 	cmp	r3, #0
  f04d34:	1a000011 	bne	f04d80 <bcm_ethsw_led_init+0x5c0>
  f04d38:	e51b303c 	ldr	r3, [fp, #-60]	; 0xffffffc4
  f04d3c:	e1a03103 	lsl	r3, r3, #2
  f04d40:	e51b2040 	ldr	r2, [fp, #-64]	; 0xffffffc0
  f04d44:	e1823003 	orr	r3, r2, r3
  f04d48:	e50b3040 	str	r3, [fp, #-64]	; 0xffffffc0
  f04d4c:	ea00000b 	b	f04d80 <bcm_ethsw_led_init+0x5c0>
  f04d50:	e51b303c 	ldr	r3, [fp, #-60]	; 0xffffffc4
  f04d54:	e1a03183 	lsl	r3, r3, #3
  f04d58:	e51b2040 	ldr	r2, [fp, #-64]	; 0xffffffc0
  f04d5c:	e1823003 	orr	r3, r2, r3
  f04d60:	e50b3040 	str	r3, [fp, #-64]	; 0xffffffc0
  f04d64:	ea000005 	b	f04d80 <bcm_ethsw_led_init+0x5c0>
  f04d68:	e51b303c 	ldr	r3, [fp, #-60]	; 0xffffffc4
  f04d6c:	e1a03203 	lsl	r3, r3, #4
  f04d70:	e51b2040 	ldr	r2, [fp, #-64]	; 0xffffffc0
  f04d74:	e1823003 	orr	r3, r2, r3
  f04d78:	e50b3040 	str	r3, [fp, #-64]	; 0xffffffc0
  f04d7c:	e1a00000 	nop			; (mov r0, r0)
  f04d80:	e51b3044 	ldr	r3, [fp, #-68]	; 0xffffffbc
  f04d84:	e2833001 	add	r3, r3, #1
  f04d88:	e50b3044 	str	r3, [fp, #-68]	; 0xffffffbc
  f04d8c:	e51b3044 	ldr	r3, [fp, #-68]	; 0xffffffbc
  f04d90:	e3530002 	cmp	r3, #2
  f04d94:	daffff2b 	ble	f04a48 <bcm_ethsw_led_init+0x288>
  f04d98:	e51b3008 	ldr	r3, [fp, #-8]
  f04d9c:	e3a02034 	mov	r2, #52	; 0x34
  f04da0:	e0030392 	mul	r3, r2, r3
  f04da4:	e24b2004 	sub	r2, fp, #4
  f04da8:	e0823003 	add	r3, r2, r3
  f04dac:	e2433e6d 	sub	r3, r3, #1744	; 0x6d0
  f04db0:	e243300c 	sub	r3, r3, #12
  f04db4:	e5933000 	ldr	r3, [r3]
  f04db8:	e6ff3073 	uxth	r3, r3
  f04dbc:	e3530000 	cmp	r3, #0
  f04dc0:	1a000002 	bne	f04dd0 <bcm_ethsw_led_init+0x610>
  f04dc4:	e51b3040 	ldr	r3, [fp, #-64]	; 0xffffffc0
  f04dc8:	e3833020 	orr	r3, r3, #32
  f04dcc:	e50b3040 	str	r3, [fp, #-64]	; 0xffffffc0
  f04dd0:	e51b3008 	ldr	r3, [fp, #-8]
  f04dd4:	e3a02034 	mov	r2, #52	; 0x34
  f04dd8:	e0030392 	mul	r3, r2, r3
  f04ddc:	e24b2004 	sub	r2, fp, #4
  f04de0:	e0823003 	add	r3, r2, r3
  f04de4:	e2433e6b 	sub	r3, r3, #1712	; 0x6b0
  f04de8:	e243300c 	sub	r3, r3, #12
  f04dec:	e5933000 	ldr	r3, [r3]
  f04df0:	e30f2fff 	movw	r2, #65535	; 0xffff
  f04df4:	e1530002 	cmp	r3, r2
  f04df8:	0a000009 	beq	f04e24 <bcm_ethsw_led_init+0x664>
  f04dfc:	e51b3008 	ldr	r3, [fp, #-8]
  f04e00:	e3a02034 	mov	r2, #52	; 0x34
  f04e04:	e0030392 	mul	r3, r2, r3
  f04e08:	e24b2004 	sub	r2, fp, #4
  f04e0c:	e0823003 	add	r3, r2, r3
  f04e10:	e2433e6b 	sub	r3, r3, #1712	; 0x6b0
  f04e14:	e243300c 	sub	r3, r3, #12
  f04e18:	e5933000 	ldr	r3, [r3]
  f04e1c:	e2033003 	and	r3, r3, #3
  f04e20:	e50b3038 	str	r3, [fp, #-56]	; 0xffffffc8
  f04e24:	e51b3024 	ldr	r3, [fp, #-36]	; 0xffffffdc
  f04e28:	e1a02783 	lsl	r2, r3, #15
  f04e2c:	e51b3028 	ldr	r3, [fp, #-40]	; 0xffffffd8
  f04e30:	e1a03603 	lsl	r3, r3, #12
  f04e34:	e1822003 	orr	r2, r2, r3
  f04e38:	e51b302c 	ldr	r3, [fp, #-44]	; 0xffffffd4
  f04e3c:	e1a03483 	lsl	r3, r3, #9
  f04e40:	e1822003 	orr	r2, r2, r3
  f04e44:	e51b3030 	ldr	r3, [fp, #-48]	; 0xffffffd0
  f04e48:	e1a03303 	lsl	r3, r3, #6
  f04e4c:	e1822003 	orr	r2, r2, r3
  f04e50:	e51b3034 	ldr	r3, [fp, #-52]	; 0xffffffcc
  f04e54:	e1a03183 	lsl	r3, r3, #3
  f04e58:	e1823003 	orr	r3, r2, r3
  f04e5c:	e50b3054 	str	r3, [fp, #-84]	; 0xffffffac
  f04e60:	e51b3010 	ldr	r3, [fp, #-16]
  f04e64:	e1a02783 	lsl	r2, r3, #15
  f04e68:	e51b3014 	ldr	r3, [fp, #-20]	; 0xffffffec
  f04e6c:	e1a03603 	lsl	r3, r3, #12
  f04e70:	e1822003 	orr	r2, r2, r3
  f04e74:	e51b3018 	ldr	r3, [fp, #-24]	; 0xffffffe8
  f04e78:	e1a03483 	lsl	r3, r3, #9
  f04e7c:	e1822003 	orr	r2, r2, r3
  f04e80:	e51b301c 	ldr	r3, [fp, #-28]	; 0xffffffe4
  f04e84:	e1a03303 	lsl	r3, r3, #6
  f04e88:	e1822003 	orr	r2, r2, r3
  f04e8c:	e51b3020 	ldr	r3, [fp, #-32]	; 0xffffffe0
  f04e90:	e1a03183 	lsl	r3, r3, #3
  f04e94:	e1823003 	orr	r3, r2, r3
  f04e98:	e50b3058 	str	r3, [fp, #-88]	; 0xffffffa8
  f04e9c:	e51b300c 	ldr	r3, [fp, #-12]
  f04ea0:	e5932000 	ldr	r2, [r3]
  f04ea4:	e51b3064 	ldr	r3, [fp, #-100]	; 0xffffff9c
  f04ea8:	e1e03003 	mvn	r3, r3
  f04eac:	e0022003 	and	r2, r2, r3
  f04eb0:	e51b3038 	ldr	r3, [fp, #-56]	; 0xffffffc8
  f04eb4:	e1822003 	orr	r2, r2, r3
  f04eb8:	e51b300c 	ldr	r3, [fp, #-12]
  f04ebc:	e5832000 	str	r2, [r3]
  f04ec0:	e51b300c 	ldr	r3, [fp, #-12]
  f04ec4:	e5932000 	ldr	r2, [r3]
  f04ec8:	e51b3048 	ldr	r3, [fp, #-72]	; 0xffffffb8
  f04ecc:	e1e03003 	mvn	r3, r3
  f04ed0:	e0022003 	and	r2, r2, r3
  f04ed4:	e51b3040 	ldr	r3, [fp, #-64]	; 0xffffffc0
  f04ed8:	e1823003 	orr	r3, r2, r3
  f04edc:	e51b200c 	ldr	r2, [fp, #-12]
  f04ee0:	e5922000 	ldr	r2, [r2]
  f04ee4:	e1822003 	orr	r2, r2, r3
  f04ee8:	e51b300c 	ldr	r3, [fp, #-12]
  f04eec:	e5832000 	str	r2, [r3]
  f04ef0:	e51b300c 	ldr	r3, [fp, #-12]
  f04ef4:	e5932004 	ldr	r2, [r3, #4]
  f04ef8:	e51b305c 	ldr	r3, [fp, #-92]	; 0xffffffa4
  f04efc:	e1e03003 	mvn	r3, r3
  f04f00:	e0022003 	and	r2, r2, r3
  f04f04:	e51b3054 	ldr	r3, [fp, #-84]	; 0xffffffac
  f04f08:	e1822003 	orr	r2, r2, r3
  f04f0c:	e51b300c 	ldr	r3, [fp, #-12]
  f04f10:	e5832004 	str	r2, [r3, #4]
  f04f14:	e51b300c 	ldr	r3, [fp, #-12]
  f04f18:	e5932008 	ldr	r2, [r3, #8]
  f04f1c:	e51b3060 	ldr	r3, [fp, #-96]	; 0xffffffa0
  f04f20:	e1e03003 	mvn	r3, r3
  f04f24:	e0022003 	and	r2, r2, r3
  f04f28:	e51b3058 	ldr	r3, [fp, #-88]	; 0xffffffa8
  f04f2c:	e1822003 	orr	r2, r2, r3
  f04f30:	e51b300c 	ldr	r3, [fp, #-12]
  f04f34:	e5832008 	str	r2, [r3, #8]
  f04f38:	e51b3008 	ldr	r3, [fp, #-8]
  f04f3c:	e2833001 	add	r3, r3, #1
  f04f40:	e50b3008 	str	r3, [fp, #-8]
  f04f44:	e51b36f0 	ldr	r3, [fp, #-1776]	; 0xfffff910
  f04f48:	e51b2008 	ldr	r2, [fp, #-8]
  f04f4c:	e1520003 	cmp	r2, r3
  f04f50:	bafffe39 	blt	f0483c <bcm_ethsw_led_init+0x7c>
  f04f54:	e24b3e6e 	sub	r3, fp, #1760	; 0x6e0
  f04f58:	e2433004 	sub	r3, r3, #4
  f04f5c:	e243300e 	sub	r3, r3, #14
  f04f60:	e1a00003 	mov	r0, r3
  f04f64:	eb004d82 	bl	f18574 <BpGetAggregateLnkLedGpio>
  f04f68:	e1a03000 	mov	r3, r0
  f04f6c:	e3530000 	cmp	r3, #0
  f04f70:	1a000005 	bne	f04f8c <bcm_ethsw_led_init+0x7cc>
  f04f74:	e24b3e6f 	sub	r3, fp, #1776	; 0x6f0
  f04f78:	e2433004 	sub	r3, r3, #4
  f04f7c:	e1a00003 	mov	r0, r3
  f04f80:	eb004d86 	bl	f185a0 <BpGetAggregateActLedGpio>
  f04f84:	ea000000 	b	f04f8c <bcm_ethsw_led_init+0x7cc>
  f04f88:	e1a00000 	nop			; (mov r0, r0)
  f04f8c:	e24bd004 	sub	sp, fp, #4
  f04f90:	e8bd8800 	pop	{fp, pc}

00f04f94 <bcm_ethsw_phy_read_reg>:
  f04f94:	e92d4800 	push	{fp, lr}
  f04f98:	e28db004 	add	fp, sp, #4
  f04f9c:	e24dd018 	sub	sp, sp, #24
  f04fa0:	e50b0018 	str	r0, [fp, #-24]	; 0xffffffe8
  f04fa4:	e50b101c 	str	r1, [fp, #-28]	; 0xffffffe4
  f04fa8:	e3a03000 	mov	r3, #0
  f04fac:	e50b300c 	str	r3, [fp, #-12]
  f04fb0:	e3a03000 	mov	r3, #0
  f04fb4:	e50b3008 	str	r3, [fp, #-8]
  f04fb8:	e51b3018 	ldr	r3, [fp, #-24]	; 0xffffffe8
  f04fbc:	e203301f 	and	r3, r3, #31
  f04fc0:	e50b3018 	str	r3, [fp, #-24]	; 0xffffffe8
  f04fc4:	e51b3018 	ldr	r3, [fp, #-24]	; 0xffffffe8
  f04fc8:	e1a03a83 	lsl	r3, r3, #21
  f04fcc:	e203263e 	and	r2, r3, #65011712	; 0x3e00000
  f04fd0:	e51b301c 	ldr	r3, [fp, #-28]	; 0xffffffe4
  f04fd4:	e1a03803 	lsl	r3, r3, #16
  f04fd8:	e203381f 	and	r3, r3, #2031616	; 0x1f0000
  f04fdc:	e1823003 	orr	r3, r2, r3
  f04fe0:	e3833302 	orr	r3, r3, #134217728	; 0x8000000
  f04fe4:	e50b3010 	str	r3, [fp, #-16]
  f04fe8:	e3a03c13 	mov	r3, #4864	; 0x1300
  f04fec:	e3483041 	movt	r3, #32833	; 0x8041
  f04ff0:	e51b2010 	ldr	r2, [fp, #-16]
  f04ff4:	e3822202 	orr	r2, r2, #536870912	; 0x20000000
  f04ff8:	e5832000 	str	r2, [r3]
  f04ffc:	e51b3008 	ldr	r3, [fp, #-8]
  f05000:	e2833001 	add	r3, r3, #1
  f05004:	e50b3008 	str	r3, [fp, #-8]
  f05008:	e51b3008 	ldr	r3, [fp, #-8]
  f0500c:	e3530009 	cmp	r3, #9
  f05010:	da000008 	ble	f05038 <bcm_ethsw_phy_read_reg+0xa4>
  f05014:	e51b301c 	ldr	r3, [fp, #-28]	; 0xffffffe4
  f05018:	e51b2018 	ldr	r2, [fp, #-24]	; 0xffffffe8
  f0501c:	e30b1004 	movw	r1, #45060	; 0xb004
  f05020:	e34010f5 	movt	r1, #245	; 0xf5
  f05024:	e3020c90 	movw	r0, #11408	; 0x2c90
  f05028:	e34000f5 	movt	r0, #245	; 0xf5
  f0502c:	eb00d864 	bl	f3b1c4 <xprintf>
  f05030:	e3a03000 	mov	r3, #0
  f05034:	ea00002b 	b	f050e8 <bcm_ethsw_phy_read_reg+0x154>
  f05038:	e3a0003c 	mov	r0, #60	; 0x3c
  f0503c:	eb00e524 	bl	f3e4d4 <cfe_usleep>
  f05040:	e3a03c13 	mov	r3, #4864	; 0x1300
  f05044:	e3483041 	movt	r3, #32833	; 0x8041
  f05048:	e5933000 	ldr	r3, [r3]
  f0504c:	e50b300c 	str	r3, [fp, #-12]
  f05050:	e51b300c 	ldr	r3, [fp, #-12]
  f05054:	e2033202 	and	r3, r3, #536870912	; 0x20000000
  f05058:	e3530000 	cmp	r3, #0
  f0505c:	1affffe6 	bne	f04ffc <bcm_ethsw_phy_read_reg+0x68>
  f05060:	e3a03c13 	mov	r3, #4864	; 0x1300
  f05064:	e3483041 	movt	r3, #32833	; 0x8041
  f05068:	e51b2010 	ldr	r2, [fp, #-16]
  f0506c:	e3822202 	orr	r2, r2, #536870912	; 0x20000000
  f05070:	e5832000 	str	r2, [r3]
  f05074:	e3a03000 	mov	r3, #0
  f05078:	e50b3008 	str	r3, [fp, #-8]
  f0507c:	e51b3008 	ldr	r3, [fp, #-8]
  f05080:	e2833001 	add	r3, r3, #1
  f05084:	e50b3008 	str	r3, [fp, #-8]
  f05088:	e51b3008 	ldr	r3, [fp, #-8]
  f0508c:	e3530009 	cmp	r3, #9
  f05090:	da000008 	ble	f050b8 <bcm_ethsw_phy_read_reg+0x124>
  f05094:	e51b301c 	ldr	r3, [fp, #-28]	; 0xffffffe4
  f05098:	e51b2018 	ldr	r2, [fp, #-24]	; 0xffffffe8
  f0509c:	e30b1004 	movw	r1, #45060	; 0xb004
  f050a0:	e34010f5 	movt	r1, #245	; 0xf5
  f050a4:	e3020c90 	movw	r0, #11408	; 0x2c90
  f050a8:	e34000f5 	movt	r0, #245	; 0xf5
  f050ac:	eb00d844 	bl	f3b1c4 <xprintf>
  f050b0:	e3a03000 	mov	r3, #0
  f050b4:	ea00000b 	b	f050e8 <bcm_ethsw_phy_read_reg+0x154>
  f050b8:	e3a0003c 	mov	r0, #60	; 0x3c
  f050bc:	eb00e504 	bl	f3e4d4 <cfe_usleep>
  f050c0:	e3a03c13 	mov	r3, #4864	; 0x1300
  f050c4:	e3483041 	movt	r3, #32833	; 0x8041
  f050c8:	e5933000 	ldr	r3, [r3]
  f050cc:	e50b300c 	str	r3, [fp, #-12]
  f050d0:	e51b300c 	ldr	r3, [fp, #-12]
  f050d4:	e2033202 	and	r3, r3, #536870912	; 0x20000000
  f050d8:	e3530000 	cmp	r3, #0
  f050dc:	1affffe6 	bne	f0507c <bcm_ethsw_phy_read_reg+0xe8>
  f050e0:	e51b300c 	ldr	r3, [fp, #-12]
  f050e4:	e6ff3073 	uxth	r3, r3
  f050e8:	e1a00003 	mov	r0, r3
  f050ec:	e24bd004 	sub	sp, fp, #4
  f050f0:	e8bd8800 	pop	{fp, pc}

00f050f4 <bcm_ethsw_phy_write_reg>:
  f050f4:	e92d4800 	push	{fp, lr}
  f050f8:	e28db004 	add	fp, sp, #4
  f050fc:	e24dd018 	sub	sp, sp, #24
  f05100:	e50b0010 	str	r0, [fp, #-16]
  f05104:	e50b1014 	str	r1, [fp, #-20]	; 0xffffffec
  f05108:	e1a03002 	mov	r3, r2
  f0510c:	e14b31b6 	strh	r3, [fp, #-22]	; 0xffffffea
  f05110:	e3a03000 	mov	r3, #0
  f05114:	e50b300c 	str	r3, [fp, #-12]
  f05118:	e3a03000 	mov	r3, #0
  f0511c:	e50b3008 	str	r3, [fp, #-8]
  f05120:	e51b3010 	ldr	r3, [fp, #-16]
  f05124:	e203301f 	and	r3, r3, #31
  f05128:	e50b3010 	str	r3, [fp, #-16]
  f0512c:	e51b3010 	ldr	r3, [fp, #-16]
  f05130:	e1a03a83 	lsl	r3, r3, #21
  f05134:	e203263e 	and	r2, r3, #65011712	; 0x3e00000
  f05138:	e51b3014 	ldr	r3, [fp, #-20]	; 0xffffffec
  f0513c:	e1a03803 	lsl	r3, r3, #16
  f05140:	e203381f 	and	r3, r3, #2031616	; 0x1f0000
  f05144:	e1823003 	orr	r3, r2, r3
  f05148:	e3832301 	orr	r2, r3, #67108864	; 0x4000000
  f0514c:	e15b31b6 	ldrh	r3, [fp, #-22]	; 0xffffffea
  f05150:	e1823003 	orr	r3, r2, r3
  f05154:	e50b300c 	str	r3, [fp, #-12]
  f05158:	e3a03c13 	mov	r3, #4864	; 0x1300
  f0515c:	e3483041 	movt	r3, #32833	; 0x8041
  f05160:	e51b200c 	ldr	r2, [fp, #-12]
  f05164:	e3822202 	orr	r2, r2, #536870912	; 0x20000000
  f05168:	e5832000 	str	r2, [r3]
  f0516c:	e51b3008 	ldr	r3, [fp, #-8]
  f05170:	e2833001 	add	r3, r3, #1
  f05174:	e50b3008 	str	r3, [fp, #-8]
  f05178:	e51b3008 	ldr	r3, [fp, #-8]
  f0517c:	e3530009 	cmp	r3, #9
  f05180:	da000007 	ble	f051a4 <bcm_ethsw_phy_write_reg+0xb0>
  f05184:	e51b3014 	ldr	r3, [fp, #-20]	; 0xffffffec
  f05188:	e51b2010 	ldr	r2, [fp, #-16]
  f0518c:	e30b101c 	movw	r1, #45084	; 0xb01c
  f05190:	e34010f5 	movt	r1, #245	; 0xf5
  f05194:	e3020cbc 	movw	r0, #11452	; 0x2cbc
  f05198:	e34000f5 	movt	r0, #245	; 0xf5
  f0519c:	eb00d808 	bl	f3b1c4 <xprintf>
  f051a0:	ea00000a 	b	f051d0 <bcm_ethsw_phy_write_reg+0xdc>
  f051a4:	e3a0003c 	mov	r0, #60	; 0x3c
  f051a8:	eb00e4c9 	bl	f3e4d4 <cfe_usleep>
  f051ac:	e3a03c13 	mov	r3, #4864	; 0x1300
  f051b0:	e3483041 	movt	r3, #32833	; 0x8041
  f051b4:	e5933000 	ldr	r3, [r3]
  f051b8:	e50b300c 	str	r3, [fp, #-12]
  f051bc:	e51b300c 	ldr	r3, [fp, #-12]
  f051c0:	e2033202 	and	r3, r3, #536870912	; 0x20000000
  f051c4:	e3530000 	cmp	r3, #0
  f051c8:	1affffe7 	bne	f0516c <bcm_ethsw_phy_write_reg+0x78>
  f051cc:	e1a00000 	nop			; (mov r0, r0)
  f051d0:	e24bd004 	sub	sp, fp, #4
  f051d4:	e8bd8800 	pop	{fp, pc}

00f051d8 <bcm_ethsw_phy_write_exp_reg>:
  f051d8:	e92d4800 	push	{fp, lr}
  f051dc:	e28db004 	add	fp, sp, #4
  f051e0:	e24dd010 	sub	sp, sp, #16
  f051e4:	e50b0008 	str	r0, [fp, #-8]
  f051e8:	e50b100c 	str	r1, [fp, #-12]
  f051ec:	e1a03002 	mov	r3, r2
  f051f0:	e14b30be 	strh	r3, [fp, #-14]
  f051f4:	e51b300c 	ldr	r3, [fp, #-12]
  f051f8:	e6bf3073 	sxth	r3, r3
  f051fc:	e3833c0f 	orr	r3, r3, #3840	; 0xf00
  f05200:	e6bf3073 	sxth	r3, r3
  f05204:	e6ff3073 	uxth	r3, r3
  f05208:	e1a02003 	mov	r2, r3
  f0520c:	e3a01017 	mov	r1, #23
  f05210:	e51b0008 	ldr	r0, [fp, #-8]
  f05214:	ebffffb6 	bl	f050f4 <bcm_ethsw_phy_write_reg>
  f05218:	e15b30be 	ldrh	r3, [fp, #-14]
  f0521c:	e1a02003 	mov	r2, r3
  f05220:	e3a01015 	mov	r1, #21
  f05224:	e51b0008 	ldr	r0, [fp, #-8]
  f05228:	ebffffb1 	bl	f050f4 <bcm_ethsw_phy_write_reg>
  f0522c:	e1a00000 	nop			; (mov r0, r0)
  f05230:	e24bd004 	sub	sp, fp, #4
  f05234:	e8bd8800 	pop	{fp, pc}

00f05238 <bcm_ethsw_phy_write_misc_reg>:
  f05238:	e92d4800 	push	{fp, lr}
  f0523c:	e28db004 	add	fp, sp, #4
  f05240:	e24dd018 	sub	sp, sp, #24
  f05244:	e50b0010 	str	r0, [fp, #-16]
  f05248:	e50b1014 	str	r1, [fp, #-20]	; 0xffffffec
  f0524c:	e50b2018 	str	r2, [fp, #-24]	; 0xffffffe8
  f05250:	e14b31ba 	strh	r3, [fp, #-26]	; 0xffffffe6
  f05254:	e3a02007 	mov	r2, #7
  f05258:	e3a01018 	mov	r1, #24
  f0525c:	e51b0010 	ldr	r0, [fp, #-16]
  f05260:	ebffffa3 	bl	f050f4 <bcm_ethsw_phy_write_reg>
  f05264:	e3a01018 	mov	r1, #24
  f05268:	e51b0010 	ldr	r0, [fp, #-16]
  f0526c:	ebffff48 	bl	f04f94 <bcm_ethsw_phy_read_reg>
  f05270:	e1a03000 	mov	r3, r0
  f05274:	e14b30b6 	strh	r3, [fp, #-6]
  f05278:	e15b30b6 	ldrh	r3, [fp, #-6]
  f0527c:	e3833b02 	orr	r3, r3, #2048	; 0x800
  f05280:	e14b30b6 	strh	r3, [fp, #-6]
  f05284:	e15b30b6 	ldrh	r3, [fp, #-6]
  f05288:	e1a02003 	mov	r2, r3
  f0528c:	e3a01018 	mov	r1, #24
  f05290:	e51b0010 	ldr	r0, [fp, #-16]
  f05294:	ebffff96 	bl	f050f4 <bcm_ethsw_phy_write_reg>
  f05298:	e51b3018 	ldr	r3, [fp, #-24]	; 0xffffffe8
  f0529c:	e1a03683 	lsl	r3, r3, #13
  f052a0:	e6bf2073 	sxth	r2, r3
  f052a4:	e51b3014 	ldr	r3, [fp, #-20]	; 0xffffffec
  f052a8:	e6bf3073 	sxth	r3, r3
  f052ac:	e1823003 	orr	r3, r2, r3
  f052b0:	e6bf3073 	sxth	r3, r3
  f052b4:	e14b30b6 	strh	r3, [fp, #-6]
  f052b8:	e15b30b6 	ldrh	r3, [fp, #-6]
  f052bc:	e1a02003 	mov	r2, r3
  f052c0:	e3a01017 	mov	r1, #23
  f052c4:	e51b0010 	ldr	r0, [fp, #-16]
  f052c8:	ebffff89 	bl	f050f4 <bcm_ethsw_phy_write_reg>
  f052cc:	e15b31ba 	ldrh	r3, [fp, #-26]	; 0xffffffe6
  f052d0:	e1a02003 	mov	r2, r3
  f052d4:	e3a01015 	mov	r1, #21
  f052d8:	e51b0010 	ldr	r0, [fp, #-16]
  f052dc:	ebffff84 	bl	f050f4 <bcm_ethsw_phy_write_reg>
  f052e0:	e1a00000 	nop			; (mov r0, r0)
  f052e4:	e24bd004 	sub	sp, fp, #4
  f052e8:	e8bd8800 	pop	{fp, pc}

00f052ec <phy_advertise_caps>:
  f052ec:	e92d4800 	push	{fp, lr}
  f052f0:	e28db004 	add	fp, sp, #4
  f052f4:	e24dd010 	sub	sp, sp, #16
  f052f8:	e50b0010 	str	r0, [fp, #-16]
  f052fc:	e3a03000 	mov	r3, #0
  f05300:	e14b30b6 	strh	r3, [fp, #-6]
  f05304:	e51b3010 	ldr	r3, [fp, #-16]
  f05308:	e2033501 	and	r3, r3, #4194304	; 0x400000
  f0530c:	e3530000 	cmp	r3, #0
  f05310:	0a000006 	beq	f05330 <phy_advertise_caps+0x44>
  f05314:	e51b3010 	ldr	r3, [fp, #-16]
  f05318:	e2033602 	and	r3, r3, #2097152	; 0x200000
  f0531c:	e3530000 	cmp	r3, #0
  f05320:	03a03001 	moveq	r3, #1
  f05324:	13a03000 	movne	r3, #0
  f05328:	e6ef3073 	uxtb	r3, r3
  f0532c:	ea000005 	b	f05348 <phy_advertise_caps+0x5c>
  f05330:	e51b3010 	ldr	r3, [fp, #-16]
  f05334:	e6ef3073 	uxtb	r3, r3
  f05338:	e35300ff 	cmp	r3, #255	; 0xff
  f0533c:	13a03001 	movne	r3, #1
  f05340:	03a03000 	moveq	r3, #0
  f05344:	e6ef3073 	uxtb	r3, r3
  f05348:	e3530000 	cmp	r3, #0
  f0534c:	0a000049 	beq	f05478 <phy_advertise_caps+0x18c>
  f05350:	e51b3010 	ldr	r3, [fp, #-16]
  f05354:	e2033701 	and	r3, r3, #262144	; 0x40000
  f05358:	e3530000 	cmp	r3, #0
  f0535c:	0a000045 	beq	f05478 <phy_advertise_caps+0x18c>
  f05360:	e51b3010 	ldr	r3, [fp, #-16]
  f05364:	e3a01004 	mov	r1, #4
  f05368:	e1a00003 	mov	r0, r3
  f0536c:	ebffff08 	bl	f04f94 <bcm_ethsw_phy_read_reg>
  f05370:	e1a03000 	mov	r3, r0
  f05374:	e14b30b6 	strh	r3, [fp, #-6]
  f05378:	e15b30b6 	ldrh	r3, [fp, #-6]
  f0537c:	e3c33e1e 	bic	r3, r3, #480	; 0x1e0
  f05380:	e14b30b6 	strh	r3, [fp, #-6]
  f05384:	e51b3010 	ldr	r3, [fp, #-16]
  f05388:	e2033a01 	and	r3, r3, #4096	; 0x1000
  f0538c:	e3530000 	cmp	r3, #0
  f05390:	0a000002 	beq	f053a0 <phy_advertise_caps+0xb4>
  f05394:	e15b30b6 	ldrh	r3, [fp, #-6]
  f05398:	e3833020 	orr	r3, r3, #32
  f0539c:	e14b30b6 	strh	r3, [fp, #-6]
  f053a0:	e51b3010 	ldr	r3, [fp, #-16]
  f053a4:	e2033a02 	and	r3, r3, #8192	; 0x2000
  f053a8:	e3530000 	cmp	r3, #0
  f053ac:	0a000002 	beq	f053bc <phy_advertise_caps+0xd0>
  f053b0:	e15b30b6 	ldrh	r3, [fp, #-6]
  f053b4:	e3833040 	orr	r3, r3, #64	; 0x40
  f053b8:	e14b30b6 	strh	r3, [fp, #-6]
  f053bc:	e51b3010 	ldr	r3, [fp, #-16]
  f053c0:	e2033901 	and	r3, r3, #16384	; 0x4000
  f053c4:	e3530000 	cmp	r3, #0
  f053c8:	0a000002 	beq	f053d8 <phy_advertise_caps+0xec>
  f053cc:	e15b30b6 	ldrh	r3, [fp, #-6]
  f053d0:	e3833080 	orr	r3, r3, #128	; 0x80
  f053d4:	e14b30b6 	strh	r3, [fp, #-6]
  f053d8:	e51b3010 	ldr	r3, [fp, #-16]
  f053dc:	e2033902 	and	r3, r3, #32768	; 0x8000
  f053e0:	e3530000 	cmp	r3, #0
  f053e4:	0a000002 	beq	f053f4 <phy_advertise_caps+0x108>
  f053e8:	e15b30b6 	ldrh	r3, [fp, #-6]
  f053ec:	e3833c01 	orr	r3, r3, #256	; 0x100
  f053f0:	e14b30b6 	strh	r3, [fp, #-6]
  f053f4:	e51b3010 	ldr	r3, [fp, #-16]
  f053f8:	e15b20b6 	ldrh	r2, [fp, #-6]
  f053fc:	e3a01004 	mov	r1, #4
  f05400:	e1a00003 	mov	r0, r3
  f05404:	ebffff3a 	bl	f050f4 <bcm_ethsw_phy_write_reg>
  f05408:	e51b3010 	ldr	r3, [fp, #-16]
  f0540c:	e3a01009 	mov	r1, #9
  f05410:	e1a00003 	mov	r0, r3
  f05414:	ebfffede 	bl	f04f94 <bcm_ethsw_phy_read_reg>
  f05418:	e1a03000 	mov	r3, r0
  f0541c:	e14b30b6 	strh	r3, [fp, #-6]
  f05420:	e15b30b6 	ldrh	r3, [fp, #-6]
  f05424:	e3c33c03 	bic	r3, r3, #768	; 0x300
  f05428:	e14b30b6 	strh	r3, [fp, #-6]
  f0542c:	e51b3010 	ldr	r3, [fp, #-16]
  f05430:	e2033801 	and	r3, r3, #65536	; 0x10000
  f05434:	e3530000 	cmp	r3, #0
  f05438:	0a000002 	beq	f05448 <phy_advertise_caps+0x15c>
  f0543c:	e15b30b6 	ldrh	r3, [fp, #-6]
  f05440:	e3833c01 	orr	r3, r3, #256	; 0x100
  f05444:	e14b30b6 	strh	r3, [fp, #-6]
  f05448:	e51b3010 	ldr	r3, [fp, #-16]
  f0544c:	e2033802 	and	r3, r3, #131072	; 0x20000
  f05450:	e3530000 	cmp	r3, #0
  f05454:	0a000002 	beq	f05464 <phy_advertise_caps+0x178>
  f05458:	e15b30b6 	ldrh	r3, [fp, #-6]
  f0545c:	e3833c02 	orr	r3, r3, #512	; 0x200
  f05460:	e14b30b6 	strh	r3, [fp, #-6]
  f05464:	e51b3010 	ldr	r3, [fp, #-16]
  f05468:	e15b20b6 	ldrh	r2, [fp, #-6]
  f0546c:	e3a01009 	mov	r1, #9
  f05470:	e1a00003 	mov	r0, r3
  f05474:	ebffff1e 	bl	f050f4 <bcm_ethsw_phy_write_reg>
  f05478:	e51b3010 	ldr	r3, [fp, #-16]
  f0547c:	e3a01009 	mov	r1, #9
  f05480:	e1a00003 	mov	r0, r3
  f05484:	ebfffec2 	bl	f04f94 <bcm_ethsw_phy_read_reg>
  f05488:	e1a03000 	mov	r3, r0
  f0548c:	e14b30b6 	strh	r3, [fp, #-6]
  f05490:	e15b30b6 	ldrh	r3, [fp, #-6]
  f05494:	e3833b01 	orr	r3, r3, #1024	; 0x400
  f05498:	e14b30b6 	strh	r3, [fp, #-6]
  f0549c:	e51b3010 	ldr	r3, [fp, #-16]
  f054a0:	e15b20b6 	ldrh	r2, [fp, #-6]
  f054a4:	e3a01009 	mov	r1, #9
  f054a8:	e1a00003 	mov	r0, r3
  f054ac:	ebffff10 	bl	f050f4 <bcm_ethsw_phy_write_reg>
  f054b0:	e1a00000 	nop			; (mov r0, r0)
  f054b4:	e24bd004 	sub	sp, fp, #4
  f054b8:	e8bd8800 	pop	{fp, pc}

00f054bc <phy_write_ext_bank_reg>:
  f054bc:	e92d4800 	push	{fp, lr}
  f054c0:	e28db004 	add	fp, sp, #4
  f054c4:	e24dd018 	sub	sp, sp, #24
  f054c8:	e50b0010 	str	r0, [fp, #-16]
  f054cc:	e50b1014 	str	r1, [fp, #-20]	; 0xffffffec
  f054d0:	e1a03002 	mov	r3, r2
  f054d4:	e14b31b6 	strh	r3, [fp, #-22]	; 0xffffffea
  f054d8:	e51b3014 	ldr	r3, [fp, #-20]	; 0xffffffec
  f054dc:	e6ff3073 	uxth	r3, r3
  f054e0:	e3c3300f 	bic	r3, r3, #15
  f054e4:	e14b30b6 	strh	r3, [fp, #-6]
  f054e8:	e51b3014 	ldr	r3, [fp, #-20]	; 0xffffffec
  f054ec:	e6ff3073 	uxth	r3, r3
  f054f0:	e203300f 	and	r3, r3, #15
  f054f4:	e6ff3073 	uxth	r3, r3
  f054f8:	e2833010 	add	r3, r3, #16
  f054fc:	e14b30b8 	strh	r3, [fp, #-8]
  f05500:	e15b30b6 	ldrh	r3, [fp, #-6]
  f05504:	e1a02003 	mov	r2, r3
  f05508:	e3a0101f 	mov	r1, #31
  f0550c:	e51b0010 	ldr	r0, [fp, #-16]
  f05510:	ebfffef7 	bl	f050f4 <bcm_ethsw_phy_write_reg>
  f05514:	e15b30b8 	ldrh	r3, [fp, #-8]
  f05518:	e15b21b6 	ldrh	r2, [fp, #-22]	; 0xffffffea
  f0551c:	e1a01003 	mov	r1, r3
  f05520:	e51b0010 	ldr	r0, [fp, #-16]
  f05524:	ebfffef2 	bl	f050f4 <bcm_ethsw_phy_write_reg>
  f05528:	e15b30b6 	ldrh	r3, [fp, #-6]
  f0552c:	e3530902 	cmp	r3, #32768	; 0x8000
  f05530:	1a000002 	bne	f05540 <phy_write_ext_bank_reg+0x84>
  f05534:	e15b30b8 	ldrh	r3, [fp, #-8]
  f05538:	e3530010 	cmp	r3, #16
  f0553c:	1a000003 	bne	f05550 <phy_write_ext_bank_reg+0x94>
  f05540:	e3a02902 	mov	r2, #32768	; 0x8000
  f05544:	e3a0101f 	mov	r1, #31
  f05548:	e51b0010 	ldr	r0, [fp, #-16]
  f0554c:	ebfffee8 	bl	f050f4 <bcm_ethsw_phy_write_reg>
  f05550:	e1a00000 	nop			; (mov r0, r0)
  f05554:	e24bd004 	sub	sp, fp, #4
  f05558:	e8bd8800 	pop	{fp, pc}

00f0555c <sw_rreg>:
  f0555c:	e92d4800 	push	{fp, lr}
  f05560:	e28db004 	add	fp, sp, #4
  f05564:	e24dd020 	sub	sp, sp, #32
  f05568:	e50b0018 	str	r0, [fp, #-24]	; 0xffffffe8
  f0556c:	e50b101c 	str	r1, [fp, #-28]	; 0xffffffe4
  f05570:	e50b2020 	str	r2, [fp, #-32]	; 0xffffffe0
  f05574:	e3a03000 	mov	r3, #0
  f05578:	e50b3014 	str	r3, [fp, #-20]	; 0xffffffec
  f0557c:	e24b3014 	sub	r3, fp, #20
  f05580:	e50b300c 	str	r3, [fp, #-12]
  f05584:	e51b3018 	ldr	r3, [fp, #-24]	; 0xffffffe8
  f05588:	e1a03403 	lsl	r3, r3, #8
  f0558c:	e6bf3073 	sxth	r3, r3
  f05590:	e3833001 	orr	r3, r3, #1
  f05594:	e6bf3073 	sxth	r3, r3
  f05598:	e14b30be 	strh	r3, [fp, #-14]
  f0559c:	e15b30be 	ldrh	r3, [fp, #-14]
  f055a0:	e1a02003 	mov	r2, r3
  f055a4:	e3a01010 	mov	r1, #16
  f055a8:	e3a0001e 	mov	r0, #30
  f055ac:	ebfffed0 	bl	f050f4 <bcm_ethsw_phy_write_reg>
  f055b0:	e51b301c 	ldr	r3, [fp, #-28]	; 0xffffffe4
  f055b4:	e1a03403 	lsl	r3, r3, #8
  f055b8:	e6bf3073 	sxth	r3, r3
  f055bc:	e3833002 	orr	r3, r3, #2
  f055c0:	e6bf3073 	sxth	r3, r3
  f055c4:	e14b30be 	strh	r3, [fp, #-14]
  f055c8:	e15b30be 	ldrh	r3, [fp, #-14]
  f055cc:	e1a02003 	mov	r2, r3
  f055d0:	e3a01011 	mov	r1, #17
  f055d4:	e3a0001e 	mov	r0, #30
  f055d8:	ebfffec5 	bl	f050f4 <bcm_ethsw_phy_write_reg>
  f055dc:	e3a03000 	mov	r3, #0
  f055e0:	e50b3008 	str	r3, [fp, #-8]
  f055e4:	ea00000d 	b	f05620 <sw_rreg+0xc4>
  f055e8:	e3a01011 	mov	r1, #17
  f055ec:	e3a0001e 	mov	r0, #30
  f055f0:	ebfffe67 	bl	f04f94 <bcm_ethsw_phy_read_reg>
  f055f4:	e1a03000 	mov	r3, r0
  f055f8:	e14b30be 	strh	r3, [fp, #-14]
  f055fc:	e15b30be 	ldrh	r3, [fp, #-14]
  f05600:	e2033003 	and	r3, r3, #3
  f05604:	e3530000 	cmp	r3, #0
  f05608:	0a000008 	beq	f05630 <sw_rreg+0xd4>
  f0560c:	e3a0000a 	mov	r0, #10
  f05610:	eb00e3af 	bl	f3e4d4 <cfe_usleep>
  f05614:	e51b3008 	ldr	r3, [fp, #-8]
  f05618:	e2833001 	add	r3, r3, #1
  f0561c:	e50b3008 	str	r3, [fp, #-8]
  f05620:	e51b3008 	ldr	r3, [fp, #-8]
  f05624:	e3530013 	cmp	r3, #19
  f05628:	daffffee 	ble	f055e8 <sw_rreg+0x8c>
  f0562c:	ea000000 	b	f05634 <sw_rreg+0xd8>
  f05630:	e1a00000 	nop			; (mov r0, r0)
  f05634:	e51b3008 	ldr	r3, [fp, #-8]
  f05638:	e3530013 	cmp	r3, #19
  f0563c:	da000004 	ble	f05654 <sw_rreg+0xf8>
  f05640:	e3020ce4 	movw	r0, #11492	; 0x2ce4
  f05644:	e34000f5 	movt	r0, #245	; 0xf5
  f05648:	eb00d6dd 	bl	f3b1c4 <xprintf>
  f0564c:	e51b3014 	ldr	r3, [fp, #-20]	; 0xffffffec
  f05650:	ea000034 	b	f05728 <sw_rreg+0x1cc>
  f05654:	e51b3020 	ldr	r3, [fp, #-32]	; 0xffffffe0
  f05658:	e3530002 	cmp	r3, #2
  f0565c:	0a00000e 	beq	f0569c <sw_rreg+0x140>
  f05660:	e3530004 	cmp	r3, #4
  f05664:	0a000015 	beq	f056c0 <sw_rreg+0x164>
  f05668:	e3530001 	cmp	r3, #1
  f0566c:	1a000025 	bne	f05708 <sw_rreg+0x1ac>
  f05670:	e3a01018 	mov	r1, #24
  f05674:	e3a0001e 	mov	r0, #30
  f05678:	ebfffe45 	bl	f04f94 <bcm_ethsw_phy_read_reg>
  f0567c:	e1a03000 	mov	r3, r0
  f05680:	e14b30be 	strh	r3, [fp, #-14]
  f05684:	e15b30be 	ldrh	r3, [fp, #-14]
  f05688:	e6ef3073 	uxtb	r3, r3
  f0568c:	e6ff2073 	uxth	r2, r3
  f05690:	e51b300c 	ldr	r3, [fp, #-12]
  f05694:	e1c320b0 	strh	r2, [r3]
  f05698:	ea000021 	b	f05724 <sw_rreg+0x1c8>
  f0569c:	e3a01018 	mov	r1, #24
  f056a0:	e3a0001e 	mov	r0, #30
  f056a4:	ebfffe3a 	bl	f04f94 <bcm_ethsw_phy_read_reg>
  f056a8:	e1a03000 	mov	r3, r0
  f056ac:	e14b30be 	strh	r3, [fp, #-14]
  f056b0:	e51b300c 	ldr	r3, [fp, #-12]
  f056b4:	e15b20be 	ldrh	r2, [fp, #-14]
  f056b8:	e1c320b0 	strh	r2, [r3]
  f056bc:	ea000018 	b	f05724 <sw_rreg+0x1c8>
  f056c0:	e3a01018 	mov	r1, #24
  f056c4:	e3a0001e 	mov	r0, #30
  f056c8:	ebfffe31 	bl	f04f94 <bcm_ethsw_phy_read_reg>
  f056cc:	e1a03000 	mov	r3, r0
  f056d0:	e14b30be 	strh	r3, [fp, #-14]
  f056d4:	e51b300c 	ldr	r3, [fp, #-12]
  f056d8:	e15b20be 	ldrh	r2, [fp, #-14]
  f056dc:	e1c320b0 	strh	r2, [r3]
  f056e0:	e3a01019 	mov	r1, #25
  f056e4:	e3a0001e 	mov	r0, #30
  f056e8:	ebfffe29 	bl	f04f94 <bcm_ethsw_phy_read_reg>
  f056ec:	e1a03000 	mov	r3, r0
  f056f0:	e14b30be 	strh	r3, [fp, #-14]
  f056f4:	e51b300c 	ldr	r3, [fp, #-12]
  f056f8:	e2833002 	add	r3, r3, #2
  f056fc:	e15b20be 	ldrh	r2, [fp, #-14]
  f05700:	e1c320b0 	strh	r2, [r3]
  f05704:	ea000006 	b	f05724 <sw_rreg+0x1c8>
  f05708:	e51b2020 	ldr	r2, [fp, #-32]	; 0xffffffe0
  f0570c:	e30b1034 	movw	r1, #45108	; 0xb034
  f05710:	e34010f5 	movt	r1, #245	; 0xf5
  f05714:	e3020d00 	movw	r0, #11520	; 0x2d00
  f05718:	e34000f5 	movt	r0, #245	; 0xf5
  f0571c:	eb00d6a8 	bl	f3b1c4 <xprintf>
  f05720:	e1a00000 	nop			; (mov r0, r0)
  f05724:	e51b3014 	ldr	r3, [fp, #-20]	; 0xffffffec
  f05728:	e1a00003 	mov	r0, r3
  f0572c:	e24bd004 	sub	sp, fp, #4
  f05730:	e8bd8800 	pop	{fp, pc}

00f05734 <sw_wreg>:
  f05734:	e92d4800 	push	{fp, lr}
  f05738:	e28db004 	add	fp, sp, #4
  f0573c:	e24dd020 	sub	sp, sp, #32
  f05740:	e50b0018 	str	r0, [fp, #-24]	; 0xffffffe8
  f05744:	e50b101c 	str	r1, [fp, #-28]	; 0xffffffe4
  f05748:	e50b2020 	str	r2, [fp, #-32]	; 0xffffffe0
  f0574c:	e50b3024 	str	r3, [fp, #-36]	; 0xffffffdc
  f05750:	e24b3020 	sub	r3, fp, #32
  f05754:	e50b300c 	str	r3, [fp, #-12]
  f05758:	e51b3018 	ldr	r3, [fp, #-24]	; 0xffffffe8
  f0575c:	e1a03403 	lsl	r3, r3, #8
  f05760:	e6bf3073 	sxth	r3, r3
  f05764:	e3833001 	orr	r3, r3, #1
  f05768:	e6bf3073 	sxth	r3, r3
  f0576c:	e14b30be 	strh	r3, [fp, #-14]
  f05770:	e15b30be 	ldrh	r3, [fp, #-14]
  f05774:	e1a02003 	mov	r2, r3
  f05778:	e3a01010 	mov	r1, #16
  f0577c:	e3a0001e 	mov	r0, #30
  f05780:	ebfffe5b 	bl	f050f4 <bcm_ethsw_phy_write_reg>
  f05784:	e51b3024 	ldr	r3, [fp, #-36]	; 0xffffffdc
  f05788:	e3530002 	cmp	r3, #2
  f0578c:	0a00000d 	beq	f057c8 <sw_wreg+0x94>
  f05790:	e3530004 	cmp	r3, #4
  f05794:	0a000012 	beq	f057e4 <sw_wreg+0xb0>
  f05798:	e3530001 	cmp	r3, #1
  f0579c:	1a00001e 	bne	f0581c <sw_wreg+0xe8>
  f057a0:	e51b300c 	ldr	r3, [fp, #-12]
  f057a4:	e1d330b0 	ldrh	r3, [r3]
  f057a8:	e6ef3073 	uxtb	r3, r3
  f057ac:	e14b30be 	strh	r3, [fp, #-14]
  f057b0:	e15b30be 	ldrh	r3, [fp, #-14]
  f057b4:	e1a02003 	mov	r2, r3
  f057b8:	e3a01018 	mov	r1, #24
  f057bc:	e3a0001e 	mov	r0, #30
  f057c0:	ebfffe4b 	bl	f050f4 <bcm_ethsw_phy_write_reg>
  f057c4:	ea00001b 	b	f05838 <sw_wreg+0x104>
  f057c8:	e51b300c 	ldr	r3, [fp, #-12]
  f057cc:	e1d330b0 	ldrh	r3, [r3]
  f057d0:	e1a02003 	mov	r2, r3
  f057d4:	e3a01018 	mov	r1, #24
  f057d8:	e3a0001e 	mov	r0, #30
  f057dc:	ebfffe44 	bl	f050f4 <bcm_ethsw_phy_write_reg>
  f057e0:	ea000014 	b	f05838 <sw_wreg+0x104>
  f057e4:	e51b300c 	ldr	r3, [fp, #-12]
  f057e8:	e1d330b0 	ldrh	r3, [r3]
  f057ec:	e1a02003 	mov	r2, r3
  f057f0:	e3a01018 	mov	r1, #24
  f057f4:	e3a0001e 	mov	r0, #30
  f057f8:	ebfffe3d 	bl	f050f4 <bcm_ethsw_phy_write_reg>
  f057fc:	e51b300c 	ldr	r3, [fp, #-12]
  f05800:	e2833002 	add	r3, r3, #2
  f05804:	e1d330b0 	ldrh	r3, [r3]
  f05808:	e1a02003 	mov	r2, r3
  f0580c:	e3a01019 	mov	r1, #25
  f05810:	e3a0001e 	mov	r0, #30
  f05814:	ebfffe36 	bl	f050f4 <bcm_ethsw_phy_write_reg>
  f05818:	ea000006 	b	f05838 <sw_wreg+0x104>
  f0581c:	e51b2024 	ldr	r2, [fp, #-36]	; 0xffffffdc
  f05820:	e30b103c 	movw	r1, #45116	; 0xb03c
  f05824:	e34010f5 	movt	r1, #245	; 0xf5
  f05828:	e3020d00 	movw	r0, #11520	; 0x2d00
  f0582c:	e34000f5 	movt	r0, #245	; 0xf5
  f05830:	eb00d663 	bl	f3b1c4 <xprintf>
  f05834:	ea000026 	b	f058d4 <sw_wreg+0x1a0>
  f05838:	e51b301c 	ldr	r3, [fp, #-28]	; 0xffffffe4
  f0583c:	e1a03403 	lsl	r3, r3, #8
  f05840:	e6bf3073 	sxth	r3, r3
  f05844:	e3833001 	orr	r3, r3, #1
  f05848:	e6bf3073 	sxth	r3, r3
  f0584c:	e14b30be 	strh	r3, [fp, #-14]
  f05850:	e15b30be 	ldrh	r3, [fp, #-14]
  f05854:	e1a02003 	mov	r2, r3
  f05858:	e3a01011 	mov	r1, #17
  f0585c:	e3a0001e 	mov	r0, #30
  f05860:	ebfffe23 	bl	f050f4 <bcm_ethsw_phy_write_reg>
  f05864:	e3a03000 	mov	r3, #0
  f05868:	e50b3008 	str	r3, [fp, #-8]
  f0586c:	ea00000d 	b	f058a8 <sw_wreg+0x174>
  f05870:	e3a01011 	mov	r1, #17
  f05874:	e3a0001e 	mov	r0, #30
  f05878:	ebfffdc5 	bl	f04f94 <bcm_ethsw_phy_read_reg>
  f0587c:	e1a03000 	mov	r3, r0
  f05880:	e14b30be 	strh	r3, [fp, #-14]
  f05884:	e15b30be 	ldrh	r3, [fp, #-14]
  f05888:	e2033003 	and	r3, r3, #3
  f0588c:	e3530000 	cmp	r3, #0
  f05890:	0a000008 	beq	f058b8 <sw_wreg+0x184>
  f05894:	e3a0000a 	mov	r0, #10
  f05898:	eb00e30d 	bl	f3e4d4 <cfe_usleep>
  f0589c:	e51b3008 	ldr	r3, [fp, #-8]
  f058a0:	e2833001 	add	r3, r3, #1
  f058a4:	e50b3008 	str	r3, [fp, #-8]
  f058a8:	e51b3008 	ldr	r3, [fp, #-8]
  f058ac:	e3530013 	cmp	r3, #19
  f058b0:	daffffee 	ble	f05870 <sw_wreg+0x13c>
  f058b4:	ea000000 	b	f058bc <sw_wreg+0x188>
  f058b8:	e1a00000 	nop			; (mov r0, r0)
  f058bc:	e51b3008 	ldr	r3, [fp, #-8]
  f058c0:	e3530013 	cmp	r3, #19
  f058c4:	da000002 	ble	f058d4 <sw_wreg+0x1a0>
  f058c8:	e3020d20 	movw	r0, #11552	; 0x2d20
  f058cc:	e34000f5 	movt	r0, #245	; 0xf5
  f058d0:	eb00d63b 	bl	f3b1c4 <xprintf>
  f058d4:	e24bd004 	sub	sp, fp, #4
  f058d8:	e8bd8800 	pop	{fp, pc}

00f058dc <sw_reset>:
  f058dc:	e92d4800 	push	{fp, lr}
  f058e0:	e28db004 	add	fp, sp, #4
  f058e4:	e24dd010 	sub	sp, sp, #16
  f058e8:	e1a03000 	mov	r3, r0
  f058ec:	e14b30be 	strh	r3, [fp, #-14]
  f058f0:	e3a02004 	mov	r2, #4
  f058f4:	e3a01030 	mov	r1, #48	; 0x30
  f058f8:	e3a00002 	mov	r0, #2
  f058fc:	ebffff16 	bl	f0555c <sw_rreg>
  f05900:	e1a03000 	mov	r3, r0
  f05904:	e1a02003 	mov	r2, r3
  f05908:	e30c3b3c 	movw	r3, #52028	; 0xcb3c
  f0590c:	e34030f6 	movt	r3, #246	; 0xf6
  f05910:	e5832000 	str	r2, [r3]
  f05914:	e30c3b3c 	movw	r3, #52028	; 0xcb3c
  f05918:	e34030f6 	movt	r3, #246	; 0xf6
  f0591c:	e5933000 	ldr	r3, [r3]
  f05920:	e1a01003 	mov	r1, r3
  f05924:	e3020d3c 	movw	r0, #11580	; 0x2d3c
  f05928:	e34000f5 	movt	r0, #245	; 0xf5
  f0592c:	eb00d624 	bl	f3b1c4 <xprintf>
  f05930:	e3a02001 	mov	r2, #1
  f05934:	e3a01079 	mov	r1, #121	; 0x79
  f05938:	e3a00000 	mov	r0, #0
  f0593c:	ebffff06 	bl	f0555c <sw_rreg>
  f05940:	e50b0008 	str	r0, [fp, #-8]
  f05944:	e51b3008 	ldr	r3, [fp, #-8]
  f05948:	e3832090 	orr	r2, r3, #144	; 0x90
  f0594c:	e3a03001 	mov	r3, #1
  f05950:	e3a01079 	mov	r1, #121	; 0x79
  f05954:	e3a00000 	mov	r0, #0
  f05958:	ebffff75 	bl	f05734 <sw_wreg>
  f0595c:	ea000001 	b	f05968 <sw_reset+0x8c>
  f05960:	e3a00064 	mov	r0, #100	; 0x64
  f05964:	eb00e2da 	bl	f3e4d4 <cfe_usleep>
  f05968:	e3a02001 	mov	r2, #1
  f0596c:	e3a01079 	mov	r1, #121	; 0x79
  f05970:	e3a00000 	mov	r0, #0
  f05974:	ebfffef8 	bl	f0555c <sw_rreg>
  f05978:	e1a03000 	mov	r3, r0
  f0597c:	e2033080 	and	r3, r3, #128	; 0x80
  f05980:	e3530000 	cmp	r3, #0
  f05984:	1afffff5 	bne	f05960 <sw_reset+0x84>
  f05988:	e3020d64 	movw	r0, #11620	; 0x2d64
  f0598c:	e34000f5 	movt	r0, #245	; 0xf5
  f05990:	eb00d60b 	bl	f3b1c4 <xprintf>
  f05994:	e3a00ffa 	mov	r0, #1000	; 0x3e8
  f05998:	eb00e2cd 	bl	f3e4d4 <cfe_usleep>
  f0599c:	e1a00000 	nop			; (mov r0, r0)
  f059a0:	e24bd004 	sub	sp, fp, #4
  f059a4:	e8bd8800 	pop	{fp, pc}

00f059a8 <sw_hw_ready>:
  f059a8:	e92d4800 	push	{fp, lr}
  f059ac:	e28db004 	add	fp, sp, #4
  f059b0:	e24dd008 	sub	sp, sp, #8
  f059b4:	e30c3b3c 	movw	r3, #52028	; 0xcb3c
  f059b8:	e34030f6 	movt	r3, #246	; 0xf6
  f059bc:	e5933000 	ldr	r3, [r3]
  f059c0:	e3530000 	cmp	r3, #0
  f059c4:	0a000016 	beq	f05a24 <sw_hw_ready+0x7c>
  f059c8:	e3020d6c 	movw	r0, #11628	; 0x2d6c
  f059cc:	e34000f5 	movt	r0, #245	; 0xf5
  f059d0:	eb00d5fb 	bl	f3b1c4 <xprintf>
  f059d4:	e3a03000 	mov	r3, #0
  f059d8:	e50b3008 	str	r3, [fp, #-8]
  f059dc:	ea00000c 	b	f05a14 <sw_hw_ready+0x6c>
  f059e0:	e3a00064 	mov	r0, #100	; 0x64
  f059e4:	eb00e2ba 	bl	f3e4d4 <cfe_usleep>
  f059e8:	e3a02001 	mov	r2, #1
  f059ec:	e51b1008 	ldr	r1, [fp, #-8]
  f059f0:	e3a00000 	mov	r0, #0
  f059f4:	ebfffed8 	bl	f0555c <sw_rreg>
  f059f8:	e1a03000 	mov	r3, r0
  f059fc:	e2033001 	and	r3, r3, #1
  f05a00:	e3530000 	cmp	r3, #0
  f05a04:	1afffff5 	bne	f059e0 <sw_hw_ready+0x38>
  f05a08:	e51b3008 	ldr	r3, [fp, #-8]
  f05a0c:	e2833001 	add	r3, r3, #1
  f05a10:	e50b3008 	str	r3, [fp, #-8]
  f05a14:	e51b3008 	ldr	r3, [fp, #-8]
  f05a18:	e3530007 	cmp	r3, #7
  f05a1c:	dafffff1 	ble	f059e8 <sw_hw_ready+0x40>
  f05a20:	ea000000 	b	f05a28 <sw_hw_ready+0x80>
  f05a24:	e1a00000 	nop			; (mov r0, r0)
  f05a28:	e24bd004 	sub	sp, fp, #4
  f05a2c:	e8bd8800 	pop	{fp, pc}

00f05a30 <sw_setup>:
  f05a30:	e92d4800 	push	{fp, lr}
  f05a34:	e28db004 	add	fp, sp, #4
  f05a38:	e24dd008 	sub	sp, sp, #8
  f05a3c:	e30c3b3c 	movw	r3, #52028	; 0xcb3c
  f05a40:	e34030f6 	movt	r3, #246	; 0xf6
  f05a44:	e5933000 	ldr	r3, [r3]
  f05a48:	e3530000 	cmp	r3, #0
  f05a4c:	0a00009c 	beq	f05cc4 <sw_setup+0x294>
  f05a50:	e3a02004 	mov	r2, #4
  f05a54:	e3a01070 	mov	r1, #112	; 0x70
  f05a58:	e3a00001 	mov	r0, #1
  f05a5c:	ebfffebe 	bl	f0555c <sw_rreg>
  f05a60:	e50b000c 	str	r0, [fp, #-12]
  f05a64:	e51b300c 	ldr	r3, [fp, #-12]
  f05a68:	e2033c02 	and	r3, r3, #512	; 0x200
  f05a6c:	e3530000 	cmp	r3, #0
  f05a70:	0a000008 	beq	f05a98 <sw_setup+0x68>
  f05a74:	e30c3b40 	movw	r3, #52032	; 0xcb40
  f05a78:	e34030f6 	movt	r3, #246	; 0xf6
  f05a7c:	e5933000 	ldr	r3, [r3]
  f05a80:	e3530000 	cmp	r3, #0
  f05a84:	1a00000b 	bne	f05ab8 <sw_setup+0x88>
  f05a88:	e3020da4 	movw	r0, #11684	; 0x2da4
  f05a8c:	e34000f5 	movt	r0, #245	; 0xf5
  f05a90:	eb00d5cb 	bl	f3b1c4 <xprintf>
  f05a94:	ea000007 	b	f05ab8 <sw_setup+0x88>
  f05a98:	e30c3b40 	movw	r3, #52032	; 0xcb40
  f05a9c:	e34030f6 	movt	r3, #246	; 0xf6
  f05aa0:	e5933000 	ldr	r3, [r3]
  f05aa4:	e3530000 	cmp	r3, #0
  f05aa8:	0a000002 	beq	f05ab8 <sw_setup+0x88>
  f05aac:	e3020e10 	movw	r0, #11792	; 0x2e10
  f05ab0:	e34000f5 	movt	r0, #245	; 0xf5
  f05ab4:	eb00d5c2 	bl	f3b1c4 <xprintf>
  f05ab8:	e3020e7c 	movw	r0, #11900	; 0x2e7c
  f05abc:	e34000f5 	movt	r0, #245	; 0xf5
  f05ac0:	eb00d5bf 	bl	f3b1c4 <xprintf>
  f05ac4:	e3a03000 	mov	r3, #0
  f05ac8:	e50b3008 	str	r3, [fp, #-8]
  f05acc:	ea00000d 	b	f05b08 <sw_setup+0xd8>
  f05ad0:	e3a02001 	mov	r2, #1
  f05ad4:	e51b1008 	ldr	r1, [fp, #-8]
  f05ad8:	e3a00000 	mov	r0, #0
  f05adc:	ebfffe9e 	bl	f0555c <sw_rreg>
  f05ae0:	e50b000c 	str	r0, [fp, #-12]
  f05ae4:	e51b300c 	ldr	r3, [fp, #-12]
  f05ae8:	e3832003 	orr	r2, r3, #3
  f05aec:	e3a03001 	mov	r3, #1
  f05af0:	e51b1008 	ldr	r1, [fp, #-8]
  f05af4:	e3a00000 	mov	r0, #0
  f05af8:	ebffff0d 	bl	f05734 <sw_wreg>
  f05afc:	e51b3008 	ldr	r3, [fp, #-8]
  f05b00:	e2833001 	add	r3, r3, #1
  f05b04:	e50b3008 	str	r3, [fp, #-8]
  f05b08:	e51b3008 	ldr	r3, [fp, #-8]
  f05b0c:	e3530007 	cmp	r3, #7
  f05b10:	daffffee 	ble	f05ad0 <sw_setup+0xa0>
  f05b14:	e3a02001 	mov	r2, #1
  f05b18:	e3a0100b 	mov	r1, #11
  f05b1c:	e3a00000 	mov	r0, #0
  f05b20:	ebfffe8d 	bl	f0555c <sw_rreg>
  f05b24:	e1a03000 	mov	r3, r0
  f05b28:	e3833006 	orr	r3, r3, #6
  f05b2c:	e50b300c 	str	r3, [fp, #-12]
  f05b30:	e51b300c 	ldr	r3, [fp, #-12]
  f05b34:	e3c32001 	bic	r2, r3, #1
  f05b38:	e3a03001 	mov	r3, #1
  f05b3c:	e3a0100b 	mov	r1, #11
  f05b40:	e3a00000 	mov	r0, #0
  f05b44:	ebfffefa 	bl	f05734 <sw_wreg>
  f05b48:	e3a03001 	mov	r3, #1
  f05b4c:	e3a02000 	mov	r2, #0
  f05b50:	e3a01003 	mov	r1, #3
  f05b54:	e3a00002 	mov	r0, #2
  f05b58:	ebfffef5 	bl	f05734 <sw_wreg>
  f05b5c:	e3a02002 	mov	r2, #2
  f05b60:	e3a01022 	mov	r1, #34	; 0x22
  f05b64:	e3a00000 	mov	r0, #0
  f05b68:	ebfffe7b 	bl	f0555c <sw_rreg>
  f05b6c:	e1a03000 	mov	r3, r0
  f05b70:	e3833040 	orr	r3, r3, #64	; 0x40
  f05b74:	e50b300c 	str	r3, [fp, #-12]
  f05b78:	e3a03002 	mov	r3, #2
  f05b7c:	e51b200c 	ldr	r2, [fp, #-12]
  f05b80:	e3a01022 	mov	r1, #34	; 0x22
  f05b84:	e3a00000 	mov	r0, #0
  f05b88:	ebfffee9 	bl	f05734 <sw_wreg>
  f05b8c:	e3a030bb 	mov	r3, #187	; 0xbb
  f05b90:	e50b300c 	str	r3, [fp, #-12]
  f05b94:	e3a03001 	mov	r3, #1
  f05b98:	e51b200c 	ldr	r2, [fp, #-12]
  f05b9c:	e3a0100e 	mov	r1, #14
  f05ba0:	e3a00000 	mov	r0, #0
  f05ba4:	ebfffee2 	bl	f05734 <sw_wreg>
  f05ba8:	e30c3b40 	movw	r3, #52032	; 0xcb40
  f05bac:	e34030f6 	movt	r3, #246	; 0xf6
  f05bb0:	e5933000 	ldr	r3, [r3]
  f05bb4:	e3530000 	cmp	r3, #0
  f05bb8:	0a000042 	beq	f05cc8 <sw_setup+0x298>
  f05bbc:	e3a03001 	mov	r3, #1
  f05bc0:	e3a02001 	mov	r2, #1
  f05bc4:	e3a01000 	mov	r1, #0
  f05bc8:	e3a000e6 	mov	r0, #230	; 0xe6
  f05bcc:	ebfffed8 	bl	f05734 <sw_wreg>
  f05bd0:	e3a03002 	mov	r3, #2
  f05bd4:	e3a02902 	mov	r2, #32768	; 0x8000
  f05bd8:	e3a0103e 	mov	r1, #62	; 0x3e
  f05bdc:	e3a00014 	mov	r0, #20
  f05be0:	ebfffed3 	bl	f05734 <sw_wreg>
  f05be4:	e3a03002 	mov	r3, #2
  f05be8:	e3002c2f 	movw	r2, #3119	; 0xc2f
  f05bec:	e3a01020 	mov	r1, #32
  f05bf0:	e3a00014 	mov	r0, #20
  f05bf4:	ebfffece 	bl	f05734 <sw_wreg>
  f05bf8:	e3a03002 	mov	r3, #2
  f05bfc:	e3a02c83 	mov	r2, #33536	; 0x8300
  f05c00:	e3a0103e 	mov	r1, #62	; 0x3e
  f05c04:	e3a00014 	mov	r0, #20
  f05c08:	ebfffec9 	bl	f05734 <sw_wreg>
  f05c0c:	e3a03002 	mov	r3, #2
  f05c10:	e300210d 	movw	r2, #269	; 0x10d
  f05c14:	e3a01020 	mov	r1, #32
  f05c18:	e3a00014 	mov	r0, #20
  f05c1c:	ebfffec4 	bl	f05734 <sw_wreg>
  f05c20:	e3a03002 	mov	r3, #2
  f05c24:	e30c2010 	movw	r2, #49168	; 0xc010
  f05c28:	e3a01030 	mov	r1, #48	; 0x30
  f05c2c:	e3a00014 	mov	r0, #20
  f05c30:	ebfffebf 	bl	f05734 <sw_wreg>
  f05c34:	e3a03002 	mov	r3, #2
  f05c38:	e3082340 	movw	r2, #33600	; 0x8340
  f05c3c:	e3a0103e 	mov	r1, #62	; 0x3e
  f05c40:	e3a00014 	mov	r0, #20
  f05c44:	ebfffeba 	bl	f05734 <sw_wreg>
  f05c48:	e3a03002 	mov	r3, #2
  f05c4c:	e3a02001 	mov	r2, #1
  f05c50:	e3a01034 	mov	r1, #52	; 0x34
  f05c54:	e3a00014 	mov	r0, #20
  f05c58:	ebfffeb5 	bl	f05734 <sw_wreg>
  f05c5c:	e3a03002 	mov	r3, #2
  f05c60:	e3a02902 	mov	r2, #32768	; 0x8000
  f05c64:	e3a0103e 	mov	r1, #62	; 0x3e
  f05c68:	e3a00014 	mov	r0, #20
  f05c6c:	ebfffeb0 	bl	f05734 <sw_wreg>
  f05c70:	e3a03002 	mov	r3, #2
  f05c74:	e3a02d05 	mov	r2, #320	; 0x140
  f05c78:	e3a01000 	mov	r1, #0
  f05c7c:	e3a00014 	mov	r0, #20
  f05c80:	ebfffeab 	bl	f05734 <sw_wreg>
  f05c84:	e3a03002 	mov	r3, #2
  f05c88:	e3022c2f 	movw	r2, #11311	; 0x2c2f
  f05c8c:	e3a01020 	mov	r1, #32
  f05c90:	e3a00014 	mov	r0, #20
  f05c94:	ebfffea6 	bl	f05734 <sw_wreg>
  f05c98:	e3a03001 	mov	r3, #1
  f05c9c:	e3a0204a 	mov	r2, #74	; 0x4a
  f05ca0:	e3a0105d 	mov	r1, #93	; 0x5d
  f05ca4:	e3a00000 	mov	r0, #0
  f05ca8:	ebfffea1 	bl	f05734 <sw_wreg>
  f05cac:	e3a03001 	mov	r3, #1
  f05cb0:	e3a0208b 	mov	r2, #139	; 0x8b
  f05cb4:	e3a0100e 	mov	r1, #14
  f05cb8:	e3a00000 	mov	r0, #0
  f05cbc:	ebfffe9c 	bl	f05734 <sw_wreg>
  f05cc0:	ea000000 	b	f05cc8 <sw_setup+0x298>
  f05cc4:	e1a00000 	nop			; (mov r0, r0)
  f05cc8:	e24bd004 	sub	sp, fp, #4
  f05ccc:	e8bd8800 	pop	{fp, pc}

00f05cd0 <sw_reg_save>:
  f05cd0:	e92d4800 	push	{fp, lr}
  f05cd4:	e28db004 	add	fp, sp, #4
  f05cd8:	e24dd008 	sub	sp, sp, #8
  f05cdc:	e30c3b44 	movw	r3, #52036	; 0xcb44
  f05ce0:	e34030f6 	movt	r3, #246	; 0xf6
  f05ce4:	e5933000 	ldr	r3, [r3]
  f05ce8:	e3530000 	cmp	r3, #0
  f05cec:	1a000021 	bne	f05d78 <sw_reg_save+0xa8>
  f05cf0:	e30c3b44 	movw	r3, #52036	; 0xcb44
  f05cf4:	e34030f6 	movt	r3, #246	; 0xf6
  f05cf8:	e3a02001 	mov	r2, #1
  f05cfc:	e5832000 	str	r2, [r3]
  f05d00:	e3a03000 	mov	r3, #0
  f05d04:	e50b3008 	str	r3, [fp, #-8]
  f05d08:	ea000016 	b	f05d68 <sw_reg_save+0x98>
  f05d0c:	e3a02001 	mov	r2, #1
  f05d10:	e51b1008 	ldr	r1, [fp, #-8]
  f05d14:	e3a00000 	mov	r0, #0
  f05d18:	ebfffe0f 	bl	f0555c <sw_rreg>
  f05d1c:	e1a01000 	mov	r1, r0
  f05d20:	e30c3b48 	movw	r3, #52040	; 0xcb48
  f05d24:	e34030f6 	movt	r3, #246	; 0xf6
  f05d28:	e51b2008 	ldr	r2, [fp, #-8]
  f05d2c:	e7831102 	str	r1, [r3, r2, lsl #2]
  f05d30:	e51b3008 	ldr	r3, [fp, #-8]
  f05d34:	e1a03083 	lsl	r3, r3, #1
  f05d38:	e3a02002 	mov	r2, #2
  f05d3c:	e1a01003 	mov	r1, r3
  f05d40:	e3a00031 	mov	r0, #49	; 0x31
  f05d44:	ebfffe04 	bl	f0555c <sw_rreg>
  f05d48:	e1a01000 	mov	r1, r0
  f05d4c:	e30c3b68 	movw	r3, #52072	; 0xcb68
  f05d50:	e34030f6 	movt	r3, #246	; 0xf6
  f05d54:	e51b2008 	ldr	r2, [fp, #-8]
  f05d58:	e7831102 	str	r1, [r3, r2, lsl #2]
  f05d5c:	e51b3008 	ldr	r3, [fp, #-8]
  f05d60:	e2833001 	add	r3, r3, #1
  f05d64:	e50b3008 	str	r3, [fp, #-8]
  f05d68:	e51b3008 	ldr	r3, [fp, #-8]
  f05d6c:	e3530007 	cmp	r3, #7
  f05d70:	daffffe5 	ble	f05d0c <sw_reg_save+0x3c>
  f05d74:	ea000000 	b	f05d7c <sw_reg_save+0xac>
  f05d78:	e1a00000 	nop			; (mov r0, r0)
  f05d7c:	e24bd004 	sub	sp, fp, #4
  f05d80:	e8bd8800 	pop	{fp, pc}

00f05d84 <sw_open>:
  f05d84:	e92d4800 	push	{fp, lr}
  f05d88:	e28db004 	add	fp, sp, #4
  f05d8c:	e24dd008 	sub	sp, sp, #8
  f05d90:	e30c3b3c 	movw	r3, #52028	; 0xcb3c
  f05d94:	e34030f6 	movt	r3, #246	; 0xf6
  f05d98:	e5933000 	ldr	r3, [r3]
  f05d9c:	e3530000 	cmp	r3, #0
  f05da0:	0a00001f 	beq	f05e24 <sw_open+0xa0>
  f05da4:	ebffffc9 	bl	f05cd0 <sw_reg_save>
  f05da8:	e3020ea0 	movw	r0, #11936	; 0x2ea0
  f05dac:	e34000f5 	movt	r0, #245	; 0xf5
  f05db0:	eb00d503 	bl	f3b1c4 <xprintf>
  f05db4:	e3a03000 	mov	r3, #0
  f05db8:	e50b3008 	str	r3, [fp, #-8]
  f05dbc:	ea000014 	b	f05e14 <sw_open+0x90>
  f05dc0:	e51b3008 	ldr	r3, [fp, #-8]
  f05dc4:	e1a01083 	lsl	r1, r3, #1
  f05dc8:	e3a03002 	mov	r3, #2
  f05dcc:	e3a02c01 	mov	r2, #256	; 0x100
  f05dd0:	e3a00031 	mov	r0, #49	; 0x31
  f05dd4:	ebfffe56 	bl	f05734 <sw_wreg>
  f05dd8:	e3a02001 	mov	r2, #1
  f05ddc:	e51b1008 	ldr	r1, [fp, #-8]
  f05de0:	e3a00000 	mov	r0, #0
  f05de4:	ebfffddc 	bl	f0555c <sw_rreg>
  f05de8:	e1a03000 	mov	r3, r0
  f05dec:	e3c330e3 	bic	r3, r3, #227	; 0xe3
  f05df0:	e50b300c 	str	r3, [fp, #-12]
  f05df4:	e3a03001 	mov	r3, #1
  f05df8:	e51b200c 	ldr	r2, [fp, #-12]
  f05dfc:	e51b1008 	ldr	r1, [fp, #-8]
  f05e00:	e3a00000 	mov	r0, #0
  f05e04:	ebfffe4a 	bl	f05734 <sw_wreg>
  f05e08:	e51b3008 	ldr	r3, [fp, #-8]
  f05e0c:	e2833001 	add	r3, r3, #1
  f05e10:	e50b3008 	str	r3, [fp, #-8]
  f05e14:	e51b3008 	ldr	r3, [fp, #-8]
  f05e18:	e3530007 	cmp	r3, #7
  f05e1c:	daffffe7 	ble	f05dc0 <sw_open+0x3c>
  f05e20:	ea000000 	b	f05e28 <sw_open+0xa4>
  f05e24:	e1a00000 	nop			; (mov r0, r0)
  f05e28:	e24bd004 	sub	sp, fp, #4
  f05e2c:	e8bd8800 	pop	{fp, pc}

00f05e30 <phy_rgmii_enable_ib_st>:
  f05e30:	e92d4800 	push	{fp, lr}
  f05e34:	e28db004 	add	fp, sp, #4
  f05e38:	e24dd010 	sub	sp, sp, #16
  f05e3c:	e50b0010 	str	r0, [fp, #-16]
  f05e40:	e51b3010 	ldr	r3, [fp, #-16]
  f05e44:	e203301f 	and	r3, r3, #31
  f05e48:	e50b3010 	str	r3, [fp, #-16]
  f05e4c:	e3073007 	movw	r3, #28679	; 0x7007
  f05e50:	e14b30b6 	strh	r3, [fp, #-6]
  f05e54:	e51b3010 	ldr	r3, [fp, #-16]
  f05e58:	e15b20b6 	ldrh	r2, [fp, #-6]
  f05e5c:	e3a01018 	mov	r1, #24
  f05e60:	e1a00003 	mov	r0, r3
  f05e64:	ebfffca2 	bl	f050f4 <bcm_ethsw_phy_write_reg>
  f05e68:	e51b3010 	ldr	r3, [fp, #-16]
  f05e6c:	e3a01018 	mov	r1, #24
  f05e70:	e1a00003 	mov	r0, r3
  f05e74:	ebfffc46 	bl	f04f94 <bcm_ethsw_phy_read_reg>
  f05e78:	e1a03000 	mov	r3, r0
  f05e7c:	e14b30b6 	strh	r3, [fp, #-6]
  f05e80:	e15b30b6 	ldrh	r3, [fp, #-6]
  f05e84:	e3c33020 	bic	r3, r3, #32
  f05e88:	e14b30b6 	strh	r3, [fp, #-6]
  f05e8c:	e15b30b6 	ldrh	r3, [fp, #-6]
  f05e90:	e1e03883 	mvn	r3, r3, lsl #17
  f05e94:	e1e038a3 	mvn	r3, r3, lsr #17
  f05e98:	e14b30b6 	strh	r3, [fp, #-6]
  f05e9c:	e51b3010 	ldr	r3, [fp, #-16]
  f05ea0:	e15b20b6 	ldrh	r2, [fp, #-6]
  f05ea4:	e3a01018 	mov	r1, #24
  f05ea8:	e1a00003 	mov	r0, r3
  f05eac:	ebfffc90 	bl	f050f4 <bcm_ethsw_phy_write_reg>
  f05eb0:	e1a00000 	nop			; (mov r0, r0)
  f05eb4:	e24bd004 	sub	sp, fp, #4
  f05eb8:	e8bd8800 	pop	{fp, pc}

00f05ebc <phy_rgmii_setup>:
  f05ebc:	e92d4800 	push	{fp, lr}
  f05ec0:	e28db004 	add	fp, sp, #4
  f05ec4:	e24dd028 	sub	sp, sp, #40	; 0x28
  f05ec8:	e50b0018 	str	r0, [fp, #-24]	; 0xffffffe8
  f05ecc:	e50b101c 	str	r1, [fp, #-28]	; 0xffffffe4
  f05ed0:	e50b2020 	str	r2, [fp, #-32]	; 0xffffffe0
  f05ed4:	e50b3024 	str	r3, [fp, #-36]	; 0xffffffdc
  f05ed8:	e3013020 	movw	r3, #4128	; 0x1020
  f05edc:	e3483041 	movt	r3, #32833	; 0x8041
  f05ee0:	e50b3010 	str	r3, [fp, #-16]
  f05ee4:	e3013028 	movw	r3, #4136	; 0x1028
  f05ee8:	e3483041 	movt	r3, #32833	; 0x8041
  f05eec:	e50b3014 	str	r3, [fp, #-20]	; 0xffffffec
  f05ef0:	e51b3010 	ldr	r3, [fp, #-16]
  f05ef4:	e5933000 	ldr	r3, [r3]
  f05ef8:	e3c3301f 	bic	r3, r3, #31
  f05efc:	e3833003 	orr	r3, r3, #3
  f05f00:	e50b3008 	str	r3, [fp, #-8]
  f05f04:	e51b3008 	ldr	r3, [fp, #-8]
  f05f08:	e383300c 	orr	r3, r3, #12
  f05f0c:	e50b3008 	str	r3, [fp, #-8]
  f05f10:	e51b3014 	ldr	r3, [fp, #-20]	; 0xffffffec
  f05f14:	e5933000 	ldr	r3, [r3]
  f05f18:	e50b300c 	str	r3, [fp, #-12]
  f05f1c:	e51b3024 	ldr	r3, [fp, #-36]	; 0xffffffdc
  f05f20:	e2033004 	and	r3, r3, #4
  f05f24:	e3530000 	cmp	r3, #0
  f05f28:	0a000002 	beq	f05f38 <phy_rgmii_setup+0x7c>
  f05f2c:	e51b3008 	ldr	r3, [fp, #-8]
  f05f30:	e3c33002 	bic	r3, r3, #2
  f05f34:	e50b3008 	str	r3, [fp, #-8]
  f05f38:	e51b3024 	ldr	r3, [fp, #-36]	; 0xffffffdc
  f05f3c:	e2033008 	and	r3, r3, #8
  f05f40:	e3530000 	cmp	r3, #0
  f05f44:	0a000002 	beq	f05f54 <phy_rgmii_setup+0x98>
  f05f48:	e51b300c 	ldr	r3, [fp, #-12]
  f05f4c:	e3c33030 	bic	r3, r3, #48	; 0x30
  f05f50:	e50b300c 	str	r3, [fp, #-12]
  f05f54:	e51b3014 	ldr	r3, [fp, #-20]	; 0xffffffec
  f05f58:	e51b200c 	ldr	r2, [fp, #-12]
  f05f5c:	e5832000 	str	r2, [r3]
  f05f60:	e51b3010 	ldr	r3, [fp, #-16]
  f05f64:	e51b2008 	ldr	r2, [fp, #-8]
  f05f68:	e5832000 	str	r2, [r3]
  f05f6c:	e3a03a01 	mov	r3, #4096	; 0x1000
  f05f70:	e3483041 	movt	r3, #32833	; 0x8041
  f05f74:	e51b201c 	ldr	r2, [fp, #-28]	; 0xffffffe4
  f05f78:	e3520000 	cmp	r2, #0
  f05f7c:	0a000001 	beq	f05f88 <phy_rgmii_setup+0xcc>
  f05f80:	e3a02002 	mov	r2, #2
  f05f84:	ea000000 	b	f05f8c <phy_rgmii_setup+0xd0>
  f05f88:	e3a02001 	mov	r2, #1
  f05f8c:	e5832004 	str	r2, [r3, #4]
  f05f90:	e51b3020 	ldr	r3, [fp, #-32]	; 0xffffffe0
  f05f94:	e2033601 	and	r3, r3, #1048576	; 0x100000
  f05f98:	e3530000 	cmp	r3, #0
  f05f9c:	0a000006 	beq	f05fbc <phy_rgmii_setup+0x100>
  f05fa0:	e51b3020 	ldr	r3, [fp, #-32]	; 0xffffffe0
  f05fa4:	e2033702 	and	r3, r3, #524288	; 0x80000
  f05fa8:	e3530000 	cmp	r3, #0
  f05fac:	13a03001 	movne	r3, #1
  f05fb0:	03a03000 	moveq	r3, #0
  f05fb4:	e6ef3073 	uxtb	r3, r3
  f05fb8:	ea000005 	b	f05fd4 <phy_rgmii_setup+0x118>
  f05fbc:	e51b3020 	ldr	r3, [fp, #-32]	; 0xffffffe0
  f05fc0:	e203301f 	and	r3, r3, #31
  f05fc4:	e353000f 	cmp	r3, #15
  f05fc8:	83a03001 	movhi	r3, #1
  f05fcc:	93a03000 	movls	r3, #0
  f05fd0:	e6ef3073 	uxtb	r3, r3
  f05fd4:	e3530000 	cmp	r3, #0
  f05fd8:	0a000001 	beq	f05fe4 <phy_rgmii_setup+0x128>
  f05fdc:	e51b0020 	ldr	r0, [fp, #-32]	; 0xffffffe0
  f05fe0:	ebffff92 	bl	f05e30 <phy_rgmii_enable_ib_st>
  f05fe4:	e51b3020 	ldr	r3, [fp, #-32]	; 0xffffffe0
  f05fe8:	e203351e 	and	r3, r3, #125829120	; 0x7800000
  f05fec:	e3530516 	cmp	r3, #92274688	; 0x5800000
  f05ff0:	0a000009 	beq	f0601c <phy_rgmii_setup+0x160>
  f05ff4:	e51b3020 	ldr	r3, [fp, #-32]	; 0xffffffe0
  f05ff8:	e203351e 	and	r3, r3, #125829120	; 0x7800000
  f05ffc:	e3530402 	cmp	r3, #33554432	; 0x2000000
  f06000:	1a000002 	bne	f06010 <phy_rgmii_setup+0x154>
  f06004:	e3022eec 	movw	r2, #12012	; 0x2eec
  f06008:	e34020f5 	movt	r2, #245	; 0xf5
  f0600c:	ea000004 	b	f06024 <phy_rgmii_setup+0x168>
  f06010:	e3022ef4 	movw	r2, #12020	; 0x2ef4
  f06014:	e34020f5 	movt	r2, #245	; 0xf5
  f06018:	ea000001 	b	f06024 <phy_rgmii_setup+0x168>
  f0601c:	e3022efc 	movw	r2, #12028	; 0x2efc
  f06020:	e34020f5 	movt	r2, #245	; 0xf5
  f06024:	e51b3024 	ldr	r3, [fp, #-36]	; 0xffffffdc
  f06028:	e2033004 	and	r3, r3, #4
  f0602c:	e3530000 	cmp	r3, #0
  f06030:	13a03001 	movne	r3, #1
  f06034:	03a03000 	moveq	r3, #0
  f06038:	e6ef3073 	uxtb	r3, r3
  f0603c:	e1a01003 	mov	r1, r3
  f06040:	e51b3024 	ldr	r3, [fp, #-36]	; 0xffffffdc
  f06044:	e2033008 	and	r3, r3, #8
  f06048:	e3530000 	cmp	r3, #0
  f0604c:	13a03001 	movne	r3, #1
  f06050:	03a03000 	moveq	r3, #0
  f06054:	e6ef3073 	uxtb	r3, r3
  f06058:	e58d3000 	str	r3, [sp]
  f0605c:	e1a03001 	mov	r3, r1
  f06060:	e51b101c 	ldr	r1, [fp, #-28]	; 0xffffffe4
  f06064:	e3020f04 	movw	r0, #12036	; 0x2f04
  f06068:	e34000f5 	movt	r0, #245	; 0xf5
  f0606c:	eb00d454 	bl	f3b1c4 <xprintf>
  f06070:	e1a00000 	nop			; (mov r0, r0)
  f06074:	e24bd004 	sub	sp, fp, #4
  f06078:	e8bd8800 	pop	{fp, pc}

00f0607c <config_serdes>:
  f0607c:	e92d4800 	push	{fp, lr}
  f06080:	e28db004 	add	fp, sp, #4
  f06084:	e24dd018 	sub	sp, sp, #24
  f06088:	e50b0010 	str	r0, [fp, #-16]
  f0608c:	e50b1014 	str	r1, [fp, #-20]	; 0xffffffec
  f06090:	e50b2018 	str	r2, [fp, #-24]	; 0xffffffe8
  f06094:	e51b3018 	ldr	r3, [fp, #-24]	; 0xffffffe8
  f06098:	e1a030a3 	lsr	r3, r3, #1
  f0609c:	e50b3018 	str	r3, [fp, #-24]	; 0xffffffe8
  f060a0:	e3a03000 	mov	r3, #0
  f060a4:	e50b3008 	str	r3, [fp, #-8]
  f060a8:	ea000028 	b	f06150 <config_serdes+0xd4>
  f060ac:	e51b3008 	ldr	r3, [fp, #-8]
  f060b0:	e1a03083 	lsl	r3, r3, #1
  f060b4:	e51b2014 	ldr	r2, [fp, #-20]	; 0xffffffec
  f060b8:	e0823003 	add	r3, r2, r3
  f060bc:	e1d330b0 	ldrh	r3, [r3]
  f060c0:	e353001f 	cmp	r3, #31
  f060c4:	8a00000f 	bhi	f06108 <config_serdes+0x8c>
  f060c8:	e51b3008 	ldr	r3, [fp, #-8]
  f060cc:	e1a03083 	lsl	r3, r3, #1
  f060d0:	e51b2014 	ldr	r2, [fp, #-20]	; 0xffffffec
  f060d4:	e0823003 	add	r3, r2, r3
  f060d8:	e1d330b0 	ldrh	r3, [r3]
  f060dc:	e1a01003 	mov	r1, r3
  f060e0:	e51b3008 	ldr	r3, [fp, #-8]
  f060e4:	e2833001 	add	r3, r3, #1
  f060e8:	e1a03083 	lsl	r3, r3, #1
  f060ec:	e51b2014 	ldr	r2, [fp, #-20]	; 0xffffffec
  f060f0:	e0823003 	add	r3, r2, r3
  f060f4:	e1d330b0 	ldrh	r3, [r3]
  f060f8:	e1a02003 	mov	r2, r3
  f060fc:	e51b0010 	ldr	r0, [fp, #-16]
  f06100:	ebfffbfb 	bl	f050f4 <bcm_ethsw_phy_write_reg>
  f06104:	ea00000e 	b	f06144 <config_serdes+0xc8>
  f06108:	e51b3008 	ldr	r3, [fp, #-8]
  f0610c:	e1a03083 	lsl	r3, r3, #1
  f06110:	e51b2014 	ldr	r2, [fp, #-20]	; 0xffffffec
  f06114:	e0823003 	add	r3, r2, r3
  f06118:	e1d330b0 	ldrh	r3, [r3]
  f0611c:	e1a01003 	mov	r1, r3
  f06120:	e51b3008 	ldr	r3, [fp, #-8]
  f06124:	e2833001 	add	r3, r3, #1
  f06128:	e1a03083 	lsl	r3, r3, #1
  f0612c:	e51b2014 	ldr	r2, [fp, #-20]	; 0xffffffec
  f06130:	e0823003 	add	r3, r2, r3
  f06134:	e1d330b0 	ldrh	r3, [r3]
  f06138:	e1a02003 	mov	r2, r3
  f0613c:	e51b0010 	ldr	r0, [fp, #-16]
  f06140:	ebfffcdd 	bl	f054bc <phy_write_ext_bank_reg>
  f06144:	e51b3008 	ldr	r3, [fp, #-8]
  f06148:	e2833002 	add	r3, r3, #2
  f0614c:	e50b3008 	str	r3, [fp, #-8]
  f06150:	e51b2008 	ldr	r2, [fp, #-8]
  f06154:	e51b3018 	ldr	r3, [fp, #-24]	; 0xffffffe8
  f06158:	e1520003 	cmp	r2, r3
  f0615c:	baffffd2 	blt	f060ac <config_serdes+0x30>
  f06160:	e1a00000 	nop			; (mov r0, r0)
  f06164:	e24bd004 	sub	sp, fp, #4
  f06168:	e8bd8800 	pop	{fp, pc}

00f0616c <phy_sgmii_init>:
  f0616c:	e92d4800 	push	{fp, lr}
  f06170:	e28db004 	add	fp, sp, #4
  f06174:	e24dd008 	sub	sp, sp, #8
  f06178:	e30130a8 	movw	r3, #4264	; 0x10a8
  f0617c:	e3483041 	movt	r3, #32833	; 0x8041
  f06180:	e5933000 	ldr	r3, [r3]
  f06184:	e50b3008 	str	r3, [fp, #-8]
  f06188:	e30c3b40 	movw	r3, #52032	; 0xcb40
  f0618c:	e34030f6 	movt	r3, #246	; 0xf6
  f06190:	e5933000 	ldr	r3, [r3]
  f06194:	e203301f 	and	r3, r3, #31
  f06198:	e50b300c 	str	r3, [fp, #-12]
  f0619c:	e51b3008 	ldr	r3, [fp, #-8]
  f061a0:	e3833038 	orr	r3, r3, #56	; 0x38
  f061a4:	e50b3008 	str	r3, [fp, #-8]
  f061a8:	e51b3008 	ldr	r3, [fp, #-8]
  f061ac:	e3c33003 	bic	r3, r3, #3
  f061b0:	e50b3008 	str	r3, [fp, #-8]
  f061b4:	e30130a8 	movw	r3, #4264	; 0x10a8
  f061b8:	e3483041 	movt	r3, #32833	; 0x8041
  f061bc:	e51b2008 	ldr	r2, [fp, #-8]
  f061c0:	e5832000 	str	r2, [r3]
  f061c4:	e3a00ffa 	mov	r0, #1000	; 0x3e8
  f061c8:	eb00e0c1 	bl	f3e4d4 <cfe_usleep>
  f061cc:	e51b3008 	ldr	r3, [fp, #-8]
  f061d0:	e3c33038 	bic	r3, r3, #56	; 0x38
  f061d4:	e50b3008 	str	r3, [fp, #-8]
  f061d8:	e30130a8 	movw	r3, #4264	; 0x10a8
  f061dc:	e3483041 	movt	r3, #32833	; 0x8041
  f061e0:	e51b2008 	ldr	r2, [fp, #-8]
  f061e4:	e5832000 	str	r2, [r3]
  f061e8:	e3a00ffa 	mov	r0, #1000	; 0x3e8
  f061ec:	eb00e0b8 	bl	f3e4d4 <cfe_usleep>
  f061f0:	e3a01000 	mov	r1, #0
  f061f4:	e51b000c 	ldr	r0, [fp, #-12]
  f061f8:	ebfffb65 	bl	f04f94 <bcm_ethsw_phy_read_reg>
  f061fc:	e3a02038 	mov	r2, #56	; 0x38
  f06200:	e3041058 	movw	r1, #16472	; 0x4058
  f06204:	e34010f6 	movt	r1, #246	; 0xf6
  f06208:	e51b000c 	ldr	r0, [fp, #-12]
  f0620c:	ebffff9a 	bl	f0607c <config_serdes>
  f06210:	e3a00ffa 	mov	r0, #1000	; 0x3e8
  f06214:	eb00e0ae 	bl	f3e4d4 <cfe_usleep>
  f06218:	e3a02020 	mov	r2, #32
  f0621c:	e3041090 	movw	r1, #16528	; 0x4090
  f06220:	e34010f6 	movt	r1, #246	; 0xf6
  f06224:	e51b000c 	ldr	r0, [fp, #-12]
  f06228:	ebffff93 	bl	f0607c <config_serdes>
  f0622c:	e1a00000 	nop			; (mov r0, r0)
  f06230:	e24bd004 	sub	sp, fp, #4
  f06234:	e8bd8800 	pop	{fp, pc}

00f06238 <phy_sgmii_setup>:
  f06238:	e92d4800 	push	{fp, lr}
  f0623c:	e28db004 	add	fp, sp, #4
  f06240:	e24dd010 	sub	sp, sp, #16
  f06244:	e50b0008 	str	r0, [fp, #-8]
  f06248:	e50b100c 	str	r1, [fp, #-12]
  f0624c:	e50b2010 	str	r2, [fp, #-16]
  f06250:	e51b2010 	ldr	r2, [fp, #-16]
  f06254:	e30c3b40 	movw	r3, #52032	; 0xcb40
  f06258:	e34030f6 	movt	r3, #246	; 0xf6
  f0625c:	e5832000 	str	r2, [r3]
  f06260:	e51b100c 	ldr	r1, [fp, #-12]
  f06264:	e3020f3c 	movw	r0, #12092	; 0x2f3c
  f06268:	e34000f5 	movt	r0, #245	; 0xf5
  f0626c:	eb00d3d4 	bl	f3b1c4 <xprintf>
  f06270:	e1a00000 	nop			; (mov r0, r0)
  f06274:	e24bd004 	sub	sp, fp, #4
  f06278:	e8bd8800 	pop	{fp, pc}

00f0627c <phy_adjust_afe>:
  f0627c:	e92d4800 	push	{fp, lr}
  f06280:	e28db004 	add	fp, sp, #4
  f06284:	e24dd010 	sub	sp, sp, #16
  f06288:	e50b0010 	str	r0, [fp, #-16]
  f0628c:	e50b1014 	str	r1, [fp, #-20]	; 0xffffffec
  f06290:	e51b3014 	ldr	r3, [fp, #-20]	; 0xffffffec
  f06294:	e3530000 	cmp	r3, #0
  f06298:	0a000002 	beq	f062a8 <phy_adjust_afe+0x2c>
  f0629c:	e51b3010 	ldr	r3, [fp, #-16]
  f062a0:	e2833004 	add	r3, r3, #4
  f062a4:	ea000001 	b	f062b0 <phy_adjust_afe+0x34>
  f062a8:	e51b3010 	ldr	r3, [fp, #-16]
  f062ac:	e2833001 	add	r3, r3, #1
  f062b0:	e50b300c 	str	r3, [fp, #-12]
  f062b4:	e51b3010 	ldr	r3, [fp, #-16]
  f062b8:	e50b3008 	str	r3, [fp, #-8]
  f062bc:	ea000007 	b	f062e0 <phy_adjust_afe+0x64>
  f062c0:	e51b3008 	ldr	r3, [fp, #-8]
  f062c4:	e3092140 	movw	r2, #37184	; 0x9140
  f062c8:	e3a01000 	mov	r1, #0
  f062cc:	e1a00003 	mov	r0, r3
  f062d0:	ebfffb87 	bl	f050f4 <bcm_ethsw_phy_write_reg>
  f062d4:	e51b3008 	ldr	r3, [fp, #-8]
  f062d8:	e2833001 	add	r3, r3, #1
  f062dc:	e50b3008 	str	r3, [fp, #-8]
  f062e0:	e51b2008 	ldr	r2, [fp, #-8]
  f062e4:	e51b300c 	ldr	r3, [fp, #-12]
  f062e8:	e1520003 	cmp	r2, r3
  f062ec:	3afffff3 	bcc	f062c0 <phy_adjust_afe+0x44>
  f062f0:	e3a00064 	mov	r0, #100	; 0x64
  f062f4:	eb00e076 	bl	f3e4d4 <cfe_usleep>
  f062f8:	e51b3010 	ldr	r3, [fp, #-16]
  f062fc:	e50b3008 	str	r3, [fp, #-8]
  f06300:	ea00002a 	b	f063b0 <phy_adjust_afe+0x134>
  f06304:	e51b0008 	ldr	r0, [fp, #-8]
  f06308:	e3a03000 	mov	r3, #0
  f0630c:	e3a02001 	mov	r2, #1
  f06310:	e3a01039 	mov	r1, #57	; 0x39
  f06314:	ebfffbc7 	bl	f05238 <bcm_ethsw_phy_write_misc_reg>
  f06318:	e51b0008 	ldr	r0, [fp, #-8]
  f0631c:	e3003bcc 	movw	r3, #3020	; 0xbcc
  f06320:	e3a02002 	mov	r2, #2
  f06324:	e3a0103a 	mov	r1, #58	; 0x3a
  f06328:	ebfffbc2 	bl	f05238 <bcm_ethsw_phy_write_misc_reg>
  f0632c:	e51b0008 	ldr	r0, [fp, #-8]
  f06330:	e302333f 	movw	r3, #9023	; 0x233f
  f06334:	e3a02000 	mov	r2, #0
  f06338:	e3a01039 	mov	r1, #57	; 0x39
  f0633c:	ebfffbbd 	bl	f05238 <bcm_ethsw_phy_write_misc_reg>
  f06340:	e51b0008 	ldr	r0, [fp, #-8]
  f06344:	e30a3d40 	movw	r3, #44352	; 0xad40
  f06348:	e3a02000 	mov	r2, #0
  f0634c:	e3a0103b 	mov	r1, #59	; 0x3b
  f06350:	ebfffbb8 	bl	f05238 <bcm_ethsw_phy_write_misc_reg>
  f06354:	e51b0008 	ldr	r0, [fp, #-8]
  f06358:	e300391b 	movw	r3, #2331	; 0x91b
  f0635c:	e3a02000 	mov	r2, #0
  f06360:	e3a0100a 	mov	r1, #10
  f06364:	ebfffbb3 	bl	f05238 <bcm_ethsw_phy_write_misc_reg>
  f06368:	e51b0008 	ldr	r0, [fp, #-8]
  f0636c:	e30837f6 	movw	r3, #34806	; 0x87f6
  f06370:	e3a02002 	mov	r2, #2
  f06374:	e3a01021 	mov	r1, #33	; 0x21
  f06378:	ebfffbae 	bl	f05238 <bcm_ethsw_phy_write_misc_reg>
  f0637c:	e51b0008 	ldr	r0, [fp, #-8]
  f06380:	e300317d 	movw	r3, #381	; 0x17d
  f06384:	e3a02002 	mov	r2, #2
  f06388:	e3a01022 	mov	r1, #34	; 0x22
  f0638c:	ebfffba9 	bl	f05238 <bcm_ethsw_phy_write_misc_reg>
  f06390:	e51b0008 	ldr	r0, [fp, #-8]
  f06394:	e3a03015 	mov	r3, #21
  f06398:	e3a02002 	mov	r2, #2
  f0639c:	e3a01026 	mov	r1, #38	; 0x26
  f063a0:	ebfffba4 	bl	f05238 <bcm_ethsw_phy_write_misc_reg>
  f063a4:	e51b3008 	ldr	r3, [fp, #-8]
  f063a8:	e2833001 	add	r3, r3, #1
  f063ac:	e50b3008 	str	r3, [fp, #-8]
  f063b0:	e51b2008 	ldr	r2, [fp, #-8]
  f063b4:	e51b300c 	ldr	r3, [fp, #-12]
  f063b8:	e1520003 	cmp	r2, r3
  f063bc:	3affffd0 	bcc	f06304 <phy_adjust_afe+0x88>
  f063c0:	e51b3010 	ldr	r3, [fp, #-16]
  f063c4:	e3a02010 	mov	r2, #16
  f063c8:	e3a010b0 	mov	r1, #176	; 0xb0
  f063cc:	e1a00003 	mov	r0, r3
  f063d0:	ebfffb80 	bl	f051d8 <bcm_ethsw_phy_write_exp_reg>
  f063d4:	e51b3010 	ldr	r3, [fp, #-16]
  f063d8:	e3a02000 	mov	r2, #0
  f063dc:	e3a010b0 	mov	r1, #176	; 0xb0
  f063e0:	e1a00003 	mov	r0, r3
  f063e4:	ebfffb7b 	bl	f051d8 <bcm_ethsw_phy_write_exp_reg>
  f063e8:	e1a00000 	nop			; (mov r0, r0)
  f063ec:	e24bd004 	sub	sp, fp, #4
  f063f0:	e8bd8800 	pop	{fp, pc}

00f063f4 <phy_fixup>:
  f063f4:	e92d4800 	push	{fp, lr}
  f063f8:	e28db004 	add	fp, sp, #4
  f063fc:	e24dd008 	sub	sp, sp, #8
  f06400:	e3a03d43 	mov	r3, #4288	; 0x10c0
  f06404:	e3483041 	movt	r3, #32833	; 0x8041
  f06408:	e5933000 	ldr	r3, [r3]
  f0640c:	e2033c1f 	and	r3, r3, #7936	; 0x1f00
  f06410:	e1a03423 	lsr	r3, r3, #8
  f06414:	e50b3008 	str	r3, [fp, #-8]
  f06418:	e51b3008 	ldr	r3, [fp, #-8]
  f0641c:	e3a01000 	mov	r1, #0
  f06420:	e1a00003 	mov	r0, r3
  f06424:	ebffff94 	bl	f0627c <phy_adjust_afe>
  f06428:	e1a00000 	nop			; (mov r0, r0)
  f0642c:	e24bd004 	sub	sp, fp, #4
  f06430:	e8bd8800 	pop	{fp, pc}

00f06434 <all_gphy_init_power_workaround>:
  f06434:	e92d4800 	push	{fp, lr}
  f06438:	e28db004 	add	fp, sp, #4
  f0643c:	e24dd018 	sub	sp, sp, #24
  f06440:	e3a03d43 	mov	r3, #4288	; 0x10c0
  f06444:	e3483041 	movt	r3, #32833	; 0x8041
  f06448:	e3a02d43 	mov	r2, #4288	; 0x10c0
  f0644c:	e3482041 	movt	r2, #32833	; 0x8041
  f06450:	e5922000 	ldr	r2, [r2]
  f06454:	e3822020 	orr	r2, r2, #32
  f06458:	e5832000 	str	r2, [r3]
  f0645c:	e3a03000 	mov	r3, #0
  f06460:	e50b3008 	str	r3, [fp, #-8]
  f06464:	ea000004 	b	f0647c <all_gphy_init_power_workaround+0x48>
  f06468:	e3a00e7d 	mov	r0, #2000	; 0x7d0
  f0646c:	eb00e018 	bl	f3e4d4 <cfe_usleep>
  f06470:	e51b3008 	ldr	r3, [fp, #-8]
  f06474:	e2833001 	add	r3, r3, #1
  f06478:	e50b3008 	str	r3, [fp, #-8]
  f0647c:	e51b3008 	ldr	r3, [fp, #-8]
  f06480:	e353000c 	cmp	r3, #12
  f06484:	dafffff7 	ble	f06468 <all_gphy_init_power_workaround+0x34>
  f06488:	e30130bc 	movw	r3, #4284	; 0x10bc
  f0648c:	e3483041 	movt	r3, #32833	; 0x8041
  f06490:	e3a02001 	mov	r2, #1
  f06494:	e5832000 	str	r2, [r3]
  f06498:	e3a03d43 	mov	r3, #4288	; 0x10c0
  f0649c:	e3483041 	movt	r3, #32833	; 0x8041
  f064a0:	e5933000 	ldr	r3, [r3]
  f064a4:	e50b3018 	str	r3, [fp, #-24]	; 0xffffffe8
  f064a8:	e51b3018 	ldr	r3, [fp, #-24]	; 0xffffffe8
  f064ac:	e3c33009 	bic	r3, r3, #9
  f064b0:	e50b3018 	str	r3, [fp, #-24]	; 0xffffffe8
  f064b4:	e3a03d43 	mov	r3, #4288	; 0x10c0
  f064b8:	e3483041 	movt	r3, #32833	; 0x8041
  f064bc:	e51b2018 	ldr	r2, [fp, #-24]	; 0xffffffe8
  f064c0:	e5832000 	str	r2, [r3]
  f064c4:	e3a03000 	mov	r3, #0
  f064c8:	e50b300c 	str	r3, [fp, #-12]
  f064cc:	ea000004 	b	f064e4 <all_gphy_init_power_workaround+0xb0>
  f064d0:	e3a00e7d 	mov	r0, #2000	; 0x7d0
  f064d4:	eb00dffe 	bl	f3e4d4 <cfe_usleep>
  f064d8:	e51b300c 	ldr	r3, [fp, #-12]
  f064dc:	e2833001 	add	r3, r3, #1
  f064e0:	e50b300c 	str	r3, [fp, #-12]
  f064e4:	e51b300c 	ldr	r3, [fp, #-12]
  f064e8:	e353000c 	cmp	r3, #12
  f064ec:	dafffff7 	ble	f064d0 <all_gphy_init_power_workaround+0x9c>
  f064f0:	e3a03d43 	mov	r3, #4288	; 0x10c0
  f064f4:	e3483041 	movt	r3, #32833	; 0x8041
  f064f8:	e3a02d43 	mov	r2, #4288	; 0x10c0
  f064fc:	e3482041 	movt	r2, #32833	; 0x8041
  f06500:	e5922000 	ldr	r2, [r2]
  f06504:	e3822009 	orr	r2, r2, #9
  f06508:	e5832000 	str	r2, [r3]
  f0650c:	e3a03000 	mov	r3, #0
  f06510:	e50b3010 	str	r3, [fp, #-16]
  f06514:	ea000004 	b	f0652c <all_gphy_init_power_workaround+0xf8>
  f06518:	e3a00e7d 	mov	r0, #2000	; 0x7d0
  f0651c:	eb00dfec 	bl	f3e4d4 <cfe_usleep>
  f06520:	e51b3010 	ldr	r3, [fp, #-16]
  f06524:	e2833001 	add	r3, r3, #1
  f06528:	e50b3010 	str	r3, [fp, #-16]
  f0652c:	e51b3010 	ldr	r3, [fp, #-16]
  f06530:	e353000c 	cmp	r3, #12
  f06534:	dafffff7 	ble	f06518 <all_gphy_init_power_workaround+0xe4>
  f06538:	e3a03d43 	mov	r3, #4288	; 0x10c0
  f0653c:	e3483041 	movt	r3, #32833	; 0x8041
  f06540:	e5933000 	ldr	r3, [r3]
  f06544:	e50b3018 	str	r3, [fp, #-24]	; 0xffffffe8
  f06548:	e51b3018 	ldr	r3, [fp, #-24]	; 0xffffffe8
  f0654c:	e3c33020 	bic	r3, r3, #32
  f06550:	e50b3018 	str	r3, [fp, #-24]	; 0xffffffe8
  f06554:	e3a03d43 	mov	r3, #4288	; 0x10c0
  f06558:	e3483041 	movt	r3, #32833	; 0x8041
  f0655c:	e51b2018 	ldr	r2, [fp, #-24]	; 0xffffffe8
  f06560:	e5832000 	str	r2, [r3]
  f06564:	e3a03000 	mov	r3, #0
  f06568:	e50b3014 	str	r3, [fp, #-20]	; 0xffffffec
  f0656c:	ea000004 	b	f06584 <all_gphy_init_power_workaround+0x150>
  f06570:	e3a00e7d 	mov	r0, #2000	; 0x7d0
  f06574:	eb00dfd6 	bl	f3e4d4 <cfe_usleep>
  f06578:	e51b3014 	ldr	r3, [fp, #-20]	; 0xffffffec
  f0657c:	e2833001 	add	r3, r3, #1
  f06580:	e50b3014 	str	r3, [fp, #-20]	; 0xffffffec
  f06584:	e51b3014 	ldr	r3, [fp, #-20]	; 0xffffffec
  f06588:	e353000c 	cmp	r3, #12
  f0658c:	dafffff7 	ble	f06570 <all_gphy_init_power_workaround+0x13c>
  f06590:	e30130bc 	movw	r3, #4284	; 0x10bc
  f06594:	e3483041 	movt	r3, #32833	; 0x8041
  f06598:	e3a02000 	mov	r2, #0
  f0659c:	e5832000 	str	r2, [r3]
  f065a0:	e1a00000 	nop			; (mov r0, r0)
  f065a4:	e24bd004 	sub	sp, fp, #4
  f065a8:	e8bd8800 	pop	{fp, pc}

00f065ac <bcm_ethsw_init>:
  f065ac:	e92d4800 	push	{fp, lr}
  f065b0:	e28db004 	add	fp, sp, #4
  f065b4:	e24dd020 	sub	sp, sp, #32
  f065b8:	eb00476c 	bl	f18370 <BpGetEthernetMacInfoArrayPtr>
  f065bc:	e50b0010 	str	r0, [fp, #-16]
  f065c0:	e3020f54 	movw	r0, #12116	; 0x2f54
  f065c4:	e34000f5 	movt	r0, #245	; 0xf5
  f065c8:	eb00d2fd 	bl	f3b1c4 <xprintf>
  f065cc:	eb0000cb 	bl	f06900 <pmc_sysport_power_up>
  f065d0:	e51b3010 	ldr	r3, [fp, #-16]
  f065d4:	e2833f8a 	add	r3, r3, #552	; 0x228
  f065d8:	e5d33000 	ldrb	r3, [r3]
  f065dc:	e3530002 	cmp	r3, #2
  f065e0:	1a000004 	bne	f065f8 <bcm_ethsw_init+0x4c>
  f065e4:	e51b3010 	ldr	r3, [fp, #-16]
  f065e8:	e2833f8a 	add	r3, r3, #552	; 0x228
  f065ec:	e1d330b2 	ldrh	r3, [r3, #2]
  f065f0:	e1a00003 	mov	r0, r3
  f065f4:	ebfffcb8 	bl	f058dc <sw_reset>
  f065f8:	e24b301e 	sub	r3, fp, #30
  f065fc:	e1a00003 	mov	r0, r3
  f06600:	eb00484e 	bl	f18740 <BpGetGphyBaseAddress>
  f06604:	e1a03000 	mov	r3, r0
  f06608:	e3530000 	cmp	r3, #0
  f0660c:	0a000001 	beq	f06618 <bcm_ethsw_init+0x6c>
  f06610:	e3a03001 	mov	r3, #1
  f06614:	e14b31be 	strh	r3, [fp, #-30]	; 0xffffffe2
  f06618:	ebffff85 	bl	f06434 <all_gphy_init_power_workaround>
  f0661c:	e3a03d43 	mov	r3, #4288	; 0x10c0
  f06620:	e3483041 	movt	r3, #32833	; 0x8041
  f06624:	e5933000 	ldr	r3, [r3]
  f06628:	e50b3014 	str	r3, [fp, #-20]	; 0xffffffec
  f0662c:	e51b3014 	ldr	r3, [fp, #-20]	; 0xffffffec
  f06630:	e3c33c1f 	bic	r3, r3, #7936	; 0x1f00
  f06634:	e3c33003 	bic	r3, r3, #3
  f06638:	e50b3014 	str	r3, [fp, #-20]	; 0xffffffec
  f0663c:	e15b31be 	ldrh	r3, [fp, #-30]	; 0xffffffe2
  f06640:	e1a03403 	lsl	r3, r3, #8
  f06644:	e1a02003 	mov	r2, r3
  f06648:	e51b3014 	ldr	r3, [fp, #-20]	; 0xffffffec
  f0664c:	e1823003 	orr	r3, r2, r3
  f06650:	e3833020 	orr	r3, r3, #32
  f06654:	e50b3014 	str	r3, [fp, #-20]	; 0xffffffec
  f06658:	e51b3014 	ldr	r3, [fp, #-20]	; 0xffffffec
  f0665c:	e3c33008 	bic	r3, r3, #8
  f06660:	e50b3014 	str	r3, [fp, #-20]	; 0xffffffec
  f06664:	e3a03d43 	mov	r3, #4288	; 0x10c0
  f06668:	e3483041 	movt	r3, #32833	; 0x8041
  f0666c:	e51b2014 	ldr	r2, [fp, #-20]	; 0xffffffec
  f06670:	e5832000 	str	r2, [r3]
  f06674:	e3a00ffa 	mov	r0, #1000	; 0x3e8
  f06678:	eb00df95 	bl	f3e4d4 <cfe_usleep>
  f0667c:	e3a03d43 	mov	r3, #4288	; 0x10c0
  f06680:	e3483041 	movt	r3, #32833	; 0x8041
  f06684:	e3a02d43 	mov	r2, #4288	; 0x10c0
  f06688:	e3482041 	movt	r2, #32833	; 0x8041
  f0668c:	e5922000 	ldr	r2, [r2]
  f06690:	e3c22020 	bic	r2, r2, #32
  f06694:	e5832000 	str	r2, [r3]
  f06698:	e3a00ffa 	mov	r0, #1000	; 0x3e8
  f0669c:	eb00df8c 	bl	f3e4d4 <cfe_usleep>
  f066a0:	e15b31be 	ldrh	r3, [fp, #-30]	; 0xffffffe2
  f066a4:	e3a01002 	mov	r1, #2
  f066a8:	e1a00003 	mov	r0, r3
  f066ac:	ebfffa38 	bl	f04f94 <bcm_ethsw_phy_read_reg>
  f066b0:	ebffff4f 	bl	f063f4 <phy_fixup>
  f066b4:	ebfff841 	bl	f047c0 <bcm_ethsw_led_init>
  f066b8:	ebfffcba 	bl	f059a8 <sw_hw_ready>
  f066bc:	e3a03000 	mov	r3, #0
  f066c0:	e50b300c 	str	r3, [fp, #-12]
  f066c4:	ea000077 	b	f068a8 <bcm_ethsw_init+0x2fc>
  f066c8:	e3a03000 	mov	r3, #0
  f066cc:	e50b3008 	str	r3, [fp, #-8]
  f066d0:	ea000039 	b	f067bc <bcm_ethsw_init+0x210>
  f066d4:	e51b300c 	ldr	r3, [fp, #-12]
  f066d8:	e3a02f8a 	mov	r2, #552	; 0x228
  f066dc:	e0030392 	mul	r3, r2, r3
  f066e0:	e51b2010 	ldr	r2, [fp, #-16]
  f066e4:	e0822003 	add	r2, r2, r3
  f066e8:	e51b3008 	ldr	r3, [fp, #-8]
  f066ec:	e1a03103 	lsl	r3, r3, #2
  f066f0:	e0823003 	add	r3, r2, r3
  f066f4:	e5933008 	ldr	r3, [r3, #8]
  f066f8:	e50b3018 	str	r3, [fp, #-24]	; 0xffffffe8
  f066fc:	e51b0018 	ldr	r0, [fp, #-24]	; 0xffffffe8
  f06700:	ebfffaf9 	bl	f052ec <phy_advertise_caps>
  f06704:	e51b3018 	ldr	r3, [fp, #-24]	; 0xffffffe8
  f06708:	e203351e 	and	r3, r3, #125829120	; 0x7800000
  f0670c:	e3530402 	cmp	r3, #33554432	; 0x2000000
