Archive member included to satisfy reference by file (symbol)

./libcfe.a(exchandler.o)      bcm63xx_main.o (cfe_setup_exceptions)
./libcfe.a(lib_setjmp.o)      ./libcfe.a(exchandler.o) (lib_setjmp)
./libcfe.a(armv7_l1cache.o)   init_arm.o (armv7_l1cache_enable_i)
./libcfe.a(armv7_cpuinit.o)   init_arm.o (armv7_gic_secure_init)
./libcfe.a(mmu_map.o)         47622_mmu_map.o (mmu_init_table)
./libcfe.a(lib_malloc.o)      dev_arm_pl011_uart.o (kmempool)
./libcfe.a(lib_printf.o)      dev_arm_pl011_uart.o (xsprintf)
./libcfe.a(lib_queue.o)       bcm63xx_env_subr.o (q_enqueue)
./libcfe.a(lib_string.o)      bcm63xx_board.o (lib_strcpy)
./libcfe.a(lib_crc.o)         bcm63xx_util.o (lib_get_crc32)
./libcfe.a(cfe_attach.o)      dev_arm_pl011_uart.o (cfe_attach)
./libcfe.a(cfe_iocb_dispatch.o)
                              bcm63xx_main.o (cfe_device_poll)
./libcfe.a(cfe_devfuncs.o)    bcm63xx_sec.o (cfe_flushcache)
./libcfe.a(cfe_console.o)     bcm63xx_httpd.o (g_console_abort)
./libcfe.a(cfe_mem.o)         ./libcfe.a(cfe_iocb_dispatch.o) (mem_bootarea_start)
./libcfe.a(cfe_timer.o)       bcm63xx_httpd.o (cfe_ticks)
./libcfe.a(cfe_background.o)  bcm63xx_main.o (cfe_bg_init)
./libcfe.a(build_date.o)      bcm63xx_main.o (builddate)
./libcfe.a(cfe_filesys.o)     bcm63xx_ldr_raw.o (cfe_findfilesys)
./libcfe.a(ui_command.o)      bcm63xx_cmd.o (cmd_getarg)
./libcfe.a(ui_cmddisp.o)      bcm63xx_cmd.o (ui_showerror)
./libcfe.a(ui_tftpd.o)        ./libcfe.a(cfe_timer.o) (get_tftpd_state)
./libcfe.a(ui_netcmds.o)      bcm63xx_cmd.o (ui_init_netcmds)
./libcfe.a(net_tftp.o)        ./libcfe.a(cfe_filesys.o) (tftp_fileops)
./libcfe.a(net_ip.o)          bcm63xx_net_icmp.o (_ip_alloc)
./libcfe.a(net_dns.o)         ./libcfe.a(ui_netcmds.o) (dns_lookup)
./libcfe.a(net_arp.o)         ./libcfe.a(net_ip.o) (_arp_lookup_and_send)
./libcfe.a(net_api.o)         ./libcfe.a(net_tftp.o) (udp_alloc)
./libcfe.a(net_tcp.o)         ./libcfe.a(net_api.o) (_tcp_init)
./libcfe.a(net_tcpbuf.o)      ./libcfe.a(net_tcp.o) (tmb_init)
./libcfe.a(net_nmrp.o)        bcm63xx_cmd.o (nmrp_server_detected)
./libcfe.a(dcapi.o)           bcm63xx_util.o (LzmaGetUncompSize)
./libcfe.a(fdt_ro.o)          bcm63xx_dtb.o (fdt_path_offset)
./libcfe.a(fdt_rw.o)          bcm63xx_dtb.o (fdt_setprop)
./libcfe.a(fdt_wip.o)         ./libcfe.a(fdt_rw.o) (_fdt_node_end_offset)
./libcfe.a(arm_arena.o)       ./libcfe.a(cfe_mem.o) (cfe_bootarea_init)
./libcfe.a(armv7_arena.o)     ./libcfe.a(cfe_mem.o) (armv7_arena_init)
./libcfe.a(lib_string2.o)     ./libcfe.a(cfe_attach.o) (lib_strdup)
./libcfe.a(lib_arena.o)       ./libcfe.a(armv7_arena.o) (arena_init)
./libcfe.a(net_ether.o)       ./libcfe.a(net_ip.o) (eth_broadcast)
./libcfe.a(net_udp.o)         ./libcfe.a(net_api.o) (_udp_socket)
./libcfe.a(LzmaDecode.o)      ./libcfe.a(dcapi.o) (LzmaDecodeProperties)
./libcfe.a(fdt.o)             ./libcfe.a(fdt_ro.o) (fdt_check_header)
/opt/toolchains/crosstools-arm-gcc-5.5-linux-4.1-glibc-2.26-binutils-2.28.1/lib/gcc/arm-buildroot-linux-gnueabi/5.5.0/libgcc.a(_udivsi3.o)
                              bcm63xx_storage_dev.o (__aeabi_uidiv)
/opt/toolchains/crosstools-arm-gcc-5.5-linux-4.1-glibc-2.26-binutils-2.28.1/lib/gcc/arm-buildroot-linux-gnueabi/5.5.0/libgcc.a(_divsi3.o)
                              dev_arm_pl011_uart.o (__aeabi_idiv)
/opt/toolchains/crosstools-arm-gcc-5.5-linux-4.1-glibc-2.26-binutils-2.28.1/lib/gcc/arm-buildroot-linux-gnueabi/5.5.0/libgcc.a(_aeabi_uldivmod.o)
                              ./libcfe.a(lib_printf.o) (__aeabi_uldivmod)
/opt/toolchains/crosstools-arm-gcc-5.5-linux-4.1-glibc-2.26-binutils-2.28.1/lib/gcc/arm-buildroot-linux-gnueabi/5.5.0/libgcc.a(_dvmd_lnx.o)
                              /opt/toolchains/crosstools-arm-gcc-5.5-linux-4.1-glibc-2.26-binutils-2.28.1/lib/gcc/arm-buildroot-linux-gnueabi/5.5.0/libgcc.a(_udivsi3.o) (__aeabi_idiv0)
/opt/toolchains/crosstools-arm-gcc-5.5-linux-4.1-glibc-2.26-binutils-2.28.1/lib/gcc/arm-buildroot-linux-gnueabi/5.5.0/libgcc.a(_udivmoddi4.o)
                              /opt/toolchains/crosstools-arm-gcc-5.5-linux-4.1-glibc-2.26-binutils-2.28.1/lib/gcc/arm-buildroot-linux-gnueabi/5.5.0/libgcc.a(_aeabi_uldivmod.o) (__udivmoddi4)
/opt/toolchains/crosstools-arm-gcc-5.5-linux-4.1-glibc-2.26-binutils-2.28.1/lib/gcc/arm-buildroot-linux-gnueabi/5.5.0/libgcc.a(_lshrdi3.o)
                              /opt/toolchains/crosstools-arm-gcc-5.5-linux-4.1-glibc-2.26-binutils-2.28.1/lib/gcc/arm-buildroot-linux-gnueabi/5.5.0/libgcc.a(_udivmoddi4.o) (__aeabi_llsr)
/opt/toolchains/crosstools-arm-gcc-5.5-linux-4.1-glibc-2.26-binutils-2.28.1/lib/gcc/arm-buildroot-linux-gnueabi/5.5.0/libgcc.a(_ashldi3.o)
                              /opt/toolchains/crosstools-arm-gcc-5.5-linux-4.1-glibc-2.26-binutils-2.28.1/lib/gcc/arm-buildroot-linux-gnueabi/5.5.0/libgcc.a(_udivmoddi4.o) (__aeabi_llsl)

Discarded input sections

 .text          0x00000000        0x0 init_arm.o
 .data          0x00000000        0x0 init_arm.o
 .bss           0x00000000        0x0 init_arm.o
 .text.cfe_secureos
                0x00000000       0xb0 init_arm.o
 .text._getsegtbl
                0x00000000       0x14 init_arm.o
 .text._setcontext
                0x00000000        0x4 init_arm.o
 .bss           0x00000000        0x0 exception.o
 .text.__aeabi_unwind_cpp_pr0
                0x00000000        0x4 exception.o
 .text.arm_jumpto
                0x00000000        0x4 exception.o
 .data          0x00000000        0x0 secondary_entry.o
 .bss           0x00000000        0x0 secondary_entry.o
 .text          0x00000000        0x0 bcm63xx_storage_dev.o
 .data          0x00000000        0x0 bcm63xx_storage_dev.o
 .bss           0x00000000        0x0 bcm63xx_storage_dev.o
 .bss._obj      0x00000000       0x2c bcm63xx_storage_dev.o
 .text._init_flash_device
                0x00000000       0x90 bcm63xx_storage_dev.o
 .text._read_raw
                0x00000000       0xd4 bcm63xx_storage_dev.o
 .text._get_info
                0x00000000       0x50 bcm63xx_storage_dev.o
 .text.cfe_storage_dev_init
                0x00000000       0xd0 bcm63xx_storage_dev.o
 .text.cfe_storage_dev_reset
                0x00000000       0x38 bcm63xx_storage_dev.o
 .text.cfe_storage_dev_get
                0x00000000       0x3c bcm63xx_storage_dev.o
 .debug_info    0x00000000      0x35f bcm63xx_storage_dev.o
 .debug_abbrev  0x00000000      0x156 bcm63xx_storage_dev.o
 .debug_loc     0x00000000      0x150 bcm63xx_storage_dev.o
 .debug_aranges
                0x00000000       0x48 bcm63xx_storage_dev.o
 .debug_ranges  0x00000000       0x38 bcm63xx_storage_dev.o
 .debug_line    0x00000000      0x11f bcm63xx_storage_dev.o
 .debug_str     0x00000000      0x3b6 bcm63xx_storage_dev.o
 .comment       0x00000000       0x22 bcm63xx_storage_dev.o
 .note.GNU-stack
                0x00000000        0x0 bcm63xx_storage_dev.o
 .debug_frame   0x00000000       0xcc bcm63xx_storage_dev.o
 .ARM.attributes
                0x00000000       0x2d bcm63xx_storage_dev.o
 .text          0x00000000        0x0 bcm63xx_common.o
 .data          0x00000000        0x0 bcm63xx_common.o
 .bss           0x00000000        0x0 bcm63xx_common.o
 .text          0x00000000        0x0 bcm63xx_ipc.o
 .data          0x00000000        0x0 bcm63xx_ipc.o
 .bss           0x00000000        0x0 bcm63xx_ipc.o
 .text.cfe_mailbox_status_set
                0x00000000       0x54 bcm63xx_ipc.o
 .text.cfe_mailbox_message_get
                0x00000000       0x24 bcm63xx_ipc.o
 .text.cfe_mailbox_message_set
                0x00000000       0x90 bcm63xx_ipc.o
 .text.cfe_get_api_version
                0x00000000       0x1c bcm63xx_ipc.o
 .text          0x00000000        0x0 bcm63xx_sec.o
 .data          0x00000000        0x0 bcm63xx_sec.o
 .bss           0x00000000        0x0 bcm63xx_sec.o
 .text.cfe_sec_get_boot_status
                0x00000000       0x50 bcm63xx_sec.o
 .text.cfe_sec_get_state
                0x00000000       0x24 bcm63xx_sec.o
 .text.cfe_sec_get_bootrom_args
                0x00000000       0x3c bcm63xx_sec.o
 .text.cfe_sec_reset_keys
                0x00000000       0x3c bcm63xx_sec.o
 .text.cfe_sec_abort
                0x00000000       0x18 bcm63xx_sec.o
 .text          0x00000000        0x0 dev_arm_pl011_uart.o
 .data          0x00000000        0x0 dev_arm_pl011_uart.o
 .bss           0x00000000        0x0 dev_arm_pl011_uart.o
 .text.getc     0x00000000       0x44 dev_arm_pl011_uart.o
 .text          0x00000000        0x0 bcmSpiRes.o
 .data          0x00000000        0x0 bcmSpiRes.o
 .bss           0x00000000        0x0 bcmSpiRes.o
 .text.BcmSpi_Read
                0x00000000       0x8c bcmSpiRes.o
 .text          0x00000000        0x0 bcmLegSpi.o
 .data          0x00000000        0x0 bcmLegSpi.o
 .bss           0x00000000        0x0 bcmLegSpi.o
 .debug_info    0x00000000       0x72 bcmLegSpi.o
 .debug_abbrev  0x00000000       0x26 bcmLegSpi.o
 .debug_aranges
                0x00000000       0x18 bcmLegSpi.o
 .debug_line    0x00000000       0x1d bcmLegSpi.o
 .debug_str     0x00000000      0x22c bcmLegSpi.o
 .comment       0x00000000       0x22 bcmLegSpi.o
 .note.GNU-stack
                0x00000000        0x0 bcmLegSpi.o
 .ARM.attributes
                0x00000000       0x2d bcmLegSpi.o
 .text          0x00000000        0x0 bcm_pinmux_impl1.o
 .data          0x00000000        0x0 bcm_pinmux_impl1.o
 .bss           0x00000000        0x0 bcm_pinmux_impl1.o
 .text.bcm_init_pinmux_interface
                0x00000000       0xc4 bcm_pinmux_impl1.o
 .text          0x00000000        0x0 bcm_misc_hw_init_impl6.o
 .data          0x00000000        0x0 bcm_misc_hw_init_impl6.o
 .bss           0x00000000        0x0 bcm_misc_hw_init_impl6.o
 .text.rdp_shut_down
                0x00000000       0x1c bcm_misc_hw_init_impl6.o
 .text.bcm_ubus_init
                0x00000000       0x1c bcm_misc_hw_init_impl6.o
 .text          0x00000000        0x0 bcm_gpio_impl1.o
 .data          0x00000000        0x0 bcm_gpio_impl1.o
 .bss           0x00000000        0x0 bcm_gpio_impl1.o
 .text.bcm_gpio_get_dir
                0x00000000       0x8c bcm_gpio_impl1.o
 .text          0x00000000        0x0 bcm_otp_impl1.o
 .data          0x00000000        0x0 bcm_otp_impl1.o
 .bss           0x00000000        0x0 bcm_otp_impl1.o
 .text.bcm_otp_fuse_row
                0x00000000       0x34 bcm_otp_impl1.o
 .rodata        0x00000000       0x10 bcm_otp_impl1.o
 .text.bcm_otp_fuse_row_ecc
                0x00000000      0x248 bcm_otp_impl1.o
 .text.bcm_otp_is_pcm_disabled
                0x00000000       0x48 bcm_otp_impl1.o
 .text.bcm_otp_get_ldo_trim
                0x00000000       0x44 bcm_otp_impl1.o
 .text          0x00000000        0x0 bcm_led_impl4.o
 .data          0x00000000        0x0 bcm_led_impl4.o
 .bss           0x00000000        0x0 bcm_led_impl4.o
 .text.bcm_led_driver_toggle
                0x00000000      0x1ec bcm_led_impl4.o
 .text.bcm_common_led_setInitial
                0x00000000       0x68 bcm_led_impl4.o
 .text          0x00000000        0x0 dev_bcm63xx_eth_impl4.o
 .data          0x00000000        0x0 dev_bcm63xx_eth_impl4.o
 .bss           0x00000000        0x0 dev_bcm63xx_eth_impl4.o
 .text          0x00000000        0x0 bcm_swled_impl2.o
 .data          0x00000000        0x0 bcm_swled_impl2.o
 .bss           0x00000000        0x0 bcm_swled_impl2.o
 .text          0x00000000        0x0 bcm_ethsw_impl1.o
 .data          0x00000000        0x0 bcm_ethsw_impl1.o
 .bss           0x00000000        0x0 bcm_ethsw_impl1.o
 .text.bcm_ethsw_phy_read_exp_reg
                0x00000000       0x54 bcm_ethsw_impl1.o
 .text.bcm_ethsw_phy_read_misc_reg
                0x00000000       0xac bcm_ethsw_impl1.o
 .text.phy_read_ext_bank_reg
                0x00000000       0xa0 bcm_ethsw_impl1.o
 .text.sw_reg_restore
                0x00000000       0xc8 bcm_ethsw_impl1.o
 .text.sw_close
                0x00000000       0x2c bcm_ethsw_impl1.o
 .text.bcm_ethsw_close
                0x00000000       0x20 bcm_ethsw_impl1.o
 .text          0x00000000        0x0 pmc_sysport.o
 .data          0x00000000        0x0 pmc_sysport.o
 .bss           0x00000000        0x0 pmc_sysport.o
 .text.pmc_sysport_power_down
                0x00000000       0x20 pmc_sysport.o
 .text          0x00000000        0x0 bcm_ubus_impl1.o
 .data          0x00000000        0x0 bcm_ubus_impl1.o
 .bss           0x00000000        0x0 bcm_ubus_impl1.o
 .data.ub_mst_addr_map_tbl
                0x00000000       0x58 bcm_ubus_impl1.o
 .text.ubus_cong_threshold_wr
                0x00000000       0x98 bcm_ubus_impl1.o
 .text.bcm_get_ubus_mst_addr
                0x00000000       0x98 bcm_ubus_impl1.o
 .text.log2_32  0x00000000       0x64 bcm_ubus_impl1.o
 .text.ubus_remap_to_biu_cfg_wlu_srcpid
                0x00000000      0x148 bcm_ubus_impl1.o
 .rodata        0x00000000       0x31 bcm_ubus_impl1.o
 .text.ubus_master_set_token_credits
                0x00000000       0x74 bcm_ubus_impl1.o
 .text.ubus_master_port_init
                0x00000000       0x18 bcm_ubus_impl1.o
 .text.bcm_ubus_config
                0x00000000       0x18 bcm_ubus_impl1.o
 .debug_info    0x00000000      0x50d bcm_ubus_impl1.o
 .debug_abbrev  0x00000000      0x175 bcm_ubus_impl1.o
 .debug_loc     0x00000000      0x1d0 bcm_ubus_impl1.o
 .debug_aranges
                0x00000000       0x50 bcm_ubus_impl1.o
 .debug_ranges  0x00000000       0x40 bcm_ubus_impl1.o
 .debug_line    0x00000000      0x185 bcm_ubus_impl1.o
 .debug_str     0x00000000      0x45d bcm_ubus_impl1.o
 .comment       0x00000000       0x22 bcm_ubus_impl1.o
 .note.GNU-stack
                0x00000000        0x0 bcm_ubus_impl1.o
 .debug_frame   0x00000000       0xf0 bcm_ubus_impl1.o
 .ARM.attributes
                0x00000000       0x2d bcm_ubus_impl1.o
 .text          0x00000000        0x0 dev_bcm63xx_flash.o
 .data          0x00000000        0x0 dev_bcm63xx_flash.o
 .bss           0x00000000        0x0 dev_bcm63xx_flash.o
 .text.kerSysReadFromFlash
                0x00000000       0x70 dev_bcm63xx_flash.o
 .text          0x00000000        0x0 flash_api.o
 .data          0x00000000        0x0 flash_api.o
 .bss           0x00000000        0x0 flash_api.o
 .text          0x00000000        0x0 flash_common.o
 .data          0x00000000        0x0 flash_common.o
 .bss           0x00000000        0x0 flash_common.o
 .text.kerSysFlashPartInfoGet
                0x00000000       0x30 flash_common.o
 .text          0x00000000        0x0 bcm63xx_devs.o
 .data          0x00000000        0x0 bcm63xx_devs.o
 .bss           0x00000000        0x0 bcm63xx_devs.o
 .text.setPinMuxGpio
                0x00000000       0x28 bcm63xx_devs.o
 .text.initGpioPinMux
                0x00000000       0xf8 bcm63xx_devs.o
 .text          0x00000000        0x0 bcm63xx_board.o
 .data          0x00000000        0x0 bcm63xx_board.o
 .bss           0x00000000        0x0 bcm63xx_board.o
 .text          0x00000000        0x0 bcm63xx_cmd.o
 .data          0x00000000        0x0 bcm63xx_cmd.o
 .bss           0x00000000        0x0 bcm63xx_cmd.o
 .text.bcm63xx_run
                0x00000000       0x28 bcm63xx_cmd.o
 .text          0x00000000        0x0 bcm63xx_blparms.o
 .data          0x00000000        0x0 bcm63xx_blparms.o
 .bss           0x00000000        0x0 bcm63xx_blparms.o
 .text.blparms_set_str
                0x00000000       0xac bcm63xx_blparms.o
 .text          0x00000000        0x0 boardparms_47622.o
 .data          0x00000000        0x0 boardparms_47622.o
 .bss           0x00000000        0x0 boardparms_47622.o
 .text          0x00000000        0x0 pinmux_table_47622.o
 .data          0x00000000        0x0 pinmux_table_47622.o
 .bss           0x00000000        0x0 pinmux_table_47622.o
 .text          0x00000000        0x0 boardparms_chip.o
 .data          0x00000000        0x0 boardparms_chip.o
 .bss           0x00000000        0x0 boardparms_chip.o
 .bss.wlanPciInfo
                0x00000000      0x318 boardparms_chip.o
 .bss.wlan_patch_LAST
                0x00000000        0x4 boardparms_chip.o
 .data.wlanPaInfo
                0x00000000       0x1c boardparms_chip.o
 .debug_info    0x00000000      0x217 boardparms_chip.o
 .debug_abbrev  0x00000000       0xac boardparms_chip.o
 .debug_aranges
                0x00000000       0x18 boardparms_chip.o
 .debug_line    0x00000000       0xa3 boardparms_chip.o
 .debug_str     0x00000000      0x321 boardparms_chip.o
 .comment       0x00000000       0x22 boardparms_chip.o
 .note.GNU-stack
                0x00000000        0x0 boardparms_chip.o
 .ARM.attributes
                0x00000000       0x2d boardparms_chip.o
 .text          0x00000000        0x0 bp_funcs.o
 .data          0x00000000        0x0 bp_funcs.o
 .bss           0x00000000        0x0 bp_funcs.o
 .data.bpEponGpioList
                0x00000000       0x18 bp_funcs.o
 .text.BpGetElemIntf
                0x00000000      0x11c bp_funcs.o
 .text.BpGetUc  0x00000000       0x90 bp_funcs.o
 .text.BpGetCpInIntf
                0x00000000       0x9c bp_funcs.o
 .text.BpGetUcInIntf
                0x00000000       0x9c bp_funcs.o
 .text.BpGetUsInIntf
                0x00000000       0xa0 bp_funcs.o
 .text.BpGetUlInIntf
                0x00000000       0x9c bp_funcs.o
 .text.BpEnumUc
                0x00000000       0x6c bp_funcs.o
 .text.BpGetBoardIds
                0x00000000       0xe4 bp_funcs.o
 .text.BpGetGPIOverlays
                0x00000000       0x2c bp_funcs.o
 .text.BpGetSfpDetectGpio
                0x00000000       0x38 bp_funcs.o
 .text.BpGetSgmiiGpios
                0x00000000       0x38 bp_funcs.o
 .text.BpGetEthernetMacInfo
                0x00000000       0x98 bp_funcs.o
 .data.intToExtSwPort
                0x00000000        0x4 bp_funcs.o
 .text.BpGetPortConnectedToExtSwitch
                0x00000000      0x124 bp_funcs.o
 .text.BpGetAttachedInfo
                0x00000000      0x1e8 bp_funcs.o
 .text.BpGetMiiOverGpioFlag
                0x00000000      0x1e0 bp_funcs.o
 .text.BpGetLedPinMuxGpio
                0x00000000       0xd0 bp_funcs.o
 .text.BpGetRj11InnerOuterPairGpios
                0x00000000       0x40 bp_funcs.o
 .text.BpGetRtsCtsUartGpios
                0x00000000       0x40 bp_funcs.o
 .text.BpGetAdslLedGpio
                0x00000000       0x30 bp_funcs.o
 .text.BpGetAdslFailLedGpio
                0x00000000       0x30 bp_funcs.o
 .text.BpGetSecAdslLedGpio
                0x00000000       0x30 bp_funcs.o
 .text.BpGetSecAdslFailLedGpio
                0x00000000       0x30 bp_funcs.o
 .text.BpGetPwrSyncGpio
                0x00000000       0x2c bp_funcs.o
 .text.BpGetVregSyncGpio
                0x00000000       0x2c bp_funcs.o
 .text.BpGetWirelessAntInUse
                0x00000000       0x2c bp_funcs.o
 .text.BpGetWirelessFlags
                0x00000000       0x2c bp_funcs.o
 .text.BpGetWirelessSesExtIntr
                0x00000000       0x2c bp_funcs.o
 .text.BpGetWirelessSesExtIntrGpio
                0x00000000       0x60 bp_funcs.o
 .text.BpGetWirelessSesLedGpio
                0x00000000       0x2c bp_funcs.o
 .text.BpGetWL0ActLedGpio
                0x00000000       0x2c bp_funcs.o
 .text.BpGetWL1ActLedGpio
                0x00000000       0x2c bp_funcs.o
 .text.BpGetNfcExtIntr
                0x00000000       0x2c bp_funcs.o
 .text.BpGetNfcPowerGpio
                0x00000000       0x2c bp_funcs.o
 .text.BpGetNfcWakeGpio
                0x00000000       0x2c bp_funcs.o
 .text.BpGetBitbangSclGpio
                0x00000000       0x2c bp_funcs.o
 .text.BpGetBitbangSdaGpio
                0x00000000       0x2c bp_funcs.o
 .text.BpGetBtResetGpio
                0x00000000       0x2c bp_funcs.o
 .text.BpGetBtWakeGpio
                0x00000000       0x2c bp_funcs.o
 .text.BpUpdateWirelessSromMap
                0x00000000      0x340 bp_funcs.o
 .text.BpUpdateWirelessPciConfig
                0x00000000      0x224 bp_funcs.o
 .text.BpGetWanDataLedGpio
                0x00000000       0x7c bp_funcs.o
 .text.BpGetSecWanDataLedGpio
                0x00000000       0x7c bp_funcs.o
 .text.BpGetWanErrorLedGpio
                0x00000000       0x7c bp_funcs.o
 .text.BpGetBootloaderPowerOnLedBlinkTimeOn
                0x00000000       0x2c bp_funcs.o
 .text.BpGetBootloaderPowerOnLedBlinkTimeOff
                0x00000000       0x2c bp_funcs.o
 .text.BpGetVoipLedGpio
                0x00000000       0x2c bp_funcs.o
 .text.BpGetVoip1LedGpio
                0x00000000       0x2c bp_funcs.o
 .text.BpGetVoip1FailLedGpio
                0x00000000       0x2c bp_funcs.o
 .text.BpGetVoip2LedGpio
                0x00000000       0x2c bp_funcs.o
 .text.BpGetVoip2FailLedGpio
                0x00000000       0x2c bp_funcs.o
 .text.BpGetPotsLedGpio
                0x00000000       0x2c bp_funcs.o
 .text.BpGetDectLedGpio
                0x00000000       0x2c bp_funcs.o
 .text.BpGetDyingGaspIntrPin
                0x00000000       0x2c bp_funcs.o
 .text.BpGetPassDyingGaspGpio
                0x00000000       0x2c bp_funcs.o
 .text.BpGetFpgaResetGpio
                0x00000000       0x2c bp_funcs.o
 .text.BpGetGponLedGpio
                0x00000000       0x30 bp_funcs.o
 .text.BpGetGponFailLedGpio
                0x00000000       0x30 bp_funcs.o
 .text.BpGetOpticalLinkFailLedGpio
                0x00000000       0x30 bp_funcs.o
 .text.BpGetUSBLedGpio
                0x00000000       0x2c bp_funcs.o
 .text.BpGetMoCALedGpio
                0x00000000       0x2c bp_funcs.o
 .text.BpGetMoCAFailLedGpio
                0x00000000       0x2c bp_funcs.o
 .text.BpGetEponLedGpio
                0x00000000       0x30 bp_funcs.o
 .text.BpGetEponFailLedGpio
                0x00000000       0x30 bp_funcs.o
 .text.BpGetResetToDefault2ExtIntr
                0x00000000       0x2c bp_funcs.o
 .text.BpGetResetToDefault2ExtIntrGpio
                0x00000000       0x60 bp_funcs.o
 .text.BpGetOpticalModulePresenceExtIntrGpio
                0x00000000       0xac bp_funcs.o
 .text.BpGetOpticalModulePresenceExtIntr
                0x00000000       0x78 bp_funcs.o
 .text.BpGetSDCardDetectExtIntrGpio
                0x00000000       0x60 bp_funcs.o
 .text.BpGetSDCardDetectExtIntr
                0x00000000       0x2c bp_funcs.o
 .text.BpGetI2cDefXponBus
                0x00000000       0x2c bp_funcs.o
 .text.BpGetOpticalModuleTxPwrDownGpio
                0x00000000       0x50 bp_funcs.o
 .text.BpGetWirelessPowerDownGpio
                0x00000000       0x2c bp_funcs.o
 .text.BpGetDslPhyAfeIdByIntfIdx
                0x00000000       0xa8 bp_funcs.o
 .text.BpGetDslPhyAfeIds
                0x00000000      0x110 bp_funcs.o
 .text.BpGetUart2SdoutGpio
                0x00000000       0x2c bp_funcs.o
 .text.BpGetUart2SdinGpio
                0x00000000       0x2c bp_funcs.o
 .text.BpGetAFELDPwrBoostGpio
                0x00000000       0x6c bp_funcs.o
 .text.BpGetExtAFEResetGpio
                0x00000000       0x2c bp_funcs.o
 .text.BpGetAFELDRelayGpio
                0x00000000       0x6c bp_funcs.o
 .text.BpGetIntAFELDModeGpio
                0x00000000       0x2c bp_funcs.o
 .text.BpGetIntAFELDPwrGpio
                0x00000000       0x2c bp_funcs.o
 .text.BpGetExtAFELDModeGpio
                0x00000000       0x2c bp_funcs.o
 .text.BpGetExtAFELDPwrGpio
                0x00000000       0x2c bp_funcs.o
 .text.BpGetExtAFELDDataGpio
                0x00000000       0x2c bp_funcs.o
 .text.BpGetExtAFELDClkGpio
                0x00000000       0x2c bp_funcs.o
 .text.BpGetAFEVR5P3PwrEnGpio
                0x00000000       0x6c bp_funcs.o
 .text.BpGet6829PortInfo
                0x00000000       0xdc bp_funcs.o
 .text.BpGetEthSpdLedGpio
                0x00000000      0x128 bp_funcs.o
 .text.BpGetLaserDisGpio
                0x00000000       0x2c bp_funcs.o
 .text.BpGetLaserTxPwrEnGpio
                0x00000000       0x2c bp_funcs.o
 .text.BpGetLaserResetGpio
                0x00000000       0x2c bp_funcs.o
 .text.BpGetEponOpticalSDGpio
                0x00000000       0x2c bp_funcs.o
 .text.BpGetPLCPwrEnGpio
                0x00000000       0x2c bp_funcs.o
 .text.BpGetPLCResetGpio
                0x00000000       0x2c bp_funcs.o
 .text.BpGetPLCStandByExtIntr
                0x00000000       0x2c bp_funcs.o
 .text.BpGetVregSel1P2
                0x00000000       0x2c bp_funcs.o
 .text.BpGetVreg1P8
                0x00000000       0x2c bp_funcs.o
 .text.BpGetVregAvsMin
                0x00000000       0x2c bp_funcs.o
 .text.BpGetFemtoResetGpio
                0x00000000       0x2c bp_funcs.o
 .text.BpGetEphyBaseAddress
                0x00000000       0x2c bp_funcs.o
 .text.BpGetSpiSlaveResetGpio
                0x00000000       0x2c bp_funcs.o
 .text.BpGetSpiSlaveBootModeGpio
                0x00000000       0x2c bp_funcs.o
 .text.BpGetSpiSlaveBusNum
                0x00000000       0x2c bp_funcs.o
 .text.BpGetSpiSlaveSelectNum
                0x00000000       0x2c bp_funcs.o
 .text.BpGetSpiSlaveMode
                0x00000000       0x2c bp_funcs.o
 .text.BpGetSpiSlaveCtrlState
                0x00000000       0x2c bp_funcs.o
 .text.BpGetSpiSlaveMaxFreq
                0x00000000       0x2c bp_funcs.o
 .text.BpGetSpiSlaveProtoRev
                0x00000000       0x2c bp_funcs.o
 .text.BpGetSerialLEDMuxSel
                0x00000000       0x2c bp_funcs.o
 .text.BpGetSwitchPortMap
                0x00000000       0x64 bp_funcs.o
 .text.BpGetDeviceOptions
                0x00000000       0x2c bp_funcs.o
 .text.BpGetGpioGpio
                0x00000000       0x68 bp_funcs.o
 .text.BpIsGpioInUse
                0x00000000      0x138 bp_funcs.o
 .text.BpGetEponGpio
                0x00000000       0x60 bp_funcs.o
 .text.BpGetPhyResetGpio
                0x00000000       0xe4 bp_funcs.o
 .text.BpGetBoardResetGpio
                0x00000000       0x2c bp_funcs.o
 .text.BpGetUSBGpio
                0x00000000       0xa8 bp_funcs.o
 .text.BpGetPhyAddr
                0x00000000       0xb4 bp_funcs.o
 .text.BpGetOpticalWan
                0x00000000       0x2c bp_funcs.o
 .text.BpGetSimInterfaces
                0x00000000       0x2c bp_funcs.o
 .text.BpGetSlicInterfaces
                0x00000000       0x2c bp_funcs.o
 .text.BpGetAePolarity
                0x00000000       0x2c bp_funcs.o
 .text.BpGetPonTxEnGpio
                0x00000000       0x2c bp_funcs.o
 .text.BpGetPonResetGpio
                0x00000000       0x2c bp_funcs.o
 .text.BpGetPonRxEnGpio
                0x00000000       0x2c bp_funcs.o
 .text.BpGetRogueOnuEn
                0x00000000       0x2c bp_funcs.o
 .text.BpGetGpioLedSim
                0x00000000       0x2c bp_funcs.o
 .text.BpGetGpioLedSimITMS
                0x00000000       0x2c bp_funcs.o
 .text.BpGetWanSignalDetectedGpio
                0x00000000       0x2c bp_funcs.o
 .text.BpGetTsync1025mhzPin
                0x00000000       0x2c bp_funcs.o
 .text.BpGetTsync8khzPin
                0x00000000       0x2c bp_funcs.o
 .text.BpGetTsync1ppsPin
                0x00000000       0x2c bp_funcs.o
 .text.BpGetTsyncPonUnstableGpio
                0x00000000       0x2c bp_funcs.o
 .text.BpGetBatteryEnable
                0x00000000       0x2c bp_funcs.o
 .text.BpGetSerialLedData
                0x00000000       0x2c bp_funcs.o
 .text.BpGrepPinmuxListInIntf
                0x00000000      0x260 bp_funcs.o
 .text.BpGetDslCtl
                0x00000000       0xc4 bp_funcs.o
 .text.BpGetIntAFELDModeDslCtl
                0x00000000       0x2c bp_funcs.o
 .text.BpGetIntAFELDPwrDslCtl
                0x00000000       0x2c bp_funcs.o
 .text.BpGetExtAFELDModeDslCtl
                0x00000000       0x2c bp_funcs.o
 .text.BpGetExtAFELDPwrDslCtl
                0x00000000       0x2c bp_funcs.o
 .text.BpGetExtAFELDDataDslCtl
                0x00000000       0x2c bp_funcs.o
 .text.BpGetIntAFELDDataDslCtl
                0x00000000       0x2c bp_funcs.o
 .text.BpGetExtAFELDClkDslCtl
                0x00000000       0x2c bp_funcs.o
 .text.BpGetIntAFELDClkDslCtl
                0x00000000       0x2c bp_funcs.o
 .text.BpGetTrplxrTxFailExtIntr
                0x00000000       0x2c bp_funcs.o
 .text.BpGetTrplxrTxFailExtIntrGpio
                0x00000000       0x60 bp_funcs.o
 .text.BpGetTrplxrSdExtIntr
                0x00000000       0x2c bp_funcs.o
 .text.BpGetTrplxrSdExtIntrGpio
                0x00000000       0x60 bp_funcs.o
 .text.BpGetTxLaserOnOutN
                0x00000000       0x2c bp_funcs.o
 .text.BpGet1ppsStableGpio
                0x00000000       0x2c bp_funcs.o
 .text.BpGetLteResetGpio
                0x00000000       0x2c bp_funcs.o
 .text.BpGetStrapTxEnGpio
                0x00000000       0x2c bp_funcs.o
 .text.BpGetWanNco10M
                0x00000000       0x2c bp_funcs.o
 .text.BpGetTrxSignalDetect
                0x00000000       0x2c bp_funcs.o
 .text.BpGetWifiOnOffExtIntr
                0x00000000       0x2c bp_funcs.o
 .text.BpGetWifiOnOffExtIntrGpio
                0x00000000       0x60 bp_funcs.o
 .text.BpGetLteExtIntr
                0x00000000       0x2c bp_funcs.o
 .text.BpGetLteExtIntrGpio
                0x00000000       0x60 bp_funcs.o
 .text.BpGetMiiInterfaceEn
                0x00000000       0x2c bp_funcs.o
 .text.BpGetUsbPwrOn0
                0x00000000       0x2c bp_funcs.o
 .text.BpGetUsbPwrOn1
                0x00000000       0x2c bp_funcs.o
 .text.BpGetUsbPwrFlt0
                0x00000000       0x2c bp_funcs.o
 .text.BpGetUsbPwrFlt1
                0x00000000       0x2c bp_funcs.o
 .text.BpGetDHDMemReserve
                0x00000000       0x84 bp_funcs.o
 .text.BpGetTxDisGpio
                0x00000000       0x94 bp_funcs.o
 .text.BpGetLedsAdvancedInfo
                0x00000000      0x48c bp_funcs.o
 .text.BpGetPciPortDualLane
                0x00000000       0x90 bp_funcs.o
 .text.BpGetAllPhyIntfInfo
                0x00000000       0x58 bp_funcs.o
 .text.BpGetPhyIntfNumByType
                0x00000000       0x4c bp_funcs.o
 .text.BpHasEthWanIntf
                0x00000000       0xd0 bp_funcs.o
 .text.BpGetPhyIntfInfoByType
                0x00000000       0xf4 bp_funcs.o
 .text.BpGetGpioInIntf
                0x00000000       0x6c bp_funcs.o
 .text.BpGetExtIntrGpioInIntf
                0x00000000       0xc4 bp_funcs.o
 .text.BpGetAFELDClkGpio
                0x00000000       0x6c bp_funcs.o
 .text.BpGetAFELDModeGpio
                0x00000000       0x6c bp_funcs.o
 .text.BpGetAFELDPwrGpio
                0x00000000       0x6c bp_funcs.o
 .text.BpGetAFELDDataGpio
                0x00000000       0x6c bp_funcs.o
 .text.BpGetAFELDClkDslCtl
                0x00000000       0x34 bp_funcs.o
 .text.BpGetAFELDModeDslCtl
                0x00000000       0x34 bp_funcs.o
 .text.BpGetAFELDPwrDslCtl
                0x00000000       0x34 bp_funcs.o
 .text.BpGetAFELDDataDslCtl
                0x00000000       0x34 bp_funcs.o
 .text.BpGetAFEResetGpio
                0x00000000       0x6c bp_funcs.o
 .text.BpGetWanActLedGpio
                0x00000000       0x78 bp_funcs.o
 .text.BpGetWanErrLedGpio
                0x00000000       0x78 bp_funcs.o
 .text.BpGetWanLinkLedGpio
                0x00000000       0x78 bp_funcs.o
 .text.BpGetWanLinkFailLedGpio
                0x00000000       0x78 bp_funcs.o
 .text.BpGetIntfPortNum
                0x00000000       0x78 bp_funcs.o
 .text.BpGetIntfMgmtType
                0x00000000       0x78 bp_funcs.o
 .text.BpGetIntfMgmtBusNum
                0x00000000       0x78 bp_funcs.o
 .text.BpGetSfpModDetectGpio
                0x00000000       0x78 bp_funcs.o
 .text.BpGetSfpSigDetect
                0x00000000       0x78 bp_funcs.o
 .text.BpGetAdvLedInfo
                0x00000000       0x60 bp_funcs.o
 .text.BpGetUsbDis
                0x00000000       0x2c bp_funcs.o
 .text.BpGetPciDis
                0x00000000       0x2c bp_funcs.o
 .text.BpGetSataDis
                0x00000000       0x2c bp_funcs.o
 .text.BpGetWirelessDisGpio
                0x00000000       0x88 bp_funcs.o
 .text          0x00000000        0x0 boardparms_voice.o
 .data          0x00000000        0x0 boardparms_voice.o
 .bss           0x00000000        0x0 boardparms_voice.o
 .data.__compound_literal.4
                0x00000000       0x20 boardparms_voice.o
 .data.__compound_literal.5
                0x00000000       0x20 boardparms_voice.o
 .data.g_voiceBoard_SI32267_LCQC
                0x00000000      0x130 boardparms_voice.o
 .data.__compound_literal.6
                0x00000000       0x20 boardparms_voice.o
 .data.__compound_literal.7
                0x00000000       0x20 boardparms_voice.o
 .data.__compound_literal.8
                0x00000000       0x20 boardparms_voice.o
 .data.g_voiceBoard_SI3217x
                0x00000000      0x130 boardparms_voice.o
 .data.__compound_literal.23
                0x00000000       0x20 boardparms_voice.o
 .data.__compound_literal.24
                0x00000000       0x20 boardparms_voice.o
 .data.__compound_literal.25
                0x00000000       0x20 boardparms_voice.o
 .data.g_voiceBoard_VE890_INVBOOST
                0x00000000      0x130 boardparms_voice.o
 .data.__compound_literal.26
                0x00000000       0x20 boardparms_voice.o
 .data.__compound_literal.27
                0x00000000       0x20 boardparms_voice.o
 .data.__compound_literal.28
                0x00000000       0x20 boardparms_voice.o
 .data.__compound_literal.29
                0x00000000       0x20 boardparms_voice.o
 .data.g_voiceBoard_SI32260x2
                0x00000000      0x130 boardparms_voice.o
 .data.__compound_literal.32
                0x00000000       0x20 boardparms_voice.o
 .data.__compound_literal.33
                0x00000000       0x20 boardparms_voice.o
 .data.__compound_literal.34
                0x00000000       0x20 boardparms_voice.o
 .data.g_voiceBoard_SI32260_SI3050
                0x00000000      0x130 boardparms_voice.o
 .data.__compound_literal.35
                0x00000000       0x20 boardparms_voice.o
 .data.__compound_literal.36
                0x00000000       0x20 boardparms_voice.o
 .data.__compound_literal.37
                0x00000000       0x20 boardparms_voice.o
 .data.g_voiceBoard_SI32260_SI3050_QC
                0x00000000      0x130 boardparms_voice.o
 .data.__compound_literal.48
                0x00000000       0x20 boardparms_voice.o
 .data.__compound_literal.49
                0x00000000       0x20 boardparms_voice.o
 .data.__compound_literal.50
                0x00000000       0x20 boardparms_voice.o
 .data.g_voiceBoard_ZL88701
                0x00000000      0x130 boardparms_voice.o
 .data.__compound_literal.51
                0x00000000       0x20 boardparms_voice.o
 .data.__compound_literal.52
                0x00000000       0x20 boardparms_voice.o
 .data.__compound_literal.53
                0x00000000       0x20 boardparms_voice.o
 .data.__compound_literal.54
                0x00000000       0x20 boardparms_voice.o
 .data.__compound_literal.55
                0x00000000       0x20 boardparms_voice.o
 .data.__compound_literal.56
                0x00000000       0x20 boardparms_voice.o
 .data.__compound_literal.57
                0x00000000       0x20 boardparms_voice.o
 .data.__compound_literal.58
                0x00000000       0x20 boardparms_voice.o
 .data.g_voiceBoard_ZL88601x4_8FXS
                0x00000000      0x130 boardparms_voice.o
 .data.__compound_literal.66
                0x00000000       0x20 boardparms_voice.o
 .data.__compound_literal.67
                0x00000000       0x20 boardparms_voice.o
 .data.__compound_literal.68
                0x00000000       0x20 boardparms_voice.o
 .data.g_voiceBoard_ZL88801_89010_BB
                0x00000000      0x130 boardparms_voice.o
 .data.__compound_literal.82
                0x00000000       0x20 boardparms_voice.o
 .data.__compound_literal.83
                0x00000000       0x20 boardparms_voice.o
 .data.__compound_literal.84
                0x00000000       0x20 boardparms_voice.o
 .data.g_voiceBoard_VE890HV
                0x00000000      0x130 boardparms_voice.o
 .data.__compound_literal.85
                0x00000000       0x20 boardparms_voice.o
 .data.__compound_literal.86
                0x00000000       0x20 boardparms_voice.o
 .data.g_voiceBoard_LE89316
                0x00000000      0x130 boardparms_voice.o
 .data.__compound_literal.87
                0x00000000       0x20 boardparms_voice.o
 .data.__compound_literal.88
                0x00000000       0x20 boardparms_voice.o
 .data.g_voiceBoard_SI32178
                0x00000000      0x130 boardparms_voice.o
 .data.__compound_literal.89
                0x00000000       0x20 boardparms_voice.o
 .data.__compound_literal.90
                0x00000000       0x20 boardparms_voice.o
 .data.g_voiceBoard_SI32267_NTR
                0x00000000      0x130 boardparms_voice.o
 .data.__compound_literal.91
                0x00000000       0x20 boardparms_voice.o
 .data.__compound_literal.92
                0x00000000       0x20 boardparms_voice.o
 .data.__compound_literal.93
                0x00000000       0x20 boardparms_voice.o
 .data.__compound_literal.94
                0x00000000       0x20 boardparms_voice.o
 .data.__compound_literal.95
                0x00000000       0x20 boardparms_voice.o
 .data.g_voiceBoard_SI32260x2_SI3050
                0x00000000      0x130 boardparms_voice.o
 .bss.__compound_literal.96
                0x00000000        0x4 boardparms_voice.o
 .data.__compound_literal.97
                0x00000000        0x4 boardparms_voice.o
 .data.g_voiceBoard_LE9530
                0x00000000      0x130 boardparms_voice.o
 .bss.__compound_literal.98
                0x00000000        0x4 boardparms_voice.o
 .data.__compound_literal.99
                0x00000000        0x4 boardparms_voice.o
 .data.g_voiceBoard_LE9530_WB
                0x00000000      0x130 boardparms_voice.o
 .bss.__compound_literal.100
                0x00000000        0x4 boardparms_voice.o
 .data.__compound_literal.101
                0x00000000        0x4 boardparms_voice.o
 .data.g_voiceBoard_LE9540
                0x00000000      0x130 boardparms_voice.o
 .bss.__compound_literal.102
                0x00000000        0x4 boardparms_voice.o
 .data.__compound_literal.103
                0x00000000        0x4 boardparms_voice.o
 .data.g_voiceBoard_LE9540_WB
                0x00000000      0x130 boardparms_voice.o
 .bss.__compound_literal.104
                0x00000000        0x4 boardparms_voice.o
 .data.__compound_literal.105
                0x00000000        0x4 boardparms_voice.o
 .data.g_voiceBoard_LE9541
                0x00000000      0x130 boardparms_voice.o
 .bss.__compound_literal.106
                0x00000000        0x4 boardparms_voice.o
 .data.__compound_literal.107
                0x00000000        0x4 boardparms_voice.o
 .data.g_voiceBoard_LE9541_WB
                0x00000000      0x130 boardparms_voice.o
 .bss.__compound_literal.108
                0x00000000        0x4 boardparms_voice.o
 .data.__compound_literal.109
                0x00000000        0x4 boardparms_voice.o
 .data.g_voiceBoard_SI3239
                0x00000000      0x130 boardparms_voice.o
 .bss.__compound_literal.110
                0x00000000        0x4 boardparms_voice.o
 .data.__compound_literal.111
                0x00000000        0x4 boardparms_voice.o
 .data.g_voiceBoard_SI32392
                0x00000000      0x130 boardparms_voice.o
 .data.__compound_literal.112
                0x00000000       0x20 boardparms_voice.o
 .data.__compound_literal.113
                0x00000000       0x20 boardparms_voice.o
 .bss.__compound_literal.114
                0x00000000        0x4 boardparms_voice.o
 .data.__compound_literal.115
                0x00000000        0x4 boardparms_voice.o
 .data.g_voiceBoard_LE9530_LE88506
                0x00000000      0x130 boardparms_voice.o
 .data.g_iDectStdCfg
                0x00000000       0x50 boardparms_voice.o
 .text.BpSetDectPopulatedData
                0x00000000       0x30 boardparms_voice.o
 .text.BpGetVoiceBoardId
                0x00000000       0x90 boardparms_voice.o
 .text.BpGetVoiceBoardIds
                0x00000000       0xe8 boardparms_voice.o
 .text          0x00000000        0x0 shared_utils.o
 .data          0x00000000        0x0 shared_utils.o
 .bss           0x00000000        0x0 shared_utils.o
 .text.util_get_chip_id
                0x00000000       0x18 shared_utils.o
 .text.UtilGetChipRev
                0x00000000       0x34 shared_utils.o
 .text.UtilGetChipIsLP
                0x00000000       0x1c shared_utils.o
 .text.UtilGetChipIsPinCompatible
                0x00000000       0x28 shared_utils.o
 .text          0x00000000        0x0 bcm63xx_util.o
 .data          0x00000000        0x0 bcm63xx_util.o
 .bss           0x00000000        0x0 bcm63xx_util.o
 .rodata.overhead_blocks
                0x00000000        0x4 bcm63xx_util.o
 .text.nandCommand
                0x00000000      0x16c bcm63xx_util.o
 .text.wait_biu_pll_lock
                0x00000000       0x44 bcm63xx_util.o
 .text.set_biu_pll_post_divider
                0x00000000      0x140 bcm63xx_util.o
 .text          0x00000000        0x0 bcm63xx_auth.o
 .data          0x00000000        0x0 bcm63xx_auth.o
 .bss           0x00000000        0x0 bcm63xx_auth.o
 .text.find_boot_hash
                0x00000000      0x110 bcm63xx_auth.o
 .rodata        0x00000000       0x85 bcm63xx_auth.o
 .text.load_hash_block
                0x00000000      0x398 bcm63xx_auth.o
 .rodata.__func__.8852
                0x00000000       0x10 bcm63xx_auth.o
 .text          0x00000000        0x0 bcm63xx_ldr_raw.o
 .data          0x00000000        0x0 bcm63xx_ldr_raw.o
 .bss           0x00000000        0x0 bcm63xx_ldr_raw.o
 .rodata.rawloader
                0x00000000        0xc bcm63xx_ldr_raw.o
 .text          0x00000000        0x0 bcm63xx_ldr_elf.o
 .data          0x00000000        0x0 bcm63xx_ldr_elf.o
 .bss           0x00000000        0x0 bcm63xx_ldr_elf.o
 .rodata.elfloader
                0x00000000        0xc bcm63xx_ldr_elf.o
 .text          0x00000000        0x0 bcm63xx_main.o
 .data          0x00000000        0x0 bcm63xx_main.o
 .bss           0x00000000        0x0 bcm63xx_main.o
 .bss.cfe_startflags
                0x00000000        0x4 bcm63xx_main.o
 .text.cfe_command_restart
                0x00000000       0x20 bcm63xx_main.o
 .text          0x00000000        0x0 bcm63xx_env_subr.o
 .data          0x00000000        0x0 bcm63xx_env_subr.o
 .bss           0x00000000        0x0 bcm63xx_env_subr.o
 .text.env_envtype
                0x00000000       0x44 bcm63xx_env_subr.o
 .text          0x00000000        0x0 bcm63xx_httpd.o
 .data          0x00000000        0x0 bcm63xx_httpd.o
 .bss           0x00000000        0x0 bcm63xx_httpd.o
 .text          0x00000000        0x0 bcm63xx_httpd_web_var.o
 .data          0x00000000        0x0 bcm63xx_httpd_web_var.o
 .bss           0x00000000        0x0 bcm63xx_httpd_web_var.o
 .text          0x00000000        0x0 bcm63xx_nvram.o
 .data          0x00000000        0x0 bcm63xx_nvram.o
 .bss           0x00000000        0x0 bcm63xx_nvram.o
 .text.nvram_free
                0x00000000       0x50 bcm63xx_nvram.o
 .text.cfe_nvram_deinit
                0x00000000       0x14 bcm63xx_nvram.o
 .text          0x00000000        0x0 bcm63xx_net_icmp.o
 .data          0x00000000        0x0 bcm63xx_net_icmp.o
 .bss           0x00000000        0x0 bcm63xx_net_icmp.o
 .text          0x00000000        0x0 bcm_ubi.o
 .data          0x00000000        0x0 bcm_ubi.o
 .bss           0x00000000        0x0 bcm_ubi.o
 .text          0x00000000        0x0 bcmHsSpi.o
 .data          0x00000000        0x0 bcmHsSpi.o
 .bss           0x00000000        0x0 bcmHsSpi.o
 .text.BcmHsSpiRead
                0x00000000       0x7c bcmHsSpi.o
 .text          0x00000000        0x0 nandflash.o
 .data          0x00000000        0x0 nandflash.o
 .bss           0x00000000        0x0 nandflash.o
 .text.dump_spare_pages
                0x00000000      0x21c nandflash.o
 .text          0x00000000        0x0 spinandflash.o
 .data          0x00000000        0x0 spinandflash.o
 .bss           0x00000000        0x0 spinandflash.o
 .text          0x00000000        0x0 pmc_drv.o
 .data          0x00000000        0x0 pmc_drv.o
 .bss           0x00000000        0x0 pmc_drv.o
 .text.SendStateCommand
                0x00000000       0xb0 pmc_drv.o
 .text.GetRCalSetting
                0x00000000      0x1e0 pmc_drv.o
 .text.ReadZoneRegister
                0x00000000       0x8c pmc_drv.o
 .text.WriteZoneRegister
                0x00000000       0x84 pmc_drv.o
 .text.SetRunState
                0x00000000       0x64 pmc_drv.o
 .text.SetPowerState
                0x00000000       0x64 pmc_drv.o
 .text.GetSelect0
                0x00000000       0x64 pmc_drv.o
 .text.GetSelect3
                0x00000000       0x64 pmc_drv.o
 .text.PowerOffDevice
                0x00000000       0x98 pmc_drv.o
 .text.PowerOffZone
                0x00000000       0xb4 pmc_drv.o
 .text.ResetDevice
                0x00000000       0x9c pmc_drv.o
 .text.ResetZone
                0x00000000       0xb4 pmc_drv.o
 .text.BootPmcNoRom
                0x00000000       0x90 pmc_drv.o
 .bss.pmcBootParams
                0x00000000        0x4 pmc_drv.o
 .text.set_pmc_boot_param
                0x00000000      0x2fc pmc_drv.o
 .text.get_pmc_boot_param
                0x00000000      0x140 pmc_drv.o
 .text.init_pmc_boot_param
                0x00000000      0x224 pmc_drv.o
 .text.pmc_log_dump
                0x00000000       0x98 pmc_drv.o
 .rodata.__func__.9842
                0x00000000        0xf pmc_drv.o
 .rodata.__func__.9970
                0x00000000       0x13 pmc_drv.o
 .text          0x00000000        0x0 clk_rst.o
 .data          0x00000000        0x0 clk_rst.o
 .bss           0x00000000        0x0 clk_rst.o
 .text.pll_vco_freq_get
                0x00000000      0x150 clk_rst.o
 .text.pll_ch_freq_get
                0x00000000      0x2dc clk_rst.o
 .text.get_rdp_freq
                0x00000000       0x24 clk_rst.o
 .text.pll_ch_freq_vco_set
                0x00000000      0x35c clk_rst.o
 .text.set_vreg_clk
                0x00000000       0x18 clk_rst.o
 .text          0x00000000        0x0 ul.o
 .data          0x00000000        0x0 ul.o
 .bss           0x00000000        0x0 ul.o
 .text          0x00000000        0x0 ulinfo.o
 .data          0x00000000        0x0 ulinfo.o
 .bss           0x00000000        0x0 ulinfo.o
 .text          0x00000000        0x0 bcm63xx_dtb.o
 .data          0x00000000        0x0 bcm63xx_dtb.o
 .bss           0x00000000        0x0 bcm63xx_dtb.o
 .text.dtb_get_reserved_memory
                0x00000000      0x1e4 bcm63xx_dtb.o
 .text.dtb_get_cpu_rel_addr
                0x00000000       0xd0 bcm63xx_dtb.o
 .text.dtb_get_fdt_size
                0x00000000       0x50 bcm63xx_dtb.o
 .rodata.__func__.9820
                0x00000000       0x18 bcm63xx_dtb.o
 .text          0x00000000        0x0 bcm63xx_impl4_common.o
 .data          0x00000000        0x0 bcm63xx_impl4_common.o
 .bss           0x00000000        0x0 bcm63xx_impl4_common.o
 .text.board_earlyinit_common
                0x00000000       0x28 bcm63xx_impl4_common.o
 .text.uart_init
                0x00000000       0x54 bcm63xx_impl4_common.o
 .text.board_putc
                0x00000000       0x3c bcm63xx_impl4_common.o
 .text.board_puts
                0x00000000       0x74 bcm63xx_impl4_common.o
 .text.board_gets
                0x00000000        0x4 bcm63xx_impl4_common.o
 .text.board_getc
                0x00000000       0x24 bcm63xx_impl4_common.o
 .text          0x00000000        0x0 bcm63xx_impl2_smp.o
 .data          0x00000000        0x0 bcm63xx_impl2_smp.o
 .bss           0x00000000        0x0 bcm63xx_impl2_smp.o
 .text          0x00000000        0x8 bcm63xx_impl1_otp.o
 .data          0x00000000        0x0 bcm63xx_impl1_otp.o
 .bss           0x00000000        0x0 bcm63xx_impl1_otp.o
 .text.otp_is_btrm_enabled
                0x00000000      0x110 bcm63xx_impl1_otp.o
 .text.otp_is_boot_secure
                0x00000000       0xc0 bcm63xx_impl1_otp.o
 .debug_line    0x00000000       0xfc bcm63xx_impl1_otp.o
 .debug_info    0x00000000       0xb2 bcm63xx_impl1_otp.o
 .debug_abbrev  0x00000000       0x12 bcm63xx_impl1_otp.o
 .debug_aranges
                0x00000000       0x28 bcm63xx_impl1_otp.o
 .debug_ranges  0x00000000       0x20 bcm63xx_impl1_otp.o
 .ARM.attributes
                0x00000000       0x1d bcm63xx_impl1_otp.o
 .text          0x00000000        0x0 47622_mmu_map.o
 .data          0x00000000        0x0 47622_mmu_map.o
 .bss           0x00000000        0x0 47622_mmu_map.o
 .text.board_mmu_update_scn
                0x00000000        0xc 47622_mmu_map.o
 .text          0x00000000        0x0 bcm63xx_potp_sotp_util.o
 .data          0x00000000        0x0 bcm63xx_potp_sotp_util.o
 .bss           0x00000000        0x0 bcm63xx_potp_sotp_util.o
 .text.read_potp
                0x00000000       0x40 bcm63xx_potp_sotp_util.o
 .rodata        0x00000000       0xda bcm63xx_potp_sotp_util.o
 .text.read_sotp
                0x00000000      0x148 bcm63xx_potp_sotp_util.o
 .text.burn_sotp
                0x00000000       0xd4 bcm63xx_potp_sotp_util.o
 .text.burn_potp
                0x00000000       0x38 bcm63xx_potp_sotp_util.o
 .text.burn_potp_mid
                0x00000000       0x34 bcm63xx_potp_sotp_util.o
 .text.read_potp_mid
                0x00000000       0x58 bcm63xx_potp_sotp_util.o
 .debug_info    0x00000000      0x2d2 bcm63xx_potp_sotp_util.o
 .debug_abbrev  0x00000000      0x10d bcm63xx_potp_sotp_util.o
 .debug_loc     0x00000000      0x150 bcm63xx_potp_sotp_util.o
 .debug_aranges
                0x00000000       0x48 bcm63xx_potp_sotp_util.o
 .debug_ranges  0x00000000       0x38 bcm63xx_potp_sotp_util.o
 .debug_line    0x00000000      0x159 bcm63xx_potp_sotp_util.o
 .debug_str     0x00000000      0x338 bcm63xx_potp_sotp_util.o
 .comment       0x00000000       0x22 bcm63xx_potp_sotp_util.o
 .note.GNU-stack
                0x00000000        0x0 bcm63xx_potp_sotp_util.o
 .debug_frame   0x00000000       0xd0 bcm63xx_potp_sotp_util.o
 .ARM.attributes
                0x00000000       0x2d bcm63xx_potp_sotp_util.o
 .text          0x00000000        0x0 bcm63xx_sotp_if.o
 .data          0x00000000        0x0 bcm63xx_sotp_if.o
 .bss           0x00000000        0x0 bcm63xx_sotp_if.o
 .text.sotpReadSecKey
                0x00000000       0x44 bcm63xx_sotp_if.o
 .text.sotpLockSecKeyRead
                0x00000000       0x34 bcm63xx_sotp_if.o
 .text.sotpWriteSecKey
                0x00000000       0x44 bcm63xx_sotp_if.o
 .text.sotpSetMode
                0x00000000       0x2c bcm63xx_sotp_if.o
 .text.sotpGetMode
                0x00000000       0x28 bcm63xx_sotp_if.o
 .text          0x00000000        0x0 sotp_base_funcs.o
 .data          0x00000000        0x0 sotp_base_funcs.o
 .bss           0x00000000        0x0 sotp_base_funcs.o
 .rodata        0x00000000      0x9b8 sotp_base_funcs.o
 .text.sotpPollForFDone
                0x00000000       0xa8 sotp_base_funcs.o
 .text.sotpSetStartAndPollForCmdDone
                0x00000000       0xfc sotp_base_funcs.o
 .text.sotpPrepForFusing
                0x00000000      0x134 sotp_base_funcs.o
 .text.sotpFinishFusing
                0x00000000       0x84 sotp_base_funcs.o
 .text.sotpReadNonEccRow
                0x00000000      0x16c sotp_base_funcs.o
 .text.sotpFuseNonEccRow
                0x00000000       0xc0 sotp_base_funcs.o
 .text.sotpIsRegionFuseLocked
                0x00000000      0x150 sotp_base_funcs.o
 .text.sotpFuseLockRegion
                0x00000000      0x100 sotp_base_funcs.o
 .text.sotpWriteEccRow
                0x00000000      0x1b8 sotp_base_funcs.o
 .text.sotpFuseSecKeyRowFailBits
                0x00000000       0xb0 sotp_base_funcs.o
 .text.sotpRegionReadLockStatus
                0x00000000       0x5c sotp_base_funcs.o
 .text.sotpReadEccRow
                0x00000000      0x29c sotp_base_funcs.o
 .text.sotpReadKeyslotData
                0x00000000      0x2dc sotp_base_funcs.o
 .text.sotpLockSecKeyFuse
                0x00000000       0xa8 sotp_base_funcs.o
 .text.sotpReadLockRegion
                0x00000000       0xb8 sotp_base_funcs.o
 .text.sotpReadLockKeyslot
                0x00000000       0xf0 sotp_base_funcs.o
 .text.sotpKeySlotReadLockStatus
                0x00000000      0x128 sotp_base_funcs.o
 .text.sotpWriteKeyslotData
                0x00000000      0x4b4 sotp_base_funcs.o
 .text.dump_regions
                0x00000000      0x228 sotp_base_funcs.o
 .text.sotp_dump_map
                0x00000000      0x160 sotp_base_funcs.o
 .text.sotp_get_row_data
                0x00000000       0xa0 sotp_base_funcs.o
 .text.sotp_set_row_data
                0x00000000      0x10c sotp_base_funcs.o
 .text.sotp_get_keyslot_data
                0x00000000       0xd8 sotp_base_funcs.o
 .text.sotp_set_keyslot_data
                0x00000000       0xc8 sotp_base_funcs.o
 .text.sotp_set_region_readlock
                0x00000000       0x80 sotp_base_funcs.o
 .text.sotp_set_region_fuselock
                0x00000000       0x80 sotp_base_funcs.o
 .text.sotp_set_keyslot_readlock
                0x00000000       0x80 sotp_base_funcs.o
 .text.sotp_get_region_fuselock_status
                0x00000000       0x94 sotp_base_funcs.o
 .text.sotp_get_region_readlock_status
                0x00000000       0x94 sotp_base_funcs.o
 .text.sotp_get_keyslot_readlock_status
                0x00000000       0x94 sotp_base_funcs.o
 .rodata.__FUNCTION__.5925
                0x00000000       0x10 sotp_base_funcs.o
 .rodata.__FUNCTION__.5940
                0x00000000        0xf sotp_base_funcs.o
 .rodata.__FUNCTION__.5954
                0x00000000       0x14 sotp_base_funcs.o
 .rodata.__FUNCTION__.6009
                0x00000000       0x15 sotp_base_funcs.o
 .rodata.__FUNCTION__.6073
                0x00000000       0x12 sotp_base_funcs.o
 .text          0x00000000        0x0 bcm63xx_potp_sotp_cmd.o
 .data          0x00000000        0x0 bcm63xx_potp_sotp_cmd.o
 .bss           0x00000000        0x0 bcm63xx_potp_sotp_cmd.o
 .rodata        0x00000000      0x36d bcm63xx_potp_sotp_cmd.o
 .text.otpcfg   0x00000000      0x55c bcm63xx_potp_sotp_cmd.o
 .text.ui_init_otp_cmds
                0x00000000       0x5c bcm63xx_potp_sotp_cmd.o
 .debug_info    0x00000000      0x2ea bcm63xx_potp_sotp_cmd.o
 .debug_abbrev  0x00000000      0x12a bcm63xx_potp_sotp_cmd.o
 .debug_loc     0x00000000       0x70 bcm63xx_potp_sotp_cmd.o
 .debug_aranges
                0x00000000       0x28 bcm63xx_potp_sotp_cmd.o
 .debug_ranges  0x00000000       0x18 bcm63xx_potp_sotp_cmd.o
 .debug_line    0x00000000      0x14e bcm63xx_potp_sotp_cmd.o
 .debug_str     0x00000000      0x349 bcm63xx_potp_sotp_cmd.o
 .comment       0x00000000       0x22 bcm63xx_potp_sotp_cmd.o
 .note.GNU-stack
                0x00000000        0x0 bcm63xx_potp_sotp_cmd.o
 .debug_frame   0x00000000       0x54 bcm63xx_potp_sotp_cmd.o
 .ARM.attributes
                0x00000000       0x2d bcm63xx_potp_sotp_cmd.o
 .text          0x00000000        0x0 bcm63xx_auth_if.o
 .data          0x00000000        0x0 bcm63xx_auth_if.o
 .bss           0x00000000        0x0 bcm63xx_auth_if.o
 .text          0x00000000        0x0 bcm63xx_rsa.o
 .data          0x00000000        0x0 bcm63xx_rsa.o
 .bss           0x00000000        0x0 bcm63xx_rsa.o
 .text          0x00000000        0x0 bcm63xx_sha.o
 .data          0x00000000        0x0 bcm63xx_sha.o
 .bss           0x00000000        0x0 bcm63xx_sha.o
 .text.sec_verify_sha256
                0x00000000       0x54 bcm63xx_sha.o
 .text          0x00000000        0x0 bcm63xx_aes.o
 .data          0x00000000        0x0 bcm63xx_aes.o
 .bss           0x00000000        0x0 bcm63xx_aes.o
 .rodata.nTe    0x00000000      0x100 bcm63xx_aes.o
 .rodata.Td     0x00000000      0x400 bcm63xx_aes.o
 .rodata.nTd    0x00000000      0x100 bcm63xx_aes.o
 .text.aesExpandCipherKey
                0x00000000      0x304 bcm63xx_aes.o
 .text.aesInvertRoundKeys
                0x00000000       0xf8 bcm63xx_aes.o
 .text.aesInverseTransform
                0x00000000      0x10c bcm63xx_aes.o
 .text.aesInitDecrypt
                0x00000000       0x3c bcm63xx_aes.o
 .rodata        0x00000000       0x10 bcm63xx_aes.o
 .text.aesCompleteDecrypt
                0x00000000      0x540 bcm63xx_aes.o
 .debug_info    0x00000000      0x393 bcm63xx_aes.o
 .debug_abbrev  0x00000000       0xf6 bcm63xx_aes.o
 .debug_loc     0x00000000      0x13c bcm63xx_aes.o
 .debug_aranges
                0x00000000       0x40 bcm63xx_aes.o
 .debug_ranges  0x00000000       0x30 bcm63xx_aes.o
 .debug_line    0x00000000      0x289 bcm63xx_aes.o
 .debug_str     0x00000000      0x2c2 bcm63xx_aes.o
 .comment       0x00000000       0x22 bcm63xx_aes.o
 .note.GNU-stack
                0x00000000        0x0 bcm63xx_aes.o
 .debug_frame   0x00000000       0xb8 bcm63xx_aes.o
 .ARM.attributes
                0x00000000       0x2d bcm63xx_aes.o
 .text          0x00000000        0x0 bcm63xx_encr_if.o
 .data          0x00000000        0x0 bcm63xx_encr_if.o
 .bss           0x00000000        0x0 bcm63xx_encr_if.o
 .text.ek_iv_cleanup
                0x00000000       0x20 bcm63xx_encr_if.o
 .text.decryptWithEk
                0x00000000       0x44 bcm63xx_encr_if.o
 .text._aes_cbc_128_copy_block
                0x00000000       0x94 bcm63xx_encr_if.o
 .text._aes_cbc_128_xor_block
                0x00000000       0xb8 bcm63xx_encr_if.o
 .text._iterate_block_copy
                0x00000000       0x50 bcm63xx_encr_if.o
 .text._iterate_block
                0x00000000       0x4c bcm63xx_encr_if.o
 .text.aes_cbc128_decrypt
                0x00000000      0x114 bcm63xx_encr_if.o
 .debug_info    0x00000000      0x355 bcm63xx_encr_if.o
 .debug_abbrev  0x00000000      0x13c bcm63xx_encr_if.o
 .debug_loc     0x00000000      0x1b8 bcm63xx_encr_if.o
 .debug_aranges
                0x00000000       0x50 bcm63xx_encr_if.o
 .debug_ranges  0x00000000       0x40 bcm63xx_encr_if.o
 .debug_line    0x00000000      0x131 bcm63xx_encr_if.o
 .debug_str     0x00000000      0x2ec bcm63xx_encr_if.o
 .comment       0x00000000       0x22 bcm63xx_encr_if.o
 .note.GNU-stack
                0x00000000        0x0 bcm63xx_encr_if.o
 .debug_frame   0x00000000       0xf0 bcm63xx_encr_if.o
 .ARM.attributes
                0x00000000       0x2d bcm63xx_encr_if.o
 .text          0x00000000        0x0 ./libcfe.a(exchandler.o)
 .data          0x00000000        0x0 ./libcfe.a(exchandler.o)
 .bss           0x00000000        0x0 ./libcfe.a(exchandler.o)
 .text.exc_initialize_block
                0x00000000       0x6c ./libcfe.a(exchandler.o)
 .text.exc_cleanup_block
                0x00000000       0x64 ./libcfe.a(exchandler.o)
 .text.exc_cleanup_handler
                0x00000000       0x38 ./libcfe.a(exchandler.o)
 .text.mem_peek
                0x00000000      0x100 ./libcfe.a(exchandler.o)
 .text.mem_poke
                0x00000000       0xe4 ./libcfe.a(exchandler.o)
 .text          0x00000000        0x0 ./libcfe.a(lib_setjmp.o)
 .data          0x00000000        0x0 ./libcfe.a(lib_setjmp.o)
 .bss           0x00000000        0x0 ./libcfe.a(lib_setjmp.o)
 .text          0x00000000        0x0 ./libcfe.a(armv7_l1cache.o)
 .data          0x00000000        0x0 ./libcfe.a(armv7_l1cache.o)
 .bss           0x00000000        0x0 ./libcfe.a(armv7_l1cache.o)
 .text.armv7_branch_predict_enable
                0x00000000       0x1c ./libcfe.a(armv7_l1cache.o)
 .text.armv7_branch_predict_disable
                0x00000000       0x14 ./libcfe.a(armv7_l1cache.o)
 .text          0x00000000        0x0 ./libcfe.a(armv7_cpuinit.o)
 .data          0x00000000        0x0 ./libcfe.a(armv7_cpuinit.o)
 .bss           0x00000000        0x0 ./libcfe.a(armv7_cpuinit.o)
 .text.armv7_enable_branch_predictor
                0x00000000       0x18 ./libcfe.a(armv7_cpuinit.o)
 .text.armv7_l1cache_on
                0x00000000       0x24 ./libcfe.a(armv7_cpuinit.o)
 .text.armv7_l1cache_off
                0x00000000       0x20 ./libcfe.a(armv7_cpuinit.o)
 .text._getcntpct
                0x00000000        0x8 ./libcfe.a(armv7_cpuinit.o)
 .text          0x00000000        0x0 ./libcfe.a(mmu_map.o)
 .data          0x00000000        0x0 ./libcfe.a(mmu_map.o)
 .bss           0x00000000        0x0 ./libcfe.a(mmu_map.o)
 .text.mmu_invalidate_tlb
                0x00000000       0x14 ./libcfe.a(mmu_map.o)
 .text          0x00000000        0x0 ./libcfe.a(lib_malloc.o)
 .data          0x00000000        0x0 ./libcfe.a(lib_malloc.o)
 .bss           0x00000000        0x0 ./libcfe.a(lib_malloc.o)
 .text.kmempoolbase
                0x00000000       0x28 ./libcfe.a(lib_malloc.o)
 .text.kmempoolsize
                0x00000000       0x28 ./libcfe.a(lib_malloc.o)
 .text.kmempool_maxalloc
                0x00000000       0x80 ./libcfe.a(lib_malloc.o)
 .text          0x00000000        0x0 ./libcfe.a(lib_printf.o)
 .data          0x00000000        0x0 ./libcfe.a(lib_printf.o)
 .bss           0x00000000        0x0 ./libcfe.a(lib_printf.o)
 .text          0x00000000        0x0 ./libcfe.a(lib_queue.o)
 .data          0x00000000        0x0 ./libcfe.a(lib_queue.o)
 .bss           0x00000000        0x0 ./libcfe.a(lib_queue.o)
 .text.q_map    0x00000000       0x94 ./libcfe.a(lib_queue.o)
 .text.q_find   0x00000000       0x80 ./libcfe.a(lib_queue.o)
 .text          0x00000000        0x0 ./libcfe.a(lib_string.o)
 .data          0x00000000        0x0 ./libcfe.a(lib_string.o)
 .bss           0x00000000        0x0 ./libcfe.a(lib_string.o)
 .text.lib_strrchr
                0x00000000       0x70 ./libcfe.a(lib_string.o)
 .text.lib_strstr
                0x00000000       0xb0 ./libcfe.a(lib_string.o)
 .text.memcmp   0x00000000       0x38 ./libcfe.a(lib_string.o)
 .text.memmove  0x00000000       0x38 ./libcfe.a(lib_string.o)
 .text.memset   0x00000000       0x38 ./libcfe.a(lib_string.o)
 .text.lib_strupr
                0x00000000       0x5c ./libcfe.a(lib_string.o)
 .text          0x00000000        0x0 ./libcfe.a(lib_crc.o)
 .data          0x00000000        0x0 ./libcfe.a(lib_crc.o)
 .bss           0x00000000        0x0 ./libcfe.a(lib_crc.o)
 .text          0x00000000        0x0 ./libcfe.a(cfe_attach.o)
 .data          0x00000000        0x0 ./libcfe.a(cfe_attach.o)
 .bss           0x00000000        0x0 ./libcfe.a(cfe_attach.o)
 .text.cfe_device_reset
                0x00000000       0x84 ./libcfe.a(cfe_attach.o)
 .text.cfe_detach_dev
                0x00000000       0xa8 ./libcfe.a(cfe_attach.o)
 .text.cfe_device_name
                0x00000000       0x2c ./libcfe.a(cfe_attach.o)
 .text          0x00000000        0x0 ./libcfe.a(cfe_iocb_dispatch.o)
 .data          0x00000000        0x0 ./libcfe.a(cfe_iocb_dispatch.o)
 .bss           0x00000000        0x0 ./libcfe.a(cfe_iocb_dispatch.o)
 .text          0x00000000        0x0 ./libcfe.a(cfe_devfuncs.o)
 .data          0x00000000        0x0 ./libcfe.a(cfe_devfuncs.o)
 .bss           0x00000000        0x0 ./libcfe.a(cfe_devfuncs.o)
 .text.cfe_getticks
                0x00000000       0x60 ./libcfe.a(cfe_devfuncs.o)
 .text.cfe_getenv
                0x00000000       0x9c ./libcfe.a(cfe_devfuncs.o)
 .text.cfe_exit
                0x00000000       0x70 ./libcfe.a(cfe_devfuncs.o)
 .text          0x00000000        0x0 ./libcfe.a(cfe_console.o)
 .data          0x00000000        0x0 ./libcfe.a(cfe_console.o)
 .bss           0x00000000        0x0 ./libcfe.a(cfe_console.o)
 .text          0x00000000        0x0 ./libcfe.a(cfe_mem.o)
 .data          0x00000000        0x0 ./libcfe.a(cfe_mem.o)
 .bss           0x00000000        0x0 ./libcfe.a(cfe_mem.o)
 .text.cfe_arena_loadcheck
                0x00000000      0x108 ./libcfe.a(cfe_mem.o)
 .text          0x00000000        0x0 ./libcfe.a(cfe_timer.o)
 .data          0x00000000        0x0 ./libcfe.a(cfe_timer.o)
 .bss           0x00000000        0x0 ./libcfe.a(cfe_timer.o)
 .text          0x00000000        0x0 ./libcfe.a(cfe_background.o)
 .data          0x00000000        0x0 ./libcfe.a(cfe_background.o)
 .bss           0x00000000        0x0 ./libcfe.a(cfe_background.o)
 .text          0x00000000        0x0 ./libcfe.a(build_date.o)
 .data          0x00000000        0x0 ./libcfe.a(build_date.o)
 .bss           0x00000000        0x0 ./libcfe.a(build_date.o)
 .text          0x00000000        0x0 ./libcfe.a(cfe_filesys.o)
 .data          0x00000000        0x0 ./libcfe.a(cfe_filesys.o)
 .bss           0x00000000        0x0 ./libcfe.a(cfe_filesys.o)
 .text.fs_write
                0x00000000       0x48 ./libcfe.a(cfe_filesys.o)
 .text          0x00000000        0x0 ./libcfe.a(ui_command.o)
 .data          0x00000000        0x0 ./libcfe.a(ui_command.o)
 .bss           0x00000000        0x0 ./libcfe.a(ui_command.o)
 .data.varchars
                0x00000000        0x4 ./libcfe.a(ui_command.o)
 .text.cmd_sw_posn
                0x00000000       0xbc ./libcfe.a(ui_command.o)
 .text          0x00000000        0x0 ./libcfe.a(ui_cmddisp.o)
 .data          0x00000000        0x0 ./libcfe.a(ui_cmddisp.o)
 .bss           0x00000000        0x0 ./libcfe.a(ui_cmddisp.o)
 .text.dumplist
                0x00000000       0x74 ./libcfe.a(ui_cmddisp.o)
 .text.ui_restart
                0x00000000       0x40 ./libcfe.a(ui_cmddisp.o)
 .text          0x00000000        0x0 ./libcfe.a(ui_tftpd.o)
 .data          0x00000000        0x0 ./libcfe.a(ui_tftpd.o)
 .bss           0x00000000        0x0 ./libcfe.a(ui_tftpd.o)
 .text          0x00000000        0x0 ./libcfe.a(ui_netcmds.o)
 .data          0x00000000        0x0 ./libcfe.a(ui_netcmds.o)
 .bss           0x00000000        0x0 ./libcfe.a(ui_netcmds.o)
 .text          0x00000000        0x0 ./libcfe.a(net_tftp.o)
 .data          0x00000000        0x0 ./libcfe.a(net_tftp.o)
 .bss           0x00000000        0x0 ./libcfe.a(net_tftp.o)
 .text          0x00000000        0x0 ./libcfe.a(net_ip.o)
 .data          0x00000000        0x0 ./libcfe.a(net_ip.o)
 .bss           0x00000000        0x0 ./libcfe.a(net_ip.o)
 .text          0x00000000        0x0 ./libcfe.a(net_dns.o)
 .data          0x00000000        0x0 ./libcfe.a(net_dns.o)
 .bss           0x00000000        0x0 ./libcfe.a(net_dns.o)
 .text          0x00000000        0x0 ./libcfe.a(net_arp.o)
 .data          0x00000000        0x0 ./libcfe.a(net_arp.o)
 .bss           0x00000000        0x0 ./libcfe.a(net_arp.o)
 .text._arp_lookup
                0x00000000       0x4c ./libcfe.a(net_arp.o)
 .text          0x00000000        0x0 ./libcfe.a(net_api.o)
 .data          0x00000000        0x0 ./libcfe.a(net_api.o)
 .bss           0x00000000        0x0 ./libcfe.a(net_api.o)
 .text.tcp_connect
                0x00000000      0x164 ./libcfe.a(net_api.o)
 .text.tcp_bind
                0x00000000       0x64 ./libcfe.a(net_api.o)
 .text.tcp_peeraddr
                0x00000000       0x64 ./libcfe.a(net_api.o)
 .text.tcp_setflags
                0x00000000       0x60 ./libcfe.a(net_api.o)
 .text.tcp_getflags
                0x00000000       0x60 ./libcfe.a(net_api.o)
 .text.tcp_debug
                0x00000000       0x60 ./libcfe.a(net_api.o)
 .text.arp_lookup
                0x00000000       0x58 ./libcfe.a(net_api.o)
 .text          0x00000000        0x0 ./libcfe.a(net_tcp.o)
 .data          0x00000000        0x0 ./libcfe.a(net_tcp.o)
 .bss           0x00000000        0x0 ./libcfe.a(net_tcp.o)
 .bss._tcp_dumpflags
                0x00000000        0x4 ./libcfe.a(net_tcp.o)
 .text._tcp_connect
                0x00000000      0x118 ./libcfe.a(net_tcp.o)
 .text._tcp_bind
                0x00000000       0x84 ./libcfe.a(net_tcp.o)
 .text._tcp_setflags
                0x00000000       0x60 ./libcfe.a(net_tcp.o)
 .text._tcp_peeraddr
                0x00000000       0xb8 ./libcfe.a(net_tcp.o)
 .rodata        0x00000000       0x40 ./libcfe.a(net_tcp.o)
 .text._tcp_debug
                0x00000000       0x98 ./libcfe.a(net_tcp.o)
 .text          0x00000000        0x0 ./libcfe.a(net_tcpbuf.o)
 .data          0x00000000        0x0 ./libcfe.a(net_tcpbuf.o)
 .bss           0x00000000        0x0 ./libcfe.a(net_tcpbuf.o)
 .text          0x00000000        0x0 ./libcfe.a(net_nmrp.o)
 .data          0x00000000        0x0 ./libcfe.a(net_nmrp.o)
 .bss           0x00000000        0x0 ./libcfe.a(net_nmrp.o)
 .text.NMRPKeepAlive
                0x00000000       0x20 ./libcfe.a(net_nmrp.o)
 .data.reqkeepalive.4935
                0x00000000       0x48 ./libcfe.a(net_nmrp.o)
 .text          0x00000000        0x0 ./libcfe.a(dcapi.o)
 .data          0x00000000        0x0 ./libcfe.a(dcapi.o)
 .bss           0x00000000        0x0 ./libcfe.a(dcapi.o)
 .text          0x00000000        0x0 ./libcfe.a(fdt_ro.o)
 .data          0x00000000        0x0 ./libcfe.a(fdt_ro.o)
 .bss           0x00000000        0x0 ./libcfe.a(fdt_ro.o)
 .text.fdt_get_mem_rsv
                0x00000000       0xac ./libcfe.a(fdt_ro.o)
 .text.fdt_subnode_offset
                0x00000000       0x44 ./libcfe.a(fdt_ro.o)
 .text.fdt_get_name
                0x00000000       0xbc ./libcfe.a(fdt_ro.o)
 .text.fdt_getprop_by_offset
                0x00000000       0x90 ./libcfe.a(fdt_ro.o)
 .text.fdt_get_phandle
                0x00000000       0xa4 ./libcfe.a(fdt_ro.o)
 .text.fdt_get_alias
                0x00000000       0x40 ./libcfe.a(fdt_ro.o)
 .text.fdt_get_path
                0x00000000      0x240 ./libcfe.a(fdt_ro.o)
 .text.fdt_supernode_atdepth_offset
                0x00000000      0x144 ./libcfe.a(fdt_ro.o)
 .text.fdt_node_depth
                0x00000000       0x64 ./libcfe.a(fdt_ro.o)
 .text.fdt_parent_offset
                0x00000000       0x60 ./libcfe.a(fdt_ro.o)
 .text.fdt_node_offset_by_prop_value
                0x00000000       0xe0 ./libcfe.a(fdt_ro.o)
 .text.fdt_node_offset_by_phandle
                0x00000000       0xc0 ./libcfe.a(fdt_ro.o)
 .text._fdt_stringlist_contains
                0x00000000       0xcc ./libcfe.a(fdt_ro.o)
 .text.fdt_node_check_compatible
                0x00000000       0x80 ./libcfe.a(fdt_ro.o)
 .text.fdt_node_offset_by_compatible
                0x00000000       0xc8 ./libcfe.a(fdt_ro.o)
 .text          0x00000000        0x0 ./libcfe.a(fdt_rw.o)
 .data          0x00000000        0x0 ./libcfe.a(fdt_rw.o)
 .bss           0x00000000        0x0 ./libcfe.a(fdt_rw.o)
 .text.fdt64_to_cpu
                0x00000000      0x198 ./libcfe.a(fdt_rw.o)
 .text._fdt_mem_rsv
                0x00000000       0x50 ./libcfe.a(fdt_rw.o)
 .text._fdt_mem_rsv_w
                0x00000000       0x30 ./libcfe.a(fdt_rw.o)
 .text._fdt_splice_mem_rsv
                0x00000000       0xc8 ./libcfe.a(fdt_rw.o)
 .text.fdt_add_mem_rsv
                0x00000000       0xbc ./libcfe.a(fdt_rw.o)
 .text.fdt_del_mem_rsv
                0x00000000       0xa0 ./libcfe.a(fdt_rw.o)
 .text.fdt_set_name
                0x00000000       0xd8 ./libcfe.a(fdt_rw.o)
 .text.fdt_delprop
                0x00000000       0x9c ./libcfe.a(fdt_rw.o)
 .text.fdt_add_subnode_namelen
                0x00000000      0x19c ./libcfe.a(fdt_rw.o)
 .text.fdt_add_subnode
                0x00000000       0x44 ./libcfe.a(fdt_rw.o)
 .text          0x00000000        0x0 ./libcfe.a(fdt_wip.o)
 .data          0x00000000        0x0 ./libcfe.a(fdt_wip.o)
 .bss           0x00000000        0x0 ./libcfe.a(fdt_wip.o)
 .text.fdt32_to_cpu
                0x00000000       0x64 ./libcfe.a(fdt_wip.o)
 .text.fdt_offset_ptr_w
                0x00000000       0x3c ./libcfe.a(fdt_wip.o)
 .text.fdt_get_property_w
                0x00000000       0x40 ./libcfe.a(fdt_wip.o)
 .text.fdt_getprop_w
                0x00000000       0x40 ./libcfe.a(fdt_wip.o)
 .text.fdt_setprop_inplace
                0x00000000       0x84 ./libcfe.a(fdt_wip.o)
 .text._fdt_nop_region
                0x00000000       0x64 ./libcfe.a(fdt_wip.o)
 .text.fdt_nop_property
                0x00000000       0x68 ./libcfe.a(fdt_wip.o)
 .text.fdt_nop_node
                0x00000000       0x6c ./libcfe.a(fdt_wip.o)
 .text          0x00000000        0x0 ./libcfe.a(arm_arena.o)
 .data          0x00000000        0x0 ./libcfe.a(arm_arena.o)
 .bss           0x00000000        0x0 ./libcfe.a(arm_arena.o)
 .text          0x00000000        0x0 ./libcfe.a(armv7_arena.o)
 .data          0x00000000        0x0 ./libcfe.a(armv7_arena.o)
 .bss           0x00000000        0x0 ./libcfe.a(armv7_arena.o)
 .text.armv7_pagetable_init
                0x00000000       0x24 ./libcfe.a(armv7_arena.o)
 .text          0x00000000        0x0 ./libcfe.a(lib_string2.o)
 .data          0x00000000        0x0 ./libcfe.a(lib_string2.o)
 .bss           0x00000000        0x0 ./libcfe.a(lib_string2.o)
 .text.lib_trimleading
                0x00000000       0x44 ./libcfe.a(lib_string2.o)
 .text          0x00000000        0x0 ./libcfe.a(lib_arena.o)
 .data          0x00000000        0x0 ./libcfe.a(lib_arena.o)
 .bss           0x00000000        0x0 ./libcfe.a(lib_arena.o)
 .text          0x00000000        0x0 ./libcfe.a(net_ether.o)
 .data          0x00000000        0x0 ./libcfe.a(net_ether.o)
 .bss           0x00000000        0x0 ./libcfe.a(net_ether.o)
 .text.eth_getspeed
                0x00000000       0x50 ./libcfe.a(net_ether.o)
 .text.eth_getloopback
                0x00000000       0x50 ./libcfe.a(net_ether.o)
 .text.eth_getmtu
                0x00000000       0x4c ./libcfe.a(net_ether.o)
 .text          0x00000000        0x0 ./libcfe.a(net_udp.o)
 .data          0x00000000        0x0 ./libcfe.a(net_udp.o)
 .bss           0x00000000        0x0 ./libcfe.a(net_udp.o)
 .text          0x00000000        0x0 ./libcfe.a(LzmaDecode.o)
 .data          0x00000000        0x0 ./libcfe.a(LzmaDecode.o)
 .bss           0x00000000        0x0 ./libcfe.a(LzmaDecode.o)
 .text          0x00000000        0x0 ./libcfe.a(fdt.o)
 .data          0x00000000        0x0 ./libcfe.a(fdt.o)
 .bss           0x00000000        0x0 ./libcfe.a(fdt.o)
 .data          0x00000000        0x0 /opt/toolchains/crosstools-arm-gcc-5.5-linux-4.1-glibc-2.26-binutils-2.28.1/lib/gcc/arm-buildroot-linux-gnueabi/5.5.0/libgcc.a(_udivsi3.o)
 .bss           0x00000000        0x0 /opt/toolchains/crosstools-arm-gcc-5.5-linux-4.1-glibc-2.26-binutils-2.28.1/lib/gcc/arm-buildroot-linux-gnueabi/5.5.0/libgcc.a(_udivsi3.o)
 .data          0x00000000        0x0 /opt/toolchains/crosstools-arm-gcc-5.5-linux-4.1-glibc-2.26-binutils-2.28.1/lib/gcc/arm-buildroot-linux-gnueabi/5.5.0/libgcc.a(_divsi3.o)
 .bss           0x00000000        0x0 /opt/toolchains/crosstools-arm-gcc-5.5-linux-4.1-glibc-2.26-binutils-2.28.1/lib/gcc/arm-buildroot-linux-gnueabi/5.5.0/libgcc.a(_divsi3.o)
 .data          0x00000000        0x0 /opt/toolchains/crosstools-arm-gcc-5.5-linux-4.1-glibc-2.26-binutils-2.28.1/lib/gcc/arm-buildroot-linux-gnueabi/5.5.0/libgcc.a(_aeabi_uldivmod.o)
 .bss           0x00000000        0x0 /opt/toolchains/crosstools-arm-gcc-5.5-linux-4.1-glibc-2.26-binutils-2.28.1/lib/gcc/arm-buildroot-linux-gnueabi/5.5.0/libgcc.a(_aeabi_uldivmod.o)
 .data          0x00000000        0x0 /opt/toolchains/crosstools-arm-gcc-5.5-linux-4.1-glibc-2.26-binutils-2.28.1/lib/gcc/arm-buildroot-linux-gnueabi/5.5.0/libgcc.a(_dvmd_lnx.o)
 .bss           0x00000000        0x0 /opt/toolchains/crosstools-arm-gcc-5.5-linux-4.1-glibc-2.26-binutils-2.28.1/lib/gcc/arm-buildroot-linux-gnueabi/5.5.0/libgcc.a(_dvmd_lnx.o)
 .data          0x00000000        0x0 /opt/toolchains/crosstools-arm-gcc-5.5-linux-4.1-glibc-2.26-binutils-2.28.1/lib/gcc/arm-buildroot-linux-gnueabi/5.5.0/libgcc.a(_udivmoddi4.o)
 .bss           0x00000000        0x0 /opt/toolchains/crosstools-arm-gcc-5.5-linux-4.1-glibc-2.26-binutils-2.28.1/lib/gcc/arm-buildroot-linux-gnueabi/5.5.0/libgcc.a(_udivmoddi4.o)
 .ARM.extab     0x00000000        0x0 /opt/toolchains/crosstools-arm-gcc-5.5-linux-4.1-glibc-2.26-binutils-2.28.1/lib/gcc/arm-buildroot-linux-gnueabi/5.5.0/libgcc.a(_udivmoddi4.o)
 .data          0x00000000        0x0 /opt/toolchains/crosstools-arm-gcc-5.5-linux-4.1-glibc-2.26-binutils-2.28.1/lib/gcc/arm-buildroot-linux-gnueabi/5.5.0/libgcc.a(_lshrdi3.o)
 .bss           0x00000000        0x0 /opt/toolchains/crosstools-arm-gcc-5.5-linux-4.1-glibc-2.26-binutils-2.28.1/lib/gcc/arm-buildroot-linux-gnueabi/5.5.0/libgcc.a(_lshrdi3.o)
 .data          0x00000000        0x0 /opt/toolchains/crosstools-arm-gcc-5.5-linux-4.1-glibc-2.26-binutils-2.28.1/lib/gcc/arm-buildroot-linux-gnueabi/5.5.0/libgcc.a(_ashldi3.o)
 .bss           0x00000000        0x0 /opt/toolchains/crosstools-arm-gcc-5.5-linux-4.1-glibc-2.26-binutils-2.28.1/lib/gcc/arm-buildroot-linux-gnueabi/5.5.0/libgcc.a(_ashldi3.o)

Memory Configuration

Name             Origin             Length             Attributes
*default*        0x00000000         0xffffffff

Linker script and memory map


.text           0x00f00000    0x52ac4
                0x00f00000                _ftext = .
                0x00f00000                text_start = .
 *(.text.startup)
 .text.startup  0x00f00000      0xa04 init_arm.o
                0x00f00000                startup
                0x00f00040                mem_textreloc
                0x00f00044                mem_textbase
                0x00f00048                mem_textsize
                0x00f0004c                mem_totalsize
                0x00f00050                mem_usablesize
                0x00f00054                mem_topofmem
                0x00f00058                mem_heapstart
                0x00f0005c                mem_bottomofmem
                0x00f00060                mem_datareloc
                0x00f00064                mem_stacktop
                0x00f00068                mem_stackbottom
                0x00f0006c                cpu_prid
                0x00f00070                rom_option
                0x00f00074                fmw_arg0
                0x00f00078                segment_table
                0x00f0056c                _cferom_size
                0x00f00580                nvram_data_storage
 *(.init)
 *(.text)
 *fill*         0x00f00a04       0x1c 
 .text          0x00f00a20       0x4c exception.o
 *fill*         0x00f00a6c        0x4 
 .text          0x00f00a70        0x8 secondary_entry.o
                0x00f00a70                sec_entry_begin
 .text          0x00f00a78       0xc8 /opt/toolchains/crosstools-arm-gcc-5.5-linux-4.1-glibc-2.26-binutils-2.28.1/lib/gcc/arm-buildroot-linux-gnueabi/5.5.0/libgcc.a(_udivsi3.o)
                0x00f00a78                __udivsi3
                0x00f00a78                __aeabi_uidiv
                0x00f00b20                __aeabi_uidivmod
 .text          0x00f00b40       0xfc /opt/toolchains/crosstools-arm-gcc-5.5-linux-4.1-glibc-2.26-binutils-2.28.1/lib/gcc/arm-buildroot-linux-gnueabi/5.5.0/libgcc.a(_divsi3.o)
                0x00f00b40                __aeabi_idiv
                0x00f00b40                __divsi3
                0x00f00c1c                __aeabi_idivmod
 .text          0x00f00c3c       0x3c /opt/toolchains/crosstools-arm-gcc-5.5-linux-4.1-glibc-2.26-binutils-2.28.1/lib/gcc/arm-buildroot-linux-gnueabi/5.5.0/libgcc.a(_aeabi_uldivmod.o)
                0x00f00c3c                __aeabi_uldivmod
 .text          0x00f00c78       0x10 /opt/toolchains/crosstools-arm-gcc-5.5-linux-4.1-glibc-2.26-binutils-2.28.1/lib/gcc/arm-buildroot-linux-gnueabi/5.5.0/libgcc.a(_dvmd_lnx.o)
                0x00f00c78                __aeabi_ldiv0
                0x00f00c78                __aeabi_idiv0
 .text          0x00f00c88      0x118 /opt/toolchains/crosstools-arm-gcc-5.5-linux-4.1-glibc-2.26-binutils-2.28.1/lib/gcc/arm-buildroot-linux-gnueabi/5.5.0/libgcc.a(_udivmoddi4.o)
                0x00f00c88                __udivmoddi4
 .text          0x00f00da0       0x1c /opt/toolchains/crosstools-arm-gcc-5.5-linux-4.1-glibc-2.26-binutils-2.28.1/lib/gcc/arm-buildroot-linux-gnueabi/5.5.0/libgcc.a(_lshrdi3.o)
                0x00f00da0                __aeabi_llsr
                0x00f00da0                __lshrdi3
 .text          0x00f00dbc       0x1c /opt/toolchains/crosstools-arm-gcc-5.5-linux-4.1-glibc-2.26-binutils-2.28.1/lib/gcc/arm-buildroot-linux-gnueabi/5.5.0/libgcc.a(_ashldi3.o)
                0x00f00dbc                __ashldi3
                0x00f00dbc                __aeabi_llsl
 *(.text.*)
 .text._cfe_flushcache
                0x00f00dd8       0x10 init_arm.o
                0x00f00dd8                _cfe_flushcache
 .text.cfe_nonsecure
                0x00f00de8       0x8c init_arm.o
                0x00f00de8                cfe_nonsecure
 .text.cfe_launch
                0x00f00e74       0x30 init_arm.o
                0x00f00e74                cfe_launch
 .text.RunProgram
                0x00f00ea4       0x30 init_arm.o
                0x00f00ea4                RunProgram
 .text.get_SP   0x00f00ed4        0x8 init_arm.o
                0x00f00ed4                get_SP
 .text.cfe_save_context
                0x00f00edc       0x14 init_arm.o
                0x00f00edc                cfe_save_context
 .text.cfe_restore_context
                0x00f00ef0       0x14 init_arm.o
                0x00f00ef0                cfe_restore_context
 .text.cpu_apientry
                0x00f00f04        0x4 init_arm.o
                0x00f00f04                cpu_apientry
 .text.__traps  0x00f00f08      0x1d4 exception.o
                0x00f00f08                __traps
                0x00f00f08                tr_und
                0x00f00f2c                tr_swi
                0x00f00f50                tr_iab
                0x00f00f80                tr_dab
                0x00f00fb0                tr_bad
                0x00f00fe0                tr_irq
                0x00f01010                tr_fiq
 .text.raise    0x00f010dc        0x8 exception.o
                0x00f010dc                raise
 .text._exc_set_trap
                0x00f010e4       0x18 exception.o
                0x00f010e4                _exc_set_trap
 .text.armv7_exception_init
                0x00f010fc       0x60 exception.o
                0x00f010fc                armv7_exception_init
 .text._exc_restart
                0x00f0115c        0xc exception.o
                0x00f0115c                _exc_restart
 .text.cfe_warmstart
                0x00f01168        0x4 exception.o
                0x00f01168                cfe_warmstart
 *fill*         0x00f0116c       0x14 
 .text.secondary_startup
                0x00f01180      0x168 secondary_entry.o
                0x00f01180                secondary_startup
                0x00f012e8                sec_entry_end
 .text._bcm63xx_fix_pll
                0x00f012e8       0x18 bcm63xx_common.o
 .text.bcm_cmn_wd_reset
                0x00f01300       0x30 bcm63xx_common.o
                0x00f01300                bcm_cmn_wd_reset
 .text.bcm_cmn_wd_set
                0x00f01330       0x90 bcm63xx_common.o
                0x00f01330                bcm_cmn_wd_set
 .text.cfe_mailbox_status_isset
                0x00f013c0       0x38 bcm63xx_ipc.o
                0x00f013c0                cfe_mailbox_status_isset
 .text.bcm_otp_get_boot_sec_state
                0x00f013f8       0xf4 bcm63xx_sec.o
 .text._query_boot_status
                0x00f014ec       0x64 bcm63xx_sec.o
 .text.cfe_sec_init
                0x00f01550      0x1f8 bcm63xx_sec.o
                0x00f01550                cfe_sec_init
 .text.cfe_sec_shred_credentials
                0x00f01748       0x58 bcm63xx_sec.o
 .text._query_sec_console_status
                0x00f017a0       0x50 bcm63xx_sec.o
 .text.cfe_sec_is_console_nonsec
                0x00f017f0       0x34 bcm63xx_sec.o
                0x00f017f0                cfe_sec_is_console_nonsec
 .text.cfe_sec_set_console_privLvl
                0x00f01824       0xe0 bcm63xx_sec.o
                0x00f01824                cfe_sec_set_console_privLvl
 .text.cfe_sec_set_rng_access_permissions
                0x00f01904       0x34 bcm63xx_sec.o
                0x00f01904                cfe_sec_set_rng_access_permissions
 .text.cfe_sec_set_sotp_access_permissions
                0x00f01938       0x34 bcm63xx_sec.o
                0x00f01938                cfe_sec_set_sotp_access_permissions
 .text.pl011_set_baudrate
                0x00f0196c       0x74 dev_arm_pl011_uart.o
 .text.pl011_uart_probe
                0x00f019e0       0x7c dev_arm_pl011_uart.o
 .text.pl011_uart_open
                0x00f01a5c       0x74 dev_arm_pl011_uart.o
 .text.pl011_uart_read
                0x00f01ad0       0xac dev_arm_pl011_uart.o
 .text.pl011_uart_inpstat
                0x00f01b7c       0x54 dev_arm_pl011_uart.o
 .text.pl011_uart_write
                0x00f01bd0       0xc8 dev_arm_pl011_uart.o
 .text.pl011_uart_ioctl
                0x00f01c98       0xb8 dev_arm_pl011_uart.o
 .text.pl011_uart_close
                0x00f01d50       0x24 dev_arm_pl011_uart.o
 .text.BcmSpi_SetCtrlState
                0x00f01d74       0x84 bcmSpiRes.o
                0x00f01d74                BcmSpi_SetCtrlState
 .text.BcmSpi_SetFlashCtrl
                0x00f01df8       0x80 bcmSpiRes.o
                0x00f01df8                BcmSpi_SetFlashCtrl
 .text.BcmSpi_GetMaxRWSize
                0x00f01e78       0x44 bcmSpiRes.o
                0x00f01e78                BcmSpi_GetMaxRWSize
 .text.BcmSpi_Write
                0x00f01ebc       0x7c bcmSpiRes.o
                0x00f01ebc                BcmSpi_Write
 .text.BcmSpi_MultibitRead
                0x00f01f38       0x70 bcmSpiRes.o
                0x00f01f38                BcmSpi_MultibitRead
 .text.bcm_set_pinmux
                0x00f01fa8       0x80 bcm_pinmux_impl1.o
                0x00f01fa8                bcm_set_pinmux
 .text.bcm_init_pinmux
                0x00f02028      0x350 bcm_pinmux_impl1.o
                0x00f02028                bcm_init_pinmux
 .text.bcm_set_padctrl
                0x00f02378       0x7c bcm_misc_hw_init_impl6.o
 .text.bcm_misc_hw_xmii_pads_init
                0x00f023f4      0x310 bcm_misc_hw_init_impl6.o
 .text.bcm_misc_hw_set_intr_mux
                0x00f02704      0x134 bcm_misc_hw_init_impl6.o
 .text.bcm_misc_hw_intr_mux_init
                0x00f02838      0x164 bcm_misc_hw_init_impl6.o
                0x00f02838                bcm_misc_hw_intr_mux_init
 .text.bcm_misc_hw_init
                0x00f0299c       0x1c bcm_misc_hw_init_impl6.o
                0x00f0299c                bcm_misc_hw_init
 .text.bcm_gpio_set_dir
                0x00f029b8      0x160 bcm_gpio_impl1.o
                0x00f029b8                bcm_gpio_set_dir
 .text.bcm_gpio_get_data
                0x00f02b18       0x90 bcm_gpio_impl1.o
                0x00f02b18                bcm_gpio_get_data
 .text.bcm_gpio_set_data
                0x00f02ba8      0x170 bcm_gpio_impl1.o
                0x00f02ba8                bcm_gpio_set_data
 .text.bcm_common_gpio_init
                0x00f02d18       0x94 bcm_gpio_impl1.o
                0x00f02d18                bcm_common_gpio_init
 .text.otp_wait_status
                0x00f02dac       0x80 bcm_otp_impl1.o
 .text.bcm_otp_get_row
                0x00f02e2c       0x34 bcm_otp_impl1.o
                0x00f02e2c                bcm_otp_get_row
 .text.bcm_otp_get_row_ecc
                0x00f02e60      0x16c bcm_otp_impl1.o
                0x00f02e60                bcm_otp_get_row_ecc
 .text.sotp_sec89_both_readlocked
                0x00f02fcc       0x74 bcm_otp_impl1.o
                0x00f02fcc                sotp_sec89_both_readlocked
 .text.bcm_otp_fld_secure_rows
                0x00f03040       0x28 bcm_otp_impl1.o
                0x00f03040                bcm_otp_fld_secure_rows
 .text.bcm_otp_is_btrm_boot
                0x00f03068       0x28 bcm_otp_impl1.o
                0x00f03068                bcm_otp_is_btrm_boot
 .text.bcm_otp_is_boot_secure
                0x00f03090       0xc0 bcm_otp_impl1.o
                0x00f03090                bcm_otp_is_boot_secure
 .text.bcm_otp_is_boot_mfg_secure
                0x00f03150       0xe8 bcm_otp_impl1.o
                0x00f03150                bcm_otp_is_boot_mfg_secure
 .text.bcm_otp_get_nr_cpus
                0x00f03238       0x48 bcm_otp_impl1.o
                0x00f03238                bcm_otp_get_nr_cpus
 .text.led_do_set
                0x00f03280      0x1dc bcm_led_impl4.o
 .text.bcm_led_driver_get_optled_map
                0x00f0345c       0x20 bcm_led_impl4.o
                0x00f0345c                bcm_led_driver_get_optled_map
 .text.bcm_led_driver_set
                0x00f0347c      0x134 bcm_led_impl4.o
                0x00f0347c                bcm_led_driver_set
 .text.bcm_led_zero_flash_rate
                0x00f035b0       0x20 bcm_led_impl4.o
                0x00f035b0                bcm_led_zero_flash_rate
 .text.bcm_led_set_source
                0x00f035d0       0x44 bcm_led_impl4.o
                0x00f035d0                bcm_led_set_source
 .text.bcm_common_led_init
                0x00f03614       0x8c bcm_led_impl4.o
                0x00f03614                bcm_common_led_init
 .text.bcm_common_led_setAllSoftLedsOff
                0x00f036a0      0x1dc bcm_led_impl4.o
                0x00f036a0                bcm_common_led_setAllSoftLedsOff
 .text.init_pkt_desc
                0x00f0387c       0xd0 dev_bcm63xx_eth_impl4.o
 .text.__sp_enable_tdma
                0x00f0394c       0x7c dev_bcm63xx_eth_impl4.o
 .text.sp_enable_tdma
                0x00f039c8       0x34 dev_bcm63xx_eth_impl4.o
 .text.__sp_enable_rdma
                0x00f039fc       0x88 dev_bcm63xx_eth_impl4.o
 .text.sp_enable_rdma
                0x00f03a84       0x34 dev_bcm63xx_eth_impl4.o
                0x00f03a84                sp_enable_rdma
 .text.sp_reset
                0x00f03ab8      0x1f8 dev_bcm63xx_eth_impl4.o
                0x00f03ab8                sp_reset
 .text.__sp_init
                0x00f03cb0      0x2b0 dev_bcm63xx_eth_impl4.o
 .text.sp_init  0x00f03f60      0x128 dev_bcm63xx_eth_impl4.o
                0x00f03f60                sp_init
 .text.__sp_poll
                0x00f04088       0x60 dev_bcm63xx_eth_impl4.o
 .text.sp_poll  0x00f040e8       0xb4 dev_bcm63xx_eth_impl4.o
 .text.__sp_read
                0x00f0419c      0x130 dev_bcm63xx_eth_impl4.o
                0x00f0419c                __sp_read
 .text.sp_read  0x00f042cc       0x68 dev_bcm63xx_eth_impl4.o
                0x00f042cc                sp_read
 .text.__sp_write
                0x00f04334      0x10c dev_bcm63xx_eth_impl4.o
                0x00f04334                __sp_write
 .text.sp_write
                0x00f04440       0x7c dev_bcm63xx_eth_impl4.o
                0x00f04440                sp_write
 .text.bcm63xx_ether_probe
                0x00f044bc      0x190 dev_bcm63xx_eth_impl4.o
 .text.bcm63xx_ether_open
                0x00f0464c       0x24 dev_bcm63xx_eth_impl4.o
 .text.bcm63xx_ether_read
                0x00f04670       0x80 dev_bcm63xx_eth_impl4.o
 .text.bcm63xx_ether_inpstat
                0x00f046f0       0x28 dev_bcm63xx_eth_impl4.o
 .text.bcm63xx_ether_write
                0x00f04718       0x58 dev_bcm63xx_eth_impl4.o
 .text.bcm63xx_ether_ioctl
                0x00f04770       0x28 dev_bcm63xx_eth_impl4.o
 .text.bcm63xx_ether_close
                0x00f04798       0x28 dev_bcm63xx_eth_impl4.o
 .text.bcm_ethsw_led_init
                0x00f047c0      0x7d4 bcm_swled_impl2.o
                0x00f047c0                bcm_ethsw_led_init
 .text.bcm_ethsw_phy_read_reg
                0x00f04f94      0x160 bcm_ethsw_impl1.o
                0x00f04f94                bcm_ethsw_phy_read_reg
 .text.bcm_ethsw_phy_write_reg
                0x00f050f4       0xe4 bcm_ethsw_impl1.o
                0x00f050f4                bcm_ethsw_phy_write_reg
 .text.bcm_ethsw_phy_write_exp_reg
                0x00f051d8       0x60 bcm_ethsw_impl1.o
                0x00f051d8                bcm_ethsw_phy_write_exp_reg
 .text.bcm_ethsw_phy_write_misc_reg
                0x00f05238       0xb4 bcm_ethsw_impl1.o
                0x00f05238                bcm_ethsw_phy_write_misc_reg
 .text.phy_advertise_caps
                0x00f052ec      0x1d0 bcm_ethsw_impl1.o
 .text.phy_write_ext_bank_reg
                0x00f054bc       0xa0 bcm_ethsw_impl1.o
                0x00f054bc                phy_write_ext_bank_reg
 .text.sw_rreg  0x00f0555c      0x1d8 bcm_ethsw_impl1.o
 .text.sw_wreg  0x00f05734      0x1a8 bcm_ethsw_impl1.o
 .text.sw_reset
                0x00f058dc       0xcc bcm_ethsw_impl1.o
 .text.sw_hw_ready
                0x00f059a8       0x88 bcm_ethsw_impl1.o
 .text.sw_setup
                0x00f05a30      0x2a0 bcm_ethsw_impl1.o
 .text.sw_reg_save
                0x00f05cd0       0xb4 bcm_ethsw_impl1.o
 .text.sw_open  0x00f05d84       0xac bcm_ethsw_impl1.o
 .text.phy_rgmii_enable_ib_st
                0x00f05e30       0x8c bcm_ethsw_impl1.o
 .text.phy_rgmii_setup
                0x00f05ebc      0x1c0 bcm_ethsw_impl1.o
 .text.config_serdes
                0x00f0607c       0xf0 bcm_ethsw_impl1.o
 .text.phy_sgmii_init
                0x00f0616c       0xcc bcm_ethsw_impl1.o
 .text.phy_sgmii_setup
                0x00f06238       0x44 bcm_ethsw_impl1.o
 .text.phy_adjust_afe
                0x00f0627c      0x178 bcm_ethsw_impl1.o
 .text.phy_fixup
                0x00f063f4       0x40 bcm_ethsw_impl1.o
 .text.all_gphy_init_power_workaround
                0x00f06434      0x178 bcm_ethsw_impl1.o
                0x00f06434                all_gphy_init_power_workaround
 .text.bcm_ethsw_init
                0x00f065ac      0x324 bcm_ethsw_impl1.o
                0x00f065ac                bcm_ethsw_init
 .text.bcm_ethsw_open
                0x00f068d0       0x30 bcm_ethsw_impl1.o
                0x00f068d0                bcm_ethsw_open
 .text.pmc_sysport_power_up
                0x00f06900       0x2c pmc_sysport.o
                0x00f06900                pmc_sysport_power_up
 .text.pmc_sysport_reset_system_port
                0x00f0692c       0xd4 pmc_sysport.o
                0x00f0692c                pmc_sysport_reset_system_port
 .text.kerSysFlashInit
                0x00f06a00       0xf4 dev_bcm63xx_flash.o
                0x00f06a00                kerSysFlashInit
 .text.erase_misc_partition
                0x00f06af4      0x220 dev_bcm63xx_flash.o
                0x00f06af4                erase_misc_partition
 .text.getNumBootBlks
                0x00f06d14       0xf8 dev_bcm63xx_flash.o
                0x00f06d14                getNumBootBlks
 .text.validateNandPartTbl
                0x00f06e0c      0xd10 dev_bcm63xx_flash.o
                0x00f06e0c                validateNandPartTbl
 .text.kerSysFlashAddrInfoGet
                0x00f07b1c       0x30 dev_bcm63xx_flash.o
                0x00f07b1c                kerSysFlashAddrInfoGet
 .text.kerSysErasePsi
                0x00f07b4c       0xd8 dev_bcm63xx_flash.o
                0x00f07b4c                kerSysErasePsi
 .text.kerSysBcmImageSet
                0x00f07c24      0x354 dev_bcm63xx_flash.o
                0x00f07c24                kerSysBcmImageSet
 .text.get_flash_boot_cfe_version
                0x00f07f78       0xac dev_bcm63xx_flash.o
                0x00f07f78                get_flash_boot_cfe_version
 .text.kerSysSetBootImageState
                0x00f08024       0x28 dev_bcm63xx_flash.o
                0x00f08024                kerSysSetBootImageState
 .text.kerSysGetBootImageState
                0x00f0804c      0x150 dev_bcm63xx_flash.o
                0x00f0804c                kerSysGetBootImageState
 .text.strap_check_spinand
                0x00f0819c       0x38 flash_api.o
 .text.display_flash_info
                0x00f081d4      0x1a0 flash_api.o
 .text.flash_init
                0x00f08374      0x21c flash_api.o
                0x00f08374                flash_init
 .text.flash_sector_erase_int
                0x00f08590       0x5c flash_api.o
                0x00f08590                flash_sector_erase_int
 .text.flash_read_buf
                0x00f085ec       0x6c flash_api.o
                0x00f085ec                flash_read_buf
 .text.flash_write_buf
                0x00f08658       0x6c flash_api.o
                0x00f08658                flash_write_buf
 .text.flash_get_numsectors
                0x00f086c4       0x44 flash_api.o
                0x00f086c4                flash_get_numsectors
 .text.flash_get_sector_size
                0x00f08708       0x5c flash_api.o
                0x00f08708                flash_get_sector_size
 .text.flash_get_memptr
                0x00f08764       0x5c flash_api.o
                0x00f08764                flash_get_memptr
 .text.flash_get_blk
                0x00f087c0       0x54 flash_api.o
                0x00f087c0                flash_get_blk
 .text.flash_get_total_size
                0x00f08814       0x44 flash_api.o
                0x00f08814                flash_get_total_size
 .text.flash_dev_specific_cmd
                0x00f08858       0x64 flash_api.o
                0x00f08858                flash_dev_specific_cmd
 .text.flash_get_flash_type
                0x00f088bc       0x44 flash_api.o
                0x00f088bc                flash_get_flash_type
 .text.flash_init_info
                0x00f08900      0x934 flash_common.o
                0x00f08900                flash_init_info
 .text.flash_get_reserved_bytes_auxfs
                0x00f09234       0x4c flash_common.o
                0x00f09234                flash_get_reserved_bytes_auxfs
 .text.flash_get_reserved_bytes_at_end
                0x00f09280       0x80 flash_common.o
                0x00f09280                flash_get_reserved_bytes_at_end
 .text.board_console_init
                0x00f09300       0x40 bcm63xx_devs.o
                0x00f09300                board_console_init
 .text.cci500_enable
                0x00f09340       0x34 bcm63xx_devs.o
 .text.cfe_enable_ns_access
                0x00f09374       0x34 bcm63xx_devs.o
 .text.board_device_init
                0x00f093a8       0x48 bcm63xx_devs.o
                0x00f093a8                board_device_init
 .text.board_bootdevice_init
                0x00f093f0       0x14 bcm63xx_devs.o
                0x00f093f0                board_bootdevice_init
 .text.board_netdevice_init
                0x00f09404       0x34 bcm63xx_devs.o
                0x00f09404                board_netdevice_init
 .text.board_final_init
                0x00f09438      0x138 bcm63xx_devs.o
                0x00f09438                board_final_init
 .text.checkForResetToDefaultHold
                0x00f09570      0x128 bcm63xx_devs.o
 .text.setLed   0x00f09698       0x50 bcm63xx_devs.o
                0x00f09698                setLed
 .text.setAllLedsOff
                0x00f096e8       0x14 bcm63xx_devs.o
                0x00f096e8                setAllLedsOff
 .text.setPowerOnLedOn
                0x00f096fc       0x68 bcm63xx_devs.o
                0x00f096fc                setPowerOnLedOn
 .text.setBreakIntoCfeLed
                0x00f09764       0x68 bcm63xx_devs.o
                0x00f09764                setBreakIntoCfeLed
 .text.softReset
                0x00f097cc       0x44 bcm63xx_devs.o
                0x00f097cc                softReset
 .text.calculate_checksum
                0x00f09810      0x1f0 bcm63xx_devs.o
 .text.verify_checksum
                0x00f09a00       0xb8 bcm63xx_devs.o
                0x00f09a00                verify_checksum
 .text.flash_region_num
                0x00f09ab8       0x84 bcm63xx_devs.o
                0x00f09ab8                flash_region_num
 .text.enable_load_default_mode
                0x00f09b3c       0x54 bcm63xx_devs.o
                0x00f09b3c                enable_load_default_mode
 .text.power_led_off
                0x00f09b90       0x34 bcm63xx_devs.o
                0x00f09b90                power_led_off
 .text.power_led_toggle
                0x00f09bc4       0x38 bcm63xx_devs.o
                0x00f09bc4                power_led_toggle
 .text.diagnostic_led_on
                0x00f09bfc      0x138 bcm63xx_devs.o
                0x00f09bfc                diagnostic_led_on
 .text.diagnostic_led_off
                0x00f09d34      0x138 bcm63xx_devs.o
                0x00f09d34                diagnostic_led_off
 .text.diagnostic_led_toggle
                0x00f09e6c       0x68 bcm63xx_devs.o
                0x00f09e6c                diagnostic_led_toggle
 .text.chk_rst_btn_event
                0x00f09ed4       0x28 bcm63xx_devs.o
                0x00f09ed4                chk_rst_btn_event
 .text.parseWlanDeviceFeature
                0x00f09efc      0x150 bcm63xx_board.o
 .text.getWlanDeviceFeatureBoardParam
                0x00f0a04c       0xc0 bcm63xx_board.o
 .text.setWlanDeviceFeatureBoardParam
                0x00f0a10c      0x124 bcm63xx_board.o
                0x00f0a10c                setWlanDeviceFeatureBoardParam
 .text.parsehwaddr
                0x00f0a230      0x2c4 bcm63xx_board.o
 .text.parseMacAddr
                0x00f0a4f4       0x30 bcm63xx_board.o
 .text.parseBoardIdStr
                0x00f0a524       0x74 bcm63xx_board.o
 .text.parseVoiceBoardIdStr
                0x00f0a598       0x74 bcm63xx_board.o
 .text.parseDectSupportStr
                0x00f0a60c       0x74 bcm63xx_board.o
 .text.parseMacAddrCount
                0x00f0a680       0x4c bcm63xx_board.o
 .text.parsePsiSize
                0x00f0a6cc       0x4c bcm63xx_board.o
 .text.parseBackupPsi
                0x00f0a718       0x4c bcm63xx_board.o
 .text.parseSyslogSize
                0x00f0a764       0x4c bcm63xx_board.o
 .text.parseAuxFSPercent
                0x00f0a7b0       0x4c bcm63xx_board.o
 .text.charIsHex
                0x00f0a7fc       0x78 bcm63xx_board.o
 .text.parseGponSN
                0x00f0a874       0x9c bcm63xx_board.o
 .text.parseGponPW
                0x00f0a910       0x3c bcm63xx_board.o
 .text.parseWpsDevicePin
                0x00f0a94c      0x100 bcm63xx_board.o
 .text.__get_partition_size
                0x00f0aa4c      0x140 bcm63xx_board.o
 .text.__uf_partition_size
                0x00f0ab8c       0x80 bcm63xx_board.o
 .text.parsePartitionSizeStr
                0x00f0ac0c       0x54 bcm63xx_board.o
 .text.macNumToStr
                0x00f0ac60       0xc4 bcm63xx_board.o
 .text.gponParamsInitialized
                0x00f0ad24      0x120 bcm63xx_board.o
 .text.getGponBoardParam
                0x00f0ae44      0x1d4 bcm63xx_board.o
 .text.setGponBoardParam
                0x00f0b018       0xa8 bcm63xx_board.o
                0x00f0b018                setGponBoardParam
 .text.gWpsDevicePinParamsInitialized
                0x00f0b0c0       0x88 bcm63xx_board.o
 .text.getWpsDevicePinBoardParam
                0x00f0b148       0xb4 bcm63xx_board.o
 .text.setWpsDevicePinBoardParam
                0x00f0b1fc       0x7c bcm63xx_board.o
                0x00f0b1fc                setWpsDevicePinBoardParam
 .text.getVoiceSupportStatus
                0x00f0b278      0x130 bcm63xx_board.o
 .text.getVoiceBoardParam
                0x00f0b3a8      0x180 bcm63xx_board.o
 .text.setVoiceBoardParam
                0x00f0b528      0x3c0 bcm63xx_board.o
                0x00f0b528                setVoiceBoardParam
 .text.getBoardParam
                0x00f0b8e8      0x438 bcm63xx_board.o
                0x00f0b8e8                getBoardParam
 .text.setPartitionSizes
                0x00f0bd20      0x344 bcm63xx_board.o
                0x00f0bd20                setPartitionSizes
 .text.checkCompatBoardId
                0x00f0c064       0xa4 bcm63xx_board.o
 .text.setBoardParam
                0x00f0c108      0x5f0 bcm63xx_board.o
                0x00f0c108                setBoardParam
 .text.displayBoardParam
                0x00f0c6f8      0x59c bcm63xx_board.o
                0x00f0c6f8                displayBoardParam
 .text.ui_cmd_set_board_param
                0x00f0cc94      0x140 bcm63xx_cmd.o
 .text.ui_cmd_reset
                0x00f0cdd4       0x6c bcm63xx_cmd.o
 .text.ui_cmd_set_memsize
                0x00f0ce40      0x14c bcm63xx_cmd.o
 .text.yesno    0x00f0cf8c       0x54 bcm63xx_cmd.o
                0x00f0cf8c                yesno
 .text.ui_cmd_erase_psi
                0x00f0cfe0       0xf4 bcm63xx_cmd.o
 .text.ui_cmd_erase_nand
                0x00f0d0d4      0x680 bcm63xx_cmd.o
 .text.ui_cmd_erase
                0x00f0d754      0x2c8 bcm63xx_cmd.o
 .text.loadRaw  0x00f0da1c       0xb8 bcm63xx_cmd.o
 .text.format_host_file_name
                0x00f0dad4       0xc4 bcm63xx_cmd.o
 .text.ui_cmd_flash_image
                0x00f0db98      0x1f4 bcm63xx_cmd.o
 .text.ui_cmd_set_bootarg
                0x00f0dd8c       0xac bcm63xx_cmd.o
 .text.ui_cmd_load_dtb
                0x00f0de38       0xd8 bcm63xx_cmd.o
 .text.ui_cmd_write_whole_image
                0x00f0df10      0x178 bcm63xx_cmd.o
 .text.ui_cmd_flash_router_image
                0x00f0e088      0x49c bcm63xx_cmd.o
 .text.cfe_go   0x00f0e524       0xa0 bcm63xx_cmd.o
                0x00f0e524                cfe_go
 .text.bootImage
                0x00f0e5c4       0xd4 bcm63xx_cmd.o
 .text.bootCompressedImage
                0x00f0e698       0x28 bcm63xx_cmd.o
 .text.bootElfRamfsImage
                0x00f0e6c0      0x184 bcm63xx_cmd.o
 .text.bootNandImageFromRootfs
                0x00f0e844      0x470 bcm63xx_cmd.o
 .text.bootNandImage
                0x00f0ecb4      0x478 bcm63xx_cmd.o
 .text.boot_ramfs
                0x00f0f12c      0x260 bcm63xx_cmd.o
 .text.auto_run
                0x00f0f38c      0x27c bcm63xx_cmd.o
 .text.ui_cmd_run_program
                0x00f0f608      0x230 bcm63xx_cmd.o
 .text.ui_cmd_print_system_info
                0x00f0f838       0x2c bcm63xx_cmd.o
 .text.ui_cmd_change_bootline
                0x00f0f864       0x2c bcm63xx_cmd.o
 .text.ui_cmd_set_afe_id
                0x00f0f890       0x2c bcm63xx_cmd.o
 .text.ui_cmd_set_ddr_config
                0x00f0f8bc       0x2c bcm63xx_cmd.o
 .text.ui_cmd_set_avs_config
                0x00f0f8e8      0x140 bcm63xx_cmd.o
 .text.ui_dumphex
                0x00f0fa28      0x2fc bcm63xx_cmd.o
                0x00f0fa28                ui_dumphex
 .text.ui_dumpaddr
                0x00f0fd24      0x4c4 bcm63xx_cmd.o
                0x00f0fd24                ui_dumpaddr
 .text.ui_cmd_dump_words
                0x00f101e8       0x9c bcm63xx_cmd.o
 .text.ui_cmd_dump_halfwords
                0x00f10284       0x9c bcm63xx_cmd.o
 .text.ui_cmd_dump_bytes
                0x00f10320       0x9c bcm63xx_cmd.o
 .text.dump_nand
                0x00f103bc      0x288 bcm63xx_cmd.o
                0x00f103bc                dump_nand
 .text.ui_cmd_dump_nand
                0x00f10644      0x1c8 bcm63xx_cmd.o
 .text.ui_cmd_read_nand
                0x00f1080c       0x48 bcm63xx_cmd.o
 .text.ui_cmd_compare_blocks
                0x00f10854      0x670 bcm63xx_cmd.o
 .text.ui_cmd_find_string
                0x00f10ec4      0x200 bcm63xx_cmd.o
 .text.ui_cmd_find_bad_blocks
                0x00f110c4       0xa4 bcm63xx_cmd.o
 .text.ui_cmd_find_bad_bits
                0x00f11168      0x4c0 bcm63xx_cmd.o
 .text.ui_cmd_erase_nand_blk
                0x00f11628      0x144 bcm63xx_cmd.o
 .text.ui_cmd_force_spi_nand
                0x00f1176c       0x6c bcm63xx_cmd.o
 .text.ui_cmd_force_parallel_nand
                0x00f117d8       0x6c bcm63xx_cmd.o
 .text.ui_cmd_enable_raw_flash_write
                0x00f11844       0x8c bcm63xx_cmd.o
 .text.ui_cmd_set_kernp
                0x00f118d0      0x198 bcm63xx_cmd.o
 .text.ui_cmd_set_mem
                0x00f11a68      0x148 bcm63xx_cmd.o
 .text.ui_cmd_phy
                0x00f11bb0      0x12c bcm63xx_cmd.o
 .text.get_pvtmon_result
                0x00f11cdc       0x78 bcm63xx_cmd.o
 .text.set_ldo_vreg_ctrl
                0x00f11d54       0x54 bcm63xx_cmd.o
 .text.set_1p0_ldo_voltage
                0x00f11da8      0x234 bcm63xx_cmd.o
 .text.ui_cmd_vreg
                0x00f11fdc      0x16c bcm63xx_cmd.o
 .text.ui_cmd_set_force_mode
                0x00f12148      0x1cc bcm63xx_cmd.o
 .text.ui_cmd_spi_access
                0x00f12314       0x2c bcm63xx_cmd.o
 .text.ui_cmd_pmdio_access
                0x00f12340       0x2c bcm63xx_cmd.o
 .text.ui_cmd_set_cpufreq
                0x00f1236c       0x88 bcm63xx_cmd.o
 .text.ui_cmd_pmc_close_avs
                0x00f123f4      0x2ac bcm63xx_cmd.o
 .text.ui_cmd_pmc_cmd
                0x00f126a0      0x3f4 bcm63xx_cmd.o
 .text.ui_cmd_pmc_log
                0x00f12a94       0x4c bcm63xx_cmd.o
 .text.ui_cmd_write_loaded_imge
                0x00f12ae0       0xec bcm63xx_cmd.o
 .text.ui_cmd_loadb
                0x00f12bcc      0x3ac bcm63xx_cmd.o
 .text.ui_cmd_go
                0x00f12f78       0x60 bcm63xx_cmd.o
 .text.ui_cmd_set_partition_size
                0x00f12fd8       0x6c bcm63xx_cmd.o
 .text.ui_cmd_erase_misc_partition
                0x00f13044       0x8c bcm63xx_cmd.o
 .text.ui_cmd_meminfo
                0x00f130d0       0x34 bcm63xx_cmd.o
 .text.ui_cmd_nmrp
                0x00f13104       0x2c bcm63xx_cmd.o
                0x00f13104                ui_cmd_nmrp
 .text.ui_cmd_mem_test
                0x00f13130     0x13c8 bcm63xx_cmd.o
 .text.ui_init_bcm63xx_cmds
                0x00f144f8      0xb38 bcm63xx_cmd.o
 .text.runDelay
                0x00f15030       0xc4 bcm63xx_cmd.o
 .text.preboot_init
                0x00f150f4       0x18 bcm63xx_cmd.o
 .text.bcm63xx_run_ex
                0x00f1510c      0x1bc bcm63xx_cmd.o
                0x00f1510c                bcm63xx_run_ex
 .text.blparms_init
                0x00f152c8       0x44 bcm63xx_blparms.o
                0x00f152c8                blparms_init
 .text.blparms_set_int
                0x00f1530c       0x9c bcm63xx_blparms.o
                0x00f1530c                blparms_set_int
 .text.xparms_init
                0x00f153a8       0x84 bcm63xx_blparms.o
 .text.xparms_get
                0x00f1542c       0x24 bcm63xx_blparms.o
 .text.xparms_input
                0x00f15450      0x108 bcm63xx_blparms.o
 .text.chars_seq
                0x00f15558       0xa8 bcm63xx_blparms.o
 .text.char_ifeq
                0x00f15600       0x78 bcm63xx_blparms.o
 .text.not2chars_seq
                0x00f15678       0xbc bcm63xx_blparms.o
 .text.xparms_chek_tuples
                0x00f15734      0x13c bcm63xx_blparms.o
 .text.xparms_verify
                0x00f15870       0x68 bcm63xx_blparms.o
 .text.blparms_add_extra_parms
                0x00f158d8      0x1c8 bcm63xx_blparms.o
                0x00f158d8                blparms_add_extra_parms
 .text.blparms_set_bootcmd
                0x00f15aa0       0xd8 bcm63xx_blparms.o
                0x00f15aa0                blparms_set_bootcmd
 .text.is_cma_rsvmem_enabled
                0x00f15b78       0x7c bcm63xx_blparms.o
 .text.get_rsvmem_size
                0x00f15bf4       0x9c bcm63xx_blparms.o
 .text.set_rsvmem_offset_size
                0x00f15c90       0x90 bcm63xx_blparms.o
 .text.del_rsvmem
                0x00f15d20       0x80 bcm63xx_blparms.o
 .text.set_reserved_memory
                0x00f15da0      0x264 bcm63xx_blparms.o
                0x00f15da0                set_reserved_memory
 .text.dtb_set_bootcmd
                0x00f16004      0x120 bcm63xx_blparms.o
 .text.dtb_install
                0x00f16124      0x16c bcm63xx_blparms.o
                0x00f16124                dtb_install
 .text.blparms_install
                0x00f16290       0xd8 bcm63xx_blparms.o
                0x00f16290                blparms_install
 .text.bpstrcmp
                0x00f16368       0xf4 bp_funcs.o
                0x00f16368                bpstrcmp
 .text.BpGetElem
                0x00f1645c      0x1cc bp_funcs.o
                0x00f1645c                BpGetElem
 .text.BpGetNextElem
                0x00f16628       0x7c bp_funcs.o
 .text.BpGetSubCp
                0x00f166a4       0x60 bp_funcs.o
                0x00f166a4                BpGetSubCp
 .text.BpGetSubPtr
                0x00f16704       0x60 bp_funcs.o
                0x00f16704                BpGetSubPtr
 .text.BpGetSubUc
                0x00f16764       0x60 bp_funcs.o
                0x00f16764                BpGetSubUc
 .text.BpGetSubUs
                0x00f167c4       0x60 bp_funcs.o
                0x00f167c4                BpGetSubUs
 .text.BpGetSubUl
                0x00f16824       0x60 bp_funcs.o
                0x00f16824                BpGetSubUl
 .text.BpGetCp  0x00f16884       0x90 bp_funcs.o
                0x00f16884                BpGetCp
 .text.BpGetUs  0x00f16914       0x94 bp_funcs.o
                0x00f16914                BpGetUs
 .text.BpGetUl  0x00f169a8       0x90 bp_funcs.o
                0x00f169a8                BpGetUl
 .text.BpGetLastElem
                0x00f16a38       0x50 bp_funcs.o
                0x00f16a38                BpGetLastElem
 .text.BpEnumElement
                0x00f16a88       0xc8 bp_funcs.o
                0x00f16a88                BpEnumElement
 .text.BpEnumUs
                0x00f16b50       0x6c bp_funcs.o
                0x00f16b50                BpEnumUs
 .text.BpEnumUl
                0x00f16bbc       0x6c bp_funcs.o
                0x00f16bbc                BpEnumUl
 .text.BpGetVoipDspConfig
                0x00f16c28      0x380 bp_funcs.o
                0x00f16c28                BpGetVoipDspConfig
 .text.BpSetBoardId
                0x00f16fa8       0xb0 bp_funcs.o
                0x00f16fa8                BpSetBoardId
 .text.BpGetBoardId
                0x00f17058       0x90 bp_funcs.o
                0x00f17058                BpGetBoardId
 .text.BpGetBoardIdNameByIndex
                0x00f170e8       0x34 bp_funcs.o
                0x00f170e8                BpGetBoardIdNameByIndex
 .text.BPGetNumBoardIds
                0x00f1711c       0x50 bp_funcs.o
                0x00f1711c                BPGetNumBoardIds
 .text.BpUseTemplate
                0x00f1716c       0x74 bp_funcs.o
                0x00f1716c                BpUseTemplate
 .text.BpIsIdFromTemplate
                0x00f171e0       0xb0 bp_funcs.o
                0x00f171e0                BpIsIdFromTemplate
 .text.BpIsElemFromTemplate
                0x00f17290       0x58 bp_funcs.o
                0x00f17290                BpIsElemFromTemplate
 .text.BpGetBoardParamsFromElem
                0x00f172e8       0x98 bp_funcs.o
                0x00f172e8                BpGetBoardParamsFromElem
 .text.BpGetComment
                0x00f17380       0x2c bp_funcs.o
                0x00f17380                BpGetComment
 .text.BpEnumCompatChipId
                0x00f173ac       0x34 bp_funcs.o
                0x00f173ac                BpEnumCompatChipId
 .text.BpEnumGpioInitState
                0x00f173e0       0x34 bp_funcs.o
                0x00f173e0                BpEnumGpioInitState
 .text.IsParamPortHwLed
                0x00f17414      0x128 bp_funcs.o
 .text.GetSwitchBpSearchStopId
                0x00f1753c       0xe0 bp_funcs.o
 .text.GetEthernetMacInfo
                0x00f1761c      0xd54 bp_funcs.o
 .text.BpGetEthernetMacInfoArrayPtr
                0x00f18370       0x8c bp_funcs.o
                0x00f18370                BpGetEthernetMacInfoArrayPtr
 .text.BpGetGpio
                0x00f183fc       0x64 bp_funcs.o
                0x00f183fc                BpGetGpio
 .text.BpGetExtIntrGpio
                0x00f18460       0xbc bp_funcs.o
                0x00f18460                BpGetExtIntrGpio
 .text.BpGetBootloaderPowerOnLedGpio
                0x00f1851c       0x2c bp_funcs.o
                0x00f1851c                BpGetBootloaderPowerOnLedGpio
 .text.BpGetBootloaderStopLedGpio
                0x00f18548       0x2c bp_funcs.o
                0x00f18548                BpGetBootloaderStopLedGpio
 .text.BpGetAggregateLnkLedGpio
                0x00f18574       0x2c bp_funcs.o
                0x00f18574                BpGetAggregateLnkLedGpio
 .text.BpGetAggregateActLedGpio
                0x00f185a0       0x2c bp_funcs.o
                0x00f185a0                BpGetAggregateActLedGpio
 .text.BpGetResetToDefaultExtIntr
                0x00f185cc       0xa0 bp_funcs.o
                0x00f185cc                BpGetResetToDefaultExtIntr
 .text.BpGetResetToDefaultExtIntrGpio
                0x00f1866c       0xd4 bp_funcs.o
                0x00f1866c                BpGetResetToDefaultExtIntrGpio
 .text.BpGetGphyBaseAddress
                0x00f18740       0x2c bp_funcs.o
                0x00f18740                BpGetGphyBaseAddress
 .text.BpGetExtIntrNumGpio
                0x00f1876c       0xc0 bp_funcs.o
                0x00f1876c                BpGetExtIntrNumGpio
 .text.BpCheckExtIntr
                0x00f1882c      0x198 bp_funcs.o
                0x00f1882c                BpCheckExtIntr
 .text.BpGetLedGpio
                0x00f189c4       0x68 bp_funcs.o
                0x00f189c4                BpGetLedGpio
 .text.BpGetMemoryConfig
                0x00f18a2c       0x2c bp_funcs.o
                0x00f18a2c                BpGetMemoryConfig
 .text.BpGetSerialLedShiftOrder
                0x00f18a58       0x2c bp_funcs.o
                0x00f18a58                BpGetSerialLedShiftOrder
 .text.BpGetMaxNumCpu
                0x00f18a84       0x2c bp_funcs.o
                0x00f18a84                BpGetMaxNumCpu
 .text.BpGrepElemList
                0x00f18ab0       0x7c bp_funcs.o
 .text.BpGrepPinmuxListOnly
                0x00f18b2c      0x24c bp_funcs.o
 .text.BpGetIfacePinmux
                0x00f18d78      0x118 bp_funcs.o
                0x00f18d78                BpGetIfacePinmux
 .text.BpGetAllPinmux
                0x00f18e90      0xd4c bp_funcs.o
                0x00f18e90                BpGetAllPinmux
 .text.BpGetButtonInfo
                0x00f19bdc      0x27c bp_funcs.o
                0x00f19bdc                BpGetButtonInfo
 .text.BpGetButtonInfoByIdx
                0x00f19e58       0x94 bp_funcs.o
                0x00f19e58                BpGetButtonInfoByIdx
 .text.BpCheckPhyIntfIdExist
                0x00f19eec       0xa0 bp_funcs.o
 .text.BpGetIntfStart
                0x00f19f8c       0xc8 bp_funcs.o
                0x00f19f8c                BpGetIntfStart
 .text.BpIsPhyIntfInitDone
                0x00f1a054       0x24 bp_funcs.o
                0x00f1a054                BpIsPhyIntfInitDone
 .text.BpInitPhyIntfInfo
                0x00f1a078      0x3e8 bp_funcs.o
                0x00f1a078                BpInitPhyIntfInfo
 .text.BpGetPhyIntfInfo
                0x00f1a460       0x64 bp_funcs.o
                0x00f1a460                BpGetPhyIntfInfo
 .text.BpGetAdvLedInfoInIntf
                0x00f1a4c4      0x204 bp_funcs.o
 .text.BpGetAllAdvLedInfo
                0x00f1a6c8       0xf4 bp_funcs.o
                0x00f1a6c8                BpGetAllAdvLedInfo
 .text.bpmemcpy
                0x00f1a7bc       0x80 boardparms_voice.o
 .text.bpstrcpy
                0x00f1a83c       0x68 boardparms_voice.o
 .text.BpDectPopulated
                0x00f1a8a4       0x34 boardparms_voice.o
                0x00f1a8a4                BpDectPopulated
 .text.BpSetVoiceBoardId
                0x00f1a8d8       0xc0 boardparms_voice.o
                0x00f1a8d8                BpSetVoiceBoardId
 .text.BpGetNumVoiceBoardIds
                0x00f1a998       0x94 boardparms_voice.o
                0x00f1a998                BpGetNumVoiceBoardIds
 .text.BpGetVoiceBoardIdNameByIndex
                0x00f1aa2c       0xcc boardparms_voice.o
                0x00f1aa2c                BpGetVoiceBoardIdNameByIndex
 .text.BpGetVoiceDectType
                0x00f1aaf8       0x70 boardparms_voice.o
                0x00f1aaf8                BpGetVoiceDectType
 .text.BpGetVoiceBoardStartElemPtr
                0x00f1ab68       0xec boardparms_voice.o
 .text.BpGetVoicePmuxBp
                0x00f1ac54      0x6f0 boardparms_voice.o
                0x00f1ac54                BpGetVoicePmuxBp
 .text.BpIsIntfEnabled
                0x00f1b344       0x88 boardparms_voice.o
 .text.BpElemExists
                0x00f1b3cc       0x5c boardparms_voice.o
 .text.UtilGetChipId
                0x00f1b428       0x34 shared_utils.o
                0x00f1b428                UtilGetChipId
 .text.UtilGetChipName
                0x00f1b45c       0x88 shared_utils.o
                0x00f1b45c                UtilGetChipName
 .text.check_jffs_ubi_magic
                0x00f1b4e4      0x238 bcm63xx_util.o
 .text.cfe_stack_check
                0x00f1b71c       0xf4 bcm63xx_util.o
                0x00f1b71c                cfe_stack_check
 .text.cfe_stack_info
                0x00f1b810       0x78 bcm63xx_util.o
                0x00f1b810                cfe_stack_info
 .text.cfe_heap_info
                0x00f1b888      0x128 bcm63xx_util.o
                0x00f1b888                cfe_heap_info
 .text.cfe_mem_info
                0x00f1b9b0      0x120 bcm63xx_util.o
                0x00f1b9b0                cfe_mem_info
 .text.cfe_free_mem_info
                0x00f1bad0       0x84 bcm63xx_util.o
                0x00f1bad0                cfe_free_mem_info
 .text.cfe_get_mempool_ptr
                0x00f1bb54       0x34 bcm63xx_util.o
                0x00f1bb54                cfe_get_mempool_ptr
 .text.cfe_get_mempool_size
                0x00f1bb88       0x34 bcm63xx_util.o
                0x00f1bb88                cfe_get_mempool_size
 .text.parseFilename
                0x00f1bbbc       0x3c bcm63xx_util.o
 .text.parseChoiceFh
                0x00f1bbf8       0x5c bcm63xx_util.o
 .text.parseBootPartition
                0x00f1bc54       0x4c bcm63xx_util.o
 .text.parseChoice09
                0x00f1bca0       0x54 bcm63xx_util.o
 .text.lib_parseipaddr
                0x00f1bcf4      0x220 bcm63xx_util.o
                0x00f1bcf4                lib_parseipaddr
 .text.parsexdigit
                0x00f1bf14       0xa8 bcm63xx_util.o
                0x00f1bf14                parsexdigit
 .text.convertMaskStr
                0x00f1bfbc      0x130 bcm63xx_util.o
 .text.parseIpAddr
                0x00f1c0ec       0xbc bcm63xx_util.o
 .text.parseGwIpAddr
                0x00f1c1a8       0x44 bcm63xx_util.o
 .text.parseAfeId
                0x00f1c1ec       0x24 bcm63xx_util.o
 .text.parseDdrConfig
                0x00f1c210       0x24 bcm63xx_util.o
 .text.verifyImageDDRType
                0x00f1c234      0x170 bcm63xx_util.o
 .text.enet_init
                0x00f1c3a4      0x12c bcm63xx_util.o
                0x00f1c3a4                enet_init
 .text.checkChipId
                0x00f1c4d0       0xfc bcm63xx_util.o
 .text.verifyTag
                0x00f1c5cc      0x118 bcm63xx_util.o
                0x00f1c5cc                verifyTag
 .text.getRomParam
                0x00f1c6e4       0x4c bcm63xx_util.o
                0x00f1c6e4                getRomParam
 .text.read_blk
                0x00f1c730       0x4c bcm63xx_util.o
 .text.write_blk
                0x00f1c77c       0x4c bcm63xx_util.o
 .text.erase_blk
                0x00f1c7c8       0x3c bcm63xx_util.o
 .text.getSplitFromPartition
                0x00f1c804      0x5a4 bcm63xx_util.o
 .text.getTagFromPartition
                0x00f1cda8      0xa88 bcm63xx_util.o
                0x00f1cda8                getTagFromPartition
 .text.findBootImageDirEntry
                0x00f1d830      0x98c bcm63xx_util.o
                0x00f1d830                findBootImageDirEntry
 .text.getType  0x00f1e1bc      0x328 bcm63xx_util.o
 .text.getSeqNum
                0x00f1e4e4       0x50 bcm63xx_util.o
                0x00f1e4e4                getSeqNum
 .text.commit   0x00f1e534      0x354 bcm63xx_util.o
                0x00f1e534                commit
 .text.findBootBlock
                0x00f1e888      0x1ec bcm63xx_util.o
                0x00f1e888                findBootBlock
 .text.getPartitionFromTag
                0x00f1ea74      0x104 bcm63xx_util.o
                0x00f1ea74                getPartitionFromTag
 .text.getBootImageTag
                0x00f1eb78      0x144 bcm63xx_util.o
                0x00f1eb78                getBootImageTag
 .text.UpdateImageSequenceNumber
                0x00f1ecbc       0xbc bcm63xx_util.o
 .text.flashImage
                0x00f1ed78      0x160 bcm63xx_util.o
                0x00f1ed78                flashImage
 .text.flashImageSpiNor
                0x00f1eed8      0x7e4 bcm63xx_util.o
 .text.readBlk  0x00f1f6bc       0x60 bcm63xx_util.o
 .text.writeBlk
                0x00f1f71c       0x60 bcm63xx_util.o
 .text.nandUpdateImageSequenceNumber
                0x00f1f77c      0xa54 bcm63xx_util.o
 .text.writeWholeImageRaw
                0x00f201d0       0x64 bcm63xx_util.o
                0x00f201d0                writeWholeImageRaw
 .text.writeWholeImageDataPartition
                0x00f20234      0x274 bcm63xx_util.o
                0x00f20234                writeWholeImageDataPartition
 .text.findBootBlockInImage
                0x00f204a8       0xec bcm63xx_util.o
 .text.available_space_in_partition
                0x00f20594      0x12c bcm63xx_util.o
 .text.checkImageSizeForNand
                0x00f206c0      0x1e0 bcm63xx_util.o
 .text.nvram_data_mirror_search
                0x00f208a0      0x150 bcm63xx_util.o
 .text.writeWholeImage
                0x00f209f0      0x96c bcm63xx_util.o
                0x00f209f0                writeWholeImage
 .text.displayPromptUsage
                0x00f2135c       0x40 bcm63xx_util.o
                0x00f2135c                displayPromptUsage
 .text.processPrompt
                0x00f2139c      0x544 bcm63xx_util.o
                0x00f2139c                processPrompt
 .text.convertBootInfo
                0x00f218e0      0x1b8 bcm63xx_util.o
 .text.getBootLine
                0x00f21a98      0x2d4 bcm63xx_util.o
                0x00f21a98                getBootLine
 .text.printSysInfo
                0x00f21d6c      0x11c bcm63xx_util.o
                0x00f21d6c                printSysInfo
 .text.changeBootLine
                0x00f21e88      0x238 bcm63xx_util.o
                0x00f21e88                changeBootLine
 .text.setDefaultBootline
                0x00f220c0      0x104 bcm63xx_util.o
                0x00f220c0                setDefaultBootline
 .text.hex2Str  0x00f221c4      0x118 bcm63xx_util.o
 .text.changeAfeId
                0x00f222dc      0x104 bcm63xx_util.o
                0x00f222dc                changeAfeId
 .text.changeDDRConfig
                0x00f223e0       0x98 bcm63xx_util.o
                0x00f223e0                changeDDRConfig
 .text.nvFeatureGet
                0x00f22478       0x4c bcm63xx_util.o
                0x00f22478                nvFeatureGet
 .text.nvFeatureSet
                0x00f224c4      0x134 bcm63xx_util.o
                0x00f224c4                nvFeatureSet
 .text.getAVSConfig
                0x00f225f8       0x1c bcm63xx_util.o
                0x00f225f8                getAVSConfig
 .text.setAVSConfig
                0x00f22614       0x70 bcm63xx_util.o
                0x00f22614                setAVSConfig
 .text.validateMemoryConfig
                0x00f22684       0x84 bcm63xx_util.o
                0x00f22684                validateMemoryConfig
 .text.cfe_set_cpu_freq
                0x00f22708      0x110 bcm63xx_util.o
                0x00f22708                cfe_set_cpu_freq
 .text.convert_to_data_partition_entry_to_bytes
                0x00f22818       0x88 bcm63xx_util.o
                0x00f22818                convert_to_data_partition_entry_to_bytes
 .text.jffs2_is_jffs2
                0x00f228a0       0x38 bcm63xx_util.o
 .text.jffs2_is_dentry
                0x00f228d8       0x38 bcm63xx_util.o
 .text.jffs2_is_inode
                0x00f22910       0x38 bcm63xx_util.o
 .text.jffs2_match_dentry
                0x00f22948       0x6c bcm63xx_util.o
 .text.jffs2_get_dentry
                0x00f229b4      0x1b0 bcm63xx_util.o
 .text.jffs2_match_inode
                0x00f22b64      0x154 bcm63xx_util.o
 .text.jffs2_get_inode_size
                0x00f22cb8      0x1b8 bcm63xx_util.o
 .text.jffs2_get_inode_file
                0x00f22e70      0x328 bcm63xx_util.o
 .text.jffs2_find_dentry
                0x00f23198       0xd0 bcm63xx_util.o
 .text.jffs2_find_file
                0x00f23268       0x9c bcm63xx_util.o
 .text.read_blk_cb
                0x00f23304       0x4c bcm63xx_util.o
 .text.ubi_find_file
                0x00f23350      0x1e4 bcm63xx_util.o
 .text.cfe_fs_is_jffs2
                0x00f23534       0x28 bcm63xx_util.o
 .text.cfe_fs_is_ubi
                0x00f2355c       0x3c bcm63xx_util.o
 .text.cfe_fs_get_dentry_type
                0x00f23598      0x1c4 bcm63xx_util.o
 .text.cfe_fs_find_file
                0x00f2375c      0x148 bcm63xx_util.o
                0x00f2375c                cfe_fs_find_file
 .text.get_rootfs_offset
                0x00f238a4      0x1c0 bcm63xx_util.o
                0x00f238a4                get_rootfs_offset
 .text.cfe_fs_fetch_file
                0x00f23a64       0xcc bcm63xx_util.o
                0x00f23a64                cfe_fs_fetch_file
 .text.cfe_load_boot_file
                0x00f23b30      0x28c bcm63xx_util.o
                0x00f23b30                cfe_load_boot_file
 .text.min_data_partition_size_kb
                0x00f23dbc       0x68 bcm63xx_util.o
                0x00f23dbc                min_data_partition_size_kb
 .text.brcm_enforce_ui_cmd_restrictions
                0x00f23e24       0x3c bcm63xx_util.o
 .text.brcm_cmd_addcmd
                0x00f23e60       0x78 bcm63xx_util.o
                0x00f23e60                brcm_cmd_addcmd
 .text.set_nand_chosen_root
                0x00f23ed8       0xa0 bcm63xx_util.o
                0x00f23ed8                set_nand_chosen_root
 .text.get_nand_chosen_root
                0x00f23f78       0x20 bcm63xx_util.o
                0x00f23f78                get_nand_chosen_root
 .text.cfe_findbootblock
                0x00f23f98       0xb8 bcm63xx_ldr_raw.o
 .text.bcm63xx_cfe_rawload
                0x00f24050      0x408 bcm63xx_ldr_raw.o
                0x00f24050                bcm63xx_cfe_rawload
 .text.readprogsegment
                0x00f24458       0x94 bcm63xx_ldr_elf.o
 .text.readclearbss
                0x00f244ec       0x6c bcm63xx_ldr_elf.o
 .text.elfgetshdr
                0x00f24558      0x150 bcm63xx_ldr_elf.o
 .text.elfload_internal
                0x00f246a8      0x78c bcm63xx_ldr_elf.o
 .text.bcm63xx_cfe_elfload
                0x00f24e34      0x154 bcm63xx_ldr_elf.o
                0x00f24e34                bcm63xx_cfe_elfload
 .text.cfe_setup_default_env
                0x00f24f88       0x84 bcm63xx_main.o
 .text.cfe_ledstr
                0x00f2500c       0x20 bcm63xx_main.o
                0x00f2500c                cfe_ledstr
 .text.cfe_say_hello
                0x00f2502c       0xc4 bcm63xx_main.o
 .text.cfe_restart
                0x00f250f0       0x14 bcm63xx_main.o
                0x00f250f0                cfe_restart
 .text.cfe_start
                0x00f25104       0x24 bcm63xx_main.o
                0x00f25104                cfe_start
 .text.cfe_startup_info
                0x00f25128       0xbc bcm63xx_main.o
 .text.handle_cfe_abort
                0x00f251e4       0x7c bcm63xx_main.o
 .text.cfe_main
                0x00f25260       0xfc bcm63xx_main.o
                0x00f25260                cfe_main
 .text.cfe_command_loop
                0x00f2535c      0x11c bcm63xx_main.o
                0x00f2535c                cfe_command_loop
 .text.cfe_errortext
                0x00f25478       0x3c bcm63xx_main.o
                0x00f25478                cfe_errortext
 .text.calculateCpuSpeed
                0x00f254b4       0x60 bcm63xx_main.o
 .text.cfe_get_sdram_size
                0x00f25514       0x28 bcm63xx_main.o
                0x00f25514                cfe_get_sdram_size
 .text.cfe_set_prompt
                0x00f2553c       0x64 bcm63xx_main.o
 .text.cfe_init_sdram_size
                0x00f255a0       0x98 bcm63xx_main.o
 .text.env_findenv
                0x00f25638       0xa0 bcm63xx_env_subr.o
 .text.env_enum
                0x00f256d8       0xfc bcm63xx_env_subr.o
                0x00f256d8                env_enum
 .text.env_delenv
                0x00f257d4       0x74 bcm63xx_env_subr.o
                0x00f257d4                env_delenv
 .text.env_getenv
                0x00f25848       0x44 bcm63xx_env_subr.o
                0x00f25848                env_getenv
 .text.env_setenv
                0x00f2588c      0x14c bcm63xx_env_subr.o
                0x00f2588c                env_setenv
 .text.env_save
                0x00f259d8       0x1c bcm63xx_env_subr.o
                0x00f259d8                env_save
 .text.cfe_web_check
                0x00f259f4       0x34 bcm63xx_httpd.o
                0x00f259f4                cfe_web_check
 .text.cfe_web_fg_process
                0x00f25a28      0x200 bcm63xx_httpd.o
                0x00f25a28                cfe_web_fg_process
 .text.cfe_web_poll
                0x00f25c28      0x1d8 bcm63xx_httpd.o
                0x00f25c28                cfe_web_poll
 .text.cfe_web_listen
                0x00f25e00      0x17c bcm63xx_httpd.o
 .text.cfe_web_bg_process
                0x00f25f7c      0x4c4 bcm63xx_httpd.o
 .text.cfe_web_gets
                0x00f26440      0x15c bcm63xx_httpd.o
 .text.read_first_hdr
                0x00f2659c       0x98 bcm63xx_httpd.o
 .text.read_remaining_hdrs
                0x00f26634      0x118 bcm63xx_httpd.o
 .text.read_post_data
                0x00f2674c       0xec bcm63xx_httpd.o
 .text.parse_post_data
                0x00f26838      0x6d0 bcm63xx_httpd.o
 .text.send_error
                0x00f26f08      0x140 bcm63xx_httpd.o
 .text.send_headers
                0x00f27048      0x280 bcm63xx_httpd.o
 .text.send_page
                0x00f272c8      0x360 bcm63xx_httpd.o
 .text.cfe_web_tcp_send
                0x00f27628       0xb0 bcm63xx_httpd.o
 .text.get_web_var_value
                0x00f276d8      0x1d0 bcm63xx_httpd_web_var.o
 .text.cfe_web_get_num_web_vars
                0x00f278a8       0x5c bcm63xx_httpd_web_var.o
                0x00f278a8                cfe_web_get_num_web_vars
 .text.cfe_web_get_web_var
                0x00f27904      0x1f4 bcm63xx_httpd_web_var.o
                0x00f27904                cfe_web_get_web_var
 .text.check_jffs_ubi_magic
                0x00f27af8      0x238 bcm63xx_nvram.o
 .text.nv_mirror_alloc
                0x00f27d30       0x20 bcm63xx_nvram.o
 .text.populate_nv_mirror_info
                0x00f27d50      0x338 bcm63xx_nvram.o
 .text.nvram_write_mirrors
                0x00f28088      0x210 bcm63xx_nvram.o
 .text.nvram_alloc
                0x00f28298       0x20 bcm63xx_nvram.o
 .text.nvram_write
                0x00f282b8       0x50 bcm63xx_nvram.o
 .text.nvram_mirror_read
                0x00f28308      0x1a8 bcm63xx_nvram.o
 .text.nvram_read
                0x00f284b0       0xf8 bcm63xx_nvram.o
 .text.cfe_nvram_read_verify
                0x00f285a8       0x74 bcm63xx_nvram.o
                0x00f285a8                cfe_nvram_read_verify
 .text.cfe_nvram_init
                0x00f2861c       0xb0 bcm63xx_nvram.o
                0x00f2861c                cfe_nvram_init
 .text.cfe_nvram_sync
                0x00f286cc       0x28 bcm63xx_nvram.o
                0x00f286cc                cfe_nvram_sync
 .text.cfe_nvram_get
                0x00f286f4       0x24 bcm63xx_nvram.o
                0x00f286f4                cfe_nvram_get
 .text.nvram_set
                0x00f28718       0xbc bcm63xx_nvram.o
 .text.cfe_nvram_set
                0x00f287d4       0x40 bcm63xx_nvram.o
                0x00f287d4                cfe_nvram_set
 .text.cfe_nvram_copy_to
                0x00f28814       0x38 bcm63xx_nvram.o
                0x00f28814                cfe_nvram_copy_to
 .text.cfe_nvram_update
                0x00f2884c       0x78 bcm63xx_nvram.o
                0x00f2884c                cfe_nvram_update
 .text.cfe_nvram_update_member
                0x00f288c4       0x68 bcm63xx_nvram.o
                0x00f288c4                cfe_nvram_update_member
 .text.nvram_read_dev
                0x00f2892c       0xa0 bcm63xx_nvram.o
 .text.nvram_write_dev
                0x00f289cc      0x1dc bcm63xx_nvram.o
 .text.cfe_nvram_erase
                0x00f28ba8       0x44 bcm63xx_nvram.o
                0x00f28ba8                cfe_nvram_erase
 .text.icmp_rx_callback
                0x00f28bec      0x218 bcm63xx_net_icmp.o
 .text._icmp_init
                0x00f28e04       0x9c bcm63xx_net_icmp.o
                0x00f28e04                _icmp_init
 .text._icmp_uninit
                0x00f28ea0       0x40 bcm63xx_net_icmp.o
                0x00f28ea0                _icmp_uninit
 .text._icmp_ping
                0x00f28ee0       0x30 bcm63xx_net_icmp.o
                0x00f28ee0                _icmp_ping
 .text.parse_ubi
                0x00f28f10     0x2450 bcm_ubi.o
                0x00f28f10                parse_ubi
 .text.hsSpiReadP0
                0x00f2b360       0xc8 bcmHsSpi.o
 .text.hsSpiWriteP0
                0x00f2b428       0xa0 bcmHsSpi.o
 .text.hsSpiTransEnd
                0x00f2b4c8       0x78 bcmHsSpi.o
 .text.hsSpiTransPoll
                0x00f2b540       0xcc bcmHsSpi.o
 .text.hsSpiSetProfile
                0x00f2b60c      0x1d4 bcmHsSpi.o
 .text.hsSpiSetGlobalState
                0x00f2b7e0       0xac bcmHsSpi.o
 .text.BcmHsSpiMultibitRead
                0x00f2b88c       0xf4 bcmHsSpi.o
                0x00f2b88c                BcmHsSpiMultibitRead
 .text.BcmHsSpiWrite
                0x00f2b980       0x64 bcmHsSpi.o
                0x00f2b980                BcmHsSpiWrite
 .text.BcmHsSpiGetMaxRWSize
                0x00f2b9e4       0x40 bcmHsSpi.o
                0x00f2b9e4                BcmHsSpiGetMaxRWSize
 .text.BcmHsSpiSetup
                0x00f2ba24       0xfc bcmHsSpi.o
                0x00f2ba24                BcmHsSpiSetup
 .text.BcmHsSpiSetFlashCtrl
                0x00f2bb20      0x114 bcmHsSpi.o
                0x00f2bb20                BcmHsSpiSetFlashCtrl
 .text.nand_reset_device
                0x00f2bc34       0x34 nandflash.o
 .text.nand_flash_init
                0x00f2bc68      0x1f8 nandflash.o
                0x00f2bc68                nand_flash_init
 .text.nand_init_cleanmarker
                0x00f2be60      0x130 nandflash.o
 .text.nand_adjust_cfg
                0x00f2bf90      0xa4c nandflash.o
 .text.nand_is_blk_bad
                0x00f2c9dc      0x14c nandflash.o
 .text.nand_is_blk_cleanmarker
                0x00f2cb28      0x204 nandflash.o
 .text.nand_initialize_spare_area
                0x00f2cd2c      0x150 nandflash.o
 .text.nand_mark_bad_blk
                0x00f2ce7c      0x194 nandflash.o
 .text.nand_flash_sector_erase_int
                0x00f2d010       0x80 nandflash.o
 .text.nand_flash_read_buf
                0x00f2d090      0x230 nandflash.o
 .text.nand_flash_write_buf
                0x00f2d2c0      0x270 nandflash.o
 .text.nand_flash_get_memptr
                0x00f2d530       0x38 nandflash.o
 .text.nand_flash_get_blk
                0x00f2d568       0x3c nandflash.o
 .text.nand_flash_get_total_size
                0x00f2d5a4       0x24 nandflash.o
 .text.nand_flash_dev_specific_cmd
                0x00f2d5c8      0x35c nandflash.o
 .text.nand_flash_get_sector_size
                0x00f2d924       0x30 nandflash.o
 .text.nand_flash_get_numsectors
                0x00f2d954       0x38 nandflash.o
 .text.nandflash_copy_from_cache
                0x00f2d98c      0x1b8 nandflash.o
                0x00f2d98c                nandflash_copy_from_cache
 .text.nandflash_copy_from_spare
                0x00f2db44      0x1c8 nandflash.o
                0x00f2db44                nandflash_copy_from_spare
 .text.nandflash_copy_to_cache
                0x00f2dd0c      0x13c nandflash.o
                0x00f2dd0c                nandflash_copy_to_cache
 .text.nandflash_copy_to_spare
                0x00f2de48       0xf8 nandflash.o
                0x00f2de48                nandflash_copy_to_spare
 .text.nandflash_wait_status
                0x00f2df40       0xc0 nandflash.o
 .text.nandflash_wait_cmd
                0x00f2e000       0x1c nandflash.o
                0x00f2e000                nandflash_wait_cmd
 .text.nandflash_wait_device
                0x00f2e01c       0x1c nandflash.o
                0x00f2e01c                nandflash_wait_device
 .text.nandflash_wait_cache
                0x00f2e038       0x1c nandflash.o
                0x00f2e038                nandflash_wait_cache
 .text.nandflash_wait_spare
                0x00f2e054       0x1c nandflash.o
                0x00f2e054                nandflash_wait_spare
 .text.turn_off_ecc
                0x00f2e070       0x54 nandflash.o
 .text.nandflash_check_ecc
                0x00f2e0c4       0x8c nandflash.o
 .text.check_ecc_for_ffs
                0x00f2e150      0x124 nandflash.o
 .text.nandflash_write_spare_area
                0x00f2e274      0x28c nandflash.o
 .text.nandflash_read_spare_area
                0x00f2e500      0x180 nandflash.o
 .text.nandflash_read_page
                0x00f2e680      0x394 nandflash.o
 .text.nandflash_write_page
                0x00f2ea14      0x320 nandflash.o
 .text.nandflash_block_erase
                0x00f2ed34      0x12c nandflash.o
 .text.dump_spare
                0x00f2ee60      0x204 nandflash.o
                0x00f2ee60                dump_spare
 .text.read_spare_data
                0x00f2f064      0x198 nandflash.o
                0x00f2f064                read_spare_data
 .text.spiRead  0x00f2f1fc       0x40 spinandflash.o
 .text.spiWrite
                0x00f2f23c       0x50 spinandflash.o
 .text.spi_nand_read_cfg
                0x00f2f28c      0xad4 spinandflash.o
 .text.spi_nand_init
                0x00f2fd60      0x2c0 spinandflash.o
                0x00f2fd60                spi_nand_init
 .text.spi_nand_row_addr
                0x00f30020       0x90 spinandflash.o
 .text.spi_nand_col_addr
                0x00f300b0       0xdc spinandflash.o
 .text.spi_nand_reset
                0x00f3018c       0x64 spinandflash.o
 .text.spi_xfr  0x00f301f0      0x1c8 spinandflash.o
 .text.count_bits
                0x00f303b8       0xc0 spinandflash.o
 .text.spi_nand_page_read
                0x00f30478      0x11c spinandflash.o
                0x00f30478                spi_nand_page_read
 .text.spi_nand_read_page
                0x00f30594      0x5a0 spinandflash.o
 .text.spi_nand_read_buf
                0x00f30b34      0x334 spinandflash.o
                0x00f30b34                spi_nand_read_buf
 .text.spi_nand_status
                0x00f30e68       0x20 spinandflash.o
 .text.spi_nand_ready
                0x00f30e88       0x2c spinandflash.o
 .text.spi_nand_cmd
                0x00f30eb4       0x78 spinandflash.o
 .text.spi_nand_get_cmd
                0x00f30f2c       0x90 spinandflash.o
 .text.spi_nand_set_feat
                0x00f30fbc       0x68 spinandflash.o
 .text.spi_nand_ecc
                0x00f31024       0x60 spinandflash.o
 .text.spi_nand_get_numsectors
                0x00f31084       0x24 spinandflash.o
                0x00f31084                spi_nand_get_numsectors
 .text.spi_nand_get_sector_size
                0x00f310a8       0x30 spinandflash.o
                0x00f310a8                spi_nand_get_sector_size
 .text.spi_nand_get_total_size
                0x00f310d8       0x24 spinandflash.o
 .text.spi_nand_dev_specific_cmd
                0x00f310fc      0x2c0 spinandflash.o
 .text.spi_nand_get_device_id
                0x00f313bc       0xe4 spinandflash.o
 .text.spi_nand_sector_erase_blk
                0x00f314a0      0x234 spinandflash.o
 .text.spi_nand_write_enable
                0x00f316d4       0x94 spinandflash.o
 .text.spi_nand_write_disable
                0x00f31768       0x5c spinandflash.o
 .text.spi_nand_page_write
                0x00f317c4      0x208 spinandflash.o
 .text.spi_nand_write_page
                0x00f319cc      0x5dc spinandflash.o
 .text.spi_nand_write_buf
                0x00f31fa8      0x650 spinandflash.o
 .text.spi_nand_wel
                0x00f325f8       0x2c spinandflash.o
 .text.spi_nand_is_blk_bad
                0x00f32624       0xe4 spinandflash.o
 .text.spi_nand_mark_bad_blk
                0x00f32708       0xac spinandflash.o
 .text.spi_nand_get_memptr
                0x00f327b4       0x38 spinandflash.o
 .text.spi_nand_get_blk
                0x00f327ec       0x38 spinandflash.o
 .text.spi_nand_place_jffs2_clean_marker
                0x00f32824      0x13c spinandflash.o
 .text.spi_nand_is_cleanmarker
                0x00f32960      0x208 spinandflash.o
                0x00f32960                spi_nand_is_cleanmarker
 .text.dump_spi_spare
                0x00f32b68      0x220 spinandflash.o
                0x00f32b68                dump_spi_spare
 .text.deviceAddressable
                0x00f32d88       0x28 pmc_drv.o
 .text.pmc_spin_lock
                0x00f32db0       0x18 pmc_drv.o
 .text.pmc_spin_unlock
                0x00f32dc8       0x18 pmc_drv.o
 .text.read_bpcm_reg_direct
                0x00f32de0      0x118 pmc_drv.o
 .text.write_bpcm_reg_direct
                0x00f32ef8      0x110 pmc_drv.o
 .text.is_pmc_running
                0x00f33008       0x44 pmc_drv.o
 .text.SendAndWait
                0x00f3304c      0x330 pmc_drv.o
 .text.SendCmd  0x00f3337c       0xb0 pmc_drv.o
 .text.SendCommand
                0x00f3342c       0x60 pmc_drv.o
 .text.GetRevision
                0x00f3348c       0x94 pmc_drv.o
                0x00f3348c                GetRevision
 .text.pvtmon_enable
                0x00f33520      0x114 pmc_drv.o
 .text.read_pvt_direct
                0x00f33634       0xd4 pmc_drv.o
 .text.GetPVT   0x00f33708       0x34 pmc_drv.o
                0x00f33708                GetPVT
 .text.ReadBPCMRegister
                0x00f3373c       0x68 pmc_drv.o
                0x00f3373c                ReadBPCMRegister
 .text.WriteBPCMRegister
                0x00f337a4       0x68 pmc_drv.o
                0x00f337a4                WriteBPCMRegister
 .text.PowerOnDevice
                0x00f3380c       0x9c pmc_drv.o
                0x00f3380c                PowerOnDevice
 .text.PowerOnZone
                0x00f338a8       0xec pmc_drv.o
                0x00f338a8                PowerOnZone
 .text.CloseAVS
                0x00f33994       0xc8 pmc_drv.o
                0x00f33994                CloseAVS
 .text.PMCcmd   0x00f33a5c       0x34 pmc_drv.o
                0x00f33a5c                PMCcmd
 .text.WaitPmc  0x00f33a90       0xb8 pmc_drv.o
                0x00f33a90                WaitPmc
 .text.pmc_initmode
                0x00f33b48       0x44 pmc_drv.o
                0x00f33b48                pmc_initmode
 .text.pmc_log  0x00f33b8c       0xb8 pmc_drv.o
                0x00f33b8c                pmc_log
 .text.pmc_boot
                0x00f33c44      0x130 pmc_drv.o
 .text.pmc_init
                0x00f33d74       0x88 pmc_drv.o
                0x00f33d74                pmc_init
 .text.pmc_reset
                0x00f33dfc       0x18 pmc_drv.o
                0x00f33dfc                pmc_reset
 .text.pmc_convert_pvtmon
                0x00f33e14      0x15c pmc_drv.o
                0x00f33e14                pmc_convert_pvtmon
 .text.pmc_get_tracktemp
                0x00f33f70       0x98 pmc_drv.o
                0x00f33f70                pmc_get_tracktemp
 .text.pmc_set_tracktemp
                0x00f34008       0x7c pmc_drv.o
                0x00f34008                pmc_set_tracktemp
 .text.pll_ch_freq_set
                0x00f34084      0x268 clk_rst.o
                0x00f34084                pll_ch_freq_set
 .text.fdt32_to_cpu
                0x00f342ec       0x64 bcm63xx_dtb.o
 .text.fdt64_to_cpu
                0x00f34350      0x198 bcm63xx_dtb.o
 .text.fdt_setprop_u32
                0x00f344e8       0x60 bcm63xx_dtb.o
 .text.get_dtb_ptr
                0x00f34548       0x44 bcm63xx_dtb.o
 .text.dtb_load
                0x00f3458c      0x128 bcm63xx_dtb.o
 .text.dtb_setprop
                0x00f346b4       0x6c bcm63xx_dtb.o
 .text.dtb_getprop
                0x00f34720       0x64 bcm63xx_dtb.o
 .text.dtb_delnode
                0x00f34784       0x54 bcm63xx_dtb.o
 .text.dtb_init
                0x00f347d8       0xe4 bcm63xx_dtb.o
                0x00f347d8                dtb_init
 .text.dtb_prepare_fdt
                0x00f348bc      0x11c bcm63xx_dtb.o
 .text.dtb_set_prepare_status
                0x00f349d8       0x58 bcm63xx_dtb.o
 .text.dtb_get_prepare_status
                0x00f34a30       0x4c bcm63xx_dtb.o
                0x00f34a30                dtb_get_prepare_status
 .text.dtb_prepare
                0x00f34a7c      0x144 bcm63xx_dtb.o
                0x00f34a7c                dtb_prepare
 .text.dtb_done
                0x00f34bc0       0xa0 bcm63xx_dtb.o
                0x00f34bc0                dtb_done
 .text.dtb_append_data_blob
                0x00f34c60       0x90 bcm63xx_dtb.o
                0x00f34c60                dtb_append_data_blob
 .text.dtb_set_blparms
                0x00f34cf0       0x40 bcm63xx_dtb.o
                0x00f34cf0                dtb_set_blparms
 .text.dtb_del_reserved_memory
                0x00f34d30       0x6c bcm63xx_dtb.o
                0x00f34d30                dtb_del_reserved_memory
 .text.dtb_get_addr_size_cells
                0x00f34d9c       0xc0 bcm63xx_dtb.o
 .text.dtb_get_prop
                0x00f34e5c       0x60 bcm63xx_dtb.o
                0x00f34e5c                dtb_get_prop
 .text._dtb_getprop_cma_rsvmem_size
                0x00f34ebc       0x88 bcm63xx_dtb.o
 .text._dtb_setprop_cma_rsvmem_size
                0x00f34f44       0xb0 bcm63xx_dtb.o
 .text._dtb_del_cma_rsvmem
                0x00f34ff4       0x30 bcm63xx_dtb.o
 .text.dtb_getprop_cma_rsvmem_size
                0x00f35024       0xd4 bcm63xx_dtb.o
                0x00f35024                dtb_getprop_cma_rsvmem_size
 .text.dtb_setprop_cma_rsvmem_size
                0x00f350f8       0xcc bcm63xx_dtb.o
                0x00f350f8                dtb_setprop_cma_rsvmem_size
 .text.dtb_del_cma_rsvmem
                0x00f351c4       0xc8 bcm63xx_dtb.o
                0x00f351c4                dtb_del_cma_rsvmem
 .text.dtb_getprop_reg
                0x00f3528c      0x200 bcm63xx_dtb.o
                0x00f3528c                dtb_getprop_reg
 .text.dtb_set_reserved_memory
                0x00f3548c      0x200 bcm63xx_dtb.o
                0x00f3548c                dtb_set_reserved_memory
 .text.dtb_update_memory_reg
                0x00f3568c      0x1ac bcm63xx_dtb.o
 .text.dtb_set_memory
                0x00f35838      0x2a4 bcm63xx_dtb.o
                0x00f35838                dtb_set_memory
 .text.dtb_set_bootargs
                0x00f35adc      0x290 bcm63xx_dtb.o
                0x00f35adc                dtb_set_bootargs
 .text.dtb_set_chosen_root
                0x00f35d6c       0xd8 bcm63xx_dtb.o
                0x00f35d6c                dtb_set_chosen_root
 .text.dtb_set_chosen_initrd
                0x00f35e44      0x2d4 bcm63xx_dtb.o
                0x00f35e44                dtb_set_chosen_initrd
 .text.dtb_set_nr_cpus
                0x00f36118      0x160 bcm63xx_dtb.o
                0x00f36118                dtb_set_nr_cpus
 .text.dtb_get_fdt
                0x00f36278       0x28 bcm63xx_dtb.o
                0x00f36278                dtb_get_fdt
 .text.board_setleds
                0x00f362a0       0x68 bcm63xx_impl4_common.o
                0x00f362a0                board_setleds
 .text.powerup_secondary_cores
                0x00f36308      0x170 bcm63xx_impl2_smp.o
 .text.cfe_boot_second_cpu
                0x00f36478       0x70 bcm63xx_impl2_smp.o
                0x00f36478                cfe_boot_second_cpu
 .text.board_mmu_map_scn
                0x00f364e8      0x1a8 47622_mmu_map.o
                0x00f364e8                board_mmu_map_scn
 .text.sotpInit
                0x00f36690       0x40 bcm63xx_sotp_if.o
                0x00f36690                sotpInit
 .text.sotp_init
                0x00f366d0       0x48 sotp_base_funcs.o
                0x00f366d0                sotp_init
 .text.die      0x00f36718       0x28 bcm63xx_auth_if.o
                0x00f36718                die
 .text.sec_verify_signature
                0x00f36740       0x50 bcm63xx_auth_if.o
                0x00f36740                sec_verify_signature
 .text.authenticate
                0x00f36790       0xa4 bcm63xx_auth_if.o
                0x00f36790                authenticate
 .text.HTONL    0x00f36834       0xb4 bcm63xx_rsa.o
 .text.mpzero   0x00f368e8       0x40 bcm63xx_rsa.o
 .text.mpcompare
                0x00f36928      0x1b4 bcm63xx_rsa.o
 .text.mpadd    0x00f36adc      0x1a4 bcm63xx_rsa.o
 .text.mpsub    0x00f36c80      0x1a0 bcm63xx_rsa.o
 .text.mpcopy   0x00f36e20       0x78 bcm63xx_rsa.o
 .text.mpclshift
                0x00f36e98      0x114 bcm63xx_rsa.o
 .text.smalldiv
                0x00f36fac      0x1f0 bcm63xx_rsa.o
 .text.addmul   0x00f3719c      0x118 bcm63xx_rsa.o
 .text.mpmul    0x00f372b4      0x1b8 bcm63xx_rsa.o
 .text.mplshift
                0x00f3746c      0x13c bcm63xx_rsa.o
 .text.mprshift
                0x00f375a8      0x118 bcm63xx_rsa.o
 .text.mpdiv    0x00f376c0      0x67c bcm63xx_rsa.o
 .text.unpack   0x00f37d3c      0x21c bcm63xx_rsa.o
 .text.pack     0x00f37f58      0x1e4 bcm63xx_rsa.o
 .text.rsapss_rsavp1
                0x00f3813c      0x16c bcm63xx_rsa.o
 .text.rsapss_mgf1
                0x00f382a8      0x164 bcm63xx_rsa.o
 .text.Sec_verifyDigest
                0x00f3840c      0x31c bcm63xx_rsa.o
                0x00f3840c                Sec_verifyDigest
 .text.Sec_verify
                0x00f38728       0x7c bcm63xx_rsa.o
                0x00f38728                Sec_verify
 .text.HTONL    0x00f387a4       0xb4 bcm63xx_sha.o
 .text.ROTR32   0x00f38858       0x30 bcm63xx_sha.o
 .text.SHA256Transform
                0x00f38888      0x4c4 bcm63xx_sha.o
 .text.Sec_sha256Init
                0x00f38d4c       0xbc bcm63xx_sha.o
                0x00f38d4c                Sec_sha256Init
 .text.Sec_sha256Update
                0x00f38e08       0xb8 bcm63xx_sha.o
                0x00f38e08                Sec_sha256Update
 .text.Sec_sha256Final
                0x00f38ec0      0x2e0 bcm63xx_sha.o
                0x00f38ec0                Sec_sha256Final
 .text.Sec_sha256
                0x00f391a0       0x80 bcm63xx_sha.o
                0x00f391a0                Sec_sha256
 .text.cfe_exception
                0x00f39220      0x27c ./libcfe.a(exchandler.o)
                0x00f39220                cfe_exception
 .text.cfe_setup_exceptions
                0x00f3949c       0x50 ./libcfe.a(exchandler.o)
                0x00f3949c                cfe_setup_exceptions
 .text.exc_longjmp_handler
                0x00f394ec       0x64 ./libcfe.a(exchandler.o)
                0x00f394ec                exc_longjmp_handler
 .text.lib_setjmp
                0x00f39550        0x8 ./libcfe.a(lib_setjmp.o)
                0x00f39550                lib_setjmp
 .text.lib_longjmp
                0x00f39558        0x4 ./libcfe.a(lib_setjmp.o)
                0x00f39558                lib_longjmp
 .text.armv7_l1cache_enable_i
                0x00f3955c       0x18 ./libcfe.a(armv7_l1cache.o)
                0x00f3955c                armv7_l1cache_enable_i
 .text.armv7_l1cache_enable_d
                0x00f39574       0x14 ./libcfe.a(armv7_l1cache.o)
                0x00f39574                armv7_l1cache_enable_d
 .text.armv7_l1cache_disable_i
                0x00f39588       0x18 ./libcfe.a(armv7_l1cache.o)
                0x00f39588                armv7_l1cache_disable_i
 .text.armv7_l1cache_disable_d
                0x00f395a0       0x14 ./libcfe.a(armv7_l1cache.o)
                0x00f395a0                armv7_l1cache_disable_d
 .text.armv7_l1cache_inval_i
                0x00f395b4       0x10 ./libcfe.a(armv7_l1cache.o)
                0x00f395b4                armv7_l1cache_inval_i
 .text.armv7_l1cache_inval_d
                0x00f395c4       0x94 ./libcfe.a(armv7_l1cache.o)
                0x00f395c4                armv7_l1cache_inval_d
 .text.armv7_l1cache_flush_d
                0x00f39658       0x94 ./libcfe.a(armv7_l1cache.o)
                0x00f39658                armv7_l1cache_flush_d
 .text.armv7_l1cache_inval_range_d
                0x00f396ec       0x48 ./libcfe.a(armv7_l1cache.o)
                0x00f396ec                armv7_l1cache_inval_range_d
 .text.armv7_l1cache_flush_range_d
                0x00f39734       0x34 ./libcfe.a(armv7_l1cache.o)
                0x00f39734                armv7_l1cache_flush_range_d
 .text.armv7_cacheops
                0x00f39768       0x80 ./libcfe.a(armv7_l1cache.o)
                0x00f39768                armv7_cacheops
 .text.armv7_gic_secure_init
                0x00f397e8       0x54 ./libcfe.a(armv7_cpuinit.o)
                0x00f397e8                armv7_gic_secure_init
 .text.armv7_change_to_nonsecure
                0x00f3983c       0x10 ./libcfe.a(armv7_cpuinit.o)
                0x00f3983c                armv7_change_to_nonsecure
 .text.armv7_cpuinit
                0x00f3984c       0x48 ./libcfe.a(armv7_cpuinit.o)
                0x00f3984c                armv7_cpuinit
 .text.armv7_enable_mmu
                0x00f39894       0x14 ./libcfe.a(armv7_cpuinit.o)
                0x00f39894                armv7_enable_mmu
 .text.armv7_disable_mmu
                0x00f398a8       0x14 ./libcfe.a(armv7_cpuinit.o)
                0x00f398a8                armv7_disable_mmu
 .text.armv7_enable_tick
                0x00f398bc       0x1c ./libcfe.a(armv7_cpuinit.o)
                0x00f398bc                armv7_enable_tick
 .text._getticks
                0x00f398d8        0x8 ./libcfe.a(armv7_cpuinit.o)
                0x00f398d8                _getticks
 .text.mmu_init_table
                0x00f398e0       0x1c ./libcfe.a(mmu_map.o)
                0x00f398e0                mmu_init_table
 .text.mmu_set_ttbr
                0x00f398fc       0x1c ./libcfe.a(mmu_map.o)
                0x00f398fc                mmu_set_ttbr
 .text.mmu_set_scn
                0x00f39918       0x3c ./libcfe.a(mmu_map.o)
                0x00f39918                mmu_set_scn
 .text.kmeminit
                0x00f39954       0xac ./libcfe.a(lib_malloc.o)
                0x00f39954                kmeminit
 .text.kmemcompact
                0x00f39a00      0x100 ./libcfe.a(lib_malloc.o)
 .text.kfree    0x00f39b00       0xa4 ./libcfe.a(lib_malloc.o)
                0x00f39b00                kfree
 .text.lib_outofmemory
                0x00f39ba4       0x1c ./libcfe.a(lib_malloc.o)
                0x00f39ba4                lib_outofmemory
 .text.kmalloc  0x00f39bc0      0x2dc ./libcfe.a(lib_malloc.o)
                0x00f39bc0                kmalloc
 .text.krealloc
                0x00f39e9c      0x274 ./libcfe.a(lib_malloc.o)
                0x00f39e9c                krealloc
 .text.kmemstats
                0x00f3a110      0x238 ./libcfe.a(lib_malloc.o)
                0x00f3a110                kmemstats
 .text.__atox   0x00f3a348      0x13c ./libcfe.a(lib_printf.o)
 .text.__llatox
                0x00f3a484      0x13c ./libcfe.a(lib_printf.o)
 .text.xvsprintf
                0x00f3a5c0      0xbbc ./libcfe.a(lib_printf.o)
                0x00f3a5c0                xvsprintf
 .text.xsprintf
                0x00f3b17c       0x48 ./libcfe.a(lib_printf.o)
                0x00f3b17c                xsprintf
 .text.xprintf  0x00f3b1c4       0xd0 ./libcfe.a(lib_printf.o)
                0x00f3b1c4                xprintf
 .text.xvprintf
                0x00f3b294       0xd8 ./libcfe.a(lib_printf.o)
                0x00f3b294                xvprintf
 .text.q_enqueue
                0x00f3b36c       0x5c ./libcfe.a(lib_queue.o)
                0x00f3b36c                q_enqueue
 .text.q_dequeue
                0x00f3b3c8       0x48 ./libcfe.a(lib_queue.o)
                0x00f3b3c8                q_dequeue
 .text.q_deqnext
                0x00f3b410       0x74 ./libcfe.a(lib_queue.o)
                0x00f3b410                q_deqnext
 .text.q_count  0x00f3b484       0x64 ./libcfe.a(lib_queue.o)
                0x00f3b484                q_count
 .text.lib_strcpy
                0x00f3b4e8       0x70 ./libcfe.a(lib_string.o)
                0x00f3b4e8                lib_strcpy
 .text.lib_strncpy
                0x00f3b558       0x98 ./libcfe.a(lib_string.o)
                0x00f3b558                lib_strncpy
 .text.lib_xstrncpy
                0x00f3b5f0       0xa0 ./libcfe.a(lib_string.o)
                0x00f3b5f0                lib_xstrncpy
 .text.lib_strlen
                0x00f3b690       0x58 ./libcfe.a(lib_string.o)
                0x00f3b690                lib_strlen
 .text.lib_strcmp
                0x00f3b6e8       0xf4 ./libcfe.a(lib_string.o)
                0x00f3b6e8                lib_strcmp
 .text.lib_strncmp
                0x00f3b7dc      0x124 ./libcfe.a(lib_string.o)
                0x00f3b7dc                lib_strncmp
 .text.lib_strcmpi
                0x00f3b900      0x110 ./libcfe.a(lib_string.o)
                0x00f3b900                lib_strcmpi
 .text.lib_strchr
                0x00f3ba10       0x68 ./libcfe.a(lib_string.o)
                0x00f3ba10                lib_strchr
 .text.lib_strnchr
                0x00f3ba78       0x84 ./libcfe.a(lib_string.o)
                0x00f3ba78                lib_strnchr
 .text.lib_memcmp
                0x00f3bafc       0xb0 ./libcfe.a(lib_string.o)
                0x00f3bafc                lib_memcmp
 .text.memcpy   0x00f3bbac       0x38 ./libcfe.a(lib_string.o)
                0x00f3bbac                memcpy
 .text.lib_memcpy
                0x00f3bbe4       0xd8 ./libcfe.a(lib_string.o)
                0x00f3bbe4                lib_memcpy
 .text.lib_memmove
                0x00f3bcbc       0xe8 ./libcfe.a(lib_string.o)
                0x00f3bcbc                lib_memmove
 .text.lib_memset
                0x00f3bda4       0x68 ./libcfe.a(lib_string.o)
                0x00f3bda4                lib_memset
 .text.lib_memchr
                0x00f3be0c       0x78 ./libcfe.a(lib_string.o)
                0x00f3be0c                lib_memchr
 .text.lib_toupper
                0x00f3be84       0x4c ./libcfe.a(lib_string.o)
                0x00f3be84                lib_toupper
 .text.lib_strcat
                0x00f3bed0       0x90 ./libcfe.a(lib_string.o)
                0x00f3bed0                lib_strcat
 .text.lib_strncat
                0x00f3bf60       0xd4 ./libcfe.a(lib_string.o)
                0x00f3bf60                lib_strncat
 .text.lib_gettoken
                0x00f3c034      0x178 ./libcfe.a(lib_string.o)
                0x00f3c034                lib_gettoken
 .text.lib_atoi
                0x00f3c1ac       0xd4 ./libcfe.a(lib_string.o)
                0x00f3c1ac                lib_atoi
 .text.lib_xtoul
                0x00f3c280      0x130 ./libcfe.a(lib_string.o)
                0x00f3c280                lib_xtoul
 .text.lib_xtoi
                0x00f3c3b0      0x130 ./libcfe.a(lib_string.o)
                0x00f3c3b0                lib_xtoi
 .text.lib_get_crc32
                0x00f3c4e0       0x80 ./libcfe.a(lib_crc.o)
                0x00f3c4e0                lib_get_crc32
 .text.cfe_finddev
                0x00f3c560       0x84 ./libcfe.a(cfe_attach.o)
                0x00f3c560                cfe_finddev
 .text.cfe_attach_idx
                0x00f3c5e4      0x14c ./libcfe.a(cfe_attach.o)
                0x00f3c5e4                cfe_attach_idx
 .text.cfe_attach
                0x00f3c730       0x94 ./libcfe.a(cfe_attach.o)
                0x00f3c730                cfe_attach
 .text.cfe_attach_init
                0x00f3c7c4       0x40 ./libcfe.a(cfe_attach.o)
                0x00f3c7c4                cfe_attach_init
 .text.cfe_device_poll
                0x00f3c804       0xb0 ./libcfe.a(cfe_iocb_dispatch.o)
                0x00f3c804                cfe_device_poll
 .text.cfe_iocb_dispatch
                0x00f3c8b4      0x17c ./libcfe.a(cfe_iocb_dispatch.o)
                0x00f3c8b4                cfe_iocb_dispatch
 .text.cfe_newhandle
                0x00f3ca30       0x78 ./libcfe.a(cfe_iocb_dispatch.o)
 .text.cfe_cmd_fw_getinfo
                0x00f3caa8      0x108 ./libcfe.a(cfe_iocb_dispatch.o)
 .text.cfe_cmd_fw_restart
                0x00f3cbb0       0x5c ./libcfe.a(cfe_iocb_dispatch.o)
 .text.cfe_cmd_fw_boot
                0x00f3cc0c       0x28 ./libcfe.a(cfe_iocb_dispatch.o)
 .text.cfe_cmd_fw_cpuctl
                0x00f3cc34       0x28 ./libcfe.a(cfe_iocb_dispatch.o)
 .text.cfe_cmd_fw_gettime
                0x00f3cc5c       0x3c ./libcfe.a(cfe_iocb_dispatch.o)
 .text.cfe_cmd_fw_memenum
                0x00f3cc98       0xbc ./libcfe.a(cfe_iocb_dispatch.o)
 .text.cfe_cmd_fw_flushcache
                0x00f3cd54       0x34 ./libcfe.a(cfe_iocb_dispatch.o)
 .text.cfe_cmd_dev_enum
                0x00f3cd88       0x28 ./libcfe.a(cfe_iocb_dispatch.o)
 .text.cfe_cmd_dev_gethandle
                0x00f3cdb0       0x70 ./libcfe.a(cfe_iocb_dispatch.o)
 .text.cfe_cmd_dev_open
                0x00f3ce20      0x158 ./libcfe.a(cfe_iocb_dispatch.o)
 .text.cfe_cmd_dev_inpstat
                0x00f3cf78       0x4c ./libcfe.a(cfe_iocb_dispatch.o)
 .text.cfe_cmd_dev_read
                0x00f3cfc4       0x4c ./libcfe.a(cfe_iocb_dispatch.o)
 .text.cfe_cmd_dev_write
                0x00f3d010       0x4c ./libcfe.a(cfe_iocb_dispatch.o)
 .text.cfe_cmd_dev_ioctl
                0x00f3d05c       0x4c ./libcfe.a(cfe_iocb_dispatch.o)
 .text.cfe_cmd_dev_close
                0x00f3d0a8       0x78 ./libcfe.a(cfe_iocb_dispatch.o)
 .text.cfe_cmd_dev_getinfo
                0x00f3d120       0xa0 ./libcfe.a(cfe_iocb_dispatch.o)
 .text.cfe_cmd_env_enum
                0x00f3d1c0       0x80 ./libcfe.a(cfe_iocb_dispatch.o)
 .text.cfe_cmd_env_get
                0x00f3d240       0x68 ./libcfe.a(cfe_iocb_dispatch.o)
 .text.cfe_cmd_env_set
                0x00f3d2a8       0xa0 ./libcfe.a(cfe_iocb_dispatch.o)
 .text.cfe_cmd_env_del
                0x00f3d348       0x38 ./libcfe.a(cfe_iocb_dispatch.o)
 .text.cfe_strlen
                0x00f3d380       0x58 ./libcfe.a(cfe_devfuncs.o)
 .text.cfe_open
                0x00f3d3d8       0x8c ./libcfe.a(cfe_devfuncs.o)
                0x00f3d3d8                cfe_open
 .text.cfe_close
                0x00f3d464       0x54 ./libcfe.a(cfe_devfuncs.o)
                0x00f3d464                cfe_close
 .text.cfe_readblk
                0x00f3d4b8       0x84 ./libcfe.a(cfe_devfuncs.o)
                0x00f3d4b8                cfe_readblk
 .text.cfe_read
                0x00f3d53c       0x48 ./libcfe.a(cfe_devfuncs.o)
                0x00f3d53c                cfe_read
 .text.cfe_writeblk
                0x00f3d584       0x84 ./libcfe.a(cfe_devfuncs.o)
                0x00f3d584                cfe_writeblk
 .text.cfe_write
                0x00f3d608       0x48 ./libcfe.a(cfe_devfuncs.o)
                0x00f3d608                cfe_write
 .text.cfe_ioctl
                0x00f3d650       0x9c ./libcfe.a(cfe_devfuncs.o)
                0x00f3d650                cfe_ioctl
 .text.cfe_inpstat
                0x00f3d6ec       0x70 ./libcfe.a(cfe_devfuncs.o)
                0x00f3d6ec                cfe_inpstat
 .text.cfe_flushcache
                0x00f3d75c       0x54 ./libcfe.a(cfe_devfuncs.o)
                0x00f3d75c                cfe_flushcache
 .text.cfe_getdevinfo
                0x00f3d7b0       0x8c ./libcfe.a(cfe_devfuncs.o)
                0x00f3d7b0                cfe_getdevinfo
 .text.console_log
                0x00f3d83c       0x78 ./libcfe.a(cfe_console.o)
                0x00f3d83c                console_log
 .text.console_open
                0x00f3d8b4       0x7c ./libcfe.a(cfe_console.o)
                0x00f3d8b4                console_open
 .text.console_close
                0x00f3d930       0x4c ./libcfe.a(cfe_console.o)
                0x00f3d930                console_close
 .text.console_read
                0x00f3d97c       0x5c ./libcfe.a(cfe_console.o)
                0x00f3d97c                console_read
 .text.console_write
                0x00f3d9d8       0xbc ./libcfe.a(cfe_console.o)
                0x00f3d9d8                console_write
 .text.console_status
                0x00f3da94       0x44 ./libcfe.a(cfe_console.o)
                0x00f3da94                console_status
 .text.console_xprint
                0x00f3dad8       0xc0 ./libcfe.a(cfe_console.o)
 .text.console_readline_noedit
                0x00f3db98      0x2f0 ./libcfe.a(cfe_console.o)
                0x00f3db98                console_readline_noedit
 .text.cfe_set_console
                0x00f3de88       0x64 ./libcfe.a(cfe_console.o)
                0x00f3de88                cfe_set_console
 .text.console_readline
                0x00f3deec       0x38 ./libcfe.a(cfe_console.o)
                0x00f3deec                console_readline
 .text.cfe_arena_init
                0x00f3df24       0xb4 ./libcfe.a(cfe_mem.o)
                0x00f3df24                cfe_arena_init
 .text.cfe_arena_enum
                0x00f3dfd8       0xe8 ./libcfe.a(cfe_mem.o)
                0x00f3dfd8                cfe_arena_enum
 .text.cfe_timer_task
                0x00f3e0c0      0x2ac ./libcfe.a(cfe_timer.o)
 .text.cfe_timer_init
                0x00f3e36c       0xf8 ./libcfe.a(cfe_timer.o)
                0x00f3e36c                cfe_timer_init
 .text.cfe_sleep
                0x00f3e464       0x70 ./libcfe.a(cfe_timer.o)
                0x00f3e464                cfe_sleep
 .text.cfe_usleep
                0x00f3e4d4       0x84 ./libcfe.a(cfe_timer.o)
                0x00f3e4d4                cfe_usleep
 .text.cfe_bg_init
                0x00f3e558       0x24 ./libcfe.a(cfe_background.o)
                0x00f3e558                cfe_bg_init
 .text.cfe_bg_add
                0x00f3e57c       0x88 ./libcfe.a(cfe_background.o)
                0x00f3e57c                cfe_bg_add
 .text.cfe_bg_remove
                0x00f3e604      0x104 ./libcfe.a(cfe_background.o)
                0x00f3e604                cfe_bg_remove
 .text.background
                0x00f3e708       0x84 ./libcfe.a(cfe_background.o)
                0x00f3e708                background
 .text.cfe_findfilesys
                0x00f3e78c       0x7c ./libcfe.a(cfe_filesys.o)
                0x00f3e78c                cfe_findfilesys
 .text.fs_init  0x00f3e808       0xc8 ./libcfe.a(cfe_filesys.o)
                0x00f3e808                fs_init
 .text.fs_hook  0x00f3e8d0       0x8c ./libcfe.a(cfe_filesys.o)
                0x00f3e8d0                fs_hook
 .text.fs_uninit
                0x00f3e95c       0x4c ./libcfe.a(cfe_filesys.o)
                0x00f3e95c                fs_uninit
 .text.fs_open  0x00f3e9a8       0x50 ./libcfe.a(cfe_filesys.o)
                0x00f3e9a8                fs_open
 .text.fs_close
                0x00f3e9f8       0x38 ./libcfe.a(cfe_filesys.o)
                0x00f3e9f8                fs_close
 .text.fs_read  0x00f3ea30       0x48 ./libcfe.a(cfe_filesys.o)
                0x00f3ea30                fs_read
 .text.fs_seek  0x00f3ea78       0x48 ./libcfe.a(cfe_filesys.o)
                0x00f3ea78                fs_seek
 .text.is_white_space
                0x00f3eac0       0x50 ./libcfe.a(ui_command.o)
 .text.cmd_sw_value
                0x00f3eb10       0xcc ./libcfe.a(ui_command.o)
                0x00f3eb10                cmd_sw_value
 .text.cmd_sw_name
                0x00f3ebdc       0x74 ./libcfe.a(ui_command.o)
                0x00f3ebdc                cmd_sw_name
 .text.cmd_sw_isset
                0x00f3ec50       0x98 ./libcfe.a(ui_command.o)
                0x00f3ec50                cmd_sw_isset
 .text.cmd_getarg
                0x00f3ece8       0x74 ./libcfe.a(ui_command.o)
                0x00f3ece8                cmd_getarg
 .text.cmd_free
                0x00f3ed5c       0xe8 ./libcfe.a(ui_command.o)
                0x00f3ed5c                cmd_free
 .text.cmd_sw_validate
                0x00f3ee44      0x264 ./libcfe.a(ui_command.o)
                0x00f3ee44                cmd_sw_validate
 .text.cmd_findword
                0x00f3f0a8       0x68 ./libcfe.a(ui_command.o)
 .text.cmd_build_cmdline
                0x00f3f110      0x254 ./libcfe.a(ui_command.o)
                0x00f3f110                cmd_build_cmdline
 .text.cmd_addcmd
                0x00f3f364      0x1b0 ./libcfe.a(ui_command.o)
                0x00f3f364                cmd_addcmd
 .text._dumpindented
                0x00f3f514       0xf0 ./libcfe.a(ui_command.o)
 .text._dumpswitches
                0x00f3f604      0x154 ./libcfe.a(ui_command.o)
 .text._dumpcmds
                0x00f3f758      0x1e4 ./libcfe.a(ui_command.o)
 .text.dumpcmds
                0x00f3f93c       0x38 ./libcfe.a(ui_command.o)
 .text._showpossible
                0x00f3f974      0x124 ./libcfe.a(ui_command.o)
 .text.cmd_help
                0x00f3fa98      0x220 ./libcfe.a(ui_command.o)
 .text.cmd_init
                0x00f3fcb8       0x60 ./libcfe.a(ui_command.o)
                0x00f3fcb8                cmd_init
 .text.cmd_lookup
                0x00f3fd18      0x224 ./libcfe.a(ui_command.o)
                0x00f3fd18                cmd_lookup
 .text.cmd_showusage
                0x00f3ff3c       0x78 ./libcfe.a(ui_command.o)
                0x00f3ff3c                cmd_showusage
 .text.cmd_eat_leading_white
                0x00f3ffb4       0x78 ./libcfe.a(ui_command.o)
 .text.cmd_readcommand
                0x00f4002c      0x20c ./libcfe.a(ui_command.o)
                0x00f4002c                cmd_readcommand
 .text.make_token
                0x00f40238       0x74 ./libcfe.a(ui_command.o)
 .text.cmd_build_list
                0x00f402ac      0x254 ./libcfe.a(ui_command.o)
                0x00f402ac                cmd_build_list
 .text.is_command_separator
                0x00f40500       0xb4 ./libcfe.a(ui_command.o)
 .text.cmd_append_tokens
                0x00f405b4       0x5c ./libcfe.a(ui_command.o)
 .text.cmd_squash_and_append
                0x00f40610      0x108 ./libcfe.a(ui_command.o)
 .text.cmd_rejoin_quotes
                0x00f40718      0x1b8 ./libcfe.a(ui_command.o)
 .text.cmd_walk_and_expand
                0x00f408d0      0x1d0 ./libcfe.a(ui_command.o)
                0x00f408d0                cmd_walk_and_expand
 .text.cmd_free_tokens
                0x00f40aa0       0x48 ./libcfe.a(ui_command.o)
                0x00f40aa0                cmd_free_tokens
 .text.ui_errstring
                0x00f40ae8       0x28 ./libcfe.a(ui_cmddisp.o)
                0x00f40ae8                ui_errstring
 .text.ui_showerror
                0x00f40b10       0x5c ./libcfe.a(ui_cmddisp.o)
                0x00f40b10                ui_showerror
 .text.ui_do_one_command
                0x00f40b6c       0xf0 ./libcfe.a(ui_cmddisp.o)
 .text.ui_init_cmddisp
                0x00f40c5c       0x18 ./libcfe.a(ui_cmddisp.o)
                0x00f40c5c                ui_init_cmddisp
 .text.ui_showusage
                0x00f40c74       0x28 ./libcfe.a(ui_cmddisp.o)
                0x00f40c74                ui_showusage
 .text.ui_docommands_internal
                0x00f40c9c      0x158 ./libcfe.a(ui_cmddisp.o)
 .text.ui_docommands
                0x00f40df4       0x58 ./libcfe.a(ui_cmddisp.o)
                0x00f40df4                ui_docommands
 .text.get_tftpd_state
                0x00f40e4c       0x24 ./libcfe.a(ui_tftpd.o)
                0x00f40e4c                get_tftpd_state
 .text.set_tftpd_state
                0x00f40e70       0x34 ./libcfe.a(ui_tftpd.o)
                0x00f40e70                set_tftpd_state
 .text.ui_cmd_tftpd
                0x00f40ea4      0x130 ./libcfe.a(ui_tftpd.o)
 .text.ui_init_tftpdcmds
                0x00f40fd4       0x54 ./libcfe.a(ui_tftpd.o)
                0x00f40fd4                ui_init_tftpdcmds
 .text.ui_init_netcmds
                0x00f41028       0xc4 ./libcfe.a(ui_netcmds.o)
                0x00f41028                ui_init_netcmds
 .text.parsexdigit
                0x00f410ec       0xa8 ./libcfe.a(ui_netcmds.o)
 .text.parsehwaddr
                0x00f41194      0x174 ./libcfe.a(ui_netcmds.o)
 .text.ui_ifdown
                0x00f41308       0x4c ./libcfe.a(ui_netcmds.o)
 .text.ui_showifconfig
                0x00f41354      0x2d0 ./libcfe.a(ui_netcmds.o)
 .text.ui_ifconfig_getsw
                0x00f41624       0xbc ./libcfe.a(ui_netcmds.o)
 .text.ui_ifconfig_lookup
                0x00f416e0       0xd4 ./libcfe.a(ui_netcmds.o)
 .text.ui_cmd_ifconfig
                0x00f417b4      0x4cc ./libcfe.a(ui_netcmds.o)
 .text.ui_cmd_arp
                0x00f41c80      0x270 ./libcfe.a(ui_netcmds.o)
 .text.ui_cmd_ping
                0x00f41ef0      0x488 ./libcfe.a(ui_netcmds.o)
 .text._tftp_open
                0x00f42378      0x9fc ./libcfe.a(net_tftp.o)
 .text._tftp_readmore
                0x00f42d74      0x378 ./libcfe.a(net_tftp.o)
 .text._tftp_writemore
                0x00f430ec      0x410 ./libcfe.a(net_tftp.o)
 .text._tftpd_open
                0x00f434fc      0x2d8 ./libcfe.a(net_tftp.o)
 .text._tftp_close
                0x00f437d4      0x284 ./libcfe.a(net_tftp.o)
 .text.tftp_fileop_init
                0x00f43a58       0x5c ./libcfe.a(net_tftp.o)
 .text.tftp_fileop_open
                0x00f43ab4      0x188 ./libcfe.a(net_tftp.o)
 .text.tftp_fileop_read
                0x00f43c3c      0x1a8 ./libcfe.a(net_tftp.o)
 .text.tftp_fileop_write
                0x00f43de4      0x17c ./libcfe.a(net_tftp.o)
 .text.tftp_fileop_seek
                0x00f43f60       0xe4 ./libcfe.a(net_tftp.o)
 .text.tftp_fileop_close
                0x00f44044       0x54 ./libcfe.a(net_tftp.o)
 .text.tftp_fileop_uninit
                0x00f44098       0x2c ./libcfe.a(net_tftp.o)
 .text._ip_alloc
                0x00f440c4       0x74 ./libcfe.a(net_ip.o)
                0x00f440c4                _ip_alloc
 .text.ip_chksum
                0x00f44138      0x110 ./libcfe.a(net_ip.o)
                0x00f44138                ip_chksum
 .text._ip_send
                0x00f44248      0x50c ./libcfe.a(net_ip.o)
                0x00f44248                _ip_send
 .text.ip_rx_callback
                0x00f44754      0x4c4 ./libcfe.a(net_ip.o)
 .text._ip_init
                0x00f44c18      0x104 ./libcfe.a(net_ip.o)
                0x00f44c18                _ip_init
 .text._ip_uninit
                0x00f44d1c       0xa0 ./libcfe.a(net_ip.o)
                0x00f44d1c                _ip_uninit
 .text._ip_timer_tick
                0x00f44dbc       0x24 ./libcfe.a(net_ip.o)
                0x00f44dbc                _ip_timer_tick
 .text._ip_free
                0x00f44de0       0x28 ./libcfe.a(net_ip.o)
                0x00f44de0                _ip_free
 .text._ip_getaddr
                0x00f44e08       0x34 ./libcfe.a(net_ip.o)
                0x00f44e08                _ip_getaddr
 .text._ip_getparam
                0x00f44e3c       0xe0 ./libcfe.a(net_ip.o)
                0x00f44e3c                _ip_getparam
 .text._ip_setparam
                0x00f44f1c      0x234 ./libcfe.a(net_ip.o)
                0x00f44f1c                _ip_setparam
 .text._ip_register
                0x00f45150      0x124 ./libcfe.a(net_ip.o)
                0x00f45150                _ip_register
 .text._ip_deregister
                0x00f45274      0x104 ./libcfe.a(net_ip.o)
                0x00f45274                _ip_deregister
 .text.dns_dolookup
                0x00f45378      0xa90 ./libcfe.a(net_dns.o)
 .text.dns_lookup
                0x00f45e08      0x19c ./libcfe.a(net_dns.o)
                0x00f45e08                dns_lookup
 .text.arp_tx_query
                0x00f45fa4      0x2a8 ./libcfe.a(net_arp.o)
 .text.arp_delete
                0x00f4624c       0x78 ./libcfe.a(net_arp.o)
 .text._arp_add
                0x00f462c4       0xb4 ./libcfe.a(net_arp.o)
                0x00f462c4                _arp_add
 .text._arp_lookup_and_send
                0x00f46378      0x154 ./libcfe.a(net_arp.o)
                0x00f46378                _arp_lookup_and_send
 .text.arp_tx_waiting
                0x00f464cc       0x5c ./libcfe.a(net_arp.o)
 .text.arp_new_entry
                0x00f46528      0x108 ./libcfe.a(net_arp.o)
 .text.arp_find_entry
                0x00f46630       0xb8 ./libcfe.a(net_arp.o)
 .text.arp_rx_query
                0x00f466e8      0x298 ./libcfe.a(net_arp.o)
 .text.arp_rx_response
                0x00f46980       0xe8 ./libcfe.a(net_arp.o)
 .text.arp_rx_callback
                0x00f46a68      0x384 ./libcfe.a(net_arp.o)
 .text._arp_timer_tick
                0x00f46dec      0x150 ./libcfe.a(net_arp.o)
                0x00f46dec                _arp_timer_tick
 .text._arp_send_gratuitous
                0x00f46f3c       0x6c ./libcfe.a(net_arp.o)
                0x00f46f3c                _arp_send_gratuitous
 .text._arp_init
                0x00f46fa8      0x190 ./libcfe.a(net_arp.o)
                0x00f46fa8                _arp_init
 .text._arp_uninit
                0x00f47138       0xbc ./libcfe.a(net_arp.o)
                0x00f47138                _arp_uninit
 .text._arp_enumerate
                0x00f471f4       0xc8 ./libcfe.a(net_arp.o)
                0x00f471f4                _arp_enumerate
 .text._arp_delete
                0x00f472bc       0x50 ./libcfe.a(net_arp.o)
                0x00f472bc                _arp_delete
 .text.udp_alloc
                0x00f4730c       0x48 ./libcfe.a(net_api.o)
                0x00f4730c                udp_alloc
 .text.udp_free
                0x00f47354       0x50 ./libcfe.a(net_api.o)
                0x00f47354                udp_free
 .text.udp_socket
                0x00f473a4       0x60 ./libcfe.a(net_api.o)
                0x00f473a4                udp_socket
 .text.udp_close
                0x00f47404       0x50 ./libcfe.a(net_api.o)
                0x00f47404                udp_close
 .text.udp_send
                0x00f47454       0x64 ./libcfe.a(net_api.o)
                0x00f47454                udp_send
 .text.udp_bind
                0x00f474b8       0x64 ./libcfe.a(net_api.o)
                0x00f474b8                udp_bind
 .text.udp_connect
                0x00f4751c       0x64 ./libcfe.a(net_api.o)
                0x00f4751c                udp_connect
 .text.udp_recv
                0x00f47580       0x58 ./libcfe.a(net_api.o)
                0x00f47580                udp_recv
 .text.udp_recv_with_timeout
                0x00f475d8       0xdc ./libcfe.a(net_api.o)
                0x00f475d8                udp_recv_with_timeout
 .text.tcp_socket
                0x00f476b4       0x48 ./libcfe.a(net_api.o)
                0x00f476b4                tcp_socket
 .text.tcp_close
                0x00f476fc       0x58 ./libcfe.a(net_api.o)
                0x00f476fc                tcp_close
 .text.tcp_send
                0x00f47754      0x1c0 ./libcfe.a(net_api.o)
                0x00f47754                tcp_send
 .text.tcp_recv
                0x00f47914      0x20c ./libcfe.a(net_api.o)
                0x00f47914                tcp_recv
 .text.tcp_listen
                0x00f47b20       0x64 ./libcfe.a(net_api.o)
                0x00f47b20                tcp_listen
 .text.tcp_status
                0x00f47b84       0x70 ./libcfe.a(net_api.o)
                0x00f47b84                tcp_status
 .text.arp_add  0x00f47bf4       0x54 ./libcfe.a(net_api.o)
                0x00f47bf4                arp_add
 .text.arp_enumerate
                0x00f47c48       0x64 ./libcfe.a(net_api.o)
                0x00f47c48                arp_enumerate
 .text.arp_delete
                0x00f47cac       0x58 ./libcfe.a(net_api.o)
                0x00f47cac                arp_delete
 .text.icmp_ping
                0x00f47d04       0x64 ./libcfe.a(net_api.o)
                0x00f47d04                icmp_ping
 .text.net_getparam
                0x00f47d68       0x78 ./libcfe.a(net_api.o)
                0x00f47d68                net_getparam
 .text.net_setparam
                0x00f47de0       0x60 ./libcfe.a(net_api.o)
                0x00f47de0                net_setparam
 .text.net_poll
                0x00f47e40       0xc4 ./libcfe.a(net_api.o)
 .text.net_init
                0x00f47f04      0x228 ./libcfe.a(net_api.o)
                0x00f47f04                net_init
 .text.net_uninit
                0x00f4812c      0x118 ./libcfe.a(net_api.o)
                0x00f4812c                net_uninit
 .text.net_setnetvars
                0x00f48244      0x1f4 ./libcfe.a(net_api.o)
                0x00f48244                net_setnetvars
 .text._tcp_init
                0x00f48438      0x110 ./libcfe.a(net_tcp.o)
                0x00f48438                _tcp_init
 .text._tcp_uninit
                0x00f48548       0x74 ./libcfe.a(net_tcp.o)
                0x00f48548                _tcp_uninit
 .text._tcp_freetcb
                0x00f485bc       0xa4 ./libcfe.a(net_tcp.o)
 .text._tcp_socket
                0x00f48660      0x238 ./libcfe.a(net_tcp.o)
                0x00f48660                _tcp_socket
 .text._tcp_close
                0x00f48898      0x10c ./libcfe.a(net_tcp.o)
                0x00f48898                _tcp_close
 .text._tcp_aborttcb
                0x00f489a4       0x9c ./libcfe.a(net_tcp.o)
 .text._tcp_closetcb
                0x00f48a40       0x98 ./libcfe.a(net_tcp.o)
 .text._tcp_send
                0x00f48ad8       0xcc ./libcfe.a(net_tcp.o)
                0x00f48ad8                _tcp_send
 .text._tcp_recv
                0x00f48ba4       0x94 ./libcfe.a(net_tcp.o)
                0x00f48ba4                _tcp_recv
 .text._tcp_getflags
                0x00f48c38       0x64 ./libcfe.a(net_tcp.o)
                0x00f48c38                _tcp_getflags
 .text._tcp_listen
                0x00f48c9c      0x188 ./libcfe.a(net_tcp.o)
                0x00f48c9c                _tcp_listen
 .text._tcp_status
                0x00f48e24      0x140 ./libcfe.a(net_tcp.o)
                0x00f48e24                _tcp_status
 .text._tcp_output
                0x00f48f64      0x6d8 ./libcfe.a(net_tcp.o)
 .text._tcp_protosend
                0x00f4963c      0x6bc ./libcfe.a(net_tcp.o)
 .text._tcp_sendreset
                0x00f49cf8       0x84 ./libcfe.a(net_tcp.o)
 .text._tcp_sendctlmsg
                0x00f49d7c       0xa0 ./libcfe.a(net_tcp.o)
 .text._tcp_find_lclport
                0x00f49e1c       0x88 ./libcfe.a(net_tcp.o)
 .text._tcp_find_tcb
                0x00f49ea4      0x16c ./libcfe.a(net_tcp.o)
 .text._tcp_procack
                0x00f4a010      0x218 ./libcfe.a(net_tcp.o)
 .text._tcp_procdata
                0x00f4a228      0x33c ./libcfe.a(net_tcp.o)
 .text._tcp_rx_callback
                0x00f4a564      0x980 ./libcfe.a(net_tcp.o)
 .text._tcp_fasttimo
                0x00f4aee4       0xc0 ./libcfe.a(net_tcp.o)
 .text._tcp_poll
                0x00f4afa4      0x274 ./libcfe.a(net_tcp.o)
                0x00f4afa4                _tcp_poll
 .text.tmb_init
                0x00f4b218       0x44 ./libcfe.a(net_tcpbuf.o)
                0x00f4b218                tmb_init
 .text.tmb_adjust
                0x00f4b25c       0x6c ./libcfe.a(net_tcpbuf.o)
                0x00f4b25c                tmb_adjust
 .text.tmb_alloc
                0x00f4b2c8       0x74 ./libcfe.a(net_tcpbuf.o)
                0x00f4b2c8                tmb_alloc
 .text.tmb_free
                0x00f4b33c       0x50 ./libcfe.a(net_tcpbuf.o)
                0x00f4b33c                tmb_free
 .text.tmb_copyin
                0x00f4b38c      0x160 ./libcfe.a(net_tcpbuf.o)
                0x00f4b38c                tmb_copyin
 .text.tmb_copyout
                0x00f4b4ec      0x140 ./libcfe.a(net_tcpbuf.o)
                0x00f4b4ec                tmb_copyout
 .text.tmb_copyout2
                0x00f4b62c      0x130 ./libcfe.a(net_tcpbuf.o)
                0x00f4b62c                tmb_copyout2
 .text.srand    0x00f4b75c       0x30 ./libcfe.a(net_nmrp.o)
                0x00f4b75c                srand
 .text.nmrp_rand
                0x00f4b78c       0xd4 ./libcfe.a(net_nmrp.o)
                0x00f4b78c                nmrp_rand
 .text._start_nmrp
                0x00f4b860      0x520 ./libcfe.a(net_nmrp.o)
                0x00f4b860                _start_nmrp
 .text.nmrp_rx_callback
                0x00f4bd80      0x304 ./libcfe.a(net_nmrp.o)
 .text.NMRP_OptValParsing
                0x00f4c084      0x218 ./libcfe.a(net_nmrp.o)
 .text.NMRP_MsgParsing
                0x00f4c29c      0x3d0 ./libcfe.a(net_nmrp.o)
                0x00f4c29c                NMRP_MsgParsing
 .text.NMRP_MsgGetOpt
                0x00f4c66c      0x118 ./libcfe.a(net_nmrp.o)
                0x00f4c66c                NMRP_MsgGetOpt
 .text.NMRPClosing
                0x00f4c784       0x80 ./libcfe.a(net_nmrp.o)
 .text.NMRPTFTPWaiting
                0x00f4c804       0x20 ./libcfe.a(net_nmrp.o)
                0x00f4c804                NMRPTFTPWaiting
 .text.NMRPConfAckParser
                0x00f4c824       0x50 ./libcfe.a(net_nmrp.o)
 .text.NMRPConfiguring
                0x00f4c874      0x2cc ./libcfe.a(net_nmrp.o)
 .text.NMRPSend
                0x00f4cb40      0x168 ./libcfe.a(net_nmrp.o)
 .text.LzmaGetUncompSize
                0x00f4cca8       0xd4 ./libcfe.a(dcapi.o)
                0x00f4cca8                LzmaGetUncompSize
 .text.decompressLZMA
                0x00f4cd7c      0x224 ./libcfe.a(dcapi.o)
                0x00f4cd7c                decompressLZMA
 .text.fdt32_to_cpu
                0x00f4cfa0       0x64 ./libcfe.a(fdt_ro.o)
 .text.fdt64_to_cpu
                0x00f4d004      0x198 ./libcfe.a(fdt_ro.o)
 .text._fdt_offset_ptr
                0x00f4d19c       0x44 ./libcfe.a(fdt_ro.o)
 .text._fdt_mem_rsv
                0x00f4d1e0       0x50 ./libcfe.a(fdt_ro.o)
 .text._fdt_nodename_eq
                0x00f4d230       0xec ./libcfe.a(fdt_ro.o)
 .text.fdt_string
                0x00f4d31c       0x44 ./libcfe.a(fdt_ro.o)
                0x00f4d31c                fdt_string
 .text._fdt_string_eq
                0x00f4d360       0x7c ./libcfe.a(fdt_ro.o)
 .text.fdt_num_mem_rsv
                0x00f4d3dc       0x68 ./libcfe.a(fdt_ro.o)
                0x00f4d3dc                fdt_num_mem_rsv
 .text._nextprop
                0x00f4d444       0x88 ./libcfe.a(fdt_ro.o)
 .text.fdt_subnode_offset_namelen
                0x00f4d4cc       0xd0 ./libcfe.a(fdt_ro.o)
                0x00f4d4cc                fdt_subnode_offset_namelen
 .text.fdt_path_offset
                0x00f4d59c      0x194 ./libcfe.a(fdt_ro.o)
                0x00f4d59c                fdt_path_offset
 .text.fdt_first_property_offset
                0x00f4d730       0x54 ./libcfe.a(fdt_ro.o)
                0x00f4d730                fdt_first_property_offset
 .text.fdt_next_property_offset
                0x00f4d784       0x54 ./libcfe.a(fdt_ro.o)
                0x00f4d784                fdt_next_property_offset
 .text.fdt_get_property_by_offset
                0x00f4d7d8       0xa0 ./libcfe.a(fdt_ro.o)
                0x00f4d7d8                fdt_get_property_by_offset
 .text.fdt_get_property_namelen
                0x00f4d878       0xdc ./libcfe.a(fdt_ro.o)
                0x00f4d878                fdt_get_property_namelen
 .text.fdt_get_property
                0x00f4d954       0x58 ./libcfe.a(fdt_ro.o)
                0x00f4d954                fdt_get_property
 .text.fdt_getprop_namelen
                0x00f4d9ac       0x64 ./libcfe.a(fdt_ro.o)
                0x00f4d9ac                fdt_getprop_namelen
 .text.fdt_getprop
                0x00f4da10       0x58 ./libcfe.a(fdt_ro.o)
                0x00f4da10                fdt_getprop
 .text.fdt_get_alias_namelen
                0x00f4da68       0x6c ./libcfe.a(fdt_ro.o)
                0x00f4da68                fdt_get_alias_namelen
 .text.fdt32_to_cpu
                0x00f4dad4       0x64 ./libcfe.a(fdt_rw.o)
 .text.fdt_set_magic
                0x00f4db38       0x3c ./libcfe.a(fdt_rw.o)
 .text.fdt_set_totalsize
                0x00f4db74       0x3c ./libcfe.a(fdt_rw.o)
 .text.fdt_set_off_dt_struct
                0x00f4dbb0       0x3c ./libcfe.a(fdt_rw.o)
 .text.fdt_set_off_dt_strings
                0x00f4dbec       0x3c ./libcfe.a(fdt_rw.o)
 .text.fdt_set_off_mem_rsvmap
                0x00f4dc28       0x3c ./libcfe.a(fdt_rw.o)
 .text.fdt_set_version
                0x00f4dc64       0x3c ./libcfe.a(fdt_rw.o)
 .text.fdt_set_last_comp_version
                0x00f4dca0       0x3c ./libcfe.a(fdt_rw.o)
 .text.fdt_set_boot_cpuid_phys
                0x00f4dcdc       0x3c ./libcfe.a(fdt_rw.o)
 .text.fdt_set_size_dt_strings
                0x00f4dd18       0x3c ./libcfe.a(fdt_rw.o)
 .text.fdt_set_size_dt_struct
                0x00f4dd54       0x3c ./libcfe.a(fdt_rw.o)
 .text.fdt_get_property_w
                0x00f4dd90       0x40 ./libcfe.a(fdt_rw.o)
 .text._fdt_offset_ptr
                0x00f4ddd0       0x44 ./libcfe.a(fdt_rw.o)
 .text._fdt_offset_ptr_w
                0x00f4de14       0x30 ./libcfe.a(fdt_rw.o)
 .text._fdt_blocks_misordered
                0x00f4de44      0x104 ./libcfe.a(fdt_rw.o)
 .text._fdt_rw_check_header
                0x00f4df48       0xc4 ./libcfe.a(fdt_rw.o)
 .text._fdt_data_size
                0x00f4e00c       0x48 ./libcfe.a(fdt_rw.o)
 .text._fdt_splice
                0x00f4e054       0xfc ./libcfe.a(fdt_rw.o)
 .text._fdt_splice_struct
                0x00f4e150       0xb8 ./libcfe.a(fdt_rw.o)
 .text._fdt_splice_string
                0x00f4e208       0xb0 ./libcfe.a(fdt_rw.o)
 .text._fdt_find_add_string
                0x00f4e2b8       0xfc ./libcfe.a(fdt_rw.o)
 .text._fdt_resize_property
                0x00f4e3b4       0xc4 ./libcfe.a(fdt_rw.o)
 .text._fdt_add_property
                0x00f4e478      0x120 ./libcfe.a(fdt_rw.o)
 .text.fdt_setprop
                0x00f4e598       0xc4 ./libcfe.a(fdt_rw.o)
                0x00f4e598                fdt_setprop
 .text.fdt_appendprop
                0x00f4e65c      0x14c ./libcfe.a(fdt_rw.o)
                0x00f4e65c                fdt_appendprop
 .text.fdt_del_node
                0x00f4e7a8       0x90 ./libcfe.a(fdt_rw.o)
                0x00f4e7a8                fdt_del_node
 .text._fdt_packblocks
                0x00f4e838      0x16c ./libcfe.a(fdt_rw.o)
 .text.fdt_open_into
                0x00f4e9a4      0x2a0 ./libcfe.a(fdt_rw.o)
                0x00f4e9a4                fdt_open_into
 .text.fdt_pack
                0x00f4ec44       0x94 ./libcfe.a(fdt_rw.o)
                0x00f4ec44                fdt_pack
 .text._fdt_node_end_offset
                0x00f4ecd8       0x60 ./libcfe.a(fdt_wip.o)
                0x00f4ecd8                _fdt_node_end_offset
 .text.cfe_bootarea_init
                0x00f4ed38      0x118 ./libcfe.a(arm_arena.o)
                0x00f4ed38                cfe_bootarea_init
 .text.armv7_arena_init
                0x00f4ee50       0xec ./libcfe.a(armv7_arena.o)
                0x00f4ee50                armv7_arena_init
 .text.lib_strdup
                0x00f4ef3c       0x60 ./libcfe.a(lib_string2.o)
                0x00f4ef3c                lib_strdup
 .text.lib_chop_filename
                0x00f4ef9c       0x98 ./libcfe.a(lib_string2.o)
                0x00f4ef9c                lib_chop_filename
 .text.arena_init
                0x00f4f034       0xb0 ./libcfe.a(lib_arena.o)
                0x00f4f034                arena_init
 .text.arena_find
                0x00f4f0e4       0xa4 ./libcfe.a(lib_arena.o)
 .text.arena_split
                0x00f4f188      0x128 ./libcfe.a(lib_arena.o)
 .text.arena_coalesce
                0x00f4f2b0       0xe4 ./libcfe.a(lib_arena.o)
 .text.arena_markrange
                0x00f4f394      0x16c ./libcfe.a(lib_arena.o)
                0x00f4f394                arena_markrange
 .text.eth_open
                0x00f4f500      0x114 ./libcfe.a(net_ether.o)
                0x00f4f500                eth_open
 .text.eth_close
                0x00f4f614       0x7c ./libcfe.a(net_ether.o)
                0x00f4f614                eth_close
 .text.eth_findport
                0x00f4f690      0x140 ./libcfe.a(net_ether.o)
 .text.eth_poll
                0x00f4f7d0      0x188 ./libcfe.a(net_ether.o)
                0x00f4f7d0                eth_poll
 .text.eth_gethwaddr
                0x00f4f958       0x38 ./libcfe.a(net_ether.o)
                0x00f4f958                eth_gethwaddr
 .text.eth_sethwaddr
                0x00f4f990       0x6c ./libcfe.a(net_ether.o)
                0x00f4f990                eth_sethwaddr
 .text.eth_setspeed
                0x00f4f9fc       0x54 ./libcfe.a(net_ether.o)
                0x00f4f9fc                eth_setspeed
 .text.eth_setloopback
                0x00f4fa50       0x54 ./libcfe.a(net_ether.o)
                0x00f4fa50                eth_setloopback
 .text.eth_send
                0x00f4faa4      0x164 ./libcfe.a(net_ether.o)
                0x00f4faa4                eth_send
 .text.eth_alloc
                0x00f4fc08       0xfc ./libcfe.a(net_ether.o)
                0x00f4fc08                eth_alloc
 .text.eth_free
                0x00f4fd04       0x3c ./libcfe.a(net_ether.o)
                0x00f4fd04                eth_free
 .text.eth_init
                0x00f4fd40      0x204 ./libcfe.a(net_ether.o)
                0x00f4fd40                eth_init
 .text.eth_uninit
                0x00f4ff44       0x6c ./libcfe.a(net_ether.o)
                0x00f4ff44                eth_uninit
 .text._udp_find_port
                0x00f4ffb0       0x94 ./libcfe.a(net_udp.o)
 .text._udp_socket
                0x00f50044      0x13c ./libcfe.a(net_udp.o)
                0x00f50044                _udp_socket
 .text._udp_close
                0x00f50180       0xac ./libcfe.a(net_udp.o)
                0x00f50180                _udp_close
 .text._udp_send
                0x00f5022c      0x2c0 ./libcfe.a(net_udp.o)
                0x00f5022c                _udp_send
 .text._udp_bind
                0x00f504ec       0x80 ./libcfe.a(net_udp.o)
                0x00f504ec                _udp_bind
 .text._udp_connect
                0x00f5056c       0x60 ./libcfe.a(net_udp.o)
                0x00f5056c                _udp_connect
 .text._udp_rx_callback
                0x00f505cc      0x380 ./libcfe.a(net_udp.o)
 .text._udp_recv
                0x00f5094c       0x5c ./libcfe.a(net_udp.o)
                0x00f5094c                _udp_recv
 .text._udp_init
                0x00f509a8       0xf8 ./libcfe.a(net_udp.o)
                0x00f509a8                _udp_init
 .text._udp_uninit
                0x00f50aa0       0xc4 ./libcfe.a(net_udp.o)
                0x00f50aa0                _udp_uninit
 .text._udp_alloc
                0x00f50b64       0x68 ./libcfe.a(net_udp.o)
                0x00f50b64                _udp_alloc
 .text._udp_free
                0x00f50bcc       0x34 ./libcfe.a(net_udp.o)
                0x00f50bcc                _udp_free
 .text.LzmaDecodeProperties
                0x00f50c00       0xe4 ./libcfe.a(LzmaDecode.o)
                0x00f50c00                LzmaDecodeProperties
 .text.LzmaDecode
                0x00f50ce4     0x1674 ./libcfe.a(LzmaDecode.o)
                0x00f50ce4                LzmaDecode
 .text.fdt32_to_cpu
                0x00f52358       0x64 ./libcfe.a(fdt.o)
 .text._fdt_offset_ptr
                0x00f523bc       0x44 ./libcfe.a(fdt.o)
 .text.fdt_check_header
                0x00f52400       0xdc ./libcfe.a(fdt.o)
                0x00f52400                fdt_check_header
 .text.fdt_offset_ptr
                0x00f524dc       0xbc ./libcfe.a(fdt.o)
                0x00f524dc                fdt_offset_ptr
 .text.fdt_next_tag
                0x00f52598      0x1c0 ./libcfe.a(fdt.o)
                0x00f52598                fdt_next_tag
 .text._fdt_check_node_offset
                0x00f52758       0x68 ./libcfe.a(fdt.o)
                0x00f52758                _fdt_check_node_offset
 .text._fdt_check_prop_offset
                0x00f527c0       0x68 ./libcfe.a(fdt.o)
                0x00f527c0                _fdt_check_prop_offset
 .text.fdt_next_node
                0x00f52828      0x164 ./libcfe.a(fdt.o)
                0x00f52828                fdt_next_node
 .text._fdt_find_string
                0x00f5298c       0xa4 ./libcfe.a(fdt.o)
                0x00f5298c                _fdt_find_string
 .text.fdt_move
                0x00f52a30       0x94 ./libcfe.a(fdt.o)
                0x00f52a30                fdt_move
 *(.fini)

.glue_7         0x00f52ac4        0x0
 .glue_7        0x00f52ac4        0x0 linker stubs

.glue_7t        0x00f52ac4        0x0
 .glue_7t       0x00f52ac4        0x0 linker stubs

.vfp11_veneer   0x00f52ac4        0x0
 .vfp11_veneer  0x00f52ac4        0x0 linker stubs

.v4_bx          0x00f52ac4        0x0
 .v4_bx         0x00f52ac4        0x0 linker stubs

.iplt           0x00f52ac4        0x0
 .iplt          0x00f52ac4        0x0 init_arm.o

.ARM.exidx      0x00f52ac4        0x8
                0x00f52ac4                __exidx_start = .
 *(.ARM.exidx* .gnu.linkonce.armexidx.*)
 .ARM.exidx     0x00f52ac4        0x8 /opt/toolchains/crosstools-arm-gcc-5.5-linux-4.1-glibc-2.26-binutils-2.28.1/lib/gcc/arm-buildroot-linux-gnueabi/5.5.0/libgcc.a(_udivmoddi4.o)
                0x00f52acc                __exidx_end = .
                0x00f52acc                . = ALIGN (0x4)
                0x00f52acc                _etext = .
                0x00f52acc                text_end = .
                0x00f52acc                . = ALIGN (0x4)

.rodata         0x00f52acc    0x10564
                0x00f52acc                rodata_start = .
 *(.rdata)
 *(.rdata.*)
 *(.rodata)
 .rodata        0x00f52acc       0x25 bcm63xx_sec.o
 *fill*         0x00f52af1        0x3 
 .rodata        0x00f52af4       0x26 dev_arm_pl011_uart.o
 *fill*         0x00f52b1a        0x2 
 .rodata        0x00f52b1c       0x41 bcmSpiRes.o
 *fill*         0x00f52b5d        0x3 
 .rodata        0x00f52b60       0x2c bcm_pinmux_impl1.o
 .rodata        0x00f52b8c       0x39 bcm_misc_hw_init_impl6.o
 *fill*         0x00f52bc5        0x3 
 .rodata        0x00f52bc8       0x44 bcm_led_impl4.o
 .rodata        0x00f52c0c       0x82 dev_bcm63xx_eth_impl4.o
 *fill*         0x00f52c8e        0x2 
 .rodata        0x00f52c90      0x323 bcm_ethsw_impl1.o
 *fill*         0x00f52fb3        0x1 
 .rodata        0x00f52fb4       0x21 pmc_sysport.o
 *fill*         0x00f52fd5        0x3 
 .rodata        0x00f52fd8      0x1cb dev_bcm63xx_flash.o
 *fill*         0x00f531a3        0x1 
 .rodata        0x00f531a4      0x123 flash_api.o
 *fill*         0x00f532c7        0x1 
 .rodata        0x00f532c8       0x53 flash_common.o
 *fill*         0x00f5331b        0x1 
 .rodata        0x00f5331c      0x14e bcm63xx_devs.o
 *fill*         0x00f5346a        0x2 
 .rodata        0x00f5346c      0x614 bcm63xx_board.o
 .rodata        0x00f53a80     0x2b26 bcm63xx_cmd.o
 *fill*         0x00f565a6        0x2 
 .rodata        0x00f565a8      0x1ec bcm63xx_blparms.o
 .rodata        0x00f56794      0x152 boardparms_47622.o
 *fill*         0x00f568e6        0x2 
 .rodata        0x00f568e8      0x2ec bp_funcs.o
 .rodata        0x00f56bd4       0x43 boardparms_voice.o
 *fill*         0x00f56c17        0x1 
 .rodata        0x00f56c18        0xe shared_utils.o
 *fill*         0x00f56c26        0x2 
 .rodata        0x00f56c28     0x1308 bcm63xx_util.o
 .rodata        0x00f57f30       0x1c bcm63xx_ldr_raw.o
 .rodata        0x00f57f4c       0x12 bcm63xx_ldr_elf.o
 *fill*         0x00f57f5e        0x2 
 .rodata        0x00f57f60      0x22b bcm63xx_main.o
 *fill*         0x00f5818b        0x1 
 .rodata        0x00f5818c      0x5c7 bcm63xx_httpd.o
 *fill*         0x00f58753        0x1 
 .rodata        0x00f58754       0x9c bcm63xx_httpd_web_var.o
 .rodata        0x00f587f0       0xd1 bcm63xx_nvram.o
 *fill*         0x00f588c1        0x3 
 .rodata        0x00f588c4       0xb1 bcm_ubi.o
 *fill*         0x00f58975        0x3 
 .rodata        0x00f58978      0x4de nandflash.o
 *fill*         0x00f58e56        0x2 
 .rodata        0x00f58e58      0x5e9 spinandflash.o
 *fill*         0x00f59441        0x3 
 .rodata        0x00f59444      0x306 pmc_drv.o
 *fill*         0x00f5974a        0x2 
 .rodata        0x00f5974c      0x421 bcm63xx_dtb.o
 *fill*         0x00f59b6d        0x3 
 .rodata        0x00f59b70       0x5a bcm63xx_impl2_smp.o
 *fill*         0x00f59bca        0x2 
 .rodata        0x00f59bcc      0x191 ./libcfe.a(exchandler.o)
 *fill*         0x00f59d5d        0x3 
 .rodata        0x00f59d60       0x17 ./libcfe.a(lib_malloc.o)
 *fill*         0x00f59d77        0x1 
 .rodata        0x00f59d78        0x7 ./libcfe.a(lib_printf.o)
 *fill*         0x00f59d7f        0x1 
 .rodata        0x00f59d80        0xa ./libcfe.a(cfe_attach.o)
 *fill*         0x00f59d8a        0x2 
 .rodata        0x00f59d8c       0x29 ./libcfe.a(cfe_console.o)
 *fill*         0x00f59db5        0x3 
 .rodata        0x00f59db8       0x31 ./libcfe.a(build_date.o)
 *fill*         0x00f59de9        0x3 
 .rodata        0x00f59dec      0x2ae ./libcfe.a(ui_command.o)
 *fill*         0x00f5a09a        0x2 
 .rodata        0x00f5a09c       0x28 ./libcfe.a(ui_cmddisp.o)
 .rodata        0x00f5a0c4       0xd5 ./libcfe.a(ui_tftpd.o)
 *fill*         0x00f5a199        0x3 
 .rodata        0x00f5a19c      0xbdb ./libcfe.a(ui_netcmds.o)
 *fill*         0x00f5ad77        0x1 
 .rodata        0x00f5ad78       0x93 ./libcfe.a(net_tftp.o)
 *fill*         0x00f5ae0b        0x1 
 .rodata        0x00f5ae0c        0x6 ./libcfe.a(net_dns.o)
 *fill*         0x00f5ae12        0x2 
 .rodata        0x00f5ae14       0x4f ./libcfe.a(net_api.o)
 *fill*         0x00f5ae63        0x1 
 .rodata        0x00f5ae64       0xc9 ./libcfe.a(net_nmrp.o)
 *fill*         0x00f5af2d        0x3 
 .rodata        0x00f5af30       0x39 ./libcfe.a(dcapi.o)
 *fill*         0x00f5af69        0x3 
 .rodata        0x00f5af6c       0x2f ./libcfe.a(fdt_ro.o)
 *(.rodata.*)
 *fill*         0x00f5af9b        0x1 
 .rodata.pl011_uart_dispatch
                0x00f5af9c       0x20 dev_arm_pl011_uart.o
 .rodata.pl011_uart
                0x00f5afbc       0x14 dev_arm_pl011_uart.o
                0x00f5afbc                pl011_uart
 .rodata.bcm63xx_ether_dispatch
                0x00f5afd0       0x20 dev_bcm63xx_eth_impl4.o
 .rodata.bcm63xx_enet
                0x00f5aff0       0x14 dev_bcm63xx_eth_impl4.o
                0x00f5aff0                bcm63xx_enet
 .rodata.__FUNCTION__.7245
                0x00f5b004       0x17 bcm_ethsw_impl1.o
 *fill*         0x00f5b01b        0x1 
 .rodata.__FUNCTION__.7257
                0x00f5b01c       0x18 bcm_ethsw_impl1.o
 .rodata.__FUNCTION__.7317
                0x00f5b034        0x8 bcm_ethsw_impl1.o
 .rodata.__FUNCTION__.7332
                0x00f5b03c        0x8 bcm_ethsw_impl1.o
 .rodata.__FUNCTION__.11115
                0x00f5b044       0x1a bcm63xx_cmd.o
 *fill*         0x00f5b05e        0x2 
 .rodata.__FUNCTION__.11153
                0x00f5b060       0x18 bcm63xx_cmd.o
 .rodata.__FUNCTION__.5471
                0x00f5b078       0x1d bp_funcs.o
 *fill*         0x00f5b095        0x3 
 .rodata.hextable.10534
                0x00f5b098       0x10 bcm63xx_util.o
 .rodata.__func__.10736
                0x00f5b0a8        0xe bcm63xx_util.o
 *fill*         0x00f5b0b6        0x2 
 .rodata.__func__.10796
                0x00f5b0b8       0x12 bcm63xx_util.o
 *fill*         0x00f5b0ca        0x2 
 .rodata.__func__.10810
                0x00f5b0cc       0x13 bcm63xx_util.o
 *fill*         0x00f5b0df        0x1 
 .rodata.jffs2_clean_marker
                0x00f5b0e0        0x8 spinandflash.o
 .rodata.pmcappdata
                0x00f5b0e8     0x7b98 pmc_drv.o
                0x00f5b0e8                pmcappdata
 .rodata.__func__.10005
                0x00f62c80        0x9 pmc_drv.o
 *fill*         0x00f62c89        0x3 
 .rodata.__func__.10021
                0x00f62c8c        0x9 pmc_drv.o
 *fill*         0x00f62c95        0x3 
 .rodata.__func__.9689
                0x00f62c98       0x10 bcm63xx_dtb.o
 .rodata.__func__.9806
                0x00f62ca8       0x10 bcm63xx_dtb.o
 .rodata.__func__.9835
                0x00f62cb8       0x18 bcm63xx_dtb.o
 .rodata.__func__.9862
                0x00f62cd0        0xf bcm63xx_dtb.o
 *fill*         0x00f62cdf        0x1 
 .rodata.k.3931
                0x00f62ce0      0x100 bcm63xx_sha.o
 .rodata.digits
                0x00f62de0       0x11 ./libcfe.a(lib_printf.o)
 *fill*         0x00f62df1        0x3 
 .rodata.ldigits
                0x00f62df4       0x11 ./libcfe.a(lib_printf.o)
 *fill*         0x00f62e05        0x3 
 .rodata.cfe_cmd_dispatch_table
                0x00f62e08      0x180 ./libcfe.a(cfe_iocb_dispatch.o)
 .rodata.cfe_filesystems
                0x00f62f88        0x8 ./libcfe.a(cfe_filesys.o)
 .rodata.__FUNCTION__.4611
                0x00f62f90        0xd ./libcfe.a(ui_tftpd.o)
 *fill*         0x00f62f9d        0x3 
 .rodata.loopbacktypes
                0x00f62fa0       0x20 ./libcfe.a(ui_netcmds.o)
 .rodata.speedtypes
                0x00f62fc0       0x40 ./libcfe.a(ui_netcmds.o)
 .rodata.tftp_fileops
                0x00f63000       0x24 ./libcfe.a(net_tftp.o)
                0x00f63000                tftp_fileops
 .rodata.eth_broadcast
                0x00f63024        0x6 ./libcfe.a(net_ether.o)
                0x00f63024                eth_broadcast
                0x00f63030                . = ALIGN (0x8)
 *fill*         0x00f6302a        0x6 
                0x00f63030                rodata_end = .

.rel.dyn        0x00f63030        0x0
 .rel.iplt      0x00f63030        0x0 init_arm.o
                0x00f63030                . = ALIGN (0x4)

.data           0x00f63030     0x95e4
                0x00f63030                data_start = .
                0x00f63030                _fdata = .
 *(.data)
 .data          0x00f63030     0x1004 exception.o
                0x00f63030                trap_hook
                0x00f63034                exc_stack
 *(.data.*)
 .data.bcmSpiCtrlState
                0x00f64034       0x20 bcmSpiRes.o
                0x00f64034                bcmSpiCtrlState
 .data.active_sysport
                0x00f64054        0x4 dev_bcm63xx_eth_impl4.o
                0x00f64054                active_sysport
 .data.serdesRef50mVco6p25
                0x00f64058       0x38 bcm_ethsw_impl1.o
 .data.serdesSet2p5GFiber
                0x00f64090       0x20 bcm_ethsw_impl1.o
 .data.flash_dummy_dev
                0x00f640b0       0x48 flash_api.o
 .data.g_dectSupportOptions
                0x00f640f8        0xc bcm63xx_board.o
 .data.gWlanDeviceFeatureBoardParam
                0x00f64104       0x90 bcm63xx_board.o
 .data.gNumWlanDeviceFeatureBoardParams
                0x00f64194        0x4 bcm63xx_board.o
 .data.gBoardParam
                0x00f64198      0x240 bcm63xx_board.o
 .data.gNumBoardParams
                0x00f643d8        0x4 bcm63xx_board.o
 .data.gGponBoardParam
                0x00f643dc       0xd8 bcm63xx_board.o
 .data.gNumGponBoardParams
                0x00f644b4        0x4 bcm63xx_board.o
 .data.gWpsDevicePinBoardParam
                0x00f644b8       0x90 bcm63xx_board.o
 .data.gNumWpsDevicePinBoardParams
                0x00f64548        0x4 bcm63xx_board.o
 .data.gVoiceBoardParam
                0x00f6454c       0xd8 bcm63xx_board.o
 .data.gNumVoiceBoardParams
                0x00f64624        0x4 bcm63xx_board.o
 .data.gPartitionsParam
                0x00f64628      0x168 bcm63xx_board.o
 .data.gNumPartitionsParam
                0x00f64790        0x4 bcm63xx_board.o
 .data.fakeConsole
                0x00f64794        0x2 bcm63xx_cmd.o
                0x00f64794                fakeConsole
 *fill*         0x00f64796        0x2 
 .data.actual_total_memsize
                0x00f64798        0x4 bcm63xx_cmd.o
                0x00f64798                actual_total_memsize
 .data.sel_tab  0x00f6479c       0x40 bcm63xx_cmd.o
                0x00f6479c                sel_tab
 .data.trim_tab
                0x00f647dc       0x40 bcm63xx_cmd.o
                0x00f647dc                trim_tab
 .data.disables.11230
                0x00f6481c       0x10 bcm63xx_cmd.o
 .data.szHexChars.11274
                0x00f6482c       0x11 bcm63xx_cmd.o
 *fill*         0x00f6483d        0x3 
 .data.g_bcm947622sv
                0x00f64840      0x3e0 boardparms_47622.o
 .data.g_bcm947622sv_serdes
                0x00f64c20       0x18 boardparms_47622.o
 .data.g_bcm947622rfdvt
                0x00f64c38      0x1a0 boardparms_47622.o
 .data.g_bcm947622rfdvt2
                0x00f64dd8      0x128 boardparms_47622.o
 .data.g_bcm947622eap
                0x00f64f00      0x120 boardparms_47622.o
 .data.g_bcm947622eap2
                0x00f65020      0x118 boardparms_47622.o
 .data.g_bcm947622eaps
                0x00f65138      0x118 boardparms_47622.o
 .data.g_bcm947622ref1
                0x00f65250      0x210 boardparms_47622.o
 .data.g_bcm947622ref1_sg
                0x00f65460       0x48 boardparms_47622.o
 .data.g_bcm947622ref1_p250
                0x00f654a8       0x60 boardparms_47622.o
 .data.g_bcm947622ref1_sg_p250
                0x00f65508       0x60 boardparms_47622.o
 .data.g_bcm96755ref1
                0x00f65568       0x30 boardparms_47622.o
 .data.g_bcm96755ref1_sg
                0x00f65598       0x30 boardparms_47622.o
 .data.g_bcm96755ref1_p200
                0x00f655c8       0x60 boardparms_47622.o
 .data.g_bcm96755ref1_sg_p200
                0x00f65628       0x60 boardparms_47622.o
 .data.g_bcm96755tbrhx
                0x00f65688      0x1c8 boardparms_47622.o
 .data.g_bcm96755ref2
                0x00f65850      0x200 boardparms_47622.o
 .data.g_MR60   0x00f65a50       0xe8 boardparms_47622.o
 .data.g_MS60   0x00f65b38       0xc8 boardparms_47622.o
 .data.g_RAX20  0x00f65c00      0x198 boardparms_47622.o
 .data.g_EAX20  0x00f65d98      0x168 boardparms_47622.o
 .data.g_BoardParms
                0x00f65f00       0x58 boardparms_47622.o
                0x00f65f00                g_BoardParms
 .data.g_pinmux_fn_defs
                0x00f65f58      0x260 pinmux_table_47622.o
                0x00f65f58                g_pinmux_fn_defs
 .data.g_pinmux_defs_0
                0x00f661b8      0x888 pinmux_table_47622.o
 .data.g_pinmux_defs_tables
                0x00f66a40        0x4 pinmux_table_47622.o
                0x00f66a40                g_pinmux_defs_tables
 .data.g_pinmux_fn_defs_size
                0x00f66a44        0x4 pinmux_table_47622.o
                0x00f66a44                g_pinmux_fn_defs_size
 .data.bpLedList
                0x00f66a48       0xc8 bp_funcs.o
 .data.bpGpioList
                0x00f66b10      0x11c bp_funcs.o
 .data.bpExtIntrList
                0x00f66c2c       0x50 bp_funcs.o
 .data.bpDslCtlGpioList
                0x00f66c7c       0x30 bp_funcs.o
 .data.voiceCurrentDgtrCardCfgId
                0x00f66cac       0x10 boardparms_voice.o
 .data.__compound_literal.0
                0x00f66cbc       0x20 boardparms_voice.o
 .data.__compound_literal.1
                0x00f66cdc       0x20 boardparms_voice.o
 .data.g_voiceBoard_LE88506
                0x00f66cfc      0x130 boardparms_voice.o
                0x00f66cfc                g_voiceBoard_LE88506
 .data.__compound_literal.2
                0x00f66e2c       0x20 boardparms_voice.o
 .data.__compound_literal.3
                0x00f66e4c       0x20 boardparms_voice.o
 .data.g_voiceBoard_SI32267
                0x00f66e6c      0x130 boardparms_voice.o
                0x00f66e6c                g_voiceBoard_SI32267
 .data.__compound_literal.9
                0x00f66f9c       0x20 boardparms_voice.o
 .data.g_voiceBoard_SI32176_LCQC
                0x00f66fbc      0x130 boardparms_voice.o
                0x00f66fbc                g_voiceBoard_SI32176_LCQC
 .data.__compound_literal.10
                0x00f670ec       0x20 boardparms_voice.o
 .data.g_voiceBoard_SI32172_ISI_LCQC
                0x00f6710c      0x130 boardparms_voice.o
                0x00f6710c                g_voiceBoard_SI32172_ISI_LCQC
 .data.__compound_literal.11
                0x00f6723c       0x20 boardparms_voice.o
 .data.g_voiceBoard_SI32173_ISI_LCQC
                0x00f6725c      0x130 boardparms_voice.o
                0x00f6725c                g_voiceBoard_SI32173_ISI_LCQC
 .data.__compound_literal.12
                0x00f6738c       0x20 boardparms_voice.o
 .data.g_voiceBoard_SI32182_ISI_LCBC
                0x00f673ac      0x130 boardparms_voice.o
                0x00f673ac                g_voiceBoard_SI32182_ISI_LCBC
 .data.__compound_literal.13
                0x00f674dc       0x20 boardparms_voice.o
 .data.g_voiceBoard_SI32184_LCBC
                0x00f674fc      0x130 boardparms_voice.o
                0x00f674fc                g_voiceBoard_SI32184_LCBC
 .data.__compound_literal.14
                0x00f6762c       0x20 boardparms_voice.o
 .data.g_voiceBoard_SI32192_ISI_LCBC
                0x00f6764c      0x130 boardparms_voice.o
                0x00f6764c                g_voiceBoard_SI32192_ISI_LCBC
 .data.__compound_literal.15
                0x00f6777c       0x20 boardparms_voice.o
 .data.__compound_literal.16
                0x00f6779c       0x20 boardparms_voice.o
 .data.g_voiceBoard_SI32286_LCCB
                0x00f677bc      0x130 boardparms_voice.o
                0x00f677bc                g_voiceBoard_SI32286_LCCB
 .data.__compound_literal.17
                0x00f678ec       0x20 boardparms_voice.o
 .data.__compound_literal.18
                0x00f6790c       0x20 boardparms_voice.o
 .data.g_voiceBoard_SI32280_ISI_LCCB
                0x00f6792c      0x130 boardparms_voice.o
                0x00f6792c                g_voiceBoard_SI32280_ISI_LCCB
 .data.__compound_literal.19
                0x00f67a5c       0x20 boardparms_voice.o
 .data.__compound_literal.20
                0x00f67a7c       0x20 boardparms_voice.o
 .data.g_voiceBoard_SI32282_LCCB
                0x00f67a9c      0x130 boardparms_voice.o
                0x00f67a9c                g_voiceBoard_SI32282_LCCB
 .data.__compound_literal.21
                0x00f67bcc       0x20 boardparms_voice.o
 .data.__compound_literal.22
                0x00f67bec       0x20 boardparms_voice.o
 .data.g_voiceBoard_SI32284_ISI_LCCB
                0x00f67c0c      0x130 boardparms_voice.o
                0x00f67c0c                g_voiceBoard_SI32284_ISI_LCCB
 .data.__compound_literal.30
                0x00f67d3c       0x20 boardparms_voice.o
 .data.__compound_literal.31
                0x00f67d5c       0x20 boardparms_voice.o
 .data.g_voiceBoard_SI32260
                0x00f67d7c      0x130 boardparms_voice.o
                0x00f67d7c                g_voiceBoard_SI32260
 .data.__compound_literal.38
                0x00f67eac       0x20 boardparms_voice.o
 .data.__compound_literal.39
                0x00f67ecc       0x20 boardparms_voice.o
 .data.g_voiceBoard_SI32260_LCQC
                0x00f67eec      0x130 boardparms_voice.o
                0x00f67eec                g_voiceBoard_SI32260_LCQC
 .data.__compound_literal.40
                0x00f6801c       0x20 boardparms_voice.o
 .data.__compound_literal.41
                0x00f6803c       0x20 boardparms_voice.o
 .data.g_voiceBoard_LE88536_ZSI
                0x00f6805c      0x130 boardparms_voice.o
                0x00f6805c                g_voiceBoard_LE88536_ZSI
 .data.__compound_literal.42
                0x00f6818c       0x20 boardparms_voice.o
 .data.__compound_literal.43
                0x00f681ac       0x20 boardparms_voice.o
 .data.g_voiceBoard_ZL88601
                0x00f681cc      0x130 boardparms_voice.o
                0x00f681cc                g_voiceBoard_ZL88601
 .data.__compound_literal.44
                0x00f682fc       0x20 boardparms_voice.o
 .data.__compound_literal.45
                0x00f6831c       0x20 boardparms_voice.o
 .data.__compound_literal.46
                0x00f6833c       0x20 boardparms_voice.o
 .data.__compound_literal.47
                0x00f6835c       0x20 boardparms_voice.o
 .data.g_voiceBoard_ZL88601x2
                0x00f6837c      0x130 boardparms_voice.o
                0x00f6837c                g_voiceBoard_ZL88601x2
 .data.__compound_literal.59
                0x00f684ac       0x20 boardparms_voice.o
 .data.__compound_literal.60
                0x00f684cc       0x20 boardparms_voice.o
 .data.g_voiceBoard_ZL88702_ZSI
                0x00f684ec      0x130 boardparms_voice.o
                0x00f684ec                g_voiceBoard_ZL88702_ZSI
 .data.__compound_literal.61
                0x00f6861c       0x20 boardparms_voice.o
 .data.__compound_literal.62
                0x00f6863c       0x20 boardparms_voice.o
 .data.g_voiceBoard_LE9672_ZSI
                0x00f6865c      0x130 boardparms_voice.o
                0x00f6865c                g_voiceBoard_LE9672_ZSI
 .data.__compound_literal.63
                0x00f6878c       0x20 boardparms_voice.o
 .data.g_voiceBoard_LE9661_ZSI
                0x00f687ac      0x130 boardparms_voice.o
                0x00f687ac                g_voiceBoard_LE9661_ZSI
 .data.__compound_literal.64
                0x00f688dc       0x20 boardparms_voice.o
 .data.__compound_literal.65
                0x00f688fc       0x20 boardparms_voice.o
 .data.g_voiceBoard_LE9661_ZSI_BB
                0x00f6891c      0x130 boardparms_voice.o
                0x00f6891c                g_voiceBoard_LE9661_ZSI_BB
 .data.__compound_literal.69
                0x00f68a4c       0x20 boardparms_voice.o
 .data.__compound_literal.70
                0x00f68a6c       0x20 boardparms_voice.o
 .data.g_voiceBoard_LE9662_ZSI
                0x00f68a8c      0x130 boardparms_voice.o
                0x00f68a8c                g_voiceBoard_LE9662_ZSI
 .data.__compound_literal.71
                0x00f68bbc       0x20 boardparms_voice.o
 .data.__compound_literal.72
                0x00f68bdc       0x20 boardparms_voice.o
 .data.g_voiceBoard_LE9662_ZSI_BB
                0x00f68bfc      0x130 boardparms_voice.o
                0x00f68bfc                g_voiceBoard_LE9662_ZSI_BB
 .data.__compound_literal.73
                0x00f68d2c       0x20 boardparms_voice.o
 .data.__compound_literal.74
                0x00f68d4c       0x20 boardparms_voice.o
 .data.g_voiceBoard_LE9642_ZSI_BB
                0x00f68d6c      0x130 boardparms_voice.o
                0x00f68d6c                g_voiceBoard_LE9642_ZSI_BB
 .data.__compound_literal.75
                0x00f68e9c       0x20 boardparms_voice.o
 .data.g_voiceBoard_LE9643_ZSI_IB
                0x00f68ebc      0x130 boardparms_voice.o
                0x00f68ebc                g_voiceBoard_LE9643_ZSI_IB
 .data.__compound_literal.76
                0x00f68fec       0x20 boardparms_voice.o
 .data.g_voiceBoard_LE9641_ZSI_BB
                0x00f6900c      0x130 boardparms_voice.o
                0x00f6900c                g_voiceBoard_LE9641_ZSI_BB
 .data.__compound_literal.77
                0x00f6913c       0x20 boardparms_voice.o
 .data.__compound_literal.78
                0x00f6915c       0x20 boardparms_voice.o
 .data.g_voiceBoard_LE9652_ZSI_IB
                0x00f6917c      0x130 boardparms_voice.o
                0x00f6917c                g_voiceBoard_LE9652_ZSI_IB
 .data.__compound_literal.79
                0x00f692ac       0x20 boardparms_voice.o
 .data.g_voiceBoard_LE9653_IB
                0x00f692cc      0x130 boardparms_voice.o
                0x00f692cc                g_voiceBoard_LE9653_IB
 .data.__compound_literal.80
                0x00f693fc       0x20 boardparms_voice.o
 .data.g_voiceBoard_LE89116
                0x00f6941c      0x130 boardparms_voice.o
                0x00f6941c                g_voiceBoard_LE89116
 .data.__compound_literal.81
                0x00f6954c       0x20 boardparms_voice.o
 .data.g_voiceBoard_SI32176
                0x00f6956c      0x130 boardparms_voice.o
                0x00f6956c                g_voiceBoard_SI32176
 .data.g_voiceBoard_NOSLIC
                0x00f6969c      0x130 boardparms_voice.o
                0x00f6969c                g_voiceBoard_NOSLIC
 .data.g_947622_dCardList
                0x00f697cc       0x80 boardparms_voice.o
 .data.g_voice_bcm947622sv
                0x00f6984c       0x28 boardparms_voice.o
 .data.g_voice_bcm96755ref1
                0x00f69874       0x30 boardparms_voice.o
 .data.g_VoiceBoardParms
                0x00f698a4        0xc boardparms_voice.o
 .data.gBootParam
                0x00f698b0      0x360 bcm63xx_util.o
 .data.gNumBootParams
                0x00f69c10        0x4 bcm63xx_util.o
 .data.gAfeId   0x00f69c14       0xd8 bcm63xx_util.o
 .data.gAfeIdParams
                0x00f69cec        0x4 bcm63xx_util.o
 .data.gMemoryConfig
                0x00f69cf0       0x90 bcm63xx_util.o
 .data.gMemoryConfigParams
                0x00f69d80        0x4 bcm63xx_util.o
 .data.g_prompt
                0x00f69d84        0x4 bcm63xx_main.o
 .data.cfe_boardname
                0x00f69d88        0x4 bcm63xx_main.o
                0x00f69d88                cfe_boardname
 .data.cfe_sdramsize
                0x00f69d8c        0x4 bcm63xx_main.o
                0x00f69d8c                cfe_sdramsize
 .data.env_envvars
                0x00f69d90        0x8 bcm63xx_env_subr.o
                0x00f69d90                env_envvars
 .data.g_web_page_map
                0x00f69d98       0x40 bcm63xx_httpd.o
 .data.first_time.8767
                0x00f69dd8        0x4 bcm63xx_httpd.o
 .data.port.8781
                0x00f69ddc        0x4 bcm63xx_httpd.o
 .data.web_var_table
                0x00f69de0       0x60 bcm63xx_httpd_web_var.o
 .data.bcmHsPllFreq
                0x00f69e40        0x4 bcmHsSpi.o
                0x00f69e40                bcmHsPllFreq
 .data.hsSpiMaxRW
                0x00f69e44        0x4 bcmHsSpi.o
                0x00f69e44                hsSpiMaxRW
 .data.flash_nand_dev
                0x00f69e48       0x48 nandflash.o
 .data.brcmnand_oob_16
                0x00f69e90        0x4 nandflash.o
                0x00f69e90                brcmnand_oob_16
 .data.brcmnand_oob_64
                0x00f69e94        0xa nandflash.o
                0x00f69e94                brcmnand_oob_64
 *fill*         0x00f69e9e        0x2 
 .data.brcmnand_oob_128
                0x00f69ea0       0x12 nandflash.o
                0x00f69ea0                brcmnand_oob_128
 *fill*         0x00f69eb2        0x2 
 .data.brcmnand_oob_bch4_512
                0x00f69eb4        0x4 nandflash.o
                0x00f69eb4                brcmnand_oob_bch4_512
 .data.brcmnand_oob_bch4_2k
                0x00f69eb8        0xa nandflash.o
                0x00f69eb8                brcmnand_oob_bch4_2k
 *fill*         0x00f69ec2        0x2 
 .data.brcmnand_oob_bch4_4k
                0x00f69ec4       0x12 nandflash.o
                0x00f69ec4                brcmnand_oob_bch4_4k
 *fill*         0x00f69ed6        0x2 
 .data.brcmnand_oob_bch4_8k
                0x00f69ed8       0x22 nandflash.o
                0x00f69ed8                brcmnand_oob_bch4_8k
 *fill*         0x00f69efa        0x2 
 .data.brcmnand_oob_bch8_27_2k
                0x00f69efc       0x10 nandflash.o
                0x00f69efc                brcmnand_oob_bch8_27_2k
 .data.brcmnand_oob_bch8_16_4k
                0x00f69f0c       0x12 nandflash.o
                0x00f69f0c                brcmnand_oob_bch8_16_4k
 *fill*         0x00f69f1e        0x2 
 .data.brcmnand_oob_bch8_27_4k
                0x00f69f20       0x1d nandflash.o
                0x00f69f20                brcmnand_oob_bch8_27_4k
 *fill*         0x00f69f3d        0x3 
 .data.brcmnand_oob_bch8_16_8k
                0x00f69f40       0x22 nandflash.o
                0x00f69f40                brcmnand_oob_bch8_16_8k
 *fill*         0x00f69f62        0x2 
 .data.brcmnand_oob_bch8_27_8k
                0x00f69f64       0x38 nandflash.o
                0x00f69f64                brcmnand_oob_bch8_27_8k
 .data.brcmnand_oob_bch12_27_2k
                0x00f69f9c       0x10 nandflash.o
                0x00f69f9c                brcmnand_oob_bch12_27_2k
 .data.brcmnand_oob_bch12_27_4k
                0x00f69fac       0x1d nandflash.o
                0x00f69fac                brcmnand_oob_bch12_27_4k
 *fill*         0x00f69fc9        0x3 
 .data.brcmnand_oob_bch12_27_8k
                0x00f69fcc       0x38 nandflash.o
                0x00f69fcc                brcmnand_oob_bch12_27_8k
 .data.fnfi.6252
                0x00f6a004      0x288 nandflash.o
 .data.fmfi.6253
                0x00f6a28c      0x120 nandflash.o
 .data.fnfi     0x00f6a3ac      0x438 spinandflash.o
 .data.flash_spi_nand_dev
                0x00f6a7e4       0x48 spinandflash.o
 .data.spinand_oob_gigadevice_2k_A
                0x00f6a82c      0x118 spinandflash.o
 .data.spinand_oob_gigadevice_2k_B
                0x00f6a944       0xd8 spinandflash.o
 .data.spinand_oob_gigadevice_4k
                0x00f6aa1c      0x1a8 spinandflash.o
 .data.spinand_oob_micron_aa
                0x00f6abc4       0x88 spinandflash.o
 .data.spinand_oob_toshiba_micron_ab
                0x00f6ac4c      0x108 spinandflash.o
 .data.spinand_oob_esmt
                0x00f6ad54       0x78 spinandflash.o
 .data.spinand_oob_esmt2
                0x00f6adcc       0xa4 spinandflash.o
 .data.spinand_oob_mxic
                0x00f6ae70        0x8 spinandflash.o
 .data.spinand_oob_etron
                0x00f6ae78       0xfc spinandflash.o
 .data.spinand_oob_etron2
                0x00f6af74       0xe8 spinandflash.o
 .data.spinand_oob_xtx
                0x00f6b05c       0x48 spinandflash.o
 .data.spi_flash_clock
                0x00f6b0a4        0x4 spinandflash.o
 .data.spi_max_op_len
                0x00f6b0a8        0x4 spinandflash.o
 .data.reqdID.9764
                0x00f6b0ac        0x4 pmc_drv.o
 .data.ul_html  0x00f6b0b0      0xac3 ul.o
                0x00f6b0b0                ul_html
 *fill*         0x00f6bb73        0x1 
 .data.ul_html_size
                0x00f6bb74        0x4 ul.o
                0x00f6bb74                ul_html_size
 .data.ulinfo_html
                0x00f6bb78      0x59a ulinfo.o
                0x00f6bb78                ulinfo_html
 *fill*         0x00f6c112        0x2 
 .data.ulinfo_html_size
                0x00f6c114        0x4 ulinfo.o
                0x00f6c114                ulinfo_html_size
 .data.crc32_table
                0x00f6c118      0x400 ./libcfe.a(lib_crc.o)
 .data.cfe_devices
                0x00f6c518        0x8 ./libcfe.a(cfe_attach.o)
                0x00f6c518                cfe_devices
 .data.console_handle
                0x00f6c520        0x4 ./libcfe.a(cfe_console.o)
                0x00f6c520                console_handle
 .data.cfe_cpu_speed
                0x00f6c524        0x4 ./libcfe.a(cfe_timer.o)
                0x00f6c524                cfe_cpu_speed
 .data.builddate
                0x00f6c528        0x4 ./libcfe.a(build_date.o)
                0x00f6c528                builddate
 .data.builduser
                0x00f6c52c        0x4 ./libcfe.a(build_date.o)
                0x00f6c52c                builduser
 .data.tokenbreaks
                0x00f6c530        0x4 ./libcfe.a(ui_command.o)
 .data.spacechars
                0x00f6c534        0x4 ./libcfe.a(ui_command.o)
 .data.seed     0x00f6c538        0x4 ./libcfe.a(net_nmrp.o)
 .data.reqClose.4925
                0x00f6c53c       0x48 ./libcfe.a(net_nmrp.o)
 .data.reqTftpUl.4931
                0x00f6c584       0x48 ./libcfe.a(net_nmrp.o)
 .data.reqConf.4957
                0x00f6c5cc       0x48 ./libcfe.a(net_nmrp.o)
 *(.sdata)
                0x00f6c614                . = ALIGN (0x4)
                0x00f6c614                data_end = .
                0x00f6c614                _edata = .
                0x0006c614                _romsize = (_edata - _ftext)

.igot.plt       0x00f6c614        0x0
 .igot.plt      0x00f6c614        0x0 init_arm.o
                0x00f6c614                . = ALIGN (0x4)

.bss            0x00f6c618     0x3e30
                0x00f6c618                _fbss = .
                0x00f6c618                bss_start = .
 *(.sbss)
 *(.scommon)
 *(.bss)
 *(.bss.*)
 .bss._obj      0x00f6c618      0x258 bcm63xx_sec.o
 .bss.g_optled_map
                0x00f6c870      0x200 bcm_led_impl4.o
 .bss.LedData   0x00f6ca70        0x4 bcm_led_impl4.o
 .bss.bcm_led_driver_state
                0x00f6ca74       0xc0 bcm_led_impl4.o
 .bss.dma_buffer
                0x00f6cb34        0x4 dev_bcm63xx_eth_impl4.o
 .bss.dma_buffer_1
                0x00f6cb38        0x4 dev_bcm63xx_eth_impl4.o
 .bss.ext_sw_id
                0x00f6cb3c        0x4 bcm_ethsw_impl1.o
 .bss.ext_sw_sgmii
                0x00f6cb40        0x4 bcm_ethsw_impl1.o
 .bss.saved     0x00f6cb44        0x4 bcm_ethsw_impl1.o
 .bss.portCtrl  0x00f6cb48       0x20 bcm_ethsw_impl1.o
 .bss.pbvlan    0x00f6cb68       0x20 bcm_ethsw_impl1.o
 .bss.flashBootCfeVersion
                0x00f6cb88        0xa dev_bcm63xx_flash.o
 *fill*         0x00f6cb92        0x2 
 .bss.fInfo     0x00f6cb94       0x3c dev_bcm63xx_flash.o
 .bss.g_flash_info
                0x00f6cbd0        0x4 flash_api.o
 .bss.disable_nor_raw_partition
                0x00f6cbd4        0x4 flash_common.o
 .bss.fAuxFsInfo
                0x00f6cbd8       0x3c flash_common.o
                0x00f6cbd8                fAuxFsInfo
 .bss.c1.10480  0x00f6cc14        0x4 bcm63xx_devs.o
 .bss.c0.10479  0x00f6cc18        0x4 bcm63xx_devs.o
 .bss.led_state.10535
                0x00f6cc1c        0x4 bcm63xx_devs.o
 .bss.g_numBoardIdNames
                0x00f6cc20        0x4 bcm63xx_board.o
 .bss.g_numVoiceBoardIdNames
                0x00f6cc24        0x4 bcm63xx_board.o
 .bss.g_numDectSupportOptions
                0x00f6cc28        0x4 bcm63xx_board.o
 .bss.gGponParamsInitialized
                0x00f6cc2c        0x4 bcm63xx_board.o
 .bss.gWpsDevicePinInitialized
                0x00f6cc30        0x4 bcm63xx_board.o
 .bss.gVoiceSupported
                0x00f6cc34        0x4 bcm63xx_board.o
 .bss.g_processing_cmd
                0x00f6cc38        0x4 bcm63xx_cmd.o
                0x00f6cc38                g_processing_cmd
 .bss.g_force_mode
                0x00f6cc3c        0x2 bcm63xx_cmd.o
                0x00f6cc3c                g_force_mode
 .bss.g_raw_flash_write
                0x00f6cc3e        0x2 bcm63xx_cmd.o
                0x00f6cc3e                g_raw_flash_write
 .bss.g_raw_flash_write_offset
                0x00f6cc40        0x2 bcm63xx_cmd.o
                0x00f6cc40                g_raw_flash_write_offset
 *fill*         0x00f6cc42        0x2 
 .bss.g_invalid_img_rev
                0x00f6cc44        0x4 bcm63xx_cmd.o
                0x00f6cc44                g_invalid_img_rev
 .bss.g_in_cfe  0x00f6cc48        0x4 bcm63xx_cmd.o
                0x00f6cc48                g_in_cfe
 .bss.erase_psi
                0x00f6cc4c        0x4 bcm63xx_cmd.o
                0x00f6cc4c                erase_psi
 .bss.disable_nor_raw_partition
                0x00f6cc50        0x4 bcm63xx_cmd.o
 .bss.no_ecc    0x00f6cc54        0x4 bcm63xx_cmd.o
                0x00f6cc54                no_ecc
 .bss.loaded_file_size
                0x00f6cc58        0x4 bcm63xx_cmd.o
 .bss.loaded_file_address
                0x00f6cc5c        0x4 bcm63xx_cmd.o
 .bss.addr.11357
                0x00f6cc60        0x4 bcm63xx_cmd.o
 .bss.addr.11432
                0x00f6cc64        0x4 bcm63xx_cmd.o
 .bss.blparms_buf
                0x00f6cc68      0x400 bcm63xx_blparms.o
 .bss.xparms_buf
                0x00f6d068        0x4 bcm63xx_blparms.o
 .bss.xparms_len
                0x00f6d06c        0x4 bcm63xx_blparms.o
 .bss.blparms_len
                0x00f6d070        0x4 bcm63xx_blparms.o
 .bss.blparms_bootcmd
                0x00f6d074      0x100 bcm63xx_blparms.o
 .bss.is_cma_rsvmem
                0x00f6d174        0x4 bcm63xx_blparms.o
 .bss.g_pCurrentBp
                0x00f6d178        0x4 bp_funcs.o
                0x00f6d178                g_pCurrentBp
 .bss.pEnetMacInfo
                0x00f6d17c        0x4 bp_funcs.o
 .bss.EnetMacInfoGbl
                0x00f6d180      0x450 bp_funcs.o
 .bss.g_pinmux_defs
                0x00f6d5d0        0x4 bp_funcs.o
 .bss.g_VoIPDspInfo
                0x00f6d5d4       0x20 bp_funcs.o
                0x00f6d5d4                g_VoIPDspInfo
 .bss.physIntfInfo
                0x00f6d5f4      0x180 bp_funcs.o
 .bss.physIntfCnt
                0x00f6d774       0x20 bp_funcs.o
 .bss.physIntfTotalCnt
                0x00f6d794        0x4 bp_funcs.o
 .bss.physIntfInitDone
                0x00f6d798        0x4 bp_funcs.o
 .bss.gpios.5948
                0x00f6d79c      0x104 bp_funcs.o
 .bss.ints.5949
                0x00f6d8a0        0xc bp_funcs.o
 .bss.g_BpDectPopulated
                0x00f6d8ac        0x4 boardparms_voice.o
 .bss.g_voice_filteredBp
                0x00f6d8b0      0x190 boardparms_voice.o
 .bss.bootInfo  0x00f6da40      0x258 bcm63xx_util.o
                0x00f6da40                bootInfo
 .bss.root_device_name
                0x00f6dc98      0x100 bcm63xx_util.o
 .bss.Tag2.10110
                0x00f6dd98      0x100 bcm63xx_util.o
 .bss.Tag1.10109
                0x00f6de98      0x100 bcm63xx_util.o
 .bss.hash_block_start
                0x00f6df98        0x4 bcm63xx_auth.o
                0x00f6df98                hash_block_start
 .bss.is_64bit  0x00f6df9c        0x4 bcm63xx_ldr_elf.o
 .bss.err_buf.10834
                0x00f6dfa0       0x14 bcm63xx_main.o
 .bss.g_listen_idx
                0x00f6dfb4        0x4 bcm63xx_httpd.o
 .bss.g_image_start
                0x00f6dfb8        0x4 bcm63xx_httpd.o
 .bss.g_image_len
                0x00f6dfbc        0x4 bcm63xx_httpd.o
 .bss.g_image_format
                0x00f6dfc0        0x4 bcm63xx_httpd.o
 .bss.g_post_data_in_progress
                0x00f6dfc4        0x4 bcm63xx_httpd.o
 .bss.g_post_data_idx
                0x00f6dfc8        0x4 bcm63xx_httpd.o
 .bss.g_socket_info
                0x00f6dfcc      0x640 bcm63xx_httpd.o
 .bss.in_cfe_web_poll.8768
                0x00f6e60c        0x4 bcm63xx_httpd.o
 .bss.var_value.4007
                0x00f6e610        0xa bcm63xx_httpd_web_var.o
 *fill*         0x00f6e61a        0x2 
 .bss.nvram     0x00f6e61c        0x4 bcm63xx_nvram.o
 .bss.s_nvram   0x00f6e620      0x400 bcm63xx_nvram.o
 .bss.nv_mirrors
                0x00f6ea20        0x4 bcm63xx_nvram.o
 .bss.s_nv_mirros
                0x00f6ea24       0xf8 bcm63xx_nvram.o
 .bss.g_chip    0x00f6eb1c       0x2c nandflash.o
                0x00f6eb1c                g_chip
 .bss.g_spare_cleanmarker
                0x00f6eb48      0x1b0 nandflash.o
 .bss.g_no_ecc  0x00f6ecf8        0x4 nandflash.o
 .bss.initialized.6249
                0x00f6ecfc        0x4 nandflash.o
 .bss.marking_bad_blk.6377
                0x00f6ed00        0x4 nandflash.o
 .bss.g_spinand_chip
                0x00f6ed04       0x38 spinandflash.o
                0x00f6ed04                g_spinand_chip
 .bss.g_no_ecc  0x00f6ed3c        0x4 spinandflash.o
 .bss.g_force_erase
                0x00f6ed40        0x4 spinandflash.o
 .bss.spi_flash_busnum
                0x00f6ed44        0x4 spinandflash.o
 .bss.spi_dummy_bytes
                0x00f6ed48        0x4 spinandflash.o
 .bss.pmc_mode  0x00f6ed4c        0x4 pmc_drv.o
 .bss.is_pvtmon_enabled
                0x00f6ed50        0x4 pmc_drv.o
 .bss.dtb_ctx   0x00f6ed54       0x20 bcm63xx_dtb.o
 .bss.sotp_base_ptr
                0x00f6ed74        0x4 sotp_base_funcs.o
 .bss.input.4183
                0x00f6ed78      0x120 bcm63xx_rsa.o
 .bss.modulus.4184
                0x00f6ee98      0x120 bcm63xx_rsa.o
 .bss.output.4185
                0x00f6efb8      0x120 bcm63xx_rsa.o
 .bss.tmp.4186  0x00f6f0d8      0x248 bcm63xx_rsa.o
 .bss.exc_handler
                0x00f6f320       0x10 ./libcfe.a(exchandler.o)
                0x00f6f320                exc_handler
 .bss.kmempool  0x00f6f330        0xc ./libcfe.a(lib_malloc.o)
                0x00f6f330                kmempool
 .bss.xprinthook
                0x00f6f33c        0x4 ./libcfe.a(lib_printf.o)
                0x00f6f33c                xprinthook
 .bss.nested.4000
                0x00f6f340        0x1 ./libcfe.a(lib_printf.o)
 *fill*         0x00f6f341        0x3 
 .bss.buffer.4001
                0x00f6f344      0x400 ./libcfe.a(lib_printf.o)
 .bss.nested.4007
                0x00f6f744        0x1 ./libcfe.a(lib_printf.o)
 *fill*         0x00f6f745        0x3 
 .bss.buffer.4008
                0x00f6f748      0x400 ./libcfe.a(lib_printf.o)
 .bss.cfe_handle_table
                0x00f6fb48      0x100 ./libcfe.a(cfe_iocb_dispatch.o)
                0x00f6fb48                cfe_handle_table
 .bss.g_console_abort
                0x00f6fc48        0x4 ./libcfe.a(cfe_console.o)
                0x00f6fc48                g_console_abort
 .bss.console_name
                0x00f6fc4c        0x4 ./libcfe.a(cfe_console.o)
                0x00f6fc4c                console_name
 .bss.console_inreadline
                0x00f6fc50        0x4 ./libcfe.a(cfe_console.o)
 .bss.console_redisplay
                0x00f6fc54        0x4 ./libcfe.a(cfe_console.o)
 .bss.cfe_arena
                0x00f6fc58       0x18 ./libcfe.a(cfe_mem.o)
                0x00f6fc58                cfe_arena
 .bss.mem_bootarea_start
                0x00f6fc70        0x4 ./libcfe.a(cfe_mem.o)
                0x00f6fc70                mem_bootarea_start
 .bss.mem_bootarea_size
                0x00f6fc74        0x4 ./libcfe.a(cfe_mem.o)
                0x00f6fc74                mem_bootarea_size
 .bss.cfe_ticks
                0x00f6fc78        0x8 ./libcfe.a(cfe_timer.o)
                0x00f6fc78                cfe_ticks
 .bss.cfe_clocks_per_usec
                0x00f6fc80        0x4 ./libcfe.a(cfe_timer.o)
 .bss.cfe_clocks_per_tick
                0x00f6fc84        0x4 ./libcfe.a(cfe_timer.o)
 .bss.cfe_oldcount
                0x00f6fc88        0x4 ./libcfe.a(cfe_timer.o)
 .bss.cfe_remticks
                0x00f6fc8c        0x4 ./libcfe.a(cfe_timer.o)
 .bss.cfe_timer_initflg
                0x00f6fc90        0x4 ./libcfe.a(cfe_timer.o)
 *fill*         0x00f6fc94        0x4 
 .bss.nmrp_previous_trigger_ticks.8511
                0x00f6fc98        0x8 ./libcfe.a(cfe_timer.o)
 .bss.tftp_led_state.8513
                0x00f6fca0        0x4 ./libcfe.a(cfe_timer.o)
 *fill*         0x00f6fca4        0x4 
 .bss.tftp_previous_trigger_ticks.8512
                0x00f6fca8        0x8 ./libcfe.a(cfe_timer.o)
 .bss.cfe_bg_tasklist
                0x00f6fcb0       0x40 ./libcfe.a(cfe_background.o)
 .bss.cfe_bg_args
                0x00f6fcf0       0x40 ./libcfe.a(cfe_background.o)
 .bss.cmd_root  0x00f6fd30        0x4 ./libcfe.a(ui_command.o)
                0x00f6fd30                cmd_root
 *fill*         0x00f6fd34        0x4 
 .bss.ui_jmpbuf
                0x00f6fd38       0x58 ./libcfe.a(ui_cmddisp.o)
 .bss.tftpd_state
                0x00f6fd90        0x4 ./libcfe.a(ui_tftpd.o)
 .bss.netctx    0x00f6fd94        0x4 ./libcfe.a(net_api.o)
                0x00f6fd94                netctx
 .bss.nmrp_server_detected
                0x00f6fd98        0x4 ./libcfe.a(net_nmrp.o)
                0x00f6fd98                nmrp_server_detected
 .bss.g_nmrp_config_acked
                0x00f6fd9c        0x4 ./libcfe.a(net_nmrp.o)
                0x00f6fd9c                g_nmrp_config_acked
 .bss.g_nmrp_close_acked
                0x00f6fda0        0x4 ./libcfe.a(net_nmrp.o)
                0x00f6fda0                g_nmrp_close_acked
 .bss.g_NMRP_State
                0x00f6fda4        0x4 ./libcfe.a(net_nmrp.o)
                0x00f6fda4                g_NMRP_State
 .bss.g_NetInfo
                0x00f6fda8       0x1a ./libcfe.a(net_nmrp.o)
                0x00f6fda8                g_NetInfo
 *fill*         0x00f6fdc2        0x2 
 .bss.g_portal_number
                0x00f6fdc4        0x4 ./libcfe.a(net_nmrp.o)
                0x00f6fdc4                g_portal_number
 .bss.g_nmrpMsg
                0x00f6fdc8       0x38 ./libcfe.a(net_nmrp.o)
                0x00f6fdc8                g_nmrpMsg
 .bss.g_tftp_upgrade_success
                0x00f6fe00        0x4 ./libcfe.a(net_nmrp.o)
                0x00f6fe00                g_tftp_upgrade_success
 .bss.g_nmrp_keepalive
                0x00f6fe04        0x4 ./libcfe.a(net_nmrp.o)
                0x00f6fe04                g_nmrp_keepalive
 .bss.g_received_packet
                0x00f6fe08      0x640 ./libcfe.a(net_nmrp.o)
                0x00f6fe08                g_received_packet
 *(COMMON)
                0x00f70448                . = ALIGN (0x4)
                0x00f70448                bss_end = .

/DISCARD/
 *(.dynstr*)
 *(.dynamic*)
 *(.plt*)
 *(.interp*)
 *(.gnu*)
                0x00f70448                _end = .
Address of section .text set to 0xf00000
LOAD init_arm.o
LOAD exception.o
LOAD secondary_entry.o
LOAD bcm63xx_storage_dev.o
LOAD bcm63xx_common.o
LOAD bcm63xx_ipc.o
LOAD bcm63xx_sec.o
LOAD dev_arm_pl011_uart.o
LOAD bcmSpiRes.o
LOAD bcmLegSpi.o
LOAD bcm_pinmux_impl1.o
LOAD bcm_misc_hw_init_impl6.o
LOAD bcm_gpio_impl1.o
LOAD bcm_otp_impl1.o
LOAD bcm_led_impl4.o
LOAD dev_bcm63xx_eth_impl4.o
LOAD bcm_swled_impl2.o
LOAD bcm_ethsw_impl1.o
LOAD pmc_sysport.o
LOAD bcm_ubus_impl1.o
LOAD dev_bcm63xx_flash.o
LOAD flash_api.o
LOAD flash_common.o
LOAD bcm63xx_devs.o
LOAD bcm63xx_board.o
LOAD bcm63xx_cmd.o
LOAD bcm63xx_blparms.o
LOAD boardparms_47622.o
LOAD pinmux_table_47622.o
LOAD boardparms_chip.o
LOAD bp_funcs.o
LOAD boardparms_voice.o
LOAD shared_utils.o
LOAD bcm63xx_util.o
LOAD bcm63xx_auth.o
LOAD bcm63xx_ldr_raw.o
LOAD bcm63xx_ldr_elf.o
LOAD bcm63xx_main.o
LOAD bcm63xx_env_subr.o
LOAD bcm63xx_httpd.o
LOAD bcm63xx_httpd_web_var.o
LOAD bcm63xx_nvram.o
LOAD bcm63xx_net_icmp.o
LOAD bcm_ubi.o
LOAD bcmHsSpi.o
LOAD nandflash.o
LOAD spinandflash.o
LOAD pmc_drv.o
LOAD clk_rst.o
LOAD ul.o
LOAD ulinfo.o
LOAD bcm63xx_dtb.o
LOAD bcm63xx_impl4_common.o
LOAD bcm63xx_impl2_smp.o
LOAD bcm63xx_impl1_otp.o
LOAD 47622_mmu_map.o
LOAD bcm63xx_potp_sotp_util.o
LOAD bcm63xx_sotp_if.o
LOAD sotp_base_funcs.o
LOAD bcm63xx_potp_sotp_cmd.o
LOAD bcm63xx_auth_if.o
LOAD bcm63xx_rsa.o
LOAD bcm63xx_sha.o
LOAD bcm63xx_aes.o
LOAD bcm63xx_encr_if.o
LOAD ./libcfe.a
LOAD /opt/toolchains/crosstools-arm-gcc-5.5-linux-4.1-glibc-2.26-binutils-2.28.1/lib/gcc/arm-buildroot-linux-gnueabi/5.5.0/libgcc.a
OUTPUT(cfe47622 elf32-littlearm)

.ARM.attributes
                0x00000000       0x2f
 .ARM.attributes
                0x00000000       0x1f init_arm.o
 .ARM.attributes
                0x0000001f       0x1d exception.o
 .ARM.attributes
                0x0000003c       0x1f secondary_entry.o
 .ARM.attributes
                0x0000005b       0x2d bcm63xx_common.o
 .ARM.attributes
                0x00000088       0x2d bcm63xx_ipc.o
 .ARM.attributes
                0x000000b5       0x2d bcm63xx_sec.o
 .ARM.attributes
                0x000000e2       0x2d dev_arm_pl011_uart.o
 .ARM.attributes
                0x0000010f       0x2d bcmSpiRes.o
 .ARM.attributes
                0x0000013c       0x2d bcm_pinmux_impl1.o
 .ARM.attributes
                0x00000169       0x2d bcm_misc_hw_init_impl6.o
 .ARM.attributes
                0x00000196       0x2d bcm_gpio_impl1.o
 .ARM.attributes
                0x000001c3       0x2d bcm_otp_impl1.o
 .ARM.attributes
                0x000001f0       0x2d bcm_led_impl4.o
 .ARM.attributes
                0x0000021d       0x2d dev_bcm63xx_eth_impl4.o
 .ARM.attributes
                0x0000024a       0x2d bcm_swled_impl2.o
 .ARM.attributes
                0x00000277       0x2d bcm_ethsw_impl1.o
 .ARM.attributes
                0x000002a4       0x2d pmc_sysport.o
 .ARM.attributes
                0x000002d1       0x2d dev_bcm63xx_flash.o
 .ARM.attributes
                0x000002fe       0x2d flash_api.o
 .ARM.attributes
                0x0000032b       0x2d flash_common.o
 .ARM.attributes
                0x00000358       0x2d bcm63xx_devs.o
 .ARM.attributes
                0x00000385       0x2d bcm63xx_board.o
 .ARM.attributes
                0x000003b2       0x2d bcm63xx_cmd.o
 .ARM.attributes
                0x000003df       0x2d bcm63xx_blparms.o
 .ARM.attributes
                0x0000040c       0x2d boardparms_47622.o
 .ARM.attributes
                0x00000439       0x2d pinmux_table_47622.o
 .ARM.attributes
                0x00000466       0x2d bp_funcs.o
 .ARM.attributes
                0x00000493       0x2d boardparms_voice.o
 .ARM.attributes
                0x000004c0       0x2d shared_utils.o
 .ARM.attributes
                0x000004ed       0x2d bcm63xx_util.o
 .ARM.attributes
                0x0000051a       0x2d bcm63xx_auth.o
 .ARM.attributes
                0x00000547       0x2d bcm63xx_ldr_raw.o
 .ARM.attributes
                0x00000574       0x2d bcm63xx_ldr_elf.o
 .ARM.attributes
                0x000005a1       0x2d bcm63xx_main.o
 .ARM.attributes
                0x000005ce       0x2d bcm63xx_env_subr.o
 .ARM.attributes
                0x000005fb       0x2d bcm63xx_httpd.o
 .ARM.attributes
                0x00000628       0x2d bcm63xx_httpd_web_var.o
 .ARM.attributes
                0x00000655       0x2d bcm63xx_nvram.o
 .ARM.attributes
                0x00000682       0x2d bcm63xx_net_icmp.o
 .ARM.attributes
                0x000006af       0x2d bcm_ubi.o
 .ARM.attributes
                0x000006dc       0x2d bcmHsSpi.o
 .ARM.attributes
                0x00000709       0x2d nandflash.o
 .ARM.attributes
                0x00000736       0x2d spinandflash.o
 .ARM.attributes
                0x00000763       0x2d pmc_drv.o
 .ARM.attributes
                0x00000790       0x2d clk_rst.o
 .ARM.attributes
                0x000007bd       0x2d ul.o
 .ARM.attributes
                0x000007ea       0x2d ulinfo.o
 .ARM.attributes
                0x00000817       0x2d bcm63xx_dtb.o
 .ARM.attributes
                0x00000844       0x1d bcm63xx_impl4_common.o
 .ARM.attributes
                0x00000861       0x2d bcm63xx_impl2_smp.o
 .ARM.attributes
                0x0000088e       0x1d 47622_mmu_map.o
 .ARM.attributes
                0x000008ab       0x2d bcm63xx_sotp_if.o
 .ARM.attributes
                0x000008d8       0x2d sotp_base_funcs.o
 .ARM.attributes
                0x00000905       0x2d bcm63xx_auth_if.o
 .ARM.attributes
                0x00000932       0x2d bcm63xx_rsa.o
 .ARM.attributes
                0x0000095f       0x2d bcm63xx_sha.o
 .ARM.attributes
                0x0000098c       0x2d ./libcfe.a(exchandler.o)
 .ARM.attributes
                0x000009b9       0x1d ./libcfe.a(lib_setjmp.o)
 .ARM.attributes
                0x000009d6       0x1d ./libcfe.a(armv7_l1cache.o)
 .ARM.attributes
                0x000009f3       0x1f ./libcfe.a(armv7_cpuinit.o)
 .ARM.attributes
                0x00000a12       0x1d ./libcfe.a(mmu_map.o)
 .ARM.attributes
                0x00000a2f       0x2d ./libcfe.a(lib_malloc.o)
 .ARM.attributes
                0x00000a5c       0x2d ./libcfe.a(lib_printf.o)
 .ARM.attributes
                0x00000a89       0x2d ./libcfe.a(lib_queue.o)
 .ARM.attributes
                0x00000ab6       0x2d ./libcfe.a(lib_string.o)
 .ARM.attributes
                0x00000ae3       0x2d ./libcfe.a(lib_crc.o)
 .ARM.attributes
                0x00000b10       0x2d ./libcfe.a(cfe_attach.o)
 .ARM.attributes
                0x00000b3d       0x2d ./libcfe.a(cfe_iocb_dispatch.o)
 .ARM.attributes
                0x00000b6a       0x2d ./libcfe.a(cfe_devfuncs.o)
 .ARM.attributes
                0x00000b97       0x2d ./libcfe.a(cfe_console.o)
 .ARM.attributes
                0x00000bc4       0x2d ./libcfe.a(cfe_mem.o)
 .ARM.attributes
                0x00000bf1       0x2d ./libcfe.a(cfe_timer.o)
 .ARM.attributes
                0x00000c1e       0x2d ./libcfe.a(cfe_background.o)
 .ARM.attributes
                0x00000c4b       0x2d ./libcfe.a(build_date.o)
 .ARM.attributes
                0x00000c78       0x2d ./libcfe.a(cfe_filesys.o)
 .ARM.attributes
                0x00000ca5       0x2d ./libcfe.a(ui_command.o)
 .ARM.attributes
                0x00000cd2       0x2d ./libcfe.a(ui_cmddisp.o)
 .ARM.attributes
                0x00000cff       0x2d ./libcfe.a(ui_tftpd.o)
 .ARM.attributes
                0x00000d2c       0x2d ./libcfe.a(ui_netcmds.o)
 .ARM.attributes
                0x00000d59       0x2d ./libcfe.a(net_tftp.o)
 .ARM.attributes
                0x00000d86       0x2d ./libcfe.a(net_ip.o)
 .ARM.attributes
                0x00000db3       0x2d ./libcfe.a(net_dns.o)
 .ARM.attributes
                0x00000de0       0x2d ./libcfe.a(net_arp.o)
 .ARM.attributes
                0x00000e0d       0x2d ./libcfe.a(net_api.o)
 .ARM.attributes
                0x00000e3a       0x2d ./libcfe.a(net_tcp.o)
 .ARM.attributes
                0x00000e67       0x2d ./libcfe.a(net_tcpbuf.o)
 .ARM.attributes
                0x00000e94       0x2d ./libcfe.a(net_nmrp.o)
 .ARM.attributes
                0x00000ec1       0x2d ./libcfe.a(dcapi.o)
 .ARM.attributes
                0x00000eee       0x2d ./libcfe.a(fdt_ro.o)
 .ARM.attributes
                0x00000f1b       0x2d ./libcfe.a(fdt_rw.o)
 .ARM.attributes
                0x00000f48       0x2d ./libcfe.a(fdt_wip.o)
 .ARM.attributes
                0x00000f75       0x2d ./libcfe.a(arm_arena.o)
 .ARM.attributes
                0x00000fa2       0x2d ./libcfe.a(armv7_arena.o)
 .ARM.attributes
                0x00000fcf       0x2d ./libcfe.a(lib_string2.o)
 .ARM.attributes
                0x00000ffc       0x2d ./libcfe.a(lib_arena.o)
 .ARM.attributes
                0x00001029       0x2d ./libcfe.a(net_ether.o)
 .ARM.attributes
                0x00001056       0x2d ./libcfe.a(net_udp.o)
 .ARM.attributes
                0x00001083       0x2d ./libcfe.a(LzmaDecode.o)
 .ARM.attributes
                0x000010b0       0x2d ./libcfe.a(fdt.o)
 .ARM.attributes
                0x000010dd       0x29 /opt/toolchains/crosstools-arm-gcc-5.5-linux-4.1-glibc-2.26-binutils-2.28.1/lib/gcc/arm-buildroot-linux-gnueabi/5.5.0/libgcc.a(_udivsi3.o)
 .ARM.attributes
                0x00001106       0x29 /opt/toolchains/crosstools-arm-gcc-5.5-linux-4.1-glibc-2.26-binutils-2.28.1/lib/gcc/arm-buildroot-linux-gnueabi/5.5.0/libgcc.a(_divsi3.o)
 .ARM.attributes
                0x0000112f       0x29 /opt/toolchains/crosstools-arm-gcc-5.5-linux-4.1-glibc-2.26-binutils-2.28.1/lib/gcc/arm-buildroot-linux-gnueabi/5.5.0/libgcc.a(_aeabi_uldivmod.o)
 .ARM.attributes
                0x00001158       0x29 /opt/toolchains/crosstools-arm-gcc-5.5-linux-4.1-glibc-2.26-binutils-2.28.1/lib/gcc/arm-buildroot-linux-gnueabi/5.5.0/libgcc.a(_dvmd_lnx.o)
 .ARM.attributes
                0x00001181       0x39 /opt/toolchains/crosstools-arm-gcc-5.5-linux-4.1-glibc-2.26-binutils-2.28.1/lib/gcc/arm-buildroot-linux-gnueabi/5.5.0/libgcc.a(_udivmoddi4.o)
 .ARM.attributes
                0x000011ba       0x29 /opt/toolchains/crosstools-arm-gcc-5.5-linux-4.1-glibc-2.26-binutils-2.28.1/lib/gcc/arm-buildroot-linux-gnueabi/5.5.0/libgcc.a(_lshrdi3.o)
 .ARM.attributes
                0x000011e3       0x29 /opt/toolchains/crosstools-arm-gcc-5.5-linux-4.1-glibc-2.26-binutils-2.28.1/lib/gcc/arm-buildroot-linux-gnueabi/5.5.0/libgcc.a(_ashldi3.o)

.comment        0x00000000       0x21
 .comment       0x00000000       0x21 bcm63xx_common.o
                                 0x22 (size before relaxing)
 .comment       0x00000021       0x22 bcm63xx_ipc.o
 .comment       0x00000021       0x22 bcm63xx_sec.o
 .comment       0x00000021       0x22 dev_arm_pl011_uart.o
 .comment       0x00000021       0x22 bcmSpiRes.o
 .comment       0x00000021       0x22 bcm_pinmux_impl1.o
 .comment       0x00000021       0x22 bcm_misc_hw_init_impl6.o
 .comment       0x00000021       0x22 bcm_gpio_impl1.o
 .comment       0x00000021       0x22 bcm_otp_impl1.o
 .comment       0x00000021       0x22 bcm_led_impl4.o
 .comment       0x00000021       0x22 dev_bcm63xx_eth_impl4.o
 .comment       0x00000021       0x22 bcm_swled_impl2.o
 .comment       0x00000021       0x22 bcm_ethsw_impl1.o
 .comment       0x00000021       0x22 pmc_sysport.o
 .comment       0x00000021       0x22 dev_bcm63xx_flash.o
 .comment       0x00000021       0x22 flash_api.o
 .comment       0x00000021       0x22 flash_common.o
 .comment       0x00000021       0x22 bcm63xx_devs.o
 .comment       0x00000021       0x22 bcm63xx_board.o
 .comment       0x00000021       0x22 bcm63xx_cmd.o
 .comment       0x00000021       0x22 bcm63xx_blparms.o
 .comment       0x00000021       0x22 boardparms_47622.o
 .comment       0x00000021       0x22 pinmux_table_47622.o
 .comment       0x00000021       0x22 bp_funcs.o
 .comment       0x00000021       0x22 boardparms_voice.o
 .comment       0x00000021       0x22 shared_utils.o
 .comment       0x00000021       0x22 bcm63xx_util.o
 .comment       0x00000021       0x22 bcm63xx_auth.o
 .comment       0x00000021       0x22 bcm63xx_ldr_raw.o
 .comment       0x00000021       0x22 bcm63xx_ldr_elf.o
 .comment       0x00000021       0x22 bcm63xx_main.o
 .comment       0x00000021       0x22 bcm63xx_env_subr.o
 .comment       0x00000021       0x22 bcm63xx_httpd.o
 .comment       0x00000021       0x22 bcm63xx_httpd_web_var.o
 .comment       0x00000021       0x22 bcm63xx_nvram.o
 .comment       0x00000021       0x22 bcm63xx_net_icmp.o
 .comment       0x00000021       0x22 bcm_ubi.o
 .comment       0x00000021       0x22 bcmHsSpi.o
 .comment       0x00000021       0x22 nandflash.o
 .comment       0x00000021       0x22 spinandflash.o
 .comment       0x00000021       0x22 pmc_drv.o
 .comment       0x00000021       0x22 clk_rst.o
 .comment       0x00000021       0x22 ul.o
 .comment       0x00000021       0x22 ulinfo.o
 .comment       0x00000021       0x22 bcm63xx_dtb.o
 .comment       0x00000021       0x22 bcm63xx_impl2_smp.o
 .comment       0x00000021       0x22 bcm63xx_sotp_if.o
 .comment       0x00000021       0x22 sotp_base_funcs.o
 .comment       0x00000021       0x22 bcm63xx_auth_if.o
 .comment       0x00000021       0x22 bcm63xx_rsa.o
 .comment       0x00000021       0x22 bcm63xx_sha.o
 .comment       0x00000021       0x22 ./libcfe.a(exchandler.o)
 .comment       0x00000021       0x22 ./libcfe.a(lib_malloc.o)
 .comment       0x00000021       0x22 ./libcfe.a(lib_printf.o)
 .comment       0x00000021       0x22 ./libcfe.a(lib_queue.o)
 .comment       0x00000021       0x22 ./libcfe.a(lib_string.o)
 .comment       0x00000021       0x22 ./libcfe.a(lib_crc.o)
 .comment       0x00000021       0x22 ./libcfe.a(cfe_attach.o)
 .comment       0x00000021       0x22 ./libcfe.a(cfe_iocb_dispatch.o)
 .comment       0x00000021       0x22 ./libcfe.a(cfe_devfuncs.o)
 .comment       0x00000021       0x22 ./libcfe.a(cfe_console.o)
 .comment       0x00000021       0x22 ./libcfe.a(cfe_mem.o)
 .comment       0x00000021       0x22 ./libcfe.a(cfe_timer.o)
 .comment       0x00000021       0x22 ./libcfe.a(cfe_background.o)
 .comment       0x00000021       0x22 ./libcfe.a(build_date.o)
 .comment       0x00000021       0x22 ./libcfe.a(cfe_filesys.o)
 .comment       0x00000021       0x22 ./libcfe.a(ui_command.o)
 .comment       0x00000021       0x22 ./libcfe.a(ui_cmddisp.o)
 .comment       0x00000021       0x22 ./libcfe.a(ui_tftpd.o)
 .comment       0x00000021       0x22 ./libcfe.a(ui_netcmds.o)
 .comment       0x00000021       0x22 ./libcfe.a(net_tftp.o)
 .comment       0x00000021       0x22 ./libcfe.a(net_ip.o)
 .comment       0x00000021       0x22 ./libcfe.a(net_dns.o)
 .comment       0x00000021       0x22 ./libcfe.a(net_arp.o)
 .comment       0x00000021       0x22 ./libcfe.a(net_api.o)
 .comment       0x00000021       0x22 ./libcfe.a(net_tcp.o)
 .comment       0x00000021       0x22 ./libcfe.a(net_tcpbuf.o)
 .comment       0x00000021       0x22 ./libcfe.a(net_nmrp.o)
 .comment       0x00000021       0x22 ./libcfe.a(dcapi.o)
 .comment       0x00000021       0x22 ./libcfe.a(fdt_ro.o)
 .comment       0x00000021       0x22 ./libcfe.a(fdt_rw.o)
 .comment       0x00000021       0x22 ./libcfe.a(fdt_wip.o)
 .comment       0x00000021       0x22 ./libcfe.a(arm_arena.o)
 .comment       0x00000021       0x22 ./libcfe.a(armv7_arena.o)
 .comment       0x00000021       0x22 ./libcfe.a(lib_string2.o)
 .comment       0x00000021       0x22 ./libcfe.a(lib_arena.o)
 .comment       0x00000021       0x22 ./libcfe.a(net_ether.o)
 .comment       0x00000021       0x22 ./libcfe.a(net_udp.o)
 .comment       0x00000021       0x22 ./libcfe.a(LzmaDecode.o)
 .comment       0x00000021       0x22 ./libcfe.a(fdt.o)
 .comment       0x00000021       0x22 /opt/toolchains/crosstools-arm-gcc-5.5-linux-4.1-glibc-2.26-binutils-2.28.1/lib/gcc/arm-buildroot-linux-gnueabi/5.5.0/libgcc.a(_udivmoddi4.o)

.note.GNU-stack
                0x00000000        0x0
 .note.GNU-stack
                0x00000000        0x0 bcm63xx_common.o
 .note.GNU-stack
                0x00000000        0x0 bcm63xx_ipc.o
 .note.GNU-stack
                0x00000000        0x0 bcm63xx_sec.o
 .note.GNU-stack
                0x00000000        0x0 dev_arm_pl011_uart.o
 .note.GNU-stack
                0x00000000        0x0 bcmSpiRes.o
 .note.GNU-stack
                0x00000000        0x0 bcm_pinmux_impl1.o
 .note.GNU-stack
                0x00000000        0x0 bcm_misc_hw_init_impl6.o
 .note.GNU-stack
                0x00000000        0x0 bcm_gpio_impl1.o
 .note.GNU-stack
                0x00000000        0x0 bcm_otp_impl1.o
 .note.GNU-stack
                0x00000000        0x0 bcm_led_impl4.o
 .note.GNU-stack
                0x00000000        0x0 dev_bcm63xx_eth_impl4.o
 .note.GNU-stack
                0x00000000        0x0 bcm_swled_impl2.o
 .note.GNU-stack
                0x00000000        0x0 bcm_ethsw_impl1.o
 .note.GNU-stack
                0x00000000        0x0 pmc_sysport.o
 .note.GNU-stack
                0x00000000        0x0 dev_bcm63xx_flash.o
 .note.GNU-stack
                0x00000000        0x0 flash_api.o
 .note.GNU-stack
                0x00000000        0x0 flash_common.o
 .note.GNU-stack
                0x00000000        0x0 bcm63xx_devs.o
 .note.GNU-stack
                0x00000000        0x0 bcm63xx_board.o
 .note.GNU-stack
                0x00000000        0x0 bcm63xx_cmd.o
 .note.GNU-stack
                0x00000000        0x0 bcm63xx_blparms.o
 .note.GNU-stack
                0x00000000        0x0 boardparms_47622.o
 .note.GNU-stack
                0x00000000        0x0 pinmux_table_47622.o
 .note.GNU-stack
                0x00000000        0x0 bp_funcs.o
 .note.GNU-stack
                0x00000000        0x0 boardparms_voice.o
 .note.GNU-stack
                0x00000000        0x0 shared_utils.o
 .note.GNU-stack
                0x00000000        0x0 bcm63xx_util.o
 .note.GNU-stack
                0x00000000        0x0 bcm63xx_auth.o
 .note.GNU-stack
                0x00000000        0x0 bcm63xx_ldr_raw.o
 .note.GNU-stack
                0x00000000        0x0 bcm63xx_ldr_elf.o
 .note.GNU-stack
                0x00000000        0x0 bcm63xx_main.o
 .note.GNU-stack
                0x00000000        0x0 bcm63xx_env_subr.o
 .note.GNU-stack
                0x00000000        0x0 bcm63xx_httpd.o
 .note.GNU-stack
                0x00000000        0x0 bcm63xx_httpd_web_var.o
 .note.GNU-stack
                0x00000000        0x0 bcm63xx_nvram.o
 .note.GNU-stack
                0x00000000        0x0 bcm63xx_net_icmp.o
 .note.GNU-stack
                0x00000000        0x0 bcm_ubi.o
 .note.GNU-stack
                0x00000000        0x0 bcmHsSpi.o
 .note.GNU-stack
                0x00000000        0x0 nandflash.o
 .note.GNU-stack
                0x00000000        0x0 spinandflash.o
 .note.GNU-stack
                0x00000000        0x0 pmc_drv.o
 .note.GNU-stack
                0x00000000        0x0 clk_rst.o
 .note.GNU-stack
                0x00000000        0x0 ul.o
 .note.GNU-stack
                0x00000000        0x0 ulinfo.o
 .note.GNU-stack
                0x00000000        0x0 bcm63xx_dtb.o
 .note.GNU-stack
                0x00000000        0x0 bcm63xx_impl2_smp.o
 .note.GNU-stack
                0x00000000        0x0 bcm63xx_sotp_if.o
 .note.GNU-stack
                0x00000000        0x0 sotp_base_funcs.o
 .note.GNU-stack
                0x00000000        0x0 bcm63xx_auth_if.o
 .note.GNU-stack
                0x00000000        0x0 bcm63xx_rsa.o
 .note.GNU-stack
                0x00000000        0x0 bcm63xx_sha.o
 .note.GNU-stack
                0x00000000        0x0 ./libcfe.a(exchandler.o)
 .note.GNU-stack
                0x00000000        0x0 ./libcfe.a(lib_malloc.o)
 .note.GNU-stack
                0x00000000        0x0 ./libcfe.a(lib_printf.o)
 .note.GNU-stack
                0x00000000        0x0 ./libcfe.a(lib_queue.o)
 .note.GNU-stack
                0x00000000        0x0 ./libcfe.a(lib_string.o)
 .note.GNU-stack
                0x00000000        0x0 ./libcfe.a(lib_crc.o)
 .note.GNU-stack
                0x00000000        0x0 ./libcfe.a(cfe_attach.o)
 .note.GNU-stack
                0x00000000        0x0 ./libcfe.a(cfe_iocb_dispatch.o)
 .note.GNU-stack
                0x00000000        0x0 ./libcfe.a(cfe_devfuncs.o)
 .note.GNU-stack
                0x00000000        0x0 ./libcfe.a(cfe_console.o)
 .note.GNU-stack
                0x00000000        0x0 ./libcfe.a(cfe_mem.o)
 .note.GNU-stack
                0x00000000        0x0 ./libcfe.a(cfe_timer.o)
 .note.GNU-stack
                0x00000000        0x0 ./libcfe.a(cfe_background.o)
 .note.GNU-stack
                0x00000000        0x0 ./libcfe.a(build_date.o)
 .note.GNU-stack
                0x00000000        0x0 ./libcfe.a(cfe_filesys.o)
 .note.GNU-stack
                0x00000000        0x0 ./libcfe.a(ui_command.o)
 .note.GNU-stack
                0x00000000        0x0 ./libcfe.a(ui_cmddisp.o)
 .note.GNU-stack
                0x00000000        0x0 ./libcfe.a(ui_tftpd.o)
 .note.GNU-stack
                0x00000000        0x0 ./libcfe.a(ui_netcmds.o)
 .note.GNU-stack
                0x00000000        0x0 ./libcfe.a(net_tftp.o)
 .note.GNU-stack
                0x00000000        0x0 ./libcfe.a(net_ip.o)
 .note.GNU-stack
                0x00000000        0x0 ./libcfe.a(net_dns.o)
 .note.GNU-stack
                0x00000000        0x0 ./libcfe.a(net_arp.o)
 .note.GNU-stack
                0x00000000        0x0 ./libcfe.a(net_api.o)
 .note.GNU-stack
                0x00000000        0x0 ./libcfe.a(net_tcp.o)
 .note.GNU-stack
                0x00000000        0x0 ./libcfe.a(net_tcpbuf.o)
 .note.GNU-stack
                0x00000000        0x0 ./libcfe.a(net_nmrp.o)
 .note.GNU-stack
                0x00000000        0x0 ./libcfe.a(dcapi.o)
 .note.GNU-stack
                0x00000000        0x0 ./libcfe.a(fdt_ro.o)
 .note.GNU-stack
                0x00000000        0x0 ./libcfe.a(fdt_rw.o)
 .note.GNU-stack
                0x00000000        0x0 ./libcfe.a(fdt_wip.o)
 .note.GNU-stack
                0x00000000        0x0 ./libcfe.a(arm_arena.o)
 .note.GNU-stack
                0x00000000        0x0 ./libcfe.a(armv7_arena.o)
 .note.GNU-stack
                0x00000000        0x0 ./libcfe.a(lib_string2.o)
 .note.GNU-stack
                0x00000000        0x0 ./libcfe.a(lib_arena.o)
 .note.GNU-stack
                0x00000000        0x0 ./libcfe.a(net_ether.o)
 .note.GNU-stack
                0x00000000        0x0 ./libcfe.a(net_udp.o)
 .note.GNU-stack
                0x00000000        0x0 ./libcfe.a(LzmaDecode.o)
 .note.GNU-stack
                0x00000000        0x0 ./libcfe.a(fdt.o)
 .note.GNU-stack
                0x00000000        0x0 /opt/toolchains/crosstools-arm-gcc-5.5-linux-4.1-glibc-2.26-binutils-2.28.1/lib/gcc/arm-buildroot-linux-gnueabi/5.5.0/libgcc.a(_udivsi3.o)
 .note.GNU-stack
                0x00000000        0x0 /opt/toolchains/crosstools-arm-gcc-5.5-linux-4.1-glibc-2.26-binutils-2.28.1/lib/gcc/arm-buildroot-linux-gnueabi/5.5.0/libgcc.a(_divsi3.o)
 .note.GNU-stack
                0x00000000        0x0 /opt/toolchains/crosstools-arm-gcc-5.5-linux-4.1-glibc-2.26-binutils-2.28.1/lib/gcc/arm-buildroot-linux-gnueabi/5.5.0/libgcc.a(_aeabi_uldivmod.o)
 .note.GNU-stack
                0x00000000        0x0 /opt/toolchains/crosstools-arm-gcc-5.5-linux-4.1-glibc-2.26-binutils-2.28.1/lib/gcc/arm-buildroot-linux-gnueabi/5.5.0/libgcc.a(_dvmd_lnx.o)
 .note.GNU-stack
                0x00000000        0x0 /opt/toolchains/crosstools-arm-gcc-5.5-linux-4.1-glibc-2.26-binutils-2.28.1/lib/gcc/arm-buildroot-linux-gnueabi/5.5.0/libgcc.a(_udivmoddi4.o)
 .note.GNU-stack
                0x00000000        0x0 /opt/toolchains/crosstools-arm-gcc-5.5-linux-4.1-glibc-2.26-binutils-2.28.1/lib/gcc/arm-buildroot-linux-gnueabi/5.5.0/libgcc.a(_lshrdi3.o)
 .note.GNU-stack
                0x00000000        0x0 /opt/toolchains/crosstools-arm-gcc-5.5-linux-4.1-glibc-2.26-binutils-2.28.1/lib/gcc/arm-buildroot-linux-gnueabi/5.5.0/libgcc.a(_ashldi3.o)

.debug_line     0x00000000    0x14abc
 .debug_line    0x00000000      0x21f init_arm.o
 .debug_line    0x0000021f      0x185 exception.o
 .debug_line    0x000003a4       0xbd secondary_entry.o
 .debug_line    0x00000461       0xe0 bcm63xx_common.o
 .debug_line    0x00000541       0xf6 bcm63xx_ipc.o
 .debug_line    0x00000637      0x36c bcm63xx_sec.o
 .debug_line    0x000009a3      0x1f9 dev_arm_pl011_uart.o
 .debug_line    0x00000b9c      0x125 bcmSpiRes.o
 .debug_line    0x00000cc1      0x152 bcm_pinmux_impl1.o
 .debug_line    0x00000e13      0x243 bcm_misc_hw_init_impl6.o
 .debug_line    0x00001056      0x242 bcm_gpio_impl1.o
 .debug_line    0x00001298      0x26e bcm_otp_impl1.o
 .debug_line    0x00001506      0x1fe bcm_led_impl4.o
 .debug_line    0x00001704      0x3a4 dev_bcm63xx_eth_impl4.o
 .debug_line    0x00001aa8      0x1c0 bcm_swled_impl2.o
 .debug_line    0x00001c68      0x630 bcm_ethsw_impl1.o
 .debug_line    0x00002298      0x146 pmc_sysport.o
 .debug_line    0x000023de      0x538 dev_bcm63xx_flash.o
 .debug_line    0x00002916      0x2cf flash_api.o
 .debug_line    0x00002be5      0x209 flash_common.o
 .debug_line    0x00002dee      0x407 bcm63xx_devs.o
 .debug_line    0x000031f5      0x89c bcm63xx_board.o
 .debug_line    0x00003a91     0x15c5 bcm63xx_cmd.o
 .debug_line    0x00005056      0x373 bcm63xx_blparms.o
 .debug_line    0x000053c9       0xa1 boardparms_47622.o
 .debug_line    0x0000546a       0xa3 pinmux_table_47622.o
 .debug_line    0x0000550d     0x1d5c bp_funcs.o
 .debug_line    0x00007269      0x38c boardparms_voice.o
 .debug_line    0x000075f5      0x123 shared_utils.o
 .debug_line    0x00007718     0x17d6 bcm63xx_util.o
 .debug_line    0x00008eee      0x1cd bcm63xx_auth.o
 .debug_line    0x000090bb      0x190 bcm63xx_ldr_raw.o
 .debug_line    0x0000924b      0x3c3 bcm63xx_ldr_elf.o
 .debug_line    0x0000960e      0x2b7 bcm63xx_main.o
 .debug_line    0x000098c5      0x172 bcm63xx_env_subr.o
 .debug_line    0x00009a37      0x483 bcm63xx_httpd.o
 .debug_line    0x00009eba      0x133 bcm63xx_httpd_web_var.o
 .debug_line    0x00009fed      0x40a bcm63xx_nvram.o
 .debug_line    0x0000a3f7      0x13c bcm63xx_net_icmp.o
 .debug_line    0x0000a533      0x239 bcm_ubi.o
 .debug_line    0x0000a76c      0x21c bcmHsSpi.o
 .debug_line    0x0000a988      0x94f nandflash.o
 .debug_line    0x0000b2d7      0x8c8 spinandflash.o
 .debug_line    0x0000bb9f      0x798 pmc_drv.o
 .debug_line    0x0000c337      0x1fd clk_rst.o
 .debug_line    0x0000c534       0x25 ul.o
 .debug_line    0x0000c559       0x29 ulinfo.o
 .debug_line    0x0000c582      0x66b bcm63xx_dtb.o
 .debug_line    0x0000cbed      0x147 bcm63xx_impl4_common.o
 .debug_line    0x0000cd34      0x174 bcm63xx_impl2_smp.o
 .debug_line    0x0000cea8       0xad 47622_mmu_map.o
 .debug_line    0x0000cf55      0x12a bcm63xx_sotp_if.o
 .debug_line    0x0000d07f      0x6a6 sotp_base_funcs.o
 .debug_line    0x0000d725       0xc5 bcm63xx_auth_if.o
 .debug_line    0x0000d7ea      0x740 bcm63xx_rsa.o
 .debug_line    0x0000df2a      0x24f bcm63xx_sha.o
 .debug_line    0x0000e179      0x215 ./libcfe.a(exchandler.o)
 .debug_line    0x0000e38e       0x6d ./libcfe.a(lib_setjmp.o)
 .debug_line    0x0000e3fb      0x1bd ./libcfe.a(armv7_l1cache.o)
 .debug_line    0x0000e5b8      0x15a ./libcfe.a(armv7_cpuinit.o)
 .debug_line    0x0000e712       0xae ./libcfe.a(mmu_map.o)
 .debug_line    0x0000e7c0      0x23e ./libcfe.a(lib_malloc.o)
 .debug_line    0x0000e9fe      0x34c ./libcfe.a(lib_printf.o)
 .debug_line    0x0000ed4a       0xf9 ./libcfe.a(lib_queue.o)
 .debug_line    0x0000ee43      0x4b8 ./libcfe.a(lib_string.o)
 .debug_line    0x0000f2fb       0x75 ./libcfe.a(lib_crc.o)
 .debug_line    0x0000f370      0x194 ./libcfe.a(cfe_attach.o)
 .debug_line    0x0000f504      0x3ad ./libcfe.a(cfe_iocb_dispatch.o)
 .debug_line    0x0000f8b1      0x205 ./libcfe.a(cfe_devfuncs.o)
 .debug_line    0x0000fab6      0x262 ./libcfe.a(cfe_console.o)
 .debug_line    0x0000fd18      0x138 ./libcfe.a(cfe_mem.o)
 .debug_line    0x0000fe50       0xfd ./libcfe.a(cfe_timer.o)
 .debug_line    0x0000ff4d       0xe0 ./libcfe.a(cfe_background.o)
 .debug_line    0x0001002d       0x50 ./libcfe.a(build_date.o)
 .debug_line    0x0001007d      0x16b ./libcfe.a(cfe_filesys.o)
 .debug_line    0x000101e8      0x607 ./libcfe.a(ui_command.o)
 .debug_line    0x000107ef      0x267 ./libcfe.a(ui_cmddisp.o)
 .debug_line    0x00010a56       0xdb ./libcfe.a(ui_tftpd.o)
 .debug_line    0x00010b31      0x3ae ./libcfe.a(ui_netcmds.o)
 .debug_line    0x00010edf      0x3da ./libcfe.a(net_tftp.o)
 .debug_line    0x000112b9      0x323 ./libcfe.a(net_ip.o)
 .debug_line    0x000115dc      0x1b4 ./libcfe.a(net_dns.o)
 .debug_line    0x00011790      0x3b6 ./libcfe.a(net_arp.o)
 .debug_line    0x00011b46      0x532 ./libcfe.a(net_api.o)
 .debug_line    0x00012078      0x74c ./libcfe.a(net_tcp.o)
 .debug_line    0x000127c4      0x17e ./libcfe.a(net_tcpbuf.o)
 .debug_line    0x00012942      0x33c ./libcfe.a(net_nmrp.o)
 .debug_line    0x00012c7e       0xe8 ./libcfe.a(dcapi.o)
 .debug_line    0x00012d66      0x4fc ./libcfe.a(fdt_ro.o)
 .debug_line    0x00013262      0x527 ./libcfe.a(fdt_rw.o)
 .debug_line    0x00013789      0x169 ./libcfe.a(fdt_wip.o)
 .debug_line    0x000138f2       0xd5 ./libcfe.a(arm_arena.o)
 .debug_line    0x000139c7       0xf2 ./libcfe.a(armv7_arena.o)
 .debug_line    0x00013ab9       0xad ./libcfe.a(lib_string2.o)
 .debug_line    0x00013b66      0x170 ./libcfe.a(lib_arena.o)
 .debug_line    0x00013cd6      0x2bd ./libcfe.a(net_ether.o)
 .debug_line    0x00013f93      0x283 ./libcfe.a(net_udp.o)
 .debug_line    0x00014216      0x3cd ./libcfe.a(LzmaDecode.o)
 .debug_line    0x000145e3      0x1ed ./libcfe.a(fdt.o)
 .debug_line    0x000147d0       0x73 /opt/toolchains/crosstools-arm-gcc-5.5-linux-4.1-glibc-2.26-binutils-2.28.1/lib/gcc/arm-buildroot-linux-gnueabi/5.5.0/libgcc.a(_udivsi3.o)
 .debug_line    0x00014843       0x7f /opt/toolchains/crosstools-arm-gcc-5.5-linux-4.1-glibc-2.26-binutils-2.28.1/lib/gcc/arm-buildroot-linux-gnueabi/5.5.0/libgcc.a(_divsi3.o)
 .debug_line    0x000148c2       0x57 /opt/toolchains/crosstools-arm-gcc-5.5-linux-4.1-glibc-2.26-binutils-2.28.1/lib/gcc/arm-buildroot-linux-gnueabi/5.5.0/libgcc.a(_aeabi_uldivmod.o)
 .debug_line    0x00014919       0x5a /opt/toolchains/crosstools-arm-gcc-5.5-linux-4.1-glibc-2.26-binutils-2.28.1/lib/gcc/arm-buildroot-linux-gnueabi/5.5.0/libgcc.a(_dvmd_lnx.o)
 .debug_line    0x00014973       0x8f /opt/toolchains/crosstools-arm-gcc-5.5-linux-4.1-glibc-2.26-binutils-2.28.1/lib/gcc/arm-buildroot-linux-gnueabi/5.5.0/libgcc.a(_udivmoddi4.o)
 .debug_line    0x00014a02       0x5d /opt/toolchains/crosstools-arm-gcc-5.5-linux-4.1-glibc-2.26-binutils-2.28.1/lib/gcc/arm-buildroot-linux-gnueabi/5.5.0/libgcc.a(_lshrdi3.o)
 .debug_line    0x00014a5f       0x5d /opt/toolchains/crosstools-arm-gcc-5.5-linux-4.1-glibc-2.26-binutils-2.28.1/lib/gcc/arm-buildroot-linux-gnueabi/5.5.0/libgcc.a(_ashldi3.o)

.debug_info     0x00000000    0x42e75
 .debug_info    0x00000000       0x9b init_arm.o
 .debug_info    0x0000009b       0x9c exception.o
 .debug_info    0x00000137       0xa2 secondary_entry.o
 .debug_info    0x000001d9      0x14b bcm63xx_common.o
 .debug_info    0x00000324      0x23e bcm63xx_ipc.o
 .debug_info    0x00000562      0x87a bcm63xx_sec.o
 .debug_info    0x00000ddc      0x94f dev_arm_pl011_uart.o
 .debug_info    0x0000172b      0x3cb bcmSpiRes.o
 .debug_info    0x00001af6      0x31e bcm_pinmux_impl1.o
 .debug_info    0x00001e14      0x9b7 bcm_misc_hw_init_impl6.o
 .debug_info    0x000027cb      0x2af bcm_gpio_impl1.o
 .debug_info    0x00002a7a      0x5c5 bcm_otp_impl1.o
 .debug_info    0x0000303f      0x4ab bcm_led_impl4.o
 .debug_info    0x000034ea     0x151c dev_bcm63xx_eth_impl4.o
 .debug_info    0x00004a06     0x25ab bcm_swled_impl2.o
 .debug_info    0x00006fb1     0x1175 bcm_ethsw_impl1.o
 .debug_info    0x00008126      0x7bd pmc_sysport.o
 .debug_info    0x000088e3      0xff5 dev_bcm63xx_flash.o
 .debug_info    0x000098d8      0xde6 flash_api.o
 .debug_info    0x0000a6be      0x802 flash_common.o
 .debug_info    0x0000aec0     0x1699 bcm63xx_devs.o
 .debug_info    0x0000c559     0x14f8 bcm63xx_board.o
 .debug_info    0x0000da51     0x3988 bcm63xx_cmd.o
 .debug_info    0x000113d9      0xd04 bcm63xx_blparms.o
 .debug_info    0x000120dd      0xc3b boardparms_47622.o
 .debug_info    0x00012d18      0xa05 pinmux_table_47622.o
 .debug_info    0x0001371d     0x5c31 bp_funcs.o
 .debug_info    0x0001934e     0x1917 boardparms_voice.o
 .debug_info    0x0001ac65      0x37f shared_utils.o
 .debug_info    0x0001afe4     0x588c bcm63xx_util.o
 .debug_info    0x00020870      0x459 bcm63xx_auth.o
 .debug_info    0x00020cc9      0x515 bcm63xx_ldr_raw.o
 .debug_info    0x000211de      0xae1 bcm63xx_ldr_elf.o
 .debug_info    0x00021cbf      0x5de bcm63xx_main.o
 .debug_info    0x0002229d      0x419 bcm63xx_env_subr.o
 .debug_info    0x000226b6      0xcdf bcm63xx_httpd.o
 .debug_info    0x00023395      0x250 bcm63xx_httpd_web_var.o
 .debug_info    0x000235e5      0xde9 bcm63xx_nvram.o
 .debug_info    0x000243ce      0x440 bcm63xx_net_icmp.o
 .debug_info    0x0002480e      0x465 bcm_ubi.o
 .debug_info    0x00024c73      0x7a7 bcmHsSpi.o
 .debug_info    0x0002541a     0x20cf nandflash.o
 .debug_info    0x000274e9     0x1728 spinandflash.o
 .debug_info    0x00028c11     0x2dd5 pmc_drv.o
 .debug_info    0x0002b9e6      0xe3b clk_rst.o
 .debug_info    0x0002c821       0x68 ul.o
 .debug_info    0x0002c889       0x68 ulinfo.o
 .debug_info    0x0002c8f1     0x14ee bcm63xx_dtb.o
 .debug_info    0x0002dddf       0xb5 bcm63xx_impl4_common.o
 .debug_info    0x0002de94      0xdc1 bcm63xx_impl2_smp.o
 .debug_info    0x0002ec55       0xae 47622_mmu_map.o
 .debug_info    0x0002ed03      0x28b bcm63xx_sotp_if.o
 .debug_info    0x0002ef8e      0xeb2 sotp_base_funcs.o
 .debug_info    0x0002fe40      0x1ce bcm63xx_auth_if.o
 .debug_info    0x0003000e      0xfe9 bcm63xx_rsa.o
 .debug_info    0x00030ff7      0x555 bcm63xx_sha.o
 .debug_info    0x0003154c      0x5d4 ./libcfe.a(exchandler.o)
 .debug_info    0x00031b20       0x9d ./libcfe.a(lib_setjmp.o)
 .debug_info    0x00031bbd       0xa3 ./libcfe.a(armv7_l1cache.o)
 .debug_info    0x00031c60       0xa3 ./libcfe.a(armv7_cpuinit.o)
 .debug_info    0x00031d03       0x9d ./libcfe.a(mmu_map.o)
 .debug_info    0x00031da0      0x585 ./libcfe.a(lib_malloc.o)
 .debug_info    0x00032325      0x563 ./libcfe.a(lib_printf.o)
 .debug_info    0x00032888      0x26d ./libcfe.a(lib_queue.o)
 .debug_info    0x00032af5      0x959 ./libcfe.a(lib_string.o)
 .debug_info    0x0003344e       0xf2 ./libcfe.a(lib_crc.o)
 .debug_info    0x00033540      0x6dd ./libcfe.a(cfe_attach.o)
 .debug_info    0x00033c1d      0xf20 ./libcfe.a(cfe_iocb_dispatch.o)
 .debug_info    0x00034b3d      0x83b ./libcfe.a(cfe_devfuncs.o)
 .debug_info    0x00035378      0x3d7 ./libcfe.a(cfe_console.o)
 .debug_info    0x0003574f      0x2fd ./libcfe.a(cfe_mem.o)
 .debug_info    0x00035a4c      0x23a ./libcfe.a(cfe_timer.o)
 .debug_info    0x00035c86      0x19d ./libcfe.a(cfe_background.o)
 .debug_info    0x00035e23       0x54 ./libcfe.a(build_date.o)
 .debug_info    0x00035e77      0x62c ./libcfe.a(cfe_filesys.o)
 .debug_info    0x000364a3      0xf09 ./libcfe.a(ui_command.o)
 .debug_info    0x000373ac      0x5f6 ./libcfe.a(ui_cmddisp.o)
 .debug_info    0x000379a2      0x2a1 ./libcfe.a(ui_tftpd.o)
 .debug_info    0x00037c43      0x706 ./libcfe.a(ui_netcmds.o)
 .debug_info    0x00038349      0xa6b ./libcfe.a(net_tftp.o)
 .debug_info    0x00038db4      0x9ec ./libcfe.a(net_ip.o)
 .debug_info    0x000397a0      0x37a ./libcfe.a(net_dns.o)
 .debug_info    0x00039b1a      0xaf3 ./libcfe.a(net_arp.o)
 .debug_info    0x0003a60d      0xdac ./libcfe.a(net_api.o)
 .debug_info    0x0003b3b9     0x13ba ./libcfe.a(net_tcp.o)
 .debug_info    0x0003c773      0x44c ./libcfe.a(net_tcpbuf.o)
 .debug_info    0x0003cbbf     0x1049 ./libcfe.a(net_nmrp.o)
 .debug_info    0x0003dc08      0x2ef ./libcfe.a(dcapi.o)
 .debug_info    0x0003def7      0xf6d ./libcfe.a(fdt_ro.o)
 .debug_info    0x0003ee64     0x112a ./libcfe.a(fdt_rw.o)
 .debug_info    0x0003ff8e      0x3f0 ./libcfe.a(fdt_wip.o)
 .debug_info    0x0004037e      0x12b ./libcfe.a(arm_arena.o)
 .debug_info    0x000404a9      0x182 ./libcfe.a(armv7_arena.o)
 .debug_info    0x0004062b      0x224 ./libcfe.a(lib_string2.o)
 .debug_info    0x0004084f      0x442 ./libcfe.a(lib_arena.o)
 .debug_info    0x00040c91      0x8bb ./libcfe.a(net_ether.o)
 .debug_info    0x0004154c      0x840 ./libcfe.a(net_udp.o)
 .debug_info    0x00041d8c      0x506 ./libcfe.a(LzmaDecode.o)
 .debug_info    0x00042292      0x469 ./libcfe.a(fdt.o)
 .debug_info    0x000426fb      0x105 /opt/toolchains/crosstools-arm-gcc-5.5-linux-4.1-glibc-2.26-binutils-2.28.1/lib/gcc/arm-buildroot-linux-gnueabi/5.5.0/libgcc.a(_udivsi3.o)
 .debug_info    0x00042800      0x105 /opt/toolchains/crosstools-arm-gcc-5.5-linux-4.1-glibc-2.26-binutils-2.28.1/lib/gcc/arm-buildroot-linux-gnueabi/5.5.0/libgcc.a(_divsi3.o)
 .debug_info    0x00042905      0x101 /opt/toolchains/crosstools-arm-gcc-5.5-linux-4.1-glibc-2.26-binutils-2.28.1/lib/gcc/arm-buildroot-linux-gnueabi/5.5.0/libgcc.a(_aeabi_uldivmod.o)
 .debug_info    0x00042a06      0x105 /opt/toolchains/crosstools-arm-gcc-5.5-linux-4.1-glibc-2.26-binutils-2.28.1/lib/gcc/arm-buildroot-linux-gnueabi/5.5.0/libgcc.a(_dvmd_lnx.o)
 .debug_info    0x00042b0b      0x160 /opt/toolchains/crosstools-arm-gcc-5.5-linux-4.1-glibc-2.26-binutils-2.28.1/lib/gcc/arm-buildroot-linux-gnueabi/5.5.0/libgcc.a(_udivmoddi4.o)
 .debug_info    0x00042c6b      0x105 /opt/toolchains/crosstools-arm-gcc-5.5-linux-4.1-glibc-2.26-binutils-2.28.1/lib/gcc/arm-buildroot-linux-gnueabi/5.5.0/libgcc.a(_lshrdi3.o)
 .debug_info    0x00042d70      0x105 /opt/toolchains/crosstools-arm-gcc-5.5-linux-4.1-glibc-2.26-binutils-2.28.1/lib/gcc/arm-buildroot-linux-gnueabi/5.5.0/libgcc.a(_ashldi3.o)

.debug_abbrev   0x00000000     0x9329
 .debug_abbrev  0x00000000       0x12 init_arm.o
 .debug_abbrev  0x00000012       0x12 exception.o
 .debug_abbrev  0x00000024       0x12 secondary_entry.o
 .debug_abbrev  0x00000036       0xc8 bcm63xx_common.o
 .debug_abbrev  0x000000fe       0xdc bcm63xx_ipc.o
 .debug_abbrev  0x000001da      0x256 bcm63xx_sec.o
 .debug_abbrev  0x00000430      0x1a2 dev_arm_pl011_uart.o
 .debug_abbrev  0x000005d2       0xd2 bcmSpiRes.o
 .debug_abbrev  0x000006a4       0xfa bcm_pinmux_impl1.o
 .debug_abbrev  0x0000079e      0x1e9 bcm_misc_hw_init_impl6.o
 .debug_abbrev  0x00000987       0xfa bcm_gpio_impl1.o
 .debug_abbrev  0x00000a81      0x1ad bcm_otp_impl1.o
 .debug_abbrev  0x00000c2e      0x185 bcm_led_impl4.o
 .debug_abbrev  0x00000db3      0x2a4 dev_bcm63xx_eth_impl4.o
 .debug_abbrev  0x00001057      0x171 bcm_swled_impl2.o
 .debug_abbrev  0x000011c8      0x269 bcm_ethsw_impl1.o
 .debug_abbrev  0x00001431      0x17b pmc_sysport.o
 .debug_abbrev  0x000015ac      0x200 dev_bcm63xx_flash.o
 .debug_abbrev  0x000017ac      0x1c6 flash_api.o
 .debug_abbrev  0x00001972      0x1a2 flash_common.o
 .debug_abbrev  0x00001b14      0x262 bcm63xx_devs.o
 .debug_abbrev  0x00001d76      0x28c bcm63xx_board.o
 .debug_abbrev  0x00002002      0x383 bcm63xx_cmd.o
 .debug_abbrev  0x00002385      0x2c3 bcm63xx_blparms.o
 .debug_abbrev  0x00002648       0xec boardparms_47622.o
 .debug_abbrev  0x00002734       0xcf pinmux_table_47622.o
 .debug_abbrev  0x00002803      0x22e bp_funcs.o
 .debug_abbrev  0x00002a31      0x228 boardparms_voice.o
 .debug_abbrev  0x00002c59      0x132 shared_utils.o
 .debug_abbrev  0x00002d8b      0x496 bcm63xx_util.o
 .debug_abbrev  0x00003221      0x126 bcm63xx_auth.o
 .debug_abbrev  0x00003347      0x13c bcm63xx_ldr_raw.o
 .debug_abbrev  0x00003483      0x1b1 bcm63xx_ldr_elf.o
 .debug_abbrev  0x00003634      0x1ff bcm63xx_main.o
 .debug_abbrev  0x00003833      0x143 bcm63xx_env_subr.o
 .debug_abbrev  0x00003976      0x1c5 bcm63xx_httpd.o
 .debug_abbrev  0x00003b3b       0xf2 bcm63xx_httpd_web_var.o
 .debug_abbrev  0x00003c2d      0x2d6 bcm63xx_nvram.o
 .debug_abbrev  0x00003f03      0x162 bcm63xx_net_icmp.o
 .debug_abbrev  0x00004065       0xf2 bcm_ubi.o
 .debug_abbrev  0x00004157      0x1c0 bcmHsSpi.o
 .debug_abbrev  0x00004317      0x272 nandflash.o
 .debug_abbrev  0x00004589      0x278 spinandflash.o
 .debug_abbrev  0x00004801      0x3af pmc_drv.o
 .debug_abbrev  0x00004bb0      0x1e1 clk_rst.o
 .debug_abbrev  0x00004d91       0x49 ul.o
 .debug_abbrev  0x00004dda       0x49 ulinfo.o
 .debug_abbrev  0x00004e23      0x214 bcm63xx_dtb.o
 .debug_abbrev  0x00005037       0x12 bcm63xx_impl4_common.o
 .debug_abbrev  0x00005049      0x1b5 bcm63xx_impl2_smp.o
 .debug_abbrev  0x000051fe       0x12 47622_mmu_map.o
 .debug_abbrev  0x00005210       0xef bcm63xx_sotp_if.o
 .debug_abbrev  0x000052ff      0x195 sotp_base_funcs.o
 .debug_abbrev  0x00005494       0xcf bcm63xx_auth_if.o
 .debug_abbrev  0x00005563      0x1b4 bcm63xx_rsa.o
 .debug_abbrev  0x00005717      0x18c bcm63xx_sha.o
 .debug_abbrev  0x000058a3      0x1a0 ./libcfe.a(exchandler.o)
 .debug_abbrev  0x00005a43       0x12 ./libcfe.a(lib_setjmp.o)
 .debug_abbrev  0x00005a55       0x12 ./libcfe.a(armv7_l1cache.o)
 .debug_abbrev  0x00005a67       0x12 ./libcfe.a(armv7_cpuinit.o)
 .debug_abbrev  0x00005a79       0x12 ./libcfe.a(mmu_map.o)
 .debug_abbrev  0x00005a8b      0x1e3 ./libcfe.a(lib_malloc.o)
 .debug_abbrev  0x00005c6e      0x1a2 ./libcfe.a(lib_printf.o)
 .debug_abbrev  0x00005e10      0x11a ./libcfe.a(lib_queue.o)
 .debug_abbrev  0x00005f2a      0x17a ./libcfe.a(lib_string.o)
 .debug_abbrev  0x000060a4       0x9d ./libcfe.a(lib_crc.o)
 .debug_abbrev  0x00006141      0x18a ./libcfe.a(cfe_attach.o)
 .debug_abbrev  0x000062cb      0x1f2 ./libcfe.a(cfe_iocb_dispatch.o)
 .debug_abbrev  0x000064bd      0x115 ./libcfe.a(cfe_devfuncs.o)
 .debug_abbrev  0x000065d2      0x1b1 ./libcfe.a(cfe_console.o)
 .debug_abbrev  0x00006783       0xf4 ./libcfe.a(cfe_mem.o)
 .debug_abbrev  0x00006877       0xef ./libcfe.a(cfe_timer.o)
 .debug_abbrev  0x00006966       0xe6 ./libcfe.a(cfe_background.o)
 .debug_abbrev  0x00006a4c       0x3c ./libcfe.a(build_date.o)
 .debug_abbrev  0x00006a88      0x165 ./libcfe.a(cfe_filesys.o)
 .debug_abbrev  0x00006bed      0x261 ./libcfe.a(ui_command.o)
 .debug_abbrev  0x00006e4e      0x191 ./libcfe.a(ui_cmddisp.o)
 .debug_abbrev  0x00006fdf      0x15c ./libcfe.a(ui_tftpd.o)
 .debug_abbrev  0x0000713b      0x1a1 ./libcfe.a(ui_netcmds.o)
 .debug_abbrev  0x000072dc      0x1a2 ./libcfe.a(net_tftp.o)
 .debug_abbrev  0x0000747e      0x22e ./libcfe.a(net_ip.o)
 .debug_abbrev  0x000076ac      0x15e ./libcfe.a(net_dns.o)
 .debug_abbrev  0x0000780a      0x240 ./libcfe.a(net_arp.o)
 .debug_abbrev  0x00007a4a      0x226 ./libcfe.a(net_api.o)
 .debug_abbrev  0x00007c70      0x246 ./libcfe.a(net_tcp.o)
 .debug_abbrev  0x00007eb6      0x174 ./libcfe.a(net_tcpbuf.o)
 .debug_abbrev  0x0000802a      0x207 ./libcfe.a(net_nmrp.o)
 .debug_abbrev  0x00008231      0x113 ./libcfe.a(dcapi.o)
 .debug_abbrev  0x00008344      0x1c4 ./libcfe.a(fdt_ro.o)
 .debug_abbrev  0x00008508      0x1e3 ./libcfe.a(fdt_rw.o)
 .debug_abbrev  0x000086eb      0x188 ./libcfe.a(fdt_wip.o)
 .debug_abbrev  0x00008873       0x73 ./libcfe.a(arm_arena.o)
 .debug_abbrev  0x000088e6       0xc3 ./libcfe.a(armv7_arena.o)
 .debug_abbrev  0x000089a9       0xf3 ./libcfe.a(lib_string2.o)
 .debug_abbrev  0x00008a9c      0x17b ./libcfe.a(lib_arena.o)
 .debug_abbrev  0x00008c17      0x1fe ./libcfe.a(net_ether.o)
 .debug_abbrev  0x00008e15      0x1f7 ./libcfe.a(net_udp.o)
 .debug_abbrev  0x0000900c      0x107 ./libcfe.a(LzmaDecode.o)
 .debug_abbrev  0x00009113      0x108 ./libcfe.a(fdt.o)
 .debug_abbrev  0x0000921b       0x14 /opt/toolchains/crosstools-arm-gcc-5.5-linux-4.1-glibc-2.26-binutils-2.28.1/lib/gcc/arm-buildroot-linux-gnueabi/5.5.0/libgcc.a(_udivsi3.o)
 .debug_abbrev  0x0000922f       0x14 /opt/toolchains/crosstools-arm-gcc-5.5-linux-4.1-glibc-2.26-binutils-2.28.1/lib/gcc/arm-buildroot-linux-gnueabi/5.5.0/libgcc.a(_divsi3.o)
 .debug_abbrev  0x00009243       0x14 /opt/toolchains/crosstools-arm-gcc-5.5-linux-4.1-glibc-2.26-binutils-2.28.1/lib/gcc/arm-buildroot-linux-gnueabi/5.5.0/libgcc.a(_aeabi_uldivmod.o)
 .debug_abbrev  0x00009257       0x14 /opt/toolchains/crosstools-arm-gcc-5.5-linux-4.1-glibc-2.26-binutils-2.28.1/lib/gcc/arm-buildroot-linux-gnueabi/5.5.0/libgcc.a(_dvmd_lnx.o)
 .debug_abbrev  0x0000926b       0x96 /opt/toolchains/crosstools-arm-gcc-5.5-linux-4.1-glibc-2.26-binutils-2.28.1/lib/gcc/arm-buildroot-linux-gnueabi/5.5.0/libgcc.a(_udivmoddi4.o)
 .debug_abbrev  0x00009301       0x14 /opt/toolchains/crosstools-arm-gcc-5.5-linux-4.1-glibc-2.26-binutils-2.28.1/lib/gcc/arm-buildroot-linux-gnueabi/5.5.0/libgcc.a(_lshrdi3.o)
 .debug_abbrev  0x00009315       0x14 /opt/toolchains/crosstools-arm-gcc-5.5-linux-4.1-glibc-2.26-binutils-2.28.1/lib/gcc/arm-buildroot-linux-gnueabi/5.5.0/libgcc.a(_ashldi3.o)

.debug_aranges  0x00000000     0x3910
 .debug_aranges
                0x00000000       0x78 init_arm.o
 .debug_aranges
                0x00000078       0x60 exception.o
 .debug_aranges
                0x000000d8       0x28 secondary_entry.o
 .debug_aranges
                0x00000100       0x30 bcm63xx_common.o
 .debug_aranges
                0x00000130       0x40 bcm63xx_ipc.o
 .debug_aranges
                0x00000170       0x88 bcm63xx_sec.o
 .debug_aranges
                0x000001f8       0x60 dev_arm_pl011_uart.o
 .debug_aranges
                0x00000258       0x48 bcmSpiRes.o
 .debug_aranges
                0x000002a0       0x30 bcm_pinmux_impl1.o
 .debug_aranges
                0x000002d0       0x50 bcm_misc_hw_init_impl6.o
 .debug_aranges
                0x00000320       0x40 bcm_gpio_impl1.o
 .debug_aranges
                0x00000360       0x80 bcm_otp_impl1.o
 .debug_aranges
                0x000003e0       0x60 bcm_led_impl4.o
 .debug_aranges
                0x00000440       0xc0 dev_bcm63xx_eth_impl4.o
 .debug_aranges
                0x00000500       0x20 bcm_swled_impl2.o
 .debug_aranges
                0x00000520      0x100 bcm_ethsw_impl1.o
 .debug_aranges
                0x00000620       0x30 pmc_sysport.o
 .debug_aranges
                0x00000650       0x70 dev_bcm63xx_flash.o
 .debug_aranges
                0x000006c0       0x80 flash_api.o
 .debug_aranges
                0x00000740       0x38 flash_common.o
 .debug_aranges
                0x00000778       0xe0 bcm63xx_devs.o
 .debug_aranges
                0x00000858      0x130 bcm63xx_board.o
 .debug_aranges
                0x00000988      0x250 bcm63xx_cmd.o
 .debug_aranges
                0x00000bd8       0xc0 bcm63xx_blparms.o
 .debug_aranges
                0x00000c98       0x18 boardparms_47622.o
 .debug_aranges
                0x00000cb0       0x18 pinmux_table_47622.o
 .debug_aranges
                0x00000cc8      0x818 bp_funcs.o
 .debug_aranges
                0x000014e0       0x88 boardparms_voice.o
 .debug_aranges
                0x00001568       0x48 shared_utils.o
 .debug_aranges
                0x000015b0      0x300 bcm63xx_util.o
 .debug_aranges
                0x000018b0       0x28 bcm63xx_auth.o
 .debug_aranges
                0x000018d8       0x28 bcm63xx_ldr_raw.o
 .debug_aranges
                0x00001900       0x40 bcm63xx_ldr_elf.o
 .debug_aranges
                0x00001940       0x90 bcm63xx_main.o
 .debug_aranges
                0x000019d0       0x50 bcm63xx_env_subr.o
 .debug_aranges
                0x00001a20       0x88 bcm63xx_httpd.o
 .debug_aranges
                0x00001aa8       0x30 bcm63xx_httpd_web_var.o
 .debug_aranges
                0x00001ad8       0xc8 bcm63xx_nvram.o
 .debug_aranges
                0x00001ba0       0x38 bcm63xx_net_icmp.o
 .debug_aranges
                0x00001bd8       0x20 bcm_ubi.o
 .debug_aranges
                0x00001bf8       0x78 bcmHsSpi.o
 .debug_aranges
                0x00001c70      0x140 nandflash.o
 .debug_aranges
                0x00001db0      0x140 spinandflash.o
 .debug_aranges
                0x00001ef0      0x180 pmc_drv.o
 .debug_aranges
                0x00002070       0x48 clk_rst.o
 .debug_aranges
                0x000020b8       0x18 ul.o
 .debug_aranges
                0x000020d0       0x18 ulinfo.o
 .debug_aranges
                0x000020e8      0x140 bcm63xx_dtb.o
 .debug_aranges
                0x00002228       0x50 bcm63xx_impl4_common.o
 .debug_aranges
                0x00002278       0x28 bcm63xx_impl2_smp.o
 .debug_aranges
                0x000022a0       0x28 47622_mmu_map.o
 .debug_aranges
                0x000022c8       0x48 bcm63xx_sotp_if.o
 .debug_aranges
                0x00002310      0x110 sotp_base_funcs.o
 .debug_aranges
                0x00002420       0x30 bcm63xx_auth_if.o
 .debug_aranges
                0x00002450       0xb0 bcm63xx_rsa.o
 .debug_aranges
                0x00002500       0x58 bcm63xx_sha.o
 .debug_aranges
                0x00002558       0x58 ./libcfe.a(exchandler.o)
 .debug_aranges
                0x000025b0       0x28 ./libcfe.a(lib_setjmp.o)
 .debug_aranges
                0x000025d8       0x78 ./libcfe.a(armv7_l1cache.o)
 .debug_aranges
                0x00002650       0x70 ./libcfe.a(armv7_cpuinit.o)
 .debug_aranges
                0x000026c0       0x38 ./libcfe.a(mmu_map.o)
 .debug_aranges
                0x000026f8       0x68 ./libcfe.a(lib_malloc.o)
 .debug_aranges
                0x00002760       0x48 ./libcfe.a(lib_printf.o)
 .debug_aranges
                0x000027a8       0x48 ./libcfe.a(lib_queue.o)
 .debug_aranges
                0x000027f0       0xf8 ./libcfe.a(lib_string.o)
 .debug_aranges
                0x000028e8       0x20 ./libcfe.a(lib_crc.o)
 .debug_aranges
                0x00002908       0x50 ./libcfe.a(cfe_attach.o)
 .debug_aranges
                0x00002958       0xd0 ./libcfe.a(cfe_iocb_dispatch.o)
 .debug_aranges
                0x00002a28       0x88 ./libcfe.a(cfe_devfuncs.o)
 .debug_aranges
                0x00002ab0       0x68 ./libcfe.a(cfe_console.o)
 .debug_aranges
                0x00002b18       0x30 ./libcfe.a(cfe_mem.o)
 .debug_aranges
                0x00002b48       0x38 ./libcfe.a(cfe_timer.o)
 .debug_aranges
                0x00002b80       0x38 ./libcfe.a(cfe_background.o)
 .debug_aranges
                0x00002bb8       0x18 ./libcfe.a(build_date.o)
 .debug_aranges
                0x00002bd0       0x60 ./libcfe.a(cfe_filesys.o)
 .debug_aranges
                0x00002c30      0x108 ./libcfe.a(ui_command.o)
 .debug_aranges
                0x00002d38       0x60 ./libcfe.a(ui_cmddisp.o)
 .debug_aranges
                0x00002d98       0x38 ./libcfe.a(ui_tftpd.o)
 .debug_aranges
                0x00002dd0       0x68 ./libcfe.a(ui_netcmds.o)
 .debug_aranges
                0x00002e38       0x78 ./libcfe.a(net_tftp.o)
 .debug_aranges
                0x00002eb0       0x80 ./libcfe.a(net_ip.o)
 .debug_aranges
                0x00002f30       0x28 ./libcfe.a(net_dns.o)
 .debug_aranges
                0x00002f58       0xa0 ./libcfe.a(net_arp.o)
 .debug_aranges
                0x00002ff8      0x118 ./libcfe.a(net_api.o)
 .debug_aranges
                0x00003110       0xf8 ./libcfe.a(net_tcp.o)
 .debug_aranges
                0x00003208       0x50 ./libcfe.a(net_tcpbuf.o)
 .debug_aranges
                0x00003258       0x80 ./libcfe.a(net_nmrp.o)
 .debug_aranges
                0x000032d8       0x28 ./libcfe.a(dcapi.o)
 .debug_aranges
                0x00003300      0x128 ./libcfe.a(fdt_ro.o)
 .debug_aranges
                0x00003428      0x150 ./libcfe.a(fdt_rw.o)
 .debug_aranges
                0x00003578       0x60 ./libcfe.a(fdt_wip.o)
 .debug_aranges
                0x000035d8       0x20 ./libcfe.a(arm_arena.o)
 .debug_aranges
                0x000035f8       0x28 ./libcfe.a(armv7_arena.o)
 .debug_aranges
                0x00003620       0x30 ./libcfe.a(lib_string2.o)
 .debug_aranges
                0x00003650       0x40 ./libcfe.a(lib_arena.o)
 .debug_aranges
                0x00003690       0x98 ./libcfe.a(net_ether.o)
 .debug_aranges
                0x00003728       0x78 ./libcfe.a(net_udp.o)
 .debug_aranges
                0x000037a0       0x28 ./libcfe.a(LzmaDecode.o)
 .debug_aranges
                0x000037c8       0x68 ./libcfe.a(fdt.o)
 .debug_aranges
                0x00003830       0x20 /opt/toolchains/crosstools-arm-gcc-5.5-linux-4.1-glibc-2.26-binutils-2.28.1/lib/gcc/arm-buildroot-linux-gnueabi/5.5.0/libgcc.a(_udivsi3.o)
 .debug_aranges
                0x00003850       0x20 /opt/toolchains/crosstools-arm-gcc-5.5-linux-4.1-glibc-2.26-binutils-2.28.1/lib/gcc/arm-buildroot-linux-gnueabi/5.5.0/libgcc.a(_divsi3.o)
 .debug_aranges
                0x00003870       0x20 /opt/toolchains/crosstools-arm-gcc-5.5-linux-4.1-glibc-2.26-binutils-2.28.1/lib/gcc/arm-buildroot-linux-gnueabi/5.5.0/libgcc.a(_aeabi_uldivmod.o)
 .debug_aranges
                0x00003890       0x20 /opt/toolchains/crosstools-arm-gcc-5.5-linux-4.1-glibc-2.26-binutils-2.28.1/lib/gcc/arm-buildroot-linux-gnueabi/5.5.0/libgcc.a(_dvmd_lnx.o)
 .debug_aranges
                0x000038b0       0x20 /opt/toolchains/crosstools-arm-gcc-5.5-linux-4.1-glibc-2.26-binutils-2.28.1/lib/gcc/arm-buildroot-linux-gnueabi/5.5.0/libgcc.a(_udivmoddi4.o)
 .debug_aranges
                0x000038d0       0x20 /opt/toolchains/crosstools-arm-gcc-5.5-linux-4.1-glibc-2.26-binutils-2.28.1/lib/gcc/arm-buildroot-linux-gnueabi/5.5.0/libgcc.a(_lshrdi3.o)
 .debug_aranges
                0x000038f0       0x20 /opt/toolchains/crosstools-arm-gcc-5.5-linux-4.1-glibc-2.26-binutils-2.28.1/lib/gcc/arm-buildroot-linux-gnueabi/5.5.0/libgcc.a(_ashldi3.o)

.debug_ranges   0x00000000     0x3348
 .debug_ranges  0x00000000       0x70 init_arm.o
 .debug_ranges  0x00000070       0x58 exception.o
 .debug_ranges  0x000000c8       0x20 secondary_entry.o
 .debug_ranges  0x000000e8       0x20 bcm63xx_common.o
 .debug_ranges  0x00000108       0x30 bcm63xx_ipc.o
 .debug_ranges  0x00000138       0x78 bcm63xx_sec.o
 .debug_ranges  0x000001b0       0x50 dev_arm_pl011_uart.o
 .debug_ranges  0x00000200       0x38 bcmSpiRes.o
 .debug_ranges  0x00000238       0x20 bcm_pinmux_impl1.o
 .debug_ranges  0x00000258       0x40 bcm_misc_hw_init_impl6.o
 .debug_ranges  0x00000298       0x30 bcm_gpio_impl1.o
 .debug_ranges  0x000002c8       0x70 bcm_otp_impl1.o
 .debug_ranges  0x00000338       0x50 bcm_led_impl4.o
 .debug_ranges  0x00000388       0xb0 dev_bcm63xx_eth_impl4.o
 .debug_ranges  0x00000438       0x10 bcm_swled_impl2.o
 .debug_ranges  0x00000448       0xf0 bcm_ethsw_impl1.o
 .debug_ranges  0x00000538       0x20 pmc_sysport.o
 .debug_ranges  0x00000558       0x60 dev_bcm63xx_flash.o
 .debug_ranges  0x000005b8       0x70 flash_api.o
 .debug_ranges  0x00000628       0x28 flash_common.o
 .debug_ranges  0x00000650       0xd0 bcm63xx_devs.o
 .debug_ranges  0x00000720      0x120 bcm63xx_board.o
 .debug_ranges  0x00000840      0x2c0 bcm63xx_cmd.o
 .debug_ranges  0x00000b00       0xb0 bcm63xx_blparms.o
 .debug_ranges  0x00000bb0      0x808 bp_funcs.o
 .debug_ranges  0x000013b8       0x78 boardparms_voice.o
 .debug_ranges  0x00001430       0x38 shared_utils.o
 .debug_ranges  0x00001468      0x368 bcm63xx_util.o
 .debug_ranges  0x000017d0       0x18 bcm63xx_auth.o
 .debug_ranges  0x000017e8       0x18 bcm63xx_ldr_raw.o
 .debug_ranges  0x00001800       0x48 bcm63xx_ldr_elf.o
 .debug_ranges  0x00001848       0x80 bcm63xx_main.o
 .debug_ranges  0x000018c8       0x40 bcm63xx_env_subr.o
 .debug_ranges  0x00001908       0x78 bcm63xx_httpd.o
 .debug_ranges  0x00001980       0x20 bcm63xx_httpd_web_var.o
 .debug_ranges  0x000019a0       0xb8 bcm63xx_nvram.o
 .debug_ranges  0x00001a58       0x28 bcm63xx_net_icmp.o
 .debug_ranges  0x00001a80       0x10 bcm_ubi.o
 .debug_ranges  0x00001a90       0x68 bcmHsSpi.o
 .debug_ranges  0x00001af8      0x130 nandflash.o
 .debug_ranges  0x00001c28      0x130 spinandflash.o
 .debug_ranges  0x00001d58      0x170 pmc_drv.o
 .debug_ranges  0x00001ec8       0x38 clk_rst.o
 .debug_ranges  0x00001f00      0x130 bcm63xx_dtb.o
 .debug_ranges  0x00002030       0x48 bcm63xx_impl4_common.o
 .debug_ranges  0x00002078       0x18 bcm63xx_impl2_smp.o
 .debug_ranges  0x00002090       0x20 47622_mmu_map.o
 .debug_ranges  0x000020b0       0x38 bcm63xx_sotp_if.o
 .debug_ranges  0x000020e8      0x100 sotp_base_funcs.o
 .debug_ranges  0x000021e8       0x20 bcm63xx_auth_if.o
 .debug_ranges  0x00002208       0xa0 bcm63xx_rsa.o
 .debug_ranges  0x000022a8       0x48 bcm63xx_sha.o
 .debug_ranges  0x000022f0       0x48 ./libcfe.a(exchandler.o)
 .debug_ranges  0x00002338       0x20 ./libcfe.a(lib_setjmp.o)
 .debug_ranges  0x00002358       0x70 ./libcfe.a(armv7_l1cache.o)
 .debug_ranges  0x000023c8       0x68 ./libcfe.a(armv7_cpuinit.o)
 .debug_ranges  0x00002430       0x30 ./libcfe.a(mmu_map.o)
 .debug_ranges  0x00002460       0x58 ./libcfe.a(lib_malloc.o)
 .debug_ranges  0x000024b8       0x38 ./libcfe.a(lib_printf.o)
 .debug_ranges  0x000024f0       0x38 ./libcfe.a(lib_queue.o)
 .debug_ranges  0x00002528       0xe8 ./libcfe.a(lib_string.o)
 .debug_ranges  0x00002610       0x10 ./libcfe.a(lib_crc.o)
 .debug_ranges  0x00002620       0x40 ./libcfe.a(cfe_attach.o)
 .debug_ranges  0x00002660       0xc0 ./libcfe.a(cfe_iocb_dispatch.o)
 .debug_ranges  0x00002720       0x78 ./libcfe.a(cfe_devfuncs.o)
 .debug_ranges  0x00002798       0x58 ./libcfe.a(cfe_console.o)
 .debug_ranges  0x000027f0       0x20 ./libcfe.a(cfe_mem.o)
 .debug_ranges  0x00002810       0x28 ./libcfe.a(cfe_timer.o)
 .debug_ranges  0x00002838       0x28 ./libcfe.a(cfe_background.o)
 .debug_ranges  0x00002860       0x50 ./libcfe.a(cfe_filesys.o)
 .debug_ranges  0x000028b0       0xf8 ./libcfe.a(ui_command.o)
 .debug_ranges  0x000029a8       0x50 ./libcfe.a(ui_cmddisp.o)
 .debug_ranges  0x000029f8       0x28 ./libcfe.a(ui_tftpd.o)
 .debug_ranges  0x00002a20       0x58 ./libcfe.a(ui_netcmds.o)
 .debug_ranges  0x00002a78       0x68 ./libcfe.a(net_tftp.o)
 .debug_ranges  0x00002ae0       0x70 ./libcfe.a(net_ip.o)
 .debug_ranges  0x00002b50       0x18 ./libcfe.a(net_dns.o)
 .debug_ranges  0x00002b68       0x90 ./libcfe.a(net_arp.o)
 .debug_ranges  0x00002bf8      0x108 ./libcfe.a(net_api.o)
 .debug_ranges  0x00002d00       0xe8 ./libcfe.a(net_tcp.o)
 .debug_ranges  0x00002de8       0x40 ./libcfe.a(net_tcpbuf.o)
 .debug_ranges  0x00002e28       0x70 ./libcfe.a(net_nmrp.o)
 .debug_ranges  0x00002e98       0x18 ./libcfe.a(dcapi.o)
 .debug_ranges  0x00002eb0      0x118 ./libcfe.a(fdt_ro.o)
 .debug_ranges  0x00002fc8      0x140 ./libcfe.a(fdt_rw.o)
 .debug_ranges  0x00003108       0x50 ./libcfe.a(fdt_wip.o)
 .debug_ranges  0x00003158       0x10 ./libcfe.a(arm_arena.o)
 .debug_ranges  0x00003168       0x18 ./libcfe.a(armv7_arena.o)
 .debug_ranges  0x00003180       0x20 ./libcfe.a(lib_string2.o)
 .debug_ranges  0x000031a0       0x30 ./libcfe.a(lib_arena.o)
 .debug_ranges  0x000031d0       0x88 ./libcfe.a(net_ether.o)
 .debug_ranges  0x00003258       0x68 ./libcfe.a(net_udp.o)
 .debug_ranges  0x000032c0       0x30 ./libcfe.a(LzmaDecode.o)
 .debug_ranges  0x000032f0       0x58 ./libcfe.a(fdt.o)

.debug_loc      0x00000000    0x14568
 .debug_loc     0x00000000       0xa8 bcm63xx_common.o
 .debug_loc     0x000000a8      0x154 bcm63xx_ipc.o
 .debug_loc     0x000001fc      0x334 bcm63xx_sec.o
 .debug_loc     0x00000530      0x234 dev_arm_pl011_uart.o
 .debug_loc     0x00000764      0x150 bcmSpiRes.o
 .debug_loc     0x000008b4       0xb4 bcm_pinmux_impl1.o
 .debug_loc     0x00000968      0x1ac bcm_misc_hw_init_impl6.o
 .debug_loc     0x00000b14      0x148 bcm_gpio_impl1.o
 .debug_loc     0x00000c5c      0x2f0 bcm_otp_impl1.o
 .debug_loc     0x00000f4c      0x228 bcm_led_impl4.o
 .debug_loc     0x00001174      0x4bc dev_bcm63xx_eth_impl4.o
 .debug_loc     0x00001630       0x38 bcm_swled_impl2.o
 .debug_loc     0x00001668      0x634 bcm_ethsw_impl1.o
 .debug_loc     0x00001c9c       0x90 pmc_sysport.o
 .debug_loc     0x00001d2c      0x25c dev_bcm63xx_flash.o
 .debug_loc     0x00001f88      0x2d8 flash_api.o
 .debug_loc     0x00002260       0xe0 flash_common.o
 .debug_loc     0x00002340      0x548 bcm63xx_devs.o
 .debug_loc     0x00002888      0x7c0 bcm63xx_board.o
 .debug_loc     0x00003048      0xfb8 bcm63xx_cmd.o
 .debug_loc     0x00004000      0x4a4 bcm63xx_blparms.o
 .debug_loc     0x000044a4     0x38fc bp_funcs.o
 .debug_loc     0x00007da0      0x34c boardparms_voice.o
 .debug_loc     0x000080ec      0x174 shared_utils.o
 .debug_loc     0x00008260     0x14e8 bcm63xx_util.o
 .debug_loc     0x00009748       0x70 bcm63xx_auth.o
 .debug_loc     0x000097b8       0x70 bcm63xx_ldr_raw.o
 .debug_loc     0x00009828      0x118 bcm63xx_ldr_elf.o
 .debug_loc     0x00009940      0x354 bcm63xx_main.o
 .debug_loc     0x00009c94      0x194 bcm63xx_env_subr.o
 .debug_loc     0x00009e28      0x31c bcm63xx_httpd.o
 .debug_loc     0x0000a144       0xa8 bcm63xx_httpd_web_var.o
 .debug_loc     0x0000a1ec      0x4c4 bcm63xx_nvram.o
 .debug_loc     0x0000a6b0       0xec bcm63xx_net_icmp.o
 .debug_loc     0x0000a79c       0x38 bcm_ubi.o
 .debug_loc     0x0000a7d4      0x2d0 bcmHsSpi.o
 .debug_loc     0x0000aaa4      0x824 nandflash.o
 .debug_loc     0x0000b2c8      0x860 spinandflash.o
 .debug_loc     0x0000bb28      0xa44 pmc_drv.o
 .debug_loc     0x0000c56c      0x168 clk_rst.o
 .debug_loc     0x0000c6d4      0x854 bcm63xx_dtb.o
 .debug_loc     0x0000cf28       0x70 bcm63xx_impl2_smp.o
 .debug_loc     0x0000cf98      0x168 bcm63xx_sotp_if.o
 .debug_loc     0x0000d100      0x6ec sotp_base_funcs.o
 .debug_loc     0x0000d7ec       0x9c bcm63xx_auth_if.o
 .debug_loc     0x0000d888      0x488 bcm63xx_rsa.o
 .debug_loc     0x0000dd10      0x1e4 bcm63xx_sha.o
 .debug_loc     0x0000def4      0x1b4 ./libcfe.a(exchandler.o)
 .debug_loc     0x0000e0a8      0x26c ./libcfe.a(lib_malloc.o)
 .debug_loc     0x0000e314      0x198 ./libcfe.a(lib_printf.o)
 .debug_loc     0x0000e4ac      0x18c ./libcfe.a(lib_queue.o)
 .debug_loc     0x0000e638      0x704 ./libcfe.a(lib_string.o)
 .debug_loc     0x0000ed3c       0x44 ./libcfe.a(lib_crc.o)
 .debug_loc     0x0000ed80      0x1a0 ./libcfe.a(cfe_attach.o)
 .debug_loc     0x0000ef20      0x550 ./libcfe.a(cfe_iocb_dispatch.o)
 .debug_loc     0x0000f470      0x31c ./libcfe.a(cfe_devfuncs.o)
 .debug_loc     0x0000f78c      0x23c ./libcfe.a(cfe_console.o)
 .debug_loc     0x0000f9c8       0xc0 ./libcfe.a(cfe_mem.o)
 .debug_loc     0x0000fa88       0xd4 ./libcfe.a(cfe_timer.o)
 .debug_loc     0x0000fb5c       0xec ./libcfe.a(cfe_background.o)
 .debug_loc     0x0000fc48      0x1f8 ./libcfe.a(cfe_filesys.o)
 .debug_loc     0x0000fe40      0x6b4 ./libcfe.a(ui_command.o)
 .debug_loc     0x000104f4      0x210 ./libcfe.a(ui_cmddisp.o)
 .debug_loc     0x00010704       0xf8 ./libcfe.a(ui_tftpd.o)
 .debug_loc     0x000107fc      0x23c ./libcfe.a(ui_netcmds.o)
 .debug_loc     0x00010a38      0x2a0 ./libcfe.a(net_tftp.o)
 .debug_loc     0x00010cd8      0x308 ./libcfe.a(net_ip.o)
 .debug_loc     0x00010fe0       0x70 ./libcfe.a(net_dns.o)
 .debug_loc     0x00011050      0x3b8 ./libcfe.a(net_arp.o)
 .debug_loc     0x00011408      0x6dc ./libcfe.a(net_api.o)
 .debug_loc     0x00011ae4      0x650 ./libcfe.a(net_tcp.o)
 .debug_loc     0x00012134      0x194 ./libcfe.a(net_tcpbuf.o)
 .debug_loc     0x000122c8      0x2e4 ./libcfe.a(net_nmrp.o)
 .debug_loc     0x000125ac       0x7c ./libcfe.a(dcapi.o)
 .debug_loc     0x00012628      0x788 ./libcfe.a(fdt_ro.o)
 .debug_loc     0x00012db0      0x8a0 ./libcfe.a(fdt_rw.o)
 .debug_loc     0x00013650      0x204 ./libcfe.a(fdt_wip.o)
 .debug_loc     0x00013854       0x44 ./libcfe.a(arm_arena.o)
 .debug_loc     0x00013898       0x7c ./libcfe.a(armv7_arena.o)
 .debug_loc     0x00013914       0xa8 ./libcfe.a(lib_string2.o)
 .debug_loc     0x000139bc      0x124 ./libcfe.a(lib_arena.o)
 .debug_loc     0x00013ae0      0x3a4 ./libcfe.a(net_ether.o)
 .debug_loc     0x00013e84      0x2b8 ./libcfe.a(net_udp.o)
 .debug_loc     0x0001413c       0x88 ./libcfe.a(LzmaDecode.o)
 .debug_loc     0x000141c4      0x23c ./libcfe.a(fdt.o)
 .debug_loc     0x00014400      0x168 /opt/toolchains/crosstools-arm-gcc-5.5-linux-4.1-glibc-2.26-binutils-2.28.1/lib/gcc/arm-buildroot-linux-gnueabi/5.5.0/libgcc.a(_udivmoddi4.o)

.debug_str      0x00000000    0x14bec
 .debug_str     0x00000000      0x275 bcm63xx_common.o
                                0x2b4 (size before relaxing)
 .debug_str     0x00000275      0x162 bcm63xx_ipc.o
                                0x367 (size before relaxing)
 .debug_str     0x000003d7      0x76c bcm63xx_sec.o
                                0x9e9 (size before relaxing)
 .debug_str     0x00000b43      0x3cd dev_arm_pl011_uart.o
                                0x674 (size before relaxing)
 .debug_str     0x00000f10      0x1b2 bcmSpiRes.o
                                0x3b0 (size before relaxing)
 .debug_str     0x000010c2      0x178 bcm_pinmux_impl1.o
                                0x3a1 (size before relaxing)
 .debug_str     0x0000123a      0x3a5 bcm_misc_hw_init_impl6.o
                                0x753 (size before relaxing)
 .debug_str     0x000015df       0xa6 bcm_gpio_impl1.o
                                0x38c (size before relaxing)
 .debug_str     0x00001685      0x249 bcm_otp_impl1.o
                                0x48b (size before relaxing)
 .debug_str     0x000018ce      0x250 bcm_led_impl4.o
                                0x492 (size before relaxing)
 .debug_str     0x00001b1e     0x11e0 dev_bcm63xx_eth_impl4.o
                               0x174f (size before relaxing)
 .debug_str     0x00002cfe     0x2e4c bcm_swled_impl2.o
                               0x4105 (size before relaxing)
 .debug_str     0x00005b4a      0x399 bcm_ethsw_impl1.o
                                0xc1b (size before relaxing)
 .debug_str     0x00005ee3      0x56d pmc_sysport.o
                                0x7be (size before relaxing)
 .debug_str     0x00006450      0x668 dev_bcm63xx_flash.o
                                0x923 (size before relaxing)
 .debug_str     0x00006ab8      0xae1 flash_api.o
                                0xe92 (size before relaxing)
 .debug_str     0x00007599      0x17f flash_common.o
                                0x7d8 (size before relaxing)
 .debug_str     0x00007718      0x63f bcm63xx_devs.o
                                0xdf8 (size before relaxing)
 .debug_str     0x00007d57      0x64f bcm63xx_board.o
                                0xbbd (size before relaxing)
 .debug_str     0x000083a6     0x11fd bcm63xx_cmd.o
                               0x1b1a (size before relaxing)
 .debug_str     0x000095a3      0x2ad bcm63xx_blparms.o
                                0x853 (size before relaxing)
 .debug_str     0x00009850      0x1a0 boardparms_47622.o
                               0x1c98 (size before relaxing)
 .debug_str     0x000099f0       0xeb pinmux_table_47622.o
                               0x1bd2 (size before relaxing)
 .debug_str     0x00009adb     0x1a73 bp_funcs.o
                               0x39f1 (size before relaxing)
 .debug_str     0x0000b54e     0x1098 boardparms_voice.o
                               0x2c98 (size before relaxing)
 .debug_str     0x0000c5e6       0xa4 shared_utils.o
                                0x428 (size before relaxing)
 .debug_str     0x0000c68a     0x116d bcm63xx_util.o
                               0x2b36 (size before relaxing)
 .debug_str     0x0000d7f7       0xa7 bcm63xx_auth.o
                                0x43c (size before relaxing)
 .debug_str     0x0000d89e      0x129 bcm63xx_ldr_raw.o
                                0x427 (size before relaxing)
 .debug_str     0x0000d9c7      0x24d bcm63xx_ldr_elf.o
                                0x642 (size before relaxing)
 .debug_str     0x0000dc14      0x187 bcm63xx_main.o
                                0x553 (size before relaxing)
 .debug_str     0x0000dd9b       0xa5 bcm63xx_env_subr.o
                                0x35d (size before relaxing)
 .debug_str     0x0000de40      0x3c9 bcm63xx_httpd.o
                                0x7db (size before relaxing)
 .debug_str     0x0000e209      0x100 bcm63xx_httpd_web_var.o
                                0x32a (size before relaxing)
 .debug_str     0x0000e309      0x22b bcm63xx_nvram.o
                                0x82c (size before relaxing)
 .debug_str     0x0000e534      0x137 bcm63xx_net_icmp.o
                                0x3f8 (size before relaxing)
 .debug_str     0x0000e66b       0xd0 bcm_ubi.o
                                0x395 (size before relaxing)
 .debug_str     0x0000e73b      0x283 bcmHsSpi.o
                                0x5b9 (size before relaxing)
 .debug_str     0x0000e9be      0x75e nandflash.o
                               0x1583 (size before relaxing)
 .debug_str     0x0000f11c      0x5c4 spinandflash.o
                                0xbcf (size before relaxing)
 .debug_str     0x0000f6e0      0xeab pmc_drv.o
                               0x1a46 (size before relaxing)
 .debug_str     0x0001058b       0xdd clk_rst.o
                                0x754 (size before relaxing)
 .debug_str     0x00010668        0x5 ul.o
                                0x19d (size before relaxing)
 .debug_str     0x0001066d        0x9 ulinfo.o
                                0x1a9 (size before relaxing)
 .debug_str     0x00010676      0x429 bcm63xx_dtb.o
                                0x8c4 (size before relaxing)
 .debug_str     0x00010a9f      0x16c bcm63xx_impl2_smp.o
                                0xac3 (size before relaxing)
 .debug_str     0x00010c0b       0xeb bcm63xx_sotp_if.o
                                0x38e (size before relaxing)
 .debug_str     0x00010cf6      0x46f sotp_base_funcs.o
                                0x993 (size before relaxing)
 .debug_str     0x00011165      0x136 bcm63xx_auth_if.o
                                0x34a (size before relaxing)
 .debug_str     0x0001129b      0x2ad bcm63xx_rsa.o
                                0x5de (size before relaxing)
 .debug_str     0x00011548       0xc7 bcm63xx_sha.o
                                0x2f4 (size before relaxing)
 .debug_str     0x0001160f      0x156 ./libcfe.a(exchandler.o)
                                0x45b (size before relaxing)
 .debug_str     0x00011765       0xd8 ./libcfe.a(lib_malloc.o)
                                0x40a (size before relaxing)
 .debug_str     0x0001183d       0xcb ./libcfe.a(lib_printf.o)
                                0x37b (size before relaxing)
 .debug_str     0x00011908       0x56 ./libcfe.a(lib_queue.o)
                                0x267 (size before relaxing)
 .debug_str     0x0001195e      0x13c ./libcfe.a(lib_string.o)
                                0x367 (size before relaxing)
 .debug_str     0x00011a9a       0x35 ./libcfe.a(lib_crc.o)
                                0x23b (size before relaxing)
 .debug_str     0x00011acf       0x9a ./libcfe.a(cfe_attach.o)
                                0x556 (size before relaxing)
 .debug_str     0x00011b69      0x4ac ./libcfe.a(cfe_iocb_dispatch.o)
                                0x978 (size before relaxing)
 .debug_str     0x00012015       0xd6 ./libcfe.a(cfe_devfuncs.o)
                                0x62f (size before relaxing)
 .debug_str     0x000120eb       0xd5 ./libcfe.a(cfe_console.o)
                                0x362 (size before relaxing)
 .debug_str     0x000121c0       0xe5 ./libcfe.a(cfe_mem.o)
                                0x35c (size before relaxing)
 .debug_str     0x000122a5      0x125 ./libcfe.a(cfe_timer.o)
                                0x36f (size before relaxing)
 .debug_str     0x000123ca       0x6f ./libcfe.a(cfe_background.o)
                                0x272 (size before relaxing)
 .debug_str     0x00012439       0x30 ./libcfe.a(build_date.o)
                                0x1b5 (size before relaxing)
 .debug_str     0x00012469       0xa2 ./libcfe.a(cfe_filesys.o)
                                0x3d4 (size before relaxing)
 .debug_str     0x0001250b      0x2d7 ./libcfe.a(ui_command.o)
                                0x63e (size before relaxing)
 .debug_str     0x000127e2       0xc3 ./libcfe.a(ui_cmddisp.o)
                                0x44c (size before relaxing)
 .debug_str     0x000128a5       0x5a ./libcfe.a(ui_tftpd.o)
                                0x2d5 (size before relaxing)
 .debug_str     0x000128ff      0x118 ./libcfe.a(ui_netcmds.o)
                                0x415 (size before relaxing)
 .debug_str     0x00012a17      0x1c1 ./libcfe.a(net_tftp.o)
                                0x5a5 (size before relaxing)
 .debug_str     0x00012bd8      0x2a4 ./libcfe.a(net_ip.o)
                                0x5f0 (size before relaxing)
 .debug_str     0x00012e7c       0x5f ./libcfe.a(net_dns.o)
                                0x323 (size before relaxing)
 .debug_str     0x00012edb      0x164 ./libcfe.a(net_arp.o)
                                0x64c (size before relaxing)
 .debug_str     0x0001303f       0xf4 ./libcfe.a(net_api.o)
                                0x734 (size before relaxing)
 .debug_str     0x00013133      0x3f5 ./libcfe.a(net_tcp.o)
                                0x958 (size before relaxing)
 .debug_str     0x00013528       0x69 ./libcfe.a(net_tcpbuf.o)
                                0x362 (size before relaxing)
 .debug_str     0x00013591      0x69d ./libcfe.a(net_nmrp.o)
                                0xbf8 (size before relaxing)
 .debug_str     0x00013c2e       0x9b ./libcfe.a(dcapi.o)
                                0x36a (size before relaxing)
 .debug_str     0x00013cc9      0x358 ./libcfe.a(fdt_ro.o)
                                0x683 (size before relaxing)
 .debug_str     0x00014021      0x333 ./libcfe.a(fdt_rw.o)
                                0x6c5 (size before relaxing)
 .debug_str     0x00014354       0x89 ./libcfe.a(fdt_wip.o)
                                0x328 (size before relaxing)
 .debug_str     0x000143dd       0x67 ./libcfe.a(arm_arena.o)
                                0x2ae (size before relaxing)
 .debug_str     0x00014444       0x70 ./libcfe.a(armv7_arena.o)
                                0x2d1 (size before relaxing)
 .debug_str     0x000144b4       0x4c ./libcfe.a(lib_string2.o)
                                0x2d3 (size before relaxing)
 .debug_str     0x00014500       0x8f ./libcfe.a(lib_arena.o)
                                0x3d0 (size before relaxing)
 .debug_str     0x0001458f      0x162 ./libcfe.a(net_ether.o)
                                0x4dc (size before relaxing)
 .debug_str     0x000146f1      0x131 ./libcfe.a(net_udp.o)
                                0x4c4 (size before relaxing)
 .debug_str     0x00014822      0x15a ./libcfe.a(LzmaDecode.o)
                                0x382 (size before relaxing)
 .debug_str     0x0001497c       0x98 ./libcfe.a(fdt.o)
                                0x394 (size before relaxing)
 .debug_str     0x00014a14      0x1d8 /opt/toolchains/crosstools-arm-gcc-5.5-linux-4.1-glibc-2.26-binutils-2.28.1/lib/gcc/arm-buildroot-linux-gnueabi/5.5.0/libgcc.a(_udivmoddi4.o)
                                0x277 (size before relaxing)

.debug_frame    0x00000000     0xbcfc
 .debug_frame   0x00000000       0x6c bcm63xx_common.o
 .debug_frame   0x0000006c       0xb0 bcm63xx_ipc.o
 .debug_frame   0x0000011c      0x1c4 bcm63xx_sec.o
 .debug_frame   0x000002e0      0x130 dev_arm_pl011_uart.o
 .debug_frame   0x00000410       0xd0 bcmSpiRes.o
 .debug_frame   0x000004e0       0x74 bcm_pinmux_impl1.o
 .debug_frame   0x00000554       0xf0 bcm_misc_hw_init_impl6.o
 .debug_frame   0x00000644       0xb0 bcm_gpio_impl1.o
 .debug_frame   0x000006f4      0x1b0 bcm_otp_impl1.o
 .debug_frame   0x000008a4      0x134 bcm_led_impl4.o
 .debug_frame   0x000009d8      0x2b4 dev_bcm63xx_eth_impl4.o
 .debug_frame   0x00000c8c       0x34 bcm_swled_impl2.o
 .debug_frame   0x00000cc0      0x3ac bcm_ethsw_impl1.o
 .debug_frame   0x0000106c       0x68 pmc_sysport.o
 .debug_frame   0x000010d4      0x180 dev_bcm63xx_flash.o
 .debug_frame   0x00001254      0x1b4 flash_api.o
 .debug_frame   0x00001408       0x94 flash_common.o
 .debug_frame   0x0000149c      0x314 bcm63xx_devs.o
 .debug_frame   0x000017b0      0x490 bcm63xx_board.o
 .debug_frame   0x00001c40      0x95c bcm63xx_cmd.o
 .debug_frame   0x0000259c      0x2ac bcm63xx_blparms.o
 .debug_frame   0x00002848     0x2038 bp_funcs.o
 .debug_frame   0x00004880      0x1d4 boardparms_voice.o
 .debug_frame   0x00004a54       0xcc shared_utils.o
 .debug_frame   0x00004b20      0xbf4 bcm63xx_util.o
 .debug_frame   0x00005714       0x58 bcm63xx_auth.o
 .debug_frame   0x0000576c       0x54 bcm63xx_ldr_raw.o
 .debug_frame   0x000057c0       0xb4 bcm63xx_ldr_elf.o
 .debug_frame   0x00005874      0x1e4 bcm63xx_main.o
 .debug_frame   0x00005a58       0xf0 bcm63xx_env_subr.o
 .debug_frame   0x00005b48      0x1e0 bcm63xx_httpd.o
 .debug_frame   0x00005d28       0x78 bcm63xx_httpd_web_var.o
 .debug_frame   0x00005da0      0x2e0 bcm63xx_nvram.o
 .debug_frame   0x00006080       0x94 bcm63xx_net_icmp.o
 .debug_frame   0x00006114       0x34 bcm_ubi.o
 .debug_frame   0x00006148      0x190 bcmHsSpi.o
 .debug_frame   0x000062d8      0x4c4 nandflash.o
 .debug_frame   0x0000679c      0x4c8 spinandflash.o
 .debug_frame   0x00006c64      0x5b8 pmc_drv.o
 .debug_frame   0x0000721c       0xdc clk_rst.o
 .debug_frame   0x000072f8      0x4d4 bcm63xx_dtb.o
 .debug_frame   0x000077cc       0x50 bcm63xx_impl2_smp.o
 .debug_frame   0x0000781c       0xd0 bcm63xx_sotp_if.o
 .debug_frame   0x000078ec      0x418 sotp_base_funcs.o
 .debug_frame   0x00007d04       0x6c bcm63xx_auth_if.o
 .debug_frame   0x00007d70      0x27c bcm63xx_rsa.o
 .debug_frame   0x00007fec      0x118 bcm63xx_sha.o
 .debug_frame   0x00008104      0x110 ./libcfe.a(exchandler.o)
 .debug_frame   0x00008214      0x158 ./libcfe.a(lib_malloc.o)
 .debug_frame   0x0000836c      0x108 ./libcfe.a(lib_printf.o)
 .debug_frame   0x00008474       0xd0 ./libcfe.a(lib_queue.o)
 .debug_frame   0x00008544      0x390 ./libcfe.a(lib_string.o)
 .debug_frame   0x000088d4       0x30 ./libcfe.a(lib_crc.o)
 .debug_frame   0x00008904       0xf0 ./libcfe.a(cfe_attach.o)
 .debug_frame   0x000089f4      0x2f0 ./libcfe.a(cfe_iocb_dispatch.o)
 .debug_frame   0x00008ce4      0x1d0 ./libcfe.a(cfe_devfuncs.o)
 .debug_frame   0x00008eb4      0x164 ./libcfe.a(cfe_console.o)
 .debug_frame   0x00009018       0x78 ./libcfe.a(cfe_mem.o)
 .debug_frame   0x00009090       0x90 ./libcfe.a(cfe_timer.o)
 .debug_frame   0x00009120       0x8c ./libcfe.a(cfe_background.o)
 .debug_frame   0x000091ac      0x134 ./libcfe.a(cfe_filesys.o)
 .debug_frame   0x000092e0      0x3e8 ./libcfe.a(ui_command.o)
 .debug_frame   0x000096c8      0x140 ./libcfe.a(ui_cmddisp.o)
 .debug_frame   0x00009808       0x90 ./libcfe.a(ui_tftpd.o)
 .debug_frame   0x00009898      0x160 ./libcfe.a(ui_netcmds.o)
 .debug_frame   0x000099f8      0x1a4 ./libcfe.a(net_tftp.o)
 .debug_frame   0x00009b9c      0x1bc ./libcfe.a(net_ip.o)
 .debug_frame   0x00009d58       0x54 ./libcfe.a(net_dns.o)
 .debug_frame   0x00009dac      0x23c ./libcfe.a(net_arp.o)
 .debug_frame   0x00009fe8      0x40c ./libcfe.a(net_api.o)
 .debug_frame   0x0000a3f4      0x3ac ./libcfe.a(net_tcp.o)
 .debug_frame   0x0000a7a0       0xf0 ./libcfe.a(net_tcpbuf.o)
 .debug_frame   0x0000a890      0x1c0 ./libcfe.a(net_nmrp.o)
 .debug_frame   0x0000aa50       0x54 ./libcfe.a(dcapi.o)
 .debug_frame   0x0000aaa4      0x464 ./libcfe.a(fdt_ro.o)
 .debug_frame   0x0000af08      0x524 ./libcfe.a(fdt_rw.o)
 .debug_frame   0x0000b42c      0x130 ./libcfe.a(fdt_wip.o)
 .debug_frame   0x0000b55c       0x30 ./libcfe.a(arm_arena.o)
 .debug_frame   0x0000b58c       0x54 ./libcfe.a(armv7_arena.o)
 .debug_frame   0x0000b5e0       0x70 ./libcfe.a(lib_string2.o)
 .debug_frame   0x0000b650       0xb8 ./libcfe.a(lib_arena.o)
 .debug_frame   0x0000b708      0x210 ./libcfe.a(net_ether.o)
 .debug_frame   0x0000b918      0x198 ./libcfe.a(net_udp.o)
 .debug_frame   0x0000bab0       0x54 ./libcfe.a(LzmaDecode.o)
 .debug_frame   0x0000bb04      0x154 ./libcfe.a(fdt.o)
 .debug_frame   0x0000bc58       0x20 /opt/toolchains/crosstools-arm-gcc-5.5-linux-4.1-glibc-2.26-binutils-2.28.1/lib/gcc/arm-buildroot-linux-gnueabi/5.5.0/libgcc.a(_udivsi3.o)
 .debug_frame   0x0000bc78       0x20 /opt/toolchains/crosstools-arm-gcc-5.5-linux-4.1-glibc-2.26-binutils-2.28.1/lib/gcc/arm-buildroot-linux-gnueabi/5.5.0/libgcc.a(_divsi3.o)
 .debug_frame   0x0000bc98       0x2c /opt/toolchains/crosstools-arm-gcc-5.5-linux-4.1-glibc-2.26-binutils-2.28.1/lib/gcc/arm-buildroot-linux-gnueabi/5.5.0/libgcc.a(_aeabi_uldivmod.o)
 .debug_frame   0x0000bcc4       0x38 /opt/toolchains/crosstools-arm-gcc-5.5-linux-4.1-glibc-2.26-binutils-2.28.1/lib/gcc/arm-buildroot-linux-gnueabi/5.5.0/libgcc.a(_udivmoddi4.o)
